
/home/inouema/work/LEON/linux/snapgear-2.6-p42/romfs/lib/ld-linux.so.2:     ファイル形式 elf32-sparc

セクション .text の逆アセンブル:

00002080 <_start-0x60>:
    2080:	00 00 2c a4 	unimp  0x2ca4
    2084:	00 00 30 74 	unimp  0x3074
    2088:	00 00 12 90 	unimp  0x1290
    208c:	00 00 30 30 	unimp  0x3030
    2090:	00 00 2f ec 	unimp  0x2fec
    2094:	00 00 2f a4 	unimp  0x2fa4
    2098:	00 00 2f 54 	unimp  0x2f54
    209c:	00 00 2f 04 	unimp  0x2f04
    20a0:	00 00 2e c8 	unimp  0x2ec8
    20a4:	00 00 2e 04 	unimp  0x2e04
    20a8:	00 00 2d a4 	unimp  0x2da4
    20ac:	00 00 12 90 	unimp  0x1290
    20b0:	00 00 2d 54 	unimp  0x2d54
    20b4:	00 00 12 90 	unimp  0x1290
    20b8:	00 00 12 90 	unimp  0x1290
    20bc:	00 00 12 90 	unimp  0x1290
    20c0:	00 00 2d 2c 	unimp  0x2d2c
    20c4:	01 00 00 00 	nop 
    20c8:	01 00 00 00 	nop 
    20cc:	01 00 00 00 	nop 
    20d0:	01 00 00 00 	nop 
    20d4:	01 00 00 00 	nop 
    20d8:	01 00 00 00 	nop 
    20dc:	01 00 00 00 	nop 

000020e0 <_start>:
_start():
    20e0:	9c 23 a0 18 	sub  %sp, 0x18, %sp
    20e4:	40 00 01 e2 	call  286c <_dl_start>
    20e8:	90 03 a0 58 	add  %sp, 0x58, %o0

000020ec <_dl_start_user>:
_dl_start_user():
    20ec:	40 00 00 02 	call  20f4 <_dl_start_user+0x8>
    20f0:	2f 00 00 b7 	sethi  %hi(0x2dc00), %l7
    20f4:	ae 15 e3 14 	or  %l7, 0x314, %l7	! 2df14 <dummy_bucket.4+0xfcb0>
    20f8:	ae 05 c0 0f 	add  %l7, %o7, %l7
    20fc:	a0 10 00 08 	mov  %o0, %l0
    2100:	05 00 00 01 	sethi  %hi(0x400), %g2
    2104:	84 10 a3 b4 	or  %g2, 0x3b4, %g2	! 7b4 <GLIBC_2.0+0x7b4>
    2108:	f0 05 c0 02 	ld  [ %l7 + %g2 ], %i0
    210c:	f0 06 00 00 	ld  [ %i0 ], %i0
    2110:	80 96 00 00 	tst  %i0
    2114:	02 80 00 21 	be  2198 <_dl_start_user+0xac>
    2118:	fa 03 a0 58 	ld  [ %sp + 0x58 ], %i5
    211c:	27 00 00 01 	sethi  %hi(0x400), %l3
    2120:	a6 14 e3 cc 	or  %l3, 0x3cc, %l3	! 7cc <GLIBC_2.0+0x7cc>
    2124:	e6 05 c0 13 	ld  [ %l7 + %l3 ], %l3
    2128:	ba 27 40 18 	sub  %i5, %i0, %i5
    212c:	e8 04 c0 00 	ld  [ %l3 ], %l4
    2130:	b5 2e 20 02 	sll  %i0, 2, %i2
    2134:	fa 23 a0 58 	st  %i5, [ %sp + 0x58 ]
    2138:	a8 25 00 1a 	sub  %l4, %i2, %l4
    213c:	b2 03 a0 5c 	add  %sp, 0x5c, %i1
    2140:	b4 06 40 1a 	add  %i1, %i2, %i2
    2144:	e8 24 c0 00 	st  %l4, [ %l3 ]
    2148:	f6 06 80 00 	ld  [ %i2 ], %i3
    214c:	b4 06 a0 04 	add  %i2, 4, %i2
    2150:	80 96 c0 00 	tst  %i3
    2154:	f6 26 40 00 	st  %i3, [ %i1 ]
    2158:	12 bf ff fc 	bne  2148 <_dl_start_user+0x5c>
    215c:	b2 06 60 04 	add  %i1, 4, %i1
    2160:	f6 06 80 00 	ld  [ %i2 ], %i3
    2164:	b4 06 a0 04 	add  %i2, 4, %i2
    2168:	80 96 c0 00 	tst  %i3
    216c:	f6 26 40 00 	st  %i3, [ %i1 ]
    2170:	12 bf ff fc 	bne  2160 <_dl_start_user+0x74>
    2174:	b2 06 60 04 	add  %i1, 4, %i1
    2178:	f6 06 80 00 	ld  [ %i2 ], %i3
    217c:	f8 06 a0 04 	ld  [ %i2 + 4 ], %i4
    2180:	b4 06 a0 08 	add  %i2, 8, %i2
    2184:	80 96 c0 00 	tst  %i3
    2188:	f6 26 40 00 	st  %i3, [ %i1 ]
    218c:	f8 26 60 04 	st  %i4, [ %i1 + 4 ]
    2190:	12 bf ff fa 	bne  2178 <_dl_start_user+0x8c>
    2194:	b2 06 60 08 	add  %i1, 8, %i1
    2198:	11 00 00 01 	sethi  %hi(0x400), %o0
    219c:	94 03 a0 5c 	add  %sp, 0x5c, %o2
    21a0:	90 92 23 b8 	orcc  %o0, 0x3b8, %o0
    21a4:	97 2f 60 02 	sll  %i5, 2, %o3
    21a8:	d0 05 c0 08 	ld  [ %l7 + %o0 ], %o0
    21ac:	96 02 e0 04 	add  %o3, 4, %o3
    21b0:	92 10 00 1d 	mov  %i5, %o1
    21b4:	96 02 80 0b 	add  %o2, %o3, %o3
    21b8:	40 00 35 c3 	call  f8c4 <_dl_init>
    21bc:	d0 02 00 00 	ld  [ %o0 ], %o0
    21c0:	03 00 00 01 	sethi  %hi(0x400), %g1
    21c4:	82 10 63 9c 	or  %g1, 0x39c, %g1	! 79c <GLIBC_2.0+0x79c>
    21c8:	c2 05 c0 01 	ld  [ %l7 + %g1 ], %g1
    21cc:	81 c4 00 00 	jmp  %l0
    21d0:	9c 03 a0 18 	add  %sp, 0x18, %sp

000021d4 <relocate_doit>:
relocate_doit():
    21d4:	82 10 00 08 	mov  %o0, %g1
    21d8:	d0 02 00 00 	ld  [ %o0 ], %o0
    21dc:	d4 00 60 04 	ld  [ %g1 + 4 ], %o2
    21e0:	d2 02 21 d4 	ld  [ %o0 + 0x1d4 ], %o1
    21e4:	96 10 20 00 	clr  %o3
    21e8:	82 13 c0 00 	mov  %o7, %g1
    21ec:	10 80 2a 23 	b  ca78 <_dl_relocate_object>
    21f0:	01 00 00 00 	nop 
    21f4:	01 00 00 00 	nop 

000021f8 <map_doit>:
map_doit():
    21f8:	9d e3 bf 88 	save  %sp, -120, %sp
    21fc:	c0 23 a0 5c 	clr  [ %sp + 0x5c ]
    2200:	d0 06 20 04 	ld  [ %i0 + 4 ], %o0
    2204:	d2 06 00 00 	ld  [ %i0 ], %o1
    2208:	d4 06 20 08 	ld  [ %i0 + 8 ], %o2
    220c:	96 10 20 01 	mov  1, %o3
    2210:	98 10 20 00 	clr  %o4
    2214:	40 00 1d e5 	call  99a8 <_dl_map_object>
    2218:	da 06 20 0c 	ld  [ %i0 + 0xc ], %o5
    221c:	d0 26 20 10 	st  %o0, [ %i0 + 0x10 ]
    2220:	81 c7 e0 08 	ret 
    2224:	81 e8 00 00 	restore 
    2228:	81 c3 e0 08 	retl 
    222c:	ae 03 c0 17 	add  %o7, %l7, %l7

00002230 <dlmopen_doit>:
dlmopen_doit():
    2230:	9d e3 bf 88 	save  %sp, -120, %sp
    2234:	03 00 00 01 	sethi  %hi(0x400), %g1
    2238:	2f 00 00 b7 	sethi  %hi(0x2dc00), %l7
    223c:	7f ff ff fb 	call  2228 <map_doit+0x30>
    2240:	ae 05 e1 c4 	add  %l7, 0x1c4, %l7	! 2ddc4 <dummy_bucket.4+0xfb60>
    2244:	82 10 63 ac 	or  %g1, 0x3ac, %g1
    2248:	da 05 c0 01 	ld  [ %l7 + %g1 ], %o5
    224c:	05 00 00 01 	sethi  %hi(0x400), %g2
    2250:	07 00 00 01 	sethi  %hi(0x400), %g3
    2254:	c2 03 40 00 	ld  [ %o5 ], %g1
    2258:	84 10 a3 c0 	or  %g2, 0x3c0, %g2
    225c:	86 10 e3 c4 	or  %g3, 0x3c4, %g3
    2260:	d6 05 c0 02 	ld  [ %l7 + %g2 ], %o3
    2264:	d0 05 c0 03 	ld  [ %l7 + %g3 ], %o0
    2268:	c2 23 a0 5c 	st  %g1, [ %sp + 0x5c ]
    226c:	09 00 00 00 	sethi  %hi(0), %g4
    2270:	88 11 20 10 	or  %g4, 0x10, %g4	! 10 <GLIBC_2.0+0x10>
    2274:	d8 02 c0 00 	ld  [ %o3 ], %o4
    2278:	da 02 00 00 	ld  [ %o0 ], %o5
    227c:	13 22 00 00 	sethi  %hi(0x88000000), %o1
    2280:	92 12 60 01 	or  %o1, 1, %o1	! 88000001 <_end+0x87fcf079>
    2284:	d4 05 c0 04 	ld  [ %l7 + %g4 ], %o2
    2288:	d0 06 00 00 	ld  [ %i0 ], %o0
    228c:	40 00 47 7d 	call  14080 <_dl_open>
    2290:	96 10 3f ff 	mov  -1, %o3
    2294:	d0 26 20 04 	st  %o0, [ %i0 + 4 ]
    2298:	81 c7 e0 08 	ret 
    229c:	81 e8 00 00 	restore 

000022a0 <lookup_doit>:
lookup_doit():
    22a0:	9d e3 bf 80 	save  %sp, -128, %sp
    22a4:	d2 06 20 04 	ld  [ %i0 + 4 ], %o1
    22a8:	82 10 20 02 	mov  2, %g1
    22ac:	c2 23 a0 5c 	st  %g1, [ %sp + 0x5c ]
    22b0:	c0 27 bf ec 	clr  [ %fp + -20 ]
    22b4:	c0 26 20 08 	clr  [ %i0 + 8 ]
    22b8:	c0 23 a0 60 	clr  [ %sp + 0x60 ]
    22bc:	d0 06 00 00 	ld  [ %i0 ], %o0
    22c0:	94 07 bf ec 	add  %fp, -20, %o2
    22c4:	96 02 61 d8 	add  %o1, 0x1d8, %o3
    22c8:	98 10 20 00 	clr  %o4
    22cc:	40 00 24 c2 	call  b5d4 <_dl_lookup_symbol_x>
    22d0:	9a 10 20 00 	clr  %o5
    22d4:	84 10 00 08 	mov  %o0, %g2
    22d8:	d0 07 bf ec 	ld  [ %fp + -20 ], %o0
    22dc:	80 a2 20 00 	cmp  %o0, 0
    22e0:	02 80 00 0a 	be  2308 <lookup_doit+0x68>
    22e4:	80 a0 a0 00 	cmp  %g2, 0
    22e8:	22 80 00 07 	be,a   2304 <lookup_doit+0x64>
    22ec:	c4 02 20 04 	ld  [ %o0 + 4 ], %g2
    22f0:	c4 00 80 00 	ld  [ %g2 ], %g2
    22f4:	c2 02 20 04 	ld  [ %o0 + 4 ], %g1
    22f8:	84 00 80 01 	add  %g2, %g1, %g2
    22fc:	10 80 00 03 	b  2308 <lookup_doit+0x68>
    2300:	c4 26 20 08 	st  %g2, [ %i0 + 8 ]
    2304:	c4 26 20 08 	st  %g2, [ %i0 + 8 ]
    2308:	81 c7 e0 08 	ret 
    230c:	81 e8 00 00 	restore 

00002310 <version_check_doit>:
version_check_doit():
    2310:	9d e3 bf 90 	save  %sp, -112, %sp
    2314:	03 00 00 01 	sethi  %hi(0x400), %g1
    2318:	2f 00 00 b7 	sethi  %hi(0x2dc00), %l7
    231c:	7f ff ff c3 	call  2228 <map_doit+0x30>
    2320:	ae 05 e0 e4 	add  %l7, 0xe4, %l7	! 2dce4 <dummy_bucket.4+0xfa80>
    2324:	82 10 63 b8 	or  %g1, 0x3b8, %g1
    2328:	c4 05 c0 01 	ld  [ %l7 + %g1 ], %g2
    232c:	d0 00 80 00 	ld  [ %g2 ], %o0
    2330:	92 10 20 01 	mov  1, %o1
    2334:	40 00 3b 4e 	call  1106c <_dl_check_all_versions>
    2338:	d4 06 20 04 	ld  [ %i0 + 4 ], %o2
    233c:	80 a2 20 00 	cmp  %o0, 0
    2340:	02 80 00 08 	be  2360 <version_check_doit+0x50>
    2344:	01 00 00 00 	nop 
    2348:	c2 06 00 00 	ld  [ %i0 ], %g1
    234c:	80 a0 60 00 	cmp  %g1, 0
    2350:	02 80 00 04 	be  2360 <version_check_doit+0x50>
    2354:	b0 10 20 01 	mov  1, %i0
    2358:	10 80 54 4b 	b  17484 <_Exit>
    235c:	81 e8 00 00 	restore 
    2360:	01 00 00 00 	nop 
    2364:	81 c7 e0 08 	ret 
    2368:	81 e8 00 00 	restore 

0000236c <init_tls>:
init_tls():
    236c:	9d e3 bf 90 	save  %sp, -112, %sp
    2370:	03 00 00 01 	sethi  %hi(0x400), %g1
    2374:	2f 00 00 b7 	sethi  %hi(0x2dc00), %l7
    2378:	7f ff ff ac 	call  2228 <map_doit+0x30>
    237c:	ae 05 e0 88 	add  %l7, 0x88, %l7	! 2dc88 <dummy_bucket.4+0xfa24>
    2380:	82 10 63 b8 	or  %g1, 0x3b8, %g1
    2384:	e2 05 c0 01 	ld  [ %l7 + %g1 ], %l1
    2388:	e0 04 65 d8 	ld  [ %l1 + 0x5d8 ], %l0
    238c:	c2 04 65 f4 	ld  [ %l1 + 0x5f4 ], %g1
    2390:	80 a0 60 00 	cmp  %g1, 0
    2394:	e0 24 65 e4 	st  %l0, [ %l1 + 0x5e4 ]
    2398:	25 00 00 01 	sethi  %hi(0x400), %l2
    239c:	12 80 00 54 	bne  24ec <init_tls+0x180>
    23a0:	b0 10 20 00 	clr  %i0
    23a4:	a0 04 20 3f 	add  %l0, 0x3f, %l0
    23a8:	91 2c 20 03 	sll  %l0, 3, %o0
    23ac:	90 02 20 08 	add  %o0, 8, %o0
    23b0:	40 00 b9 2a 	call  30858 <calloc@plt>
    23b4:	92 10 20 01 	mov  1, %o1
    23b8:	c2 04 60 2c 	ld  [ %l1 + 0x2c ], %g1
    23bc:	d0 24 65 e0 	st  %o0, [ %l1 + 0x5e0 ]
    23c0:	e0 22 00 00 	st  %l0, [ %o0 ]
    23c4:	80 a0 60 00 	cmp  %g1, 0
    23c8:	12 80 00 3e 	bne  24c0 <init_tls+0x154>
    23cc:	c0 22 20 04 	clr  [ %o0 + 4 ]
    23d0:	c4 04 40 00 	ld  [ %l1 ], %g2
    23d4:	80 a0 a0 00 	cmp  %g2, 0
    23d8:	02 80 00 0e 	be  2410 <init_tls+0xa4>
    23dc:	88 10 20 00 	clr  %g4
    23e0:	90 02 20 0c 	add  %o0, 0xc, %o0
    23e4:	c2 00 a2 30 	ld  [ %g2 + 0x230 ], %g1
    23e8:	80 a0 60 00 	cmp  %g1, 0
    23ec:	22 80 00 06 	be,a   2404 <init_tls+0x98>
    23f0:	c4 00 a0 0c 	ld  [ %g2 + 0xc ], %g2
    23f4:	c4 22 00 00 	st  %g2, [ %o0 ]
    23f8:	88 01 20 01 	inc  %g4
    23fc:	90 02 20 08 	add  %o0, 8, %o0
    2400:	c4 00 a0 0c 	ld  [ %g2 + 0xc ], %g2
    2404:	80 a0 a0 00 	cmp  %g2, 0
    2408:	32 bf ff f8 	bne,a   23e8 <init_tls+0x7c>
    240c:	c2 00 a2 30 	ld  [ %g2 + 0x230 ], %g1
    2410:	82 14 a3 b8 	or  %l2, 0x3b8, %g1
    2414:	c4 05 c0 01 	ld  [ %l7 + %g1 ], %g2
    2418:	c6 00 a5 d8 	ld  [ %g2 + 0x5d8 ], %g3
    241c:	80 a1 00 03 	cmp  %g4, %g3
    2420:	12 80 00 1d 	bne  2494 <init_tls+0x128>
    2424:	03 00 00 00 	sethi  %hi(0), %g1
    2428:	40 00 3f e0 	call  123a8 <_dl_determine_tlsoffset>
    242c:	01 00 00 00 	nop 
    2430:	40 00 40 cb 	call  1275c <_dl_allocate_tls_storage>
    2434:	01 00 00 00 	nop 
    2438:	80 a2 20 00 	cmp  %o0, 0
    243c:	02 80 00 0d 	be  2470 <init_tls+0x104>
    2440:	82 14 a3 b8 	or  %l2, 0x3b8, %g1
    2444:	c6 05 c0 01 	ld  [ %l7 + %g1 ], %g3
    2448:	c4 02 20 04 	ld  [ %o0 + 4 ], %g2
    244c:	c4 20 e5 f4 	st  %g2, [ %g3 + 0x5f4 ]
    2450:	8e 10 00 08 	mov  %o0, %g7
    2454:	03 00 00 00 	sethi  %hi(0), %g1
    2458:	82 10 60 20 	or  %g1, 0x20, %g1	! 20 <GLIBC_2.0+0x20>
    245c:	c6 05 c0 01 	ld  [ %l7 + %g1 ], %g3
    2460:	84 10 20 01 	mov  1, %g2
    2464:	c4 28 c0 00 	stb  %g2, [ %g3 ]
    2468:	10 80 00 21 	b  24ec <init_tls+0x180>
    246c:	b0 10 00 08 	mov  %o0, %i0
    2470:	21 00 00 00 	sethi  %hi(0), %l0
    2474:	82 14 20 84 	or  %l0, 0x84, %g1	! 84 <GLIBC_2.0+0x84>
    2478:	d2 05 c0 01 	ld  [ %l7 + %g1 ], %o1
    247c:	40 00 38 be 	call  10774 <_dl_dprintf>
    2480:	90 10 20 02 	mov  2, %o0
    2484:	40 00 54 00 	call  17484 <_Exit>
    2488:	90 10 20 7f 	mov  0x7f, %o0
    248c:	10 bf ff fb 	b  2478 <init_tls+0x10c>
    2490:	82 14 20 84 	or  %l0, 0x84, %g1
    2494:	05 00 00 00 	sethi  %hi(0), %g2
    2498:	07 00 00 00 	sethi  %hi(0), %g3
    249c:	82 10 60 80 	or  %g1, 0x80, %g1
    24a0:	84 10 a0 88 	or  %g2, 0x88, %g2
    24a4:	86 10 e0 1c 	or  %g3, 0x1c, %g3
    24a8:	d0 05 c0 01 	ld  [ %l7 + %g1 ], %o0
    24ac:	d2 05 c0 02 	ld  [ %l7 + %g2 ], %o1
    24b0:	d6 05 c0 03 	ld  [ %l7 + %g3 ], %o3
    24b4:	94 10 22 ec 	mov  0x2ec, %o2
    24b8:	40 00 4f 77 	call  16294 <__GI___assert_fail>
    24bc:	01 00 00 00 	nop 
    24c0:	03 00 00 00 	sethi  %hi(0), %g1
    24c4:	05 00 00 00 	sethi  %hi(0), %g2
    24c8:	07 00 00 00 	sethi  %hi(0), %g3
    24cc:	82 10 60 8c 	or  %g1, 0x8c, %g1
    24d0:	84 10 a0 88 	or  %g2, 0x88, %g2
    24d4:	86 10 e0 1c 	or  %g3, 0x1c, %g3
    24d8:	d0 05 c0 01 	ld  [ %l7 + %g1 ], %o0
    24dc:	d2 05 c0 02 	ld  [ %l7 + %g2 ], %o1
    24e0:	d6 05 c0 03 	ld  [ %l7 + %g3 ], %o3
    24e4:	10 bf ff f5 	b  24b8 <init_tls+0x14c>
    24e8:	94 10 22 e0 	mov  0x2e0, %o2
    24ec:	81 c7 e0 08 	ret 
    24f0:	81 e8 00 00 	restore 

000024f4 <_dl_initial_error_catch_tsd>:
_dl_initial_error_catch_tsd():
    24f4:	9d e3 bf 90 	save  %sp, -112, %sp
    24f8:	03 00 00 00 	sethi  %hi(0), %g1
    24fc:	2f 00 00 b6 	sethi  %hi(0x2d800), %l7
    2500:	7f ff ff 4a 	call  2228 <map_doit+0x30>
    2504:	ae 05 e3 00 	add  %l7, 0x300, %l7	! 2db00 <dummy_bucket.4+0xf89c>
    2508:	82 10 60 24 	or  %g1, 0x24, %g1
    250c:	f0 05 c0 01 	ld  [ %l7 + %g1 ], %i0
    2510:	81 c7 e0 08 	ret 
    2514:	81 e8 00 00 	restore 

00002518 <do_preload>:
do_preload():
    2518:	9d e3 bf 68 	save  %sp, -152, %sp
    251c:	03 00 00 01 	sethi  %hi(0x400), %g1
    2520:	2f 00 00 b6 	sethi  %hi(0x2d800), %l7
    2524:	7f ff ff 41 	call  2228 <map_doit+0x30>
    2528:	ae 05 e2 dc 	add  %l7, 0x2dc, %l7	! 2dadc <dummy_bucket.4+0xf878>
    252c:	82 10 63 b8 	or  %g1, 0x3b8, %g1
    2530:	e0 05 c0 01 	ld  [ %l7 + %g1 ], %l0
    2534:	82 10 20 01 	mov  1, %g1
    2538:	05 00 00 00 	sethi  %hi(0), %g2
    253c:	84 10 a0 08 	or  %g2, 8, %g2	! 8 <GLIBC_2.0+0x8>
    2540:	c2 27 bf e0 	st  %g1, [ %fp + -32 ]
    2544:	f2 27 bf dc 	st  %i1, [ %fp + -36 ]
    2548:	c0 27 bf e4 	clr  [ %fp + -28 ]
    254c:	d6 05 c0 02 	ld  [ %l7 + %g2 ], %o3
    2550:	f0 27 bf d8 	st  %i0, [ %fp + -40 ]
    2554:	94 07 bf cf 	add  %fp, -49, %o2
    2558:	c0 27 bf d0 	clr  [ %fp + -48 ]
    255c:	f2 04 20 04 	ld  [ %l0 + 4 ], %i1
    2560:	92 07 bf d0 	add  %fp, -48, %o1
    2564:	98 07 bf d8 	add  %fp, -40, %o4
    2568:	40 00 34 2b 	call  f614 <_dl_catch_error>
    256c:	90 07 bf d4 	add  %fp, -44, %o0
    2570:	05 00 00 00 	sethi  %hi(0), %g2
    2574:	94 10 00 18 	mov  %i0, %o2
    2578:	c2 07 bf d0 	ld  [ %fp + -48 ], %g1
    257c:	84 10 a0 90 	or  %g2, 0x90, %g2
    2580:	b0 10 20 01 	mov  1, %i0
    2584:	90 10 20 02 	mov  2, %o0
    2588:	80 a0 60 00 	cmp  %g1, 0
    258c:	12 80 00 08 	bne  25ac <do_preload+0x94>
    2590:	96 10 00 1a 	mov  %i2, %o3
    2594:	c2 04 20 04 	ld  [ %l0 + 4 ], %g1
    2598:	80 a0 40 19 	cmp  %g1, %i1
    259c:	12 80 00 07 	bne  25b8 <do_preload+0xa0>
    25a0:	01 00 00 00 	nop 
    25a4:	10 80 00 05 	b  25b8 <do_preload+0xa0>
    25a8:	b0 10 20 00 	clr  %i0	! 0 <GLIBC_2.0>
    25ac:	40 00 38 72 	call  10774 <_dl_dprintf>
    25b0:	d2 05 c0 02 	ld  [ %l7 + %g2 ], %o1
    25b4:	b0 10 20 00 	clr  %i0
    25b8:	81 c7 e0 08 	ret 
    25bc:	81 e8 00 00 	restore 

000025c0 <rtld_lock_default_lock_recursive>:
rtld_lock_default_lock_recursive():
    25c0:	c2 02 20 04 	ld  [ %o0 + 4 ], %g1
    25c4:	82 00 60 01 	inc  %g1
    25c8:	81 c3 e0 08 	retl 
    25cc:	c2 22 20 04 	st  %g1, [ %o0 + 4 ]

000025d0 <rtld_lock_default_unlock_recursive>:
rtld_lock_default_unlock_recursive():
    25d0:	c2 02 20 04 	ld  [ %o0 + 4 ], %g1
    25d4:	82 00 7f ff 	add  %g1, -1, %g1
    25d8:	81 c3 e0 08 	retl 
    25dc:	c2 22 20 04 	st  %g1, [ %o0 + 4 ]

000025e0 <process_dl_audit>:
process_dl_audit():
    25e0:	9d e3 bf 90 	save  %sp, -112, %sp
    25e4:	03 00 00 00 	sethi  %hi(0), %g1
    25e8:	2f 00 00 b6 	sethi  %hi(0x2d800), %l7
    25ec:	7f ff ff 0f 	call  2228 <map_doit+0x30>
    25f0:	ae 05 e2 14 	add  %l7, 0x214, %l7	! 2da14 <dummy_bucket.4+0xf7b0>
    25f4:	82 10 60 30 	or  %g1, 0x30, %g1
    25f8:	21 00 00 00 	sethi  %hi(0), %l0
    25fc:	25 00 00 01 	sethi  %hi(0x400), %l2
    2600:	f0 27 a0 44 	st  %i0, [ %fp + 0x44 ]
    2604:	a0 14 20 94 	or  %l0, 0x94, %l0
    2608:	a4 14 a3 a4 	or  %l2, 0x3a4, %l2
    260c:	10 80 00 1d 	b  2680 <process_dl_audit+0xa0>
    2610:	e2 05 c0 01 	ld  [ %l7 + %g1 ], %l1
    2614:	80 a0 60 00 	cmp  %g1, 0
    2618:	22 80 00 1b 	be,a   2684 <process_dl_audit+0xa4>
    261c:	d2 05 c0 10 	ld  [ %l7 + %l0 ], %o1
    2620:	c4 05 c0 12 	ld  [ %l7 + %l2 ], %g2
    2624:	c2 00 80 00 	ld  [ %g2 ], %g1
    2628:	80 a0 60 00 	cmp  %g1, 0
    262c:	12 80 00 10 	bne  266c <process_dl_audit+0x8c>
    2630:	92 10 20 2f 	mov  0x2f, %o1
    2634:	40 00 b8 86 	call  3084c <malloc@plt>
    2638:	90 10 20 08 	mov  8, %o0
    263c:	c4 04 40 00 	ld  [ %l1 ], %g2
    2640:	80 a0 a0 00 	cmp  %g2, 0
    2644:	12 80 00 05 	bne  2658 <process_dl_audit+0x78>
    2648:	f0 22 00 00 	st  %i0, [ %o0 ]
    264c:	d0 24 40 00 	st  %o0, [ %l1 ]
    2650:	10 80 00 0c 	b  2680 <process_dl_audit+0xa0>
    2654:	d0 22 20 04 	st  %o0, [ %o0 + 4 ]
    2658:	c2 00 a0 04 	ld  [ %g2 + 4 ], %g1
    265c:	c2 22 20 04 	st  %g1, [ %o0 + 4 ]
    2660:	d0 20 a0 04 	st  %o0, [ %g2 + 4 ]
    2664:	10 80 00 07 	b  2680 <process_dl_audit+0xa0>
    2668:	d0 24 40 00 	st  %o0, [ %l1 ]
    266c:	40 00 54 6e 	call  17824 <index>
    2670:	01 00 00 00 	nop 
    2674:	80 a2 20 00 	cmp  %o0, 0
    2678:	02 bf ff ef 	be  2634 <process_dl_audit+0x54>
    267c:	01 00 00 00 	nop 
    2680:	d2 05 c0 10 	ld  [ %l7 + %l0 ], %o1
    2684:	40 00 50 ae 	call  1693c <__strsep>
    2688:	90 07 a0 44 	add  %fp, 0x44, %o0
    268c:	b0 92 20 00 	orcc  %o0, 0, %i0
    2690:	32 bf ff e1 	bne,a   2614 <process_dl_audit+0x34>
    2694:	c2 4e 00 00 	ldsb  [ %i0 ], %g1
    2698:	81 c7 e0 08 	ret 
    269c:	81 e8 00 00 	restore 

000026a0 <print_statistics>:
print_statistics():
    26a0:	9d e3 bf 90 	save  %sp, -112, %sp
    26a4:	1b 00 00 01 	sethi  %hi(0x400), %o5
    26a8:	2f 00 00 b6 	sethi  %hi(0x2d800), %l7
    26ac:	7f ff fe df 	call  2228 <map_doit+0x30>
    26b0:	ae 05 e1 54 	add  %l7, 0x154, %l7	! 2d954 <dummy_bucket.4+0xf6f0>
    26b4:	82 13 63 b8 	or  %o5, 0x3b8, %g1
    26b8:	f0 05 c0 01 	ld  [ %l7 + %g1 ], %i0
    26bc:	b6 10 20 00 	clr  %i3
    26c0:	10 80 00 06 	b  26d8 <print_statistics+0x38>
    26c4:	9e 06 22 94 	add  %i0, 0x294, %o7
    26c8:	b0 06 20 2c 	add  %i0, 0x2c, %i0
    26cc:	80 a6 00 0f 	cmp  %i0, %o7
    26d0:	14 80 00 25 	bg  2764 <print_statistics+0xc4>
    26d4:	82 13 63 b8 	or  %o5, 0x3b8, %g1
    26d8:	c2 06 00 00 	ld  [ %i0 ], %g1
    26dc:	80 a0 60 00 	cmp  %g1, 0
    26e0:	22 bf ff fb 	be,a   26cc <print_statistics+0x2c>
    26e4:	b0 06 20 2c 	add  %i0, 0x2c, %i0
    26e8:	f4 00 61 68 	ld  [ %g1 + 0x168 ], %i2
    26ec:	80 a6 a0 00 	cmp  %i2, 0
    26f0:	08 bf ff f6 	bleu  26c8 <print_statistics+0x28>
    26f4:	88 10 20 00 	clr  %g4
    26f8:	10 80 00 0f 	b  2734 <print_statistics+0x94>
    26fc:	f2 00 61 64 	ld  [ %g1 + 0x164 ], %i1
    2700:	80 a0 60 00 	cmp  %g1, 0
    2704:	02 80 00 04 	be  2714 <print_statistics+0x74>
    2708:	c4 00 e0 c8 	ld  [ %g3 + 0xc8 ], %g2
    270c:	c2 00 60 04 	ld  [ %g1 + 4 ], %g1
    2710:	b6 06 c0 01 	add  %i3, %g1, %i3
    2714:	80 a0 a0 00 	cmp  %g2, 0
    2718:	02 80 00 04 	be  2728 <print_statistics+0x88>
    271c:	88 01 20 01 	inc  %g4
    2720:	c2 00 a0 04 	ld  [ %g2 + 4 ], %g1
    2724:	b6 06 c0 01 	add  %i3, %g1, %i3
    2728:	80 a6 80 04 	cmp  %i2, %g4
    272c:	28 bf ff e8 	bleu,a   26cc <print_statistics+0x2c>
    2730:	b0 06 20 2c 	add  %i0, 0x2c, %i0
    2734:	83 29 20 02 	sll  %g4, 2, %g1
    2738:	c6 06 40 01 	ld  [ %i1 + %g1 ], %g3
    273c:	c4 00 c0 00 	ld  [ %g3 ], %g2
    2740:	80 a0 a0 00 	cmp  %g2, 0
    2744:	32 bf ff ef 	bne,a   2700 <print_statistics+0x60>
    2748:	c2 00 e0 c4 	ld  [ %g3 + 0xc4 ], %g1
    274c:	c2 00 e1 24 	ld  [ %g3 + 0x124 ], %g1
    2750:	80 a0 60 00 	cmp  %g1, 0
    2754:	32 bf ff f5 	bne,a   2728 <print_statistics+0x88>
    2758:	88 01 20 01 	inc  %g4
    275c:	10 bf ff ee 	b  2714 <print_statistics+0x74>
    2760:	c4 00 e0 c8 	ld  [ %g3 + 0xc8 ], %g2
    2764:	05 00 00 00 	sethi  %hi(0), %g2
    2768:	c6 05 c0 01 	ld  [ %l7 + %g1 ], %g3
    276c:	84 10 a0 98 	or  %g2, 0x98, %g2
    2770:	f0 05 c0 02 	ld  [ %l7 + %g2 ], %i0
    2774:	f4 00 e2 ec 	ld  [ %g3 + 0x2ec ], %i2
    2778:	f2 00 e2 e8 	ld  [ %g3 + 0x2e8 ], %i1
    277c:	10 80 37 d6 	b  106d4 <_dl_debug_printf>
    2780:	81 e8 00 00 	restore 
    2784:	01 00 00 00 	nop 

00002788 <_dl_start_final>:
_dl_start_final():
    2788:	9d e3 bf 90 	save  %sp, -112, %sp
    278c:	03 00 00 01 	sethi  %hi(0x400), %g1
    2790:	2f 00 00 b6 	sethi  %hi(0x2d800), %l7
    2794:	7f ff fe a5 	call  2228 <map_doit+0x30>
    2798:	ae 05 e0 6c 	add  %l7, 0x6c, %l7	! 2d86c <dummy_bucket.4+0xf608>
    279c:	82 10 63 b8 	or  %g1, 0x3b8, %g1
    27a0:	e0 05 c0 01 	ld  [ %l7 + %g1 ], %l0
    27a4:	c4 06 40 00 	ld  [ %i1 ], %g2
    27a8:	c2 06 60 08 	ld  [ %i1 + 8 ], %g1
    27ac:	92 06 60 20 	add  %i1, 0x20, %o1
    27b0:	94 10 21 38 	mov  0x138, %o2
    27b4:	c4 24 22 f8 	st  %g2, [ %l0 + 0x2f8 ]
    27b8:	c2 24 23 00 	st  %g1, [ %l0 + 0x300 ]
    27bc:	40 00 59 e3 	call  18f48 <memcpy>
    27c0:	90 04 23 18 	add  %l0, 0x318, %o0
    27c4:	c2 04 24 8c 	ld  [ %l0 + 0x48c ], %g1
    27c8:	05 08 00 00 	sethi  %hi(0x20000000), %g2
    27cc:	82 10 40 02 	or  %g1, %g2, %g1
    27d0:	a2 04 22 f8 	add  %l0, 0x2f8, %l1
    27d4:	c2 24 24 8c 	st  %g1, [ %l0 + 0x48c ]
    27d8:	40 00 23 44 	call  b4e8 <_dl_setup_hash>
    27dc:	90 10 00 11 	mov  %l1, %o0
    27e0:	03 00 00 01 	sethi  %hi(0x400), %g1
    27e4:	05 00 00 01 	sethi  %hi(0x400), %g2
    27e8:	82 10 63 e8 	or  %g1, 0x3e8, %g1
    27ec:	84 10 a3 f0 	or  %g2, 0x3f0, %g2
    27f0:	07 00 00 01 	sethi  %hi(0x400), %g3
    27f4:	09 00 00 01 	sethi  %hi(0x400), %g4
    27f8:	86 10 e3 94 	or  %g3, 0x394, %g3
    27fc:	d8 05 c0 01 	ld  [ %l7 + %g1 ], %o4
    2800:	d6 05 c0 02 	ld  [ %l7 + %g2 ], %o3
    2804:	88 11 23 b0 	or  %g4, 0x3b0, %g4
    2808:	1b 00 00 00 	sethi  %hi(0), %o5
    280c:	c2 05 c0 03 	ld  [ %l7 + %g3 ], %g1
    2810:	c4 05 c0 04 	ld  [ %l7 + %g4 ], %g2
    2814:	9a 13 60 10 	or  %o5, 0x10, %o5
    2818:	90 10 00 18 	mov  %i0, %o0
    281c:	c2 24 24 b4 	st  %g1, [ %l0 + 0x4b4 ]
    2820:	fc 20 80 00 	st  %fp, [ %g2 ]
    2824:	e2 24 23 0c 	st  %l1, [ %l0 + 0x30c ]
    2828:	d8 24 24 ac 	st  %o4, [ %l0 + 0x4ac ]
    282c:	d6 24 24 b0 	st  %o3, [ %l0 + 0x4b0 ]
    2830:	40 00 4b 35 	call  15504 <_dl_sysdep_start>
    2834:	d2 05 c0 0d 	ld  [ %l7 + %o5 ], %o1
    2838:	03 00 00 01 	sethi  %hi(0x400), %g1
    283c:	82 10 63 dc 	or  %g1, 0x3dc, %g1	! 7dc <GLIBC_2.0+0x7dc>
    2840:	c4 05 c0 01 	ld  [ %l7 + %g1 ], %g2
    2844:	b0 10 00 08 	mov  %o0, %i0
    2848:	c6 00 80 00 	ld  [ %g2 ], %g3
    284c:	80 88 e0 80 	btst  0x80, %g3
    2850:	02 80 00 04 	be  2860 <_dl_start_final+0xd8>
    2854:	90 10 20 00 	clr  %o0
    2858:	7f ff ff 92 	call  26a0 <print_statistics>
    285c:	01 00 00 00 	nop 
    2860:	01 00 00 00 	nop 
    2864:	81 c7 e0 08 	ret 
    2868:	81 e8 00 00 	restore 

0000286c <_dl_start>:
_dl_start():
    286c:	9d e3 bd 18 	save  %sp, -744, %sp
    2870:	a8 07 bf f0 	add  %fp, -16, %l4
    2874:	84 07 bd c0 	add  %fp, -576, %g2
    2878:	82 10 20 4d 	mov  0x4d, %g1
    287c:	2f 00 00 b5 	sethi  %hi(0x2d400), %l7
    2880:	7f ff fe 6a 	call  2228 <map_doit+0x30>
    2884:	ae 05 e3 80 	add  %l7, 0x380, %l7	! 2d780 <dummy_bucket.4+0xf51c>
    2888:	c0 20 80 00 	clr  [ %g2 ]
    288c:	82 80 7f ff 	addcc  %g1, -1, %g1
    2890:	1c bf ff fe 	bpos  2888 <_dl_start+0x1c>
    2894:	84 00 a0 04 	add  %g2, 4, %g2
    2898:	2f 00 00 b5 	sethi  %hi(0x2d400), %l7
    289c:	40 00 00 04 	call  28ac <_dl_start+0x40>
    28a0:	ae 05 e3 64 	add  %l7, 0x364, %l7	! 2d764 <dummy_bucket.4+0xf500>
    28a4:	40 00 b5 aa 	call  2ff4c <_DYNAMIC>
    28a8:	40 00 b5 d6 	call  30000 <_GLOBAL_OFFSET_TABLE_>
    28ac:	ae 05 c0 0f 	add  %l7, %o7, %l7
    28b0:	c2 03 e0 0c 	ld  [ %o7 + 0xc ], %g1
    28b4:	c4 03 e0 08 	ld  [ %o7 + 8 ], %g2
    28b8:	c6 05 c0 00 	ld  [ %l7 ], %g3
    28bc:	84 20 80 01 	sub  %g2, %g1, %g2
    28c0:	82 25 c0 03 	sub  %l7, %g3, %g1
    28c4:	85 28 a0 02 	sll  %g2, 2, %g2
    28c8:	82 00 40 02 	add  %g1, %g2, %g1
    28cc:	94 00 7f fc 	add  %g1, -4, %o2
    28d0:	d4 27 bd a0 	st  %o2, [ %fp + -608 ]
    28d4:	2f 00 00 b5 	sethi  %hi(0x2d400), %l7
    28d8:	40 00 00 02 	call  28e0 <_dl_start+0x74>
    28dc:	ae 05 e3 28 	add  %l7, 0x328, %l7	! 2d728 <dummy_bucket.4+0xf4c4>
    28e0:	ae 05 c0 0f 	add  %l7, %o7, %l7
    28e4:	c2 05 c0 00 	ld  [ %l7 ], %g1
    28e8:	c4 02 80 01 	ld  [ %o2 + %g1 ], %g2
    28ec:	82 02 80 01 	add  %o2, %g1, %g1
    28f0:	c2 27 bd a8 	st  %g1, [ %fp + -600 ]
    28f4:	88 10 00 01 	mov  %g1, %g4
    28f8:	80 a0 a0 00 	cmp  %g2, 0
    28fc:	a6 07 bd a0 	add  %fp, -608, %l3
    2900:	02 80 00 1e 	be  2978 <_dl_start+0x10c>
    2904:	98 07 bd c0 	add  %fp, -576, %o4
    2908:	86 10 00 02 	mov  %g2, %g3
    290c:	03 10 00 00 	sethi  %hi(0x40000000), %g1
    2910:	05 1c 00 00 	sethi  %hi(0x70000000), %g2
    2914:	94 10 60 88 	or  %g1, 0x88, %o2
    2918:	10 80 00 0f 	b  2954 <_dl_start+0xe8>
    291c:	92 10 a0 23 	or  %g2, 0x23, %o1
    2920:	03 24 00 00 	sethi  %hi(0x90000000), %g1
    2924:	82 00 c0 01 	add  %g3, %g1, %g1
    2928:	80 a0 60 01 	cmp  %g1, 1
    292c:	18 80 00 eb 	bgu  2cd8 <_dl_start+0x46c>
    2930:	17 1b ff ff 	sethi  %hi(0x6ffffc00), %o3
    2934:	83 28 e0 02 	sll  %g3, 2, %g1
    2938:	82 00 40 0c 	add  %g1, %o4, %g1
    293c:	c8 20 40 0a 	st  %g4, [ %g1 + %o2 ]
    2940:	88 01 20 08 	add  %g4, 8, %g4
    2944:	c6 01 00 00 	ld  [ %g4 ], %g3
    2948:	80 a0 e0 00 	cmp  %g3, 0
    294c:	22 80 00 0c 	be,a   297c <_dl_start+0x110>
    2950:	c6 04 c0 00 	ld  [ %l3 ], %g3
    2954:	80 a0 e0 21 	cmp  %g3, 0x21
    2958:	14 bf ff f2 	bg  2920 <_dl_start+0xb4>
    295c:	83 28 e0 02 	sll  %g3, 2, %g1
    2960:	c8 23 00 01 	st  %g4, [ %o4 + %g1 ]
    2964:	88 01 20 08 	add  %g4, 8, %g4
    2968:	c6 01 00 00 	ld  [ %g4 ], %g3
    296c:	80 a0 e0 00 	cmp  %g3, 0
    2970:	12 bf ff fa 	bne  2958 <_dl_start+0xec>
    2974:	80 a0 e0 21 	cmp  %g3, 0x21
    2978:	c6 04 c0 00 	ld  [ %l3 ], %g3
    297c:	80 a0 e0 00 	cmp  %g3, 0
    2980:	22 80 00 3b 	be,a   2a6c <_dl_start+0x200>
    2984:	c2 03 20 50 	ld  [ %o4 + 0x50 ], %g1
    2988:	c4 03 20 10 	ld  [ %o4 + 0x10 ], %g2
    298c:	80 a0 a0 00 	cmp  %g2, 0
    2990:	22 80 00 06 	be,a   29a8 <_dl_start+0x13c>
    2994:	c4 03 20 0c 	ld  [ %o4 + 0xc ], %g2
    2998:	c2 00 a0 04 	ld  [ %g2 + 4 ], %g1
    299c:	82 00 40 03 	add  %g1, %g3, %g1
    29a0:	c2 20 a0 04 	st  %g1, [ %g2 + 4 ]
    29a4:	c4 03 20 0c 	ld  [ %o4 + 0xc ], %g2
    29a8:	80 a0 a0 00 	cmp  %g2, 0
    29ac:	22 80 00 06 	be,a   29c4 <_dl_start+0x158>
    29b0:	c4 03 20 14 	ld  [ %o4 + 0x14 ], %g2
    29b4:	c2 00 a0 04 	ld  [ %g2 + 4 ], %g1
    29b8:	82 00 40 03 	add  %g1, %g3, %g1
    29bc:	c2 20 a0 04 	st  %g1, [ %g2 + 4 ]
    29c0:	c4 03 20 14 	ld  [ %o4 + 0x14 ], %g2
    29c4:	80 a0 a0 00 	cmp  %g2, 0
    29c8:	22 80 00 06 	be,a   29e0 <_dl_start+0x174>
    29cc:	c4 03 20 18 	ld  [ %o4 + 0x18 ], %g2
    29d0:	c2 00 a0 04 	ld  [ %g2 + 4 ], %g1
    29d4:	82 00 40 03 	add  %g1, %g3, %g1
    29d8:	c2 20 a0 04 	st  %g1, [ %g2 + 4 ]
    29dc:	c4 03 20 18 	ld  [ %o4 + 0x18 ], %g2
    29e0:	80 a0 a0 00 	cmp  %g2, 0
    29e4:	22 80 00 06 	be,a   29fc <_dl_start+0x190>
    29e8:	c4 03 20 1c 	ld  [ %o4 + 0x1c ], %g2
    29ec:	c2 00 a0 04 	ld  [ %g2 + 4 ], %g1
    29f0:	82 00 40 03 	add  %g1, %g3, %g1
    29f4:	c2 20 a0 04 	st  %g1, [ %g2 + 4 ]
    29f8:	c4 03 20 1c 	ld  [ %o4 + 0x1c ], %g2
    29fc:	80 a0 a0 00 	cmp  %g2, 0
    2a00:	22 80 00 06 	be,a   2a18 <_dl_start+0x1ac>
    2a04:	c4 03 20 5c 	ld  [ %o4 + 0x5c ], %g2
    2a08:	c2 00 a0 04 	ld  [ %g2 + 4 ], %g1
    2a0c:	82 00 40 03 	add  %g1, %g3, %g1
    2a10:	c2 20 a0 04 	st  %g1, [ %g2 + 4 ]
    2a14:	c4 03 20 5c 	ld  [ %o4 + 0x5c ], %g2
    2a18:	80 a0 a0 00 	cmp  %g2, 0
    2a1c:	22 80 00 06 	be,a   2a34 <_dl_start+0x1c8>
    2a20:	c4 03 20 cc 	ld  [ %o4 + 0xcc ], %g2
    2a24:	c2 00 a0 04 	ld  [ %g2 + 4 ], %g1
    2a28:	82 00 40 03 	add  %g1, %g3, %g1
    2a2c:	c2 20 a0 04 	st  %g1, [ %g2 + 4 ]
    2a30:	c4 03 20 cc 	ld  [ %o4 + 0xcc ], %g2
    2a34:	80 a0 a0 00 	cmp  %g2, 0
    2a38:	22 80 00 06 	be,a   2a50 <_dl_start+0x1e4>
    2a3c:	c4 03 21 34 	ld  [ %o4 + 0x134 ], %g2
    2a40:	c2 00 a0 04 	ld  [ %g2 + 4 ], %g1
    2a44:	82 00 40 03 	add  %g1, %g3, %g1
    2a48:	c2 20 a0 04 	st  %g1, [ %g2 + 4 ]
    2a4c:	c4 03 21 34 	ld  [ %o4 + 0x134 ], %g2
    2a50:	80 a0 a0 00 	cmp  %g2, 0
    2a54:	22 80 00 06 	be,a   2a6c <_dl_start+0x200>
    2a58:	c2 03 20 50 	ld  [ %o4 + 0x50 ], %g1
    2a5c:	c2 00 a0 04 	ld  [ %g2 + 4 ], %g1
    2a60:	82 00 40 03 	add  %g1, %g3, %g1
    2a64:	c2 20 a0 04 	st  %g1, [ %g2 + 4 ]
    2a68:	c2 03 20 50 	ld  [ %o4 + 0x50 ], %g1
    2a6c:	80 a0 60 00 	cmp  %g1, 0
    2a70:	22 80 00 07 	be,a   2a8c <_dl_start+0x220>
    2a74:	c2 03 20 1c 	ld  [ %o4 + 0x1c ], %g1
    2a78:	c2 00 60 04 	ld  [ %g1 + 4 ], %g1
    2a7c:	80 a0 60 07 	cmp  %g1, 7
    2a80:	12 80 00 f8 	bne  2e60 <_dl_start+0x5f4>
    2a84:	03 00 00 00 	sethi  %hi(0), %g1
    2a88:	c2 03 20 1c 	ld  [ %o4 + 0x1c ], %g1
    2a8c:	80 a0 60 00 	cmp  %g1, 0
    2a90:	22 80 00 08 	be,a   2ab0 <_dl_start+0x244>
    2a94:	c2 03 20 a0 	ld  [ %o4 + 0xa0 ], %g1
    2a98:	c2 03 20 24 	ld  [ %o4 + 0x24 ], %g1
    2a9c:	c4 00 60 04 	ld  [ %g1 + 4 ], %g2
    2aa0:	80 a0 a0 0c 	cmp  %g2, 0xc
    2aa4:	12 80 00 f9 	bne  2e88 <_dl_start+0x61c>
    2aa8:	03 00 00 00 	sethi  %hi(0), %g1
    2aac:	c2 03 20 a0 	ld  [ %o4 + 0xa0 ], %g1
    2ab0:	80 a0 60 00 	cmp  %g1, 0
    2ab4:	22 80 00 07 	be,a   2ad0 <_dl_start+0x264>
    2ab8:	c2 03 20 78 	ld  [ %o4 + 0x78 ], %g1
    2abc:	c2 00 60 04 	ld  [ %g1 + 4 ], %g1
    2ac0:	80 a0 60 01 	cmp  %g1, 1
    2ac4:	12 80 00 fb 	bne  2eb0 <_dl_start+0x644>
    2ac8:	03 00 00 00 	sethi  %hi(0), %g1
    2acc:	c2 03 20 78 	ld  [ %o4 + 0x78 ], %g1
    2ad0:	80 a0 60 00 	cmp  %g1, 0
    2ad4:	22 80 00 07 	be,a   2af0 <_dl_start+0x284>
    2ad8:	c2 03 20 74 	ld  [ %o4 + 0x74 ], %g1
    2adc:	c2 00 60 04 	ld  [ %g1 + 4 ], %g1
    2ae0:	80 a0 60 08 	cmp  %g1, 8
    2ae4:	12 80 00 c0 	bne  2de4 <_dl_start+0x578>
    2ae8:	03 00 00 00 	sethi  %hi(0), %g1
    2aec:	c2 03 20 74 	ld  [ %o4 + 0x74 ], %g1
    2af0:	80 a0 60 00 	cmp  %g1, 0
    2af4:	12 80 00 c6 	bne  2e0c <_dl_start+0x5a0>
    2af8:	03 00 00 00 	sethi  %hi(0), %g1
    2afc:	c2 03 20 3c 	ld  [ %o4 + 0x3c ], %g1
    2b00:	80 a0 60 00 	cmp  %g1, 0
    2b04:	12 80 00 cc 	bne  2e34 <_dl_start+0x5c8>
    2b08:	d4 07 bd a0 	ld  [ %fp + -608 ], %o2
    2b0c:	80 a2 a0 00 	cmp  %o2, 0
    2b10:	12 80 00 07 	bne  2b2c <_dl_start+0x2c0>
    2b14:	c4 07 bd dc 	ld  [ %fp + -548 ], %g2
    2b18:	c2 07 be c4 	ld  [ %fp + -316 ], %g1
    2b1c:	80 a0 60 00 	cmp  %g1, 0
    2b20:	12 80 00 ef 	bne  2edc <_dl_start+0x670>
    2b24:	c2 07 bf 34 	ld  [ %fp + -204 ], %g1
    2b28:	c4 07 bd dc 	ld  [ %fp + -548 ], %g2
    2b2c:	82 10 20 01 	mov  1, %g1
    2b30:	c2 27 bd 8c 	st  %g1, [ %fp + -628 ]
    2b34:	c0 27 bd 98 	clr  [ %fp + -616 ]
    2b38:	c0 27 bd 80 	clr  [ %fp + -640 ]
    2b3c:	c0 27 bd 94 	clr  [ %fp + -620 ]
    2b40:	c0 27 bd 88 	clr  [ %fp + -632 ]
    2b44:	80 a0 a0 00 	cmp  %g2, 0
    2b48:	02 80 00 07 	be  2b64 <_dl_start+0x2f8>
    2b4c:	c0 27 bd 7c 	clr  [ %fp + -644 ]
    2b50:	c2 00 a0 04 	ld  [ %g2 + 4 ], %g1
    2b54:	c2 27 bd 78 	st  %g1, [ %fp + -648 ]
    2b58:	c4 07 bd e0 	ld  [ %fp + -544 ], %g2
    2b5c:	c2 00 a0 04 	ld  [ %g2 + 4 ], %g1
    2b60:	c2 27 bd 7c 	st  %g1, [ %fp + -644 ]
    2b64:	90 10 20 00 	clr  %o0
    2b68:	e4 07 bd d8 	ld  [ %fp + -552 ], %l2
    2b6c:	e2 07 be 68 	ld  [ %fp + -408 ], %l1
    2b70:	82 02 00 08 	add  %o0, %o0, %g1
    2b74:	82 00 40 08 	add  %g1, %o0, %g1
    2b78:	83 28 60 02 	sll  %g1, 2, %g1
    2b7c:	82 00 40 14 	add  %g1, %l4, %g1
    2b80:	c4 00 7d 8c 	ld  [ %g1 + -628 ], %g2
    2b84:	c8 00 7d 88 	ld  [ %g1 + -632 ], %g4
    2b88:	80 a4 60 00 	cmp  %l1, 0
    2b8c:	9e 01 00 02 	add  %g4, %g2, %o7
    2b90:	d2 04 a0 04 	ld  [ %l2 + 4 ], %o1
    2b94:	02 80 00 03 	be  2ba0 <_dl_start+0x334>
    2b98:	86 10 20 00 	clr  %g3
    2b9c:	c6 04 60 04 	ld  [ %l1 + 4 ], %g3
    2ba0:	03 2a aa aa 	sethi  %hi(0xaaaaa800), %g1
    2ba4:	82 10 62 ab 	or  %g1, 0x2ab, %g1	! aaaaaaab <_end+0xaaa79b23>
    2ba8:	80 50 80 01 	umul  %g2, %g1, %g0
    2bac:	83 40 00 00 	rd  %y, %g1
    2bb0:	85 30 60 03 	srl  %g1, 3, %g2
    2bb4:	80 a0 80 03 	cmp  %g2, %g3
    2bb8:	38 80 00 02 	bgu,a   2bc0 <_dl_start+0x354>
    2bbc:	84 10 00 03 	mov  %g3, %g2
    2bc0:	82 00 80 02 	add  %g2, %g2, %g1
    2bc4:	82 00 40 02 	add  %g1, %g2, %g1
    2bc8:	83 28 60 02 	sll  %g1, 2, %g1
    2bcc:	10 80 00 08 	b  2bec <_dl_start+0x380>
    2bd0:	98 01 00 01 	add  %g4, %g1, %o4
    2bd4:	c4 01 20 08 	ld  [ %g4 + 8 ], %g2
    2bd8:	c6 00 40 0a 	ld  [ %g1 + %o2 ], %g3
    2bdc:	84 00 80 0a 	add  %g2, %o2, %g2
    2be0:	86 00 c0 02 	add  %g3, %g2, %g3
    2be4:	88 01 20 0c 	add  %g4, 0xc, %g4
    2be8:	c6 20 40 0a 	st  %g3, [ %g1 + %o2 ]
    2bec:	80 a1 00 0c 	cmp  %g4, %o4
    2bf0:	2a bf ff f9 	bcs,a   2bd4 <_dl_start+0x368>
    2bf4:	c2 01 00 00 	ld  [ %g4 ], %g1
    2bf8:	c2 04 e0 ec 	ld  [ %l3 + 0xec ], %g1
    2bfc:	80 a0 60 00 	cmp  %g1, 0
    2c00:	02 80 00 6e 	be  2db8 <_dl_start+0x54c>
    2c04:	80 a3 00 0f 	cmp  %o4, %o7
    2c08:	3a 80 00 2f 	bcc,a   2cc4 <_dl_start+0x458>
    2c0c:	90 02 20 01 	inc  %o0
    2c10:	21 00 00 01 	sethi  %hi(0x400), %l0
    2c14:	10 80 00 12 	b  2c5c <_dl_start+0x3f0>
    2c18:	a0 14 23 dc 	or  %l0, 0x3dc, %l0	! 7dc <GLIBC_2.0+0x7dc>
    2c1c:	c2 07 bd a0 	ld  [ %fp + -608 ], %g1
    2c20:	9a 00 40 02 	add  %g1, %g2, %o5
    2c24:	c2 03 20 08 	ld  [ %o4 + 8 ], %g1
    2c28:	80 a0 e0 14 	cmp  %g3, 0x14
    2c2c:	02 80 00 21 	be  2cb0 <_dl_start+0x444>
    2c30:	9a 03 40 01 	add  %o5, %g1, %o5
    2c34:	80 a0 e0 14 	cmp  %g3, 0x14
    2c38:	18 80 00 31 	bgu  2cfc <_dl_start+0x490>
    2c3c:	80 a0 e0 15 	cmp  %g3, 0x15
    2c40:	80 a0 e0 03 	cmp  %g3, 3
    2c44:	22 80 00 1c 	be,a   2cb4 <_dl_start+0x448>
    2c48:	98 03 20 0c 	add  %o4, 0xc, %o4
    2c4c:	98 03 20 0c 	add  %o4, 0xc, %o4
    2c50:	80 a3 00 0f 	cmp  %o4, %o7
    2c54:	3a 80 00 1c 	bcc,a   2cc4 <_dl_start+0x458>
    2c58:	90 02 20 01 	inc  %o0
    2c5c:	c2 03 20 04 	ld  [ %o4 + 4 ], %g1
    2c60:	c6 03 00 00 	ld  [ %o4 ], %g3
    2c64:	85 30 60 08 	srl  %g1, 8, %g2
    2c68:	85 28 a0 04 	sll  %g2, 4, %g2
    2c6c:	96 00 c0 0a 	add  %g3, %o2, %o3
    2c70:	86 88 60 ff 	andcc  %g1, 0xff, %g3
    2c74:	02 bf ff f6 	be  2c4c <_dl_start+0x3e0>
    2c78:	84 00 80 09 	add  %g2, %o1, %g2
    2c7c:	c2 08 a0 0c 	ldub  [ %g2 + 0xc ], %g1
    2c80:	83 30 60 04 	srl  %g1, 4, %g1
    2c84:	80 a0 60 00 	cmp  %g1, 0
    2c88:	02 80 00 47 	be  2da4 <_dl_start+0x538>
    2c8c:	c2 10 a0 0e 	lduh  [ %g2 + 0xe ], %g1
    2c90:	80 a0 60 00 	cmp  %g1, 0
    2c94:	32 bf ff e2 	bne,a   2c1c <_dl_start+0x3b0>
    2c98:	c4 00 a0 04 	ld  [ %g2 + 4 ], %g2
    2c9c:	9a 10 20 00 	clr  %o5
    2ca0:	c2 03 20 08 	ld  [ %o4 + 8 ], %g1
    2ca4:	80 a0 e0 14 	cmp  %g3, 0x14
    2ca8:	12 bf ff e4 	bne  2c38 <_dl_start+0x3cc>
    2cac:	9a 03 40 01 	add  %o5, %g1, %o5
    2cb0:	98 03 20 0c 	add  %o4, 0xc, %o4
    2cb4:	80 a3 00 0f 	cmp  %o4, %o7
    2cb8:	0a bf ff e9 	bcs  2c5c <_dl_start+0x3f0>
    2cbc:	da 22 c0 00 	st  %o5, [ %o3 ]
    2cc0:	90 02 20 01 	inc  %o0
    2cc4:	80 a2 20 02 	cmp  %o0, 2
    2cc8:	14 80 00 84 	bg  2ed8 <_dl_start+0x66c>
    2ccc:	d4 07 bd a0 	ld  [ %fp + -608 ], %o2
    2cd0:	10 bf ff a9 	b  2b74 <_dl_start+0x308>
    2cd4:	82 02 00 08 	add  %o0, %o0, %g1
    2cd8:	82 12 e3 ff 	or  %o3, 0x3ff, %g1
    2cdc:	82 20 40 03 	sub  %g1, %g3, %g1
    2ce0:	80 a0 60 0f 	cmp  %g1, 0xf
    2ce4:	18 80 00 1a 	bgu  2d4c <_dl_start+0x4e0>
    2ce8:	82 00 c0 03 	add  %g3, %g3, %g1
    2cec:	82 22 40 03 	sub  %o1, %g3, %g1
    2cf0:	83 28 60 02 	sll  %g1, 2, %g1
    2cf4:	10 bf ff 1c 	b  2964 <_dl_start+0xf8>
    2cf8:	c8 23 00 01 	st  %g4, [ %o4 + %g1 ]
    2cfc:	32 bf ff d5 	bne,a   2c50 <_dl_start+0x3e4>
    2d00:	98 03 20 0c 	add  %o4, 0xc, %o4
    2d04:	c8 05 c0 10 	ld  [ %l7 + %l0 ], %g4
    2d08:	82 0b 63 ff 	and  %o5, 0x3ff, %g1
    2d0c:	05 20 70 18 	sethi  %hi(0x81c06000), %g2
    2d10:	82 10 40 02 	or  %g1, %g2, %g1
    2d14:	c6 01 20 44 	ld  [ %g4 + 0x44 ], %g3
    2d18:	86 88 e0 01 	andcc  %g3, 1, %g3
    2d1c:	02 80 00 03 	be  2d28 <_dl_start+0x4bc>
    2d20:	c2 22 e0 04 	st  %g1, [ %o3 + 4 ]
    2d24:	81 da e0 04 	flush  %o3 + 4
    2d28:	83 33 60 0a 	srl  %o5, 0xa, %g1
    2d2c:	05 00 c0 00 	sethi  %hi(0x3000000), %g2
    2d30:	82 10 40 02 	or  %g1, %g2, %g1
    2d34:	80 a0 e0 00 	cmp  %g3, 0
    2d38:	02 bf ff c5 	be  2c4c <_dl_start+0x3e0>
    2d3c:	c2 22 c0 00 	st  %g1, [ %o3 ]
    2d40:	81 da c0 00 	flush  %o3
    2d44:	10 bf ff c3 	b  2c50 <_dl_start+0x3e4>
    2d48:	98 03 20 0c 	add  %o4, 0xc, %o4
    2d4c:	9b 38 60 01 	sra  %g1, 1, %o5
    2d50:	84 38 00 0d 	xnor  %g0, %o5, %g2
    2d54:	82 10 20 33 	mov  0x33, %g1
    2d58:	80 a0 a0 02 	cmp  %g2, 2
    2d5c:	08 bf ff e5 	bleu  2cf0 <_dl_start+0x484>
    2d60:	82 20 40 0d 	sub  %g1, %o5, %g1
    2d64:	82 12 e1 ff 	or  %o3, 0x1ff, %g1
    2d68:	82 20 40 03 	sub  %g1, %g3, %g1
    2d6c:	80 a0 60 0b 	cmp  %g1, 0xb
    2d70:	08 80 00 0b 	bleu  2d9c <_dl_start+0x530>
    2d74:	82 12 e2 36 	or  %o3, 0x236, %g1
    2d78:	82 12 e2 ff 	or  %o3, 0x2ff, %g1
    2d7c:	82 20 40 03 	sub  %g1, %g3, %g1
    2d80:	80 a0 60 0a 	cmp  %g1, 0xa
    2d84:	38 bf fe f0 	bgu,a   2944 <_dl_start+0xd8>
    2d88:	88 01 20 08 	add  %g4, 8, %g4
    2d8c:	82 12 e3 42 	or  %o3, 0x342, %g1
    2d90:	82 20 40 03 	sub  %g1, %g3, %g1
    2d94:	10 bf ff d8 	b  2cf4 <_dl_start+0x488>
    2d98:	83 28 60 02 	sll  %g1, 2, %g1
    2d9c:	10 bf ff fe 	b  2d94 <_dl_start+0x528>
    2da0:	82 20 40 03 	sub  %g1, %g3, %g1
    2da4:	80 a0 60 00 	cmp  %g1, 0
    2da8:	22 bf ff be 	be,a   2ca0 <_dl_start+0x434>
    2dac:	9a 10 20 00 	clr  %o5
    2db0:	10 bf ff 9d 	b  2c24 <_dl_start+0x3b8>
    2db4:	da 04 c0 00 	ld  [ %l3 ], %o5
    2db8:	03 00 00 00 	sethi  %hi(0), %g1
    2dbc:	05 00 00 00 	sethi  %hi(0), %g2
    2dc0:	07 00 00 00 	sethi  %hi(0), %g3
    2dc4:	82 10 60 b0 	or  %g1, 0xb0, %g1
    2dc8:	84 10 a0 b4 	or  %g2, 0xb4, %g2
    2dcc:	86 10 e0 38 	or  %g3, 0x38, %g3
    2dd0:	d0 05 c0 01 	ld  [ %l7 + %g1 ], %o0
    2dd4:	d2 05 c0 02 	ld  [ %l7 + %g2 ], %o1
    2dd8:	d6 05 c0 03 	ld  [ %l7 + %g3 ], %o3
    2ddc:	40 00 4d 2e 	call  16294 <__GI___assert_fail>
    2de0:	94 10 20 6d 	mov  0x6d, %o2
    2de4:	05 00 00 00 	sethi  %hi(0), %g2
    2de8:	07 00 00 00 	sethi  %hi(0), %g3
    2dec:	82 10 60 a8 	or  %g1, 0xa8, %g1
    2df0:	84 10 a0 b8 	or  %g2, 0xb8, %g2
    2df4:	86 10 e0 34 	or  %g3, 0x34, %g3
    2df8:	d0 05 c0 01 	ld  [ %l7 + %g1 ], %o0
    2dfc:	d2 05 c0 02 	ld  [ %l7 + %g2 ], %o1
    2e00:	d6 05 c0 03 	ld  [ %l7 + %g3 ], %o3
    2e04:	40 00 4d 24 	call  16294 <__GI___assert_fail>
    2e08:	94 10 20 b0 	mov  0xb0, %o2
    2e0c:	05 00 00 00 	sethi  %hi(0), %g2
    2e10:	07 00 00 00 	sethi  %hi(0), %g3
    2e14:	82 10 60 ac 	or  %g1, 0xac, %g1
    2e18:	84 10 a0 b8 	or  %g2, 0xb8, %g2
    2e1c:	86 10 e0 34 	or  %g3, 0x34, %g3
    2e20:	d0 05 c0 01 	ld  [ %l7 + %g1 ], %o0
    2e24:	d2 05 c0 02 	ld  [ %l7 + %g2 ], %o1
    2e28:	d6 05 c0 03 	ld  [ %l7 + %g3 ], %o3
    2e2c:	40 00 4d 1a 	call  16294 <__GI___assert_fail>
    2e30:	94 10 20 b2 	mov  0xb2, %o2
    2e34:	03 00 00 00 	sethi  %hi(0), %g1
    2e38:	05 00 00 00 	sethi  %hi(0), %g2
    2e3c:	07 00 00 00 	sethi  %hi(0), %g3
    2e40:	82 10 60 bc 	or  %g1, 0xbc, %g1
    2e44:	84 10 a0 b8 	or  %g2, 0xb8, %g2
    2e48:	86 10 e0 34 	or  %g3, 0x34, %g3
    2e4c:	d0 05 c0 01 	ld  [ %l7 + %g1 ], %o0
    2e50:	d2 05 c0 02 	ld  [ %l7 + %g2 ], %o1
    2e54:	d6 05 c0 03 	ld  [ %l7 + %g3 ], %o3
    2e58:	40 00 4d 0f 	call  16294 <__GI___assert_fail>
    2e5c:	94 10 20 b3 	mov  0xb3, %o2
    2e60:	05 00 00 00 	sethi  %hi(0), %g2
    2e64:	07 00 00 00 	sethi  %hi(0), %g3
    2e68:	82 10 60 9c 	or  %g1, 0x9c, %g1
    2e6c:	84 10 a0 b8 	or  %g2, 0xb8, %g2
    2e70:	86 10 e0 34 	or  %g3, 0x34, %g3
    2e74:	d0 05 c0 01 	ld  [ %l7 + %g1 ], %o0
    2e78:	d2 05 c0 02 	ld  [ %l7 + %g2 ], %o1
    2e7c:	d6 05 c0 03 	ld  [ %l7 + %g3 ], %o3
    2e80:	40 00 4d 05 	call  16294 <__GI___assert_fail>
    2e84:	94 10 20 9d 	mov  0x9d, %o2
    2e88:	05 00 00 00 	sethi  %hi(0), %g2
    2e8c:	07 00 00 00 	sethi  %hi(0), %g3
    2e90:	82 10 60 a0 	or  %g1, 0xa0, %g1
    2e94:	84 10 a0 b8 	or  %g2, 0xb8, %g2
    2e98:	86 10 e0 34 	or  %g3, 0x34, %g3
    2e9c:	d0 05 c0 01 	ld  [ %l7 + %g1 ], %o0
    2ea0:	d2 05 c0 02 	ld  [ %l7 + %g2 ], %o1
    2ea4:	d6 05 c0 03 	ld  [ %l7 + %g3 ], %o3
    2ea8:	40 00 4c fb 	call  16294 <__GI___assert_fail>
    2eac:	94 10 20 a5 	mov  0xa5, %o2
    2eb0:	05 00 00 00 	sethi  %hi(0), %g2
    2eb4:	07 00 00 00 	sethi  %hi(0), %g3
    2eb8:	82 10 60 a4 	or  %g1, 0xa4, %g1
    2ebc:	84 10 a0 b8 	or  %g2, 0xb8, %g2
    2ec0:	86 10 e0 34 	or  %g3, 0x34, %g3
    2ec4:	d0 05 c0 01 	ld  [ %l7 + %g1 ], %o0
    2ec8:	d2 05 c0 02 	ld  [ %l7 + %g2 ], %o1
    2ecc:	d6 05 c0 03 	ld  [ %l7 + %g3 ], %o3
    2ed0:	40 00 4c f1 	call  16294 <__GI___assert_fail>
    2ed4:	94 10 20 ae 	mov  0xae, %o2
    2ed8:	c2 07 bf 34 	ld  [ %fp + -204 ], %g1
    2edc:	05 08 00 00 	sethi  %hi(0x20000000), %g2
    2ee0:	82 10 40 02 	or  %g1, %g2, %g1
    2ee4:	90 10 00 18 	mov  %i0, %o0
    2ee8:	c2 27 bf 34 	st  %g1, [ %fp + -204 ]
    2eec:	7f ff fe 27 	call  2788 <_dl_start_final>
    2ef0:	92 10 00 13 	mov  %l3, %o1
    2ef4:	81 c7 e0 08 	ret 
    2ef8:	91 e8 00 08 	restore  %g0, %o0, %o0

00002efc <print_unresolved>:
print_unresolved():
    2efc:	9d e3 bf 90 	save  %sp, -112, %sp
    2f00:	05 00 00 01 	sethi  %hi(0x400), %g2
    2f04:	09 00 00 00 	sethi  %hi(0), %g4
    2f08:	c2 4e 40 00 	ldsb  [ %i1 ], %g1
    2f0c:	2f 00 00 b4 	sethi  %hi(0x2d000), %l7
    2f10:	7f ff fc c6 	call  2228 <map_doit+0x30>
    2f14:	ae 05 e0 f0 	add  %l7, 0xf0, %l7	! 2d0f0 <dummy_bucket.4+0xee8c>
    2f18:	84 10 a3 c4 	or  %g2, 0x3c4, %g2
    2f1c:	86 10 00 19 	mov  %i1, %g3
    2f20:	88 11 20 c0 	or  %g4, 0xc0, %g4
    2f24:	80 a0 60 00 	cmp  %g1, 0
    2f28:	12 80 00 0a 	bne  2f50 <print_unresolved+0x54>
    2f2c:	b0 10 20 02 	mov  2, %i0
    2f30:	c2 05 c0 02 	ld  [ %l7 + %g2 ], %g1
    2f34:	c4 00 40 00 	ld  [ %g1 ], %g2
    2f38:	c6 00 80 00 	ld  [ %g2 ], %g3
    2f3c:	03 00 00 00 	sethi  %hi(0), %g1
    2f40:	80 a0 e0 00 	cmp  %g3, 0
    2f44:	12 80 00 03 	bne  2f50 <print_unresolved+0x54>
    2f48:	82 10 60 c4 	or  %g1, 0xc4, %g1
    2f4c:	c6 05 c0 01 	ld  [ %l7 + %g1 ], %g3
    2f50:	f2 05 c0 04 	ld  [ %l7 + %g4 ], %i1
    2f54:	10 80 36 08 	b  10774 <_dl_dprintf>
    2f58:	97 e8 00 03 	restore  %g0, %g3, %o3
    2f5c:	01 00 00 00 	nop 

00002f60 <print_missing_version>:
print_missing_version():
    2f60:	9d e3 bf 90 	save  %sp, -112, %sp
    2f64:	03 00 00 01 	sethi  %hi(0x400), %g1
    2f68:	2f 00 00 b4 	sethi  %hi(0x2d000), %l7
    2f6c:	7f ff fc af 	call  2228 <map_doit+0x30>
    2f70:	ae 05 e0 94 	add  %l7, 0x94, %l7	! 2d094 <dummy_bucket.4+0xee30>
    2f74:	82 10 63 c4 	or  %g1, 0x3c4, %g1
    2f78:	c4 05 c0 01 	ld  [ %l7 + %g1 ], %g2
    2f7c:	c6 00 80 00 	ld  [ %g2 ], %g3
    2f80:	09 00 00 00 	sethi  %hi(0), %g4
    2f84:	c2 00 c0 00 	ld  [ %g3 ], %g1
    2f88:	05 00 00 00 	sethi  %hi(0), %g2
    2f8c:	88 11 20 c8 	or  %g4, 0xc8, %g4
    2f90:	b0 10 20 02 	mov  2, %i0
    2f94:	b6 10 00 19 	mov  %i1, %i3
    2f98:	b8 10 00 1a 	mov  %i2, %i4
    2f9c:	80 a0 60 00 	cmp  %g1, 0
    2fa0:	12 80 00 03 	bne  2fac <print_missing_version+0x4c>
    2fa4:	84 10 a0 cc 	or  %g2, 0xcc, %g2
    2fa8:	c2 05 c0 02 	ld  [ %l7 + %g2 ], %g1
    2fac:	f2 05 c0 04 	ld  [ %l7 + %g4 ], %i1
    2fb0:	10 80 35 f1 	b  10774 <_dl_dprintf>
    2fb4:	95 e8 00 01 	restore  %g0, %g1, %o2
    2fb8:	01 00 00 00 	nop 

00002fbc <process_dl_debug>:
process_dl_debug():
    2fbc:	9d e3 bf 90 	save  %sp, -112, %sp
    2fc0:	c2 0e 00 00 	ldub  [ %i0 ], %g1
    2fc4:	89 28 60 18 	sll  %g1, 0x18, %g4
    2fc8:	2f 00 00 b4 	sethi  %hi(0x2d000), %l7
    2fcc:	7f ff fc 97 	call  2228 <map_doit+0x30>
    2fd0:	ae 05 e0 34 	add  %l7, 0x34, %l7	! 2d034 <dummy_bucket.4+0xedd0>
    2fd4:	80 a1 20 00 	cmp  %g4, 0
    2fd8:	02 80 00 4f 	be  3114 <process_dl_debug+0x158>
    2fdc:	39 00 00 01 	sethi  %hi(0x400), %i4
    2fe0:	03 00 00 00 	sethi  %hi(0), %g1
    2fe4:	82 10 60 44 	or  %g1, 0x44, %g1	! 44 <GLIBC_2.0+0x44>
    2fe8:	c6 05 c0 01 	ld  [ %l7 + %g1 ], %g3
    2fec:	84 17 23 dc 	or  %i4, 0x3dc, %g2
    2ff0:	2b 00 00 00 	sethi  %hi(0), %l5
    2ff4:	82 10 00 04 	mov  %g4, %g1
    2ff8:	f6 05 c0 02 	ld  [ %l7 + %g2 ], %i3
    2ffc:	aa 15 60 48 	or  %l5, 0x48, %l5
    3000:	ba 10 00 03 	mov  %g3, %i5
    3004:	ac 00 e0 01 	add  %g3, 1, %l6
    3008:	89 38 60 18 	sra  %g1, 0x18, %g4
    300c:	82 19 20 20 	xor  %g4, 0x20, %g1
    3010:	80 a0 00 01 	cmp  %g0, %g1
    3014:	86 40 20 00 	addx  %g0, 0, %g3
    3018:	82 19 20 2c 	xor  %g4, 0x2c, %g1
    301c:	80 a0 00 01 	cmp  %g0, %g1
    3020:	84 40 20 00 	addx  %g0, 0, %g2
    3024:	80 88 c0 02 	btst  %g3, %g2
    3028:	22 80 00 43 	be,a   3134 <process_dl_debug+0x178>
    302c:	b0 06 20 01 	inc  %i0
    3030:	80 a1 20 3a 	cmp  %g4, 0x3a
    3034:	12 80 00 09 	bne  3058 <process_dl_debug+0x9c>
    3038:	a2 10 20 01 	mov  1, %l1
    303c:	10 80 00 3e 	b  3134 <process_dl_debug+0x178>
    3040:	b0 06 20 01 	inc  %i0
    3044:	02 80 00 0e 	be  307c <process_dl_debug+0xc0>
    3048:	80 a1 20 3a 	cmp  %g4, 0x3a
    304c:	02 80 00 0d 	be  3080 <process_dl_debug+0xc4>
    3050:	a4 10 20 00 	clr  %l2
    3054:	a2 04 60 01 	inc  %l1
    3058:	c8 4e 00 11 	ldsb  [ %i0 + %l1 ], %g4
    305c:	80 a0 00 04 	cmp  %g0, %g4
    3060:	82 40 20 00 	addx  %g0, 0, %g1
    3064:	84 19 20 20 	xor  %g4, 0x20, %g2
    3068:	80 a0 00 02 	cmp  %g0, %g2
    306c:	86 40 20 00 	addx  %g0, 0, %g3
    3070:	80 88 40 03 	btst  %g1, %g3
    3074:	12 bf ff f4 	bne  3044 <process_dl_debug+0x88>
    3078:	80 a1 20 2c 	cmp  %g4, 0x2c
    307c:	a4 10 20 00 	clr  %l2
    3080:	a8 10 00 1d 	mov  %i5, %l4
    3084:	a6 10 00 16 	mov  %l6, %l3
    3088:	10 80 00 06 	b  30a0 <process_dl_debug+0xe4>
    308c:	a0 10 20 00 	clr  %l0
    3090:	a4 04 a0 01 	inc  %l2
    3094:	80 a4 a0 09 	cmp  %l2, 9
    3098:	18 80 00 16 	bgu  30f0 <process_dl_debug+0x134>
    309c:	a0 04 20 36 	add  %l0, 0x36, %l0
    30a0:	c2 0c 00 14 	ldub  [ %l0 + %l4 ], %g1
    30a4:	92 04 00 13 	add  %l0, %l3, %o1
    30a8:	90 10 00 18 	mov  %i0, %o0
    30ac:	80 a0 40 11 	cmp  %g1, %l1
    30b0:	12 bf ff f8 	bne  3090 <process_dl_debug+0xd4>
    30b4:	94 10 00 11 	mov  %l1, %o2
    30b8:	40 00 54 4f 	call  181f4 <bcmp>
    30bc:	01 00 00 00 	nop 
    30c0:	80 a2 20 00 	cmp  %o0, 0
    30c4:	32 bf ff f4 	bne,a   3094 <process_dl_debug+0xd8>
    30c8:	a4 04 a0 01 	inc  %l2
    30cc:	82 04 00 14 	add  %l0, %l4, %g1
    30d0:	c6 10 60 34 	lduh  [ %g1 + 0x34 ], %g3
    30d4:	c4 06 c0 00 	ld  [ %i3 ], %g2
    30d8:	84 10 80 03 	or  %g2, %g3, %g2
    30dc:	c8 05 c0 15 	ld  [ %l7 + %l5 ], %g4
    30e0:	82 10 20 01 	mov  1, %g1
    30e4:	c2 21 00 00 	st  %g1, [ %g4 ]
    30e8:	c4 26 c0 00 	st  %g2, [ %i3 ]
    30ec:	39 00 00 01 	sethi  %hi(0x400), %i4
    30f0:	80 a4 a0 0a 	cmp  %l2, 0xa
    30f4:	02 80 00 3e 	be  31ec <process_dl_debug+0x230>
    30f8:	92 10 00 11 	mov  %l1, %o1
    30fc:	b0 06 00 11 	add  %i0, %l1, %i0
    3100:	c2 0e 00 00 	ldub  [ %i0 ], %g1
    3104:	83 28 60 18 	sll  %g1, 0x18, %g1
    3108:	80 a0 60 00 	cmp  %g1, 0
    310c:	12 bf ff c0 	bne  300c <process_dl_debug+0x50>
    3110:	89 38 60 18 	sra  %g1, 0x18, %g4
    3114:	82 17 23 dc 	or  %i4, 0x3dc, %g1
    3118:	c4 05 c0 01 	ld  [ %l7 + %g1 ], %g2
    311c:	c6 00 80 00 	ld  [ %g2 ], %g3
    3120:	80 88 e2 00 	btst  0x200, %g3
    3124:	02 80 00 45 	be  3238 <process_dl_debug+0x27c>
    3128:	03 00 00 00 	sethi  %hi(0), %g1
    312c:	10 80 00 0e 	b  3164 <process_dl_debug+0x1a8>
    3130:	82 10 60 d0 	or  %g1, 0xd0, %g1	! d0 <GLIBC_2.0+0xd0>
    3134:	c2 0e 00 00 	ldub  [ %i0 ], %g1
    3138:	83 28 60 18 	sll  %g1, 0x18, %g1
    313c:	80 a0 60 00 	cmp  %g1, 0
    3140:	12 bf ff b3 	bne  300c <process_dl_debug+0x50>
    3144:	89 38 60 18 	sra  %g1, 0x18, %g4
    3148:	82 17 23 dc 	or  %i4, 0x3dc, %g1
    314c:	c4 05 c0 01 	ld  [ %l7 + %g1 ], %g2
    3150:	c6 00 80 00 	ld  [ %g2 ], %g3
    3154:	80 88 e2 00 	btst  0x200, %g3
    3158:	02 80 00 38 	be  3238 <process_dl_debug+0x27c>
    315c:	03 00 00 00 	sethi  %hi(0), %g1
    3160:	82 10 60 d0 	or  %g1, 0xd0, %g1	! d0 <GLIBC_2.0+0xd0>
    3164:	d2 05 c0 01 	ld  [ %l7 + %g1 ], %o1
    3168:	40 00 35 83 	call  10774 <_dl_dprintf>
    316c:	90 10 20 01 	mov  1, %o0
    3170:	03 00 00 00 	sethi  %hi(0), %g1
    3174:	05 00 00 00 	sethi  %hi(0), %g2
    3178:	82 10 60 44 	or  %g1, 0x44, %g1
    317c:	84 10 a0 d4 	or  %g2, 0xd4, %g2
    3180:	e6 05 c0 01 	ld  [ %l7 + %g1 ], %l3
    3184:	c6 05 c0 02 	ld  [ %l7 + %g2 ], %g3
    3188:	25 00 00 00 	sethi  %hi(0), %l2
    318c:	aa 00 ff fd 	add  %g3, -3, %l5
    3190:	a4 14 a0 d8 	or  %l2, 0xd8, %l2
    3194:	b0 04 e0 0b 	add  %l3, 0xb, %i0
    3198:	a0 10 20 00 	clr  %l0
    319c:	a8 04 e0 01 	add  %l3, 1, %l4
    31a0:	a2 10 20 09 	mov  9, %l1
    31a4:	d4 0c 00 13 	ldub  [ %l0 + %l3 ], %o2
    31a8:	96 04 00 14 	add  %l0, %l4, %o3
    31ac:	9a 04 00 18 	add  %l0, %i0, %o5
    31b0:	90 10 20 01 	mov  1, %o0
    31b4:	d2 05 c0 12 	ld  [ %l7 + %l2 ], %o1
    31b8:	40 00 35 6f 	call  10774 <_dl_dprintf>
    31bc:	98 02 80 15 	add  %o2, %l5, %o4
    31c0:	a2 84 7f ff 	addcc  %l1, -1, %l1
    31c4:	1c bf ff f8 	bpos  31a4 <process_dl_debug+0x1e8>
    31c8:	a0 04 20 36 	add  %l0, 0x36, %l0
    31cc:	03 00 00 00 	sethi  %hi(0), %g1
    31d0:	82 10 60 dc 	or  %g1, 0xdc, %g1	! dc <GLIBC_2.0+0xdc>
    31d4:	d2 05 c0 01 	ld  [ %l7 + %g1 ], %o1
    31d8:	40 00 35 67 	call  10774 <_dl_dprintf>
    31dc:	90 10 20 01 	mov  1, %o0
    31e0:	40 00 50 a9 	call  17484 <_Exit>
    31e4:	90 10 20 00 	clr  %o0
    31e8:	30 80 00 14 	b,a   3238 <process_dl_debug+0x27c>
    31ec:	40 00 53 5d 	call  17f60 <__strnlen>
    31f0:	90 10 00 18 	mov  %i0, %o0
    31f4:	82 02 20 08 	add  %o0, 8, %g1
    31f8:	82 08 7f f8 	and  %g1, -8, %g1
    31fc:	9c 23 80 01 	sub  %sp, %g1, %sp
    3200:	84 03 a0 60 	add  %sp, 0x60, %g2
    3204:	94 10 00 08 	mov  %o0, %o2
    3208:	c0 28 80 08 	clrb  [ %g2 + %o0 ]
    320c:	92 10 00 18 	mov  %i0, %o1
    3210:	40 00 57 4e 	call  18f48 <memcpy>
    3214:	90 10 00 02 	mov  %g2, %o0
    3218:	03 00 00 00 	sethi  %hi(0), %g1
    321c:	94 10 00 08 	mov  %o0, %o2
    3220:	82 10 60 e0 	or  %g1, 0xe0, %g1
    3224:	d2 05 c0 01 	ld  [ %l7 + %g1 ], %o1
    3228:	40 00 35 53 	call  10774 <_dl_dprintf>
    322c:	90 10 20 02 	mov  2, %o0
    3230:	10 bf ff b4 	b  3100 <process_dl_debug+0x144>
    3234:	b0 06 00 11 	add  %i0, %l1, %i0
    3238:	81 c7 e0 08 	ret 
    323c:	81 e8 00 00 	restore 

00003240 <dl_main>:
dl_main():
    3240:	9d e3 bd 00 	save  %sp, -768, %sp
    3244:	07 00 00 01 	sethi  %hi(0x400), %g3
    3248:	2f 00 00 b3 	sethi  %hi(0x2cc00), %l7
    324c:	7f ff fb f7 	call  2228 <map_doit+0x30>
    3250:	ae 05 e1 b4 	add  %l7, 0x1b4, %l7	! 2cdb4 <dummy_bucket.4+0xeb50>
    3254:	13 00 00 01 	sethi  %hi(0x400), %o1
    3258:	86 10 e3 c8 	or  %g3, 0x3c8, %g3
    325c:	03 00 00 01 	sethi  %hi(0x400), %g1
    3260:	1b 00 00 00 	sethi  %hi(0), %o5
    3264:	94 12 63 a4 	or  %o1, 0x3a4, %o2
    3268:	82 10 63 a8 	or  %g1, 0x3a8, %g1
    326c:	9a 13 60 28 	or  %o5, 0x28, %o5
    3270:	d0 05 c0 03 	ld  [ %l7 + %g3 ], %o0
    3274:	05 00 00 01 	sethi  %hi(0x400), %g2
    3278:	09 00 00 01 	sethi  %hi(0x400), %g4
    327c:	d2 05 c0 01 	ld  [ %l7 + %g1 ], %o1
    3280:	84 10 a3 b8 	or  %g2, 0x3b8, %g2
    3284:	88 11 23 a0 	or  %g4, 0x3a0, %g4
    3288:	c6 05 c0 0d 	ld  [ %l7 + %o5 ], %g3
    328c:	19 00 00 00 	sethi  %hi(0), %o4
    3290:	17 00 00 01 	sethi  %hi(0x400), %o3
    3294:	c2 05 c0 02 	ld  [ %l7 + %g2 ], %g1
    3298:	98 13 20 2c 	or  %o4, 0x2c, %o4
    329c:	96 12 e3 98 	or  %o3, 0x398, %o3
    32a0:	e0 05 c0 0a 	ld  [ %l7 + %o2 ], %l0
    32a4:	de 05 c0 04 	ld  [ %l7 + %g4 ], %o7
    32a8:	da 02 40 00 	ld  [ %o1 ], %o5
    32ac:	c4 05 c0 0b 	ld  [ %l7 + %o3 ], %g2
    32b0:	c8 05 c0 0c 	ld  [ %l7 + %o4 ], %g4
    32b4:	15 00 00 00 	sethi  %hi(0), %o2
    32b8:	13 00 00 01 	sethi  %hi(0x400), %o1
    32bc:	c4 20 65 d4 	st  %g2, [ %g1 + 0x5d4 ]
    32c0:	94 12 a0 e4 	or  %o2, 0xe4, %o2
    32c4:	d8 04 00 00 	ld  [ %l0 ], %o4
    32c8:	96 12 63 dc 	or  %o1, 0x3dc, %o3
    32cc:	d0 20 62 f4 	st  %o0, [ %g1 + 0x2f4 ]
    32d0:	de 20 65 fc 	st  %o7, [ %g1 + 0x5fc ]
    32d4:	c6 20 65 c8 	st  %g3, [ %g1 + 0x5c8 ]
    32d8:	c8 20 65 cc 	st  %g4, [ %g1 + 0x5cc ]
    32dc:	da 27 bd d4 	st  %o5, [ %fp + -556 ]
    32e0:	80 a3 20 00 	cmp  %o4, 0
    32e4:	c4 05 c0 0b 	ld  [ %l7 + %o3 ], %g2
    32e8:	c2 05 c0 0a 	ld  [ %l7 + %o2 ], %g1
    32ec:	a8 10 20 00 	clr  %l4
    32f0:	b8 10 20 00 	clr  %i4
    32f4:	aa 10 20 00 	clr  %l5
    32f8:	b6 10 20 00 	clr  %i3
    32fc:	ac 10 20 00 	clr  %l6
    3300:	02 80 00 03 	be  330c <dl_main+0xcc>
    3304:	ba 10 20 00 	clr  %i5
    3308:	82 00 60 09 	add  %g1, 9, %g1
    330c:	c2 20 a0 94 	st  %g1, [ %g2 + 0x94 ]
    3310:	40 00 4b 5d 	call  16084 <_dl_next_ld_env_entry>
    3314:	90 07 bd d4 	add  %fp, -556, %o0
    3318:	a2 92 20 00 	orcc  %o0, 0, %l1
    331c:	02 80 00 25 	be  33b0 <dl_main+0x170>
    3320:	13 00 00 01 	sethi  %hi(0x400), %o1
    3324:	c2 4c 40 00 	ldsb  [ %l1 ], %g1
    3328:	80 a0 00 01 	cmp  %g0, %g1
    332c:	86 40 20 00 	addx  %g0, 0, %g3
    3330:	82 18 60 3d 	xor  %g1, 0x3d, %g1
    3334:	80 a0 00 01 	cmp  %g0, %g1
    3338:	84 40 20 00 	addx  %g0, 0, %g2
    333c:	80 88 c0 02 	btst  %g3, %g2
    3340:	02 80 00 1a 	be  33a8 <dl_main+0x168>
    3344:	88 10 20 00 	clr  %g4
    3348:	88 01 20 01 	inc  %g4
    334c:	c2 4c 40 04 	ldsb  [ %l1 + %g4 ], %g1
    3350:	80 a0 00 01 	cmp  %g0, %g1
    3354:	86 40 20 00 	addx  %g0, 0, %g3
    3358:	82 18 60 3d 	xor  %g1, 0x3d, %g1
    335c:	80 a0 00 01 	cmp  %g0, %g1
    3360:	84 40 20 00 	addx  %g0, 0, %g2
    3364:	80 88 c0 02 	btst  %g3, %g2
    3368:	12 bf ff f8 	bne  3348 <dl_main+0x108>
    336c:	c2 0c 40 04 	ldub  [ %l1 + %g4 ], %g1
    3370:	83 28 60 18 	sll  %g1, 0x18, %g1
    3374:	83 38 60 18 	sra  %g1, 0x18, %g1
    3378:	80 a0 60 3d 	cmp  %g1, 0x3d
    337c:	12 bf ff e5 	bne  3310 <dl_main+0xd0>
    3380:	84 01 3f fc 	add  %g4, -4, %g2
    3384:	80 a0 a0 10 	cmp  %g2, 0x10
    3388:	18 bf ff e2 	bgu  3310 <dl_main+0xd0>
    338c:	03 00 00 b7 	sethi  %hi(0x2dc00), %g1
    3390:	82 10 63 80 	or  %g1, 0x380, %g1	! 2df80 <dummy_bucket.4+0xfd1c>
    3394:	86 25 c0 01 	sub  %l7, %g1, %g3
    3398:	85 28 a0 02 	sll  %g2, 2, %g2
    339c:	c2 00 c0 02 	ld  [ %g3 + %g2 ], %g1
    33a0:	81 c0 40 03 	jmp  %g1 + %g3
    33a4:	01 00 00 00 	nop 
    33a8:	10 bf ff f2 	b  3370 <dl_main+0x130>
    33ac:	c2 0c 40 00 	ldub  [ %l1 ], %g1
    33b0:	82 12 63 a4 	or  %o1, 0x3a4, %g1
    33b4:	c4 05 c0 01 	ld  [ %l7 + %g1 ], %g2
    33b8:	c6 00 80 00 	ld  [ %g2 ], %g3
    33bc:	80 a0 e0 00 	cmp  %g3, 0
    33c0:	12 80 08 fe 	bne  57b8 <dl_main+0x2578>
    33c4:	ec 27 bd dc 	st  %l6, [ %fp + -548 ]
    33c8:	03 00 00 00 	sethi  %hi(0), %g1
    33cc:	82 10 60 48 	or  %g1, 0x48, %g1	! 48 <GLIBC_2.0+0x48>
    33d0:	c4 05 c0 01 	ld  [ %l7 + %g1 ], %g2
    33d4:	c6 00 80 00 	ld  [ %g2 ], %g3
    33d8:	80 a0 00 03 	cmp  %g0, %g3
    33dc:	84 40 20 00 	addx  %g0, 0, %g2
    33e0:	80 a0 00 1d 	cmp  %g0, %i5
    33e4:	82 40 20 00 	addx  %g0, 0, %g1
    33e8:	80 88 80 01 	btst  %g2, %g1
    33ec:	12 80 05 d6 	bne  4b44 <dl_main+0x1904>
    33f0:	a4 10 00 0e 	mov  %sp, %l2
    33f4:	03 00 00 01 	sethi  %hi(0x400), %g1
    33f8:	82 10 63 d4 	or  %g1, 0x3d4, %g1	! 7d4 <GLIBC_2.0+0x7d4>
    33fc:	c6 05 c0 01 	ld  [ %l7 + %g1 ], %g3
    3400:	c4 06 80 00 	ld  [ %i2 ], %g2
    3404:	80 a0 80 03 	cmp  %g2, %g3
    3408:	02 80 03 98 	be  4268 <dl_main+0x1028>
    340c:	03 00 00 00 	sethi  %hi(0), %g1
    3410:	82 10 60 e8 	or  %g1, 0xe8, %g1	! e8 <GLIBC_2.0+0xe8>
    3414:	d0 05 c0 01 	ld  [ %l7 + %g1 ], %o0
    3418:	92 10 00 08 	mov  %o0, %o1
    341c:	94 10 20 00 	clr  %o2
    3420:	96 10 20 00 	clr  %o3
    3424:	19 08 00 00 	sethi  %hi(0x20000000), %o4
    3428:	40 00 23 68 	call  c1c8 <_dl_new_object>
    342c:	9a 10 20 00 	clr  %o5
    3430:	a6 92 20 00 	orcc  %o0, 0, %l3
    3434:	02 80 08 9f 	be  56b0 <dl_main+0x2470>
    3438:	13 00 00 01 	sethi  %hi(0x400), %o1
    343c:	82 12 63 b8 	or  %o1, 0x3b8, %g1	! 7b8 <GLIBC_2.0+0x7b8>
    3440:	c4 05 c0 01 	ld  [ %l7 + %g1 ], %g2
    3444:	c6 00 80 00 	ld  [ %g2 ], %g3
    3448:	80 a0 c0 13 	cmp  %g3, %l3
    344c:	12 80 08 8f 	bne  5688 <dl_main+0x2448>
    3450:	03 00 00 00 	sethi  %hi(0), %g1
    3454:	c2 06 80 00 	ld  [ %i2 ], %g1
    3458:	c2 24 e1 5c 	st  %g1, [ %l3 + 0x15c ]
    345c:	f0 24 e1 58 	st  %i0, [ %l3 + 0x158 ]
    3460:	f2 34 e1 60 	sth  %i1, [ %l3 + 0x160 ]
    3464:	c2 04 e1 90 	ld  [ %l3 + 0x190 ], %g1
    3468:	b3 2e 60 05 	sll  %i1, 5, %i1
    346c:	82 00 60 01 	inc  %g1
    3470:	86 06 40 18 	add  %i1, %i0, %g3
    3474:	84 10 3f ff 	mov  -1, %g2
    3478:	96 10 00 18 	mov  %i0, %o3
    347c:	c4 24 e1 b4 	st  %g2, [ %l3 + 0x1b4 ]
    3480:	c2 24 e1 90 	st  %g1, [ %l3 + 0x190 ]
    3484:	80 a0 c0 18 	cmp  %g3, %i0
    3488:	c0 24 e1 b8 	clr  [ %l3 + 0x1b8 ]
    348c:	08 80 00 42 	bleu  3594 <dl_main+0x354>
    3490:	c0 24 e1 bc 	clr  [ %l3 + 0x1bc ]
    3494:	05 00 00 00 	sethi  %hi(0), %g2
    3498:	07 00 00 01 	sethi  %hi(0x400), %g3
    349c:	09 00 00 00 	sethi  %hi(0), %g4
    34a0:	84 10 a0 6c 	or  %g2, 0x6c, %g2
    34a4:	86 10 e3 b8 	or  %g3, 0x3b8, %g3
    34a8:	88 11 20 70 	or  %g4, 0x70, %g4
    34ac:	03 19 1d 39 	sethi  %hi(0x6474e400), %g1
    34b0:	90 10 61 51 	or  %g1, 0x151, %o0	! 6474e551 <_end+0x6471d5c9>
    34b4:	d8 05 c0 02 	ld  [ %l7 + %g2 ], %o4
    34b8:	d4 05 c0 03 	ld  [ %l7 + %g3 ], %o2
    34bc:	10 80 00 0e 	b  34f4 <dl_main+0x2b4>
    34c0:	d2 05 c0 04 	ld  [ %l7 + %g4 ], %o1
    34c4:	22 80 03 5e 	be,a   423c <dl_main+0xffc>
    34c8:	c2 04 c0 00 	ld  [ %l3 ], %g1
    34cc:	18 80 03 39 	bgu  41b0 <dl_main+0xf70>
    34d0:	80 a0 a0 03 	cmp  %g2, 3
    34d4:	80 a0 a0 01 	cmp  %g2, 1
    34d8:	22 80 05 bf 	be,a   4bd4 <dl_main+0x1994>
    34dc:	c2 02 e0 1c 	ld  [ %o3 + 0x1c ], %g1
    34e0:	96 02 e0 20 	add  %o3, 0x20, %o3
    34e4:	82 06 40 18 	add  %i1, %i0, %g1
    34e8:	80 a0 40 0b 	cmp  %g1, %o3
    34ec:	28 80 00 2b 	bleu,a   3598 <dl_main+0x358>
    34f0:	c4 04 e2 28 	ld  [ %l3 + 0x228 ], %g2
    34f4:	c4 02 c0 00 	ld  [ %o3 ], %g2
    34f8:	80 a0 a0 06 	cmp  %g2, 6
    34fc:	22 80 01 44 	be,a   3a0c <dl_main+0x7cc>
    3500:	c2 02 e0 08 	ld  [ %o3 + 8 ], %g1
    3504:	08 bf ff f0 	bleu  34c4 <dl_main+0x284>
    3508:	80 a0 a0 02 	cmp  %g2, 2
    350c:	80 a0 80 08 	cmp  %g2, %o0
    3510:	22 80 03 4f 	be,a   424c <dl_main+0x100c>
    3514:	c2 02 e0 18 	ld  [ %o3 + 0x18 ], %g1
    3518:	18 80 03 37 	bgu  41f4 <dl_main+0xfb4>
    351c:	03 19 1d 39 	sethi  %hi(0x6474e400), %g1
    3520:	80 a0 a0 07 	cmp  %g2, 7
    3524:	32 bf ff f0 	bne,a   34e4 <dl_main+0x2a4>
    3528:	96 02 e0 20 	add  %o3, 0x20, %o3
    352c:	c2 02 e0 14 	ld  [ %o3 + 0x14 ], %g1
    3530:	80 a0 60 00 	cmp  %g1, 0
    3534:	22 bf ff ec 	be,a   34e4 <dl_main+0x2a4>
    3538:	96 02 e0 20 	add  %o3, 0x20, %o3
    353c:	c2 24 e2 30 	st  %g1, [ %l3 + 0x230 ]
    3540:	c2 02 e0 1c 	ld  [ %o3 + 0x1c ], %g1
    3544:	c2 24 e2 34 	st  %g1, [ %l3 + 0x234 ]
    3548:	c4 02 e0 1c 	ld  [ %o3 + 0x1c ], %g2
    354c:	80 a0 a0 00 	cmp  %g2, 0
    3550:	22 80 00 06 	be,a   3568 <dl_main+0x328>
    3554:	c0 24 e2 38 	clr  [ %l3 + 0x238 ]
    3558:	c2 02 e0 08 	ld  [ %o3 + 8 ], %g1
    355c:	84 00 bf ff 	add  %g2, -1, %g2
    3560:	82 08 40 02 	and  %g1, %g2, %g1
    3564:	c2 24 e2 38 	st  %g1, [ %l3 + 0x238 ]
    3568:	c2 02 e0 10 	ld  [ %o3 + 0x10 ], %g1
    356c:	c2 24 e2 2c 	st  %g1, [ %l3 + 0x22c ]
    3570:	c4 02 e0 08 	ld  [ %o3 + 8 ], %g2
    3574:	82 10 20 01 	mov  1, %g1
    3578:	c2 24 e2 40 	st  %g1, [ %l3 + 0x240 ]
    357c:	c2 22 a5 d8 	st  %g1, [ %o2 + 0x5d8 ]
    3580:	96 02 e0 20 	add  %o3, 0x20, %o3
    3584:	82 06 40 18 	add  %i1, %i0, %g1
    3588:	80 a0 40 0b 	cmp  %g1, %o3
    358c:	18 bf ff da 	bgu  34f4 <dl_main+0x2b4>
    3590:	c4 24 e2 28 	st  %g2, [ %l3 + 0x228 ]
    3594:	c4 04 e2 28 	ld  [ %l3 + 0x228 ], %g2
    3598:	80 a0 a0 00 	cmp  %g2, 0
    359c:	22 80 00 06 	be,a   35b4 <dl_main+0x374>
    35a0:	c2 04 e1 b8 	ld  [ %l3 + 0x1b8 ], %g1
    35a4:	c2 04 c0 00 	ld  [ %l3 ], %g1
    35a8:	82 00 80 01 	add  %g2, %g1, %g1
    35ac:	c2 24 e2 28 	st  %g1, [ %l3 + 0x228 ]
    35b0:	c2 04 e1 b8 	ld  [ %l3 + 0x1b8 ], %g1
    35b4:	80 a0 60 00 	cmp  %g1, 0
    35b8:	32 80 00 05 	bne,a   35cc <dl_main+0x38c>
    35bc:	c2 04 e1 bc 	ld  [ %l3 + 0x1bc ], %g1
    35c0:	82 10 3f ff 	mov  -1, %g1
    35c4:	c2 24 e1 b8 	st  %g1, [ %l3 + 0x1b8 ]
    35c8:	c2 04 e1 bc 	ld  [ %l3 + 0x1bc ], %g1
    35cc:	80 a0 60 00 	cmp  %g1, 0
    35d0:	12 80 00 04 	bne  35e0 <dl_main+0x3a0>
    35d4:	05 00 00 01 	sethi  %hi(0x400), %g2
    35d8:	82 10 3f ff 	mov  -1, %g1
    35dc:	c2 24 e1 bc 	st  %g1, [ %l3 + 0x1bc ]
    35e0:	82 10 a3 b8 	or  %g2, 0x3b8, %g1
    35e4:	c6 05 c0 01 	ld  [ %l7 + %g1 ], %g3
    35e8:	c4 00 e3 14 	ld  [ %g3 + 0x314 ], %g2
    35ec:	80 a0 a0 00 	cmp  %g2, 0
    35f0:	12 80 00 0c 	bne  3620 <dl_main+0x3e0>
    35f4:	09 00 00 01 	sethi  %hi(0x400), %g4
    35f8:	c8 00 e2 fc 	ld  [ %g3 + 0x2fc ], %g4
    35fc:	80 a1 20 00 	cmp  %g4, 0
    3600:	22 80 05 a6 	be,a   4c98 <dl_main+0x1a58>
    3604:	07 00 00 01 	sethi  %hi(0x400), %g3
    3608:	03 00 00 00 	sethi  %hi(0), %g1
    360c:	82 10 60 6c 	or  %g1, 0x6c, %g1	! 6c <GLIBC_2.0+0x6c>
    3610:	c4 05 c0 01 	ld  [ %l7 + %g1 ], %g2
    3614:	c4 20 e3 14 	st  %g2, [ %g3 + 0x314 ]
    3618:	c8 20 80 00 	st  %g4, [ %g2 ]
    361c:	09 00 00 01 	sethi  %hi(0x400), %g4
    3620:	82 11 23 b8 	or  %g4, 0x3b8, %g1	! 7b8 <GLIBC_2.0+0x7b8>
    3624:	d0 05 c0 01 	ld  [ %l7 + %g1 ], %o0
    3628:	c4 02 23 50 	ld  [ %o0 + 0x350 ], %g2
    362c:	80 a0 a0 00 	cmp  %g2, 0
    3630:	02 80 00 19 	be  3694 <dl_main+0x454>
    3634:	13 00 00 01 	sethi  %hi(0x400), %o1
    3638:	c2 02 23 2c 	ld  [ %o0 + 0x32c ], %g1
    363c:	c6 00 60 04 	ld  [ %g1 + 4 ], %g3
    3640:	c4 00 a0 04 	ld  [ %g2 + 4 ], %g2
    3644:	a2 00 c0 02 	add  %g3, %g2, %l1
    3648:	e0 02 23 14 	ld  [ %o0 + 0x314 ], %l0
    364c:	d0 04 00 00 	ld  [ %l0 ], %o0
    3650:	40 00 51 45 	call  17b64 <strcmp>
    3654:	92 10 00 11 	mov  %l1, %o1
    3658:	80 a2 20 00 	cmp  %o0, 0
    365c:	02 80 00 0e 	be  3694 <dl_main+0x454>
    3660:	13 00 00 01 	sethi  %hi(0x400), %o1
    3664:	03 00 00 00 	sethi  %hi(0), %g1
    3668:	82 10 60 54 	or  %g1, 0x54, %g1	! 54 <GLIBC_2.0+0x54>
    366c:	c6 05 c0 01 	ld  [ %l7 + %g1 ], %g3
    3670:	c0 20 e0 04 	clr  [ %g3 + 4 ]
    3674:	c4 04 20 04 	ld  [ %l0 + 4 ], %g2
    3678:	82 10 20 01 	mov  1, %g1
    367c:	e2 20 c0 00 	st  %l1, [ %g3 ]
    3680:	80 a0 a0 00 	cmp  %g2, 0
    3684:	12 80 08 21 	bne  5708 <dl_main+0x24c8>
    3688:	c2 20 e0 08 	st  %g1, [ %g3 + 8 ]
    368c:	c6 24 20 04 	st  %g3, [ %l0 + 4 ]
    3690:	13 00 00 01 	sethi  %hi(0x400), %o1
    3694:	82 12 63 b8 	or  %o1, 0x3b8, %g1	! 7b8 <GLIBC_2.0+0x7b8>
    3698:	c6 05 c0 01 	ld  [ %l7 + %g1 ], %g3
    369c:	c4 00 e4 8c 	ld  [ %g3 + 0x48c ], %g2
    36a0:	85 30 a0 1d 	srl  %g2, 0x1d, %g2
    36a4:	80 88 a0 01 	btst  1, %g2
    36a8:	02 80 08 0d 	be  56dc <dl_main+0x249c>
    36ac:	80 8d 60 ff 	btst  0xff, %l5
    36b0:	32 80 00 91 	bne,a   38f4 <dl_main+0x6b4>
    36b4:	c2 07 bd dc 	ld  [ %fp + -548 ], %g1
    36b8:	c8 04 e0 08 	ld  [ %l3 + 8 ], %g4
    36bc:	80 a1 20 00 	cmp  %g4, 0
    36c0:	02 80 00 8a 	be  38e8 <dl_main+0x6a8>
    36c4:	01 00 00 00 	nop 
    36c8:	c6 01 00 00 	ld  [ %g4 ], %g3
    36cc:	80 a0 e0 00 	cmp  %g3, 0
    36d0:	02 80 00 1d 	be  3744 <dl_main+0x504>
    36d4:	9a 04 e0 20 	add  %l3, 0x20, %o5
    36d8:	03 10 00 00 	sethi  %hi(0x40000000), %g1
    36dc:	05 1c 00 00 	sethi  %hi(0x70000000), %g2
    36e0:	94 10 60 88 	or  %g1, 0x88, %o2
    36e4:	10 80 00 0f 	b  3720 <dl_main+0x4e0>
    36e8:	92 10 a0 23 	or  %g2, 0x23, %o1
    36ec:	03 24 00 00 	sethi  %hi(0x90000000), %g1
    36f0:	82 00 c0 01 	add  %g3, %g1, %g1
    36f4:	80 a0 60 01 	cmp  %g1, 1
    36f8:	18 80 02 c8 	bgu  4218 <dl_main+0xfd8>
    36fc:	17 1b ff ff 	sethi  %hi(0x6ffffc00), %o3
    3700:	83 28 e0 02 	sll  %g3, 2, %g1
    3704:	82 00 40 0d 	add  %g1, %o5, %g1
    3708:	c8 20 40 0a 	st  %g4, [ %g1 + %o2 ]
    370c:	88 01 20 08 	add  %g4, 8, %g4
    3710:	c6 01 00 00 	ld  [ %g4 ], %g3
    3714:	80 a0 e0 00 	cmp  %g3, 0
    3718:	22 80 00 0c 	be,a   3748 <dl_main+0x508>
    371c:	c6 04 c0 00 	ld  [ %l3 ], %g3
    3720:	80 a0 e0 21 	cmp  %g3, 0x21
    3724:	14 bf ff f2 	bg  36ec <dl_main+0x4ac>
    3728:	83 28 e0 02 	sll  %g3, 2, %g1
    372c:	c8 23 40 01 	st  %g4, [ %o5 + %g1 ]
    3730:	88 01 20 08 	add  %g4, 8, %g4
    3734:	c6 01 00 00 	ld  [ %g4 ], %g3
    3738:	80 a0 e0 00 	cmp  %g3, 0
    373c:	12 bf ff fa 	bne  3724 <dl_main+0x4e4>
    3740:	80 a0 e0 21 	cmp  %g3, 0x21
    3744:	c6 04 c0 00 	ld  [ %l3 ], %g3
    3748:	80 a0 e0 00 	cmp  %g3, 0
    374c:	22 80 00 3b 	be,a   3838 <dl_main+0x5f8>
    3750:	c2 03 60 50 	ld  [ %o5 + 0x50 ], %g1
    3754:	c4 03 60 10 	ld  [ %o5 + 0x10 ], %g2
    3758:	80 a0 a0 00 	cmp  %g2, 0
    375c:	22 80 00 06 	be,a   3774 <dl_main+0x534>
    3760:	c4 03 60 0c 	ld  [ %o5 + 0xc ], %g2
    3764:	c2 00 a0 04 	ld  [ %g2 + 4 ], %g1
    3768:	82 00 40 03 	add  %g1, %g3, %g1
    376c:	c2 20 a0 04 	st  %g1, [ %g2 + 4 ]
    3770:	c4 03 60 0c 	ld  [ %o5 + 0xc ], %g2
    3774:	80 a0 a0 00 	cmp  %g2, 0
    3778:	22 80 00 06 	be,a   3790 <dl_main+0x550>
    377c:	c4 03 60 14 	ld  [ %o5 + 0x14 ], %g2
    3780:	c2 00 a0 04 	ld  [ %g2 + 4 ], %g1
    3784:	82 00 40 03 	add  %g1, %g3, %g1
    3788:	c2 20 a0 04 	st  %g1, [ %g2 + 4 ]
    378c:	c4 03 60 14 	ld  [ %o5 + 0x14 ], %g2
    3790:	80 a0 a0 00 	cmp  %g2, 0
    3794:	22 80 00 06 	be,a   37ac <dl_main+0x56c>
    3798:	c4 03 60 18 	ld  [ %o5 + 0x18 ], %g2
    379c:	c2 00 a0 04 	ld  [ %g2 + 4 ], %g1
    37a0:	82 00 40 03 	add  %g1, %g3, %g1
    37a4:	c2 20 a0 04 	st  %g1, [ %g2 + 4 ]
    37a8:	c4 03 60 18 	ld  [ %o5 + 0x18 ], %g2
    37ac:	80 a0 a0 00 	cmp  %g2, 0
    37b0:	22 80 00 06 	be,a   37c8 <dl_main+0x588>
    37b4:	c4 03 60 1c 	ld  [ %o5 + 0x1c ], %g2
    37b8:	c2 00 a0 04 	ld  [ %g2 + 4 ], %g1
    37bc:	82 00 40 03 	add  %g1, %g3, %g1
    37c0:	c2 20 a0 04 	st  %g1, [ %g2 + 4 ]
    37c4:	c4 03 60 1c 	ld  [ %o5 + 0x1c ], %g2
    37c8:	80 a0 a0 00 	cmp  %g2, 0
    37cc:	22 80 00 06 	be,a   37e4 <dl_main+0x5a4>
    37d0:	c4 03 60 5c 	ld  [ %o5 + 0x5c ], %g2
    37d4:	c2 00 a0 04 	ld  [ %g2 + 4 ], %g1
    37d8:	82 00 40 03 	add  %g1, %g3, %g1
    37dc:	c2 20 a0 04 	st  %g1, [ %g2 + 4 ]
    37e0:	c4 03 60 5c 	ld  [ %o5 + 0x5c ], %g2
    37e4:	80 a0 a0 00 	cmp  %g2, 0
    37e8:	22 80 00 06 	be,a   3800 <dl_main+0x5c0>
    37ec:	c4 03 60 cc 	ld  [ %o5 + 0xcc ], %g2
    37f0:	c2 00 a0 04 	ld  [ %g2 + 4 ], %g1
    37f4:	82 00 40 03 	add  %g1, %g3, %g1
    37f8:	c2 20 a0 04 	st  %g1, [ %g2 + 4 ]
    37fc:	c4 03 60 cc 	ld  [ %o5 + 0xcc ], %g2
    3800:	80 a0 a0 00 	cmp  %g2, 0
    3804:	22 80 00 06 	be,a   381c <dl_main+0x5dc>
    3808:	c4 03 61 34 	ld  [ %o5 + 0x134 ], %g2
    380c:	c2 00 a0 04 	ld  [ %g2 + 4 ], %g1
    3810:	82 00 40 03 	add  %g1, %g3, %g1
    3814:	c2 20 a0 04 	st  %g1, [ %g2 + 4 ]
    3818:	c4 03 61 34 	ld  [ %o5 + 0x134 ], %g2
    381c:	80 a0 a0 00 	cmp  %g2, 0
    3820:	22 80 00 06 	be,a   3838 <dl_main+0x5f8>
    3824:	c2 03 60 50 	ld  [ %o5 + 0x50 ], %g1
    3828:	c2 00 a0 04 	ld  [ %g2 + 4 ], %g1
    382c:	82 00 40 03 	add  %g1, %g3, %g1
    3830:	c2 20 a0 04 	st  %g1, [ %g2 + 4 ]
    3834:	c2 03 60 50 	ld  [ %o5 + 0x50 ], %g1
    3838:	80 a0 60 00 	cmp  %g1, 0
    383c:	22 80 00 07 	be,a   3858 <dl_main+0x618>
    3840:	c2 03 60 1c 	ld  [ %o5 + 0x1c ], %g1
    3844:	c2 00 60 04 	ld  [ %g1 + 4 ], %g1
    3848:	80 a0 60 07 	cmp  %g1, 7
    384c:	12 80 08 00 	bne  584c <dl_main+0x260c>
    3850:	03 00 00 00 	sethi  %hi(0), %g1
    3854:	c2 03 60 1c 	ld  [ %o5 + 0x1c ], %g1
    3858:	80 a0 60 00 	cmp  %g1, 0
    385c:	22 80 00 08 	be,a   387c <dl_main+0x63c>
    3860:	c4 03 60 78 	ld  [ %o5 + 0x78 ], %g2
    3864:	c2 03 60 24 	ld  [ %o5 + 0x24 ], %g1
    3868:	c4 00 60 04 	ld  [ %g1 + 4 ], %g2
    386c:	80 a0 a0 0c 	cmp  %g2, 0xc
    3870:	12 80 07 b1 	bne  5734 <dl_main+0x24f4>
    3874:	03 00 00 00 	sethi  %hi(0), %g1
    3878:	c4 03 60 78 	ld  [ %o5 + 0x78 ], %g2
    387c:	80 a0 a0 00 	cmp  %g2, 0
    3880:	22 80 00 0e 	be,a   38b8 <dl_main+0x678>
    3884:	c4 03 60 a0 	ld  [ %o5 + 0xa0 ], %g2
    3888:	c2 00 a0 04 	ld  [ %g2 + 4 ], %g1
    388c:	80 88 60 02 	btst  2, %g1
    3890:	02 80 00 03 	be  389c <dl_main+0x65c>
    3894:	c2 24 e2 10 	st  %g1, [ %l3 + 0x210 ]
    3898:	c4 23 60 40 	st  %g2, [ %o5 + 0x40 ]
    389c:	80 88 60 04 	btst  4, %g1
    38a0:	32 80 00 02 	bne,a   38a8 <dl_main+0x668>
    38a4:	c4 23 60 58 	st  %g2, [ %o5 + 0x58 ]
    38a8:	80 88 60 08 	btst  8, %g1
    38ac:	32 80 00 02 	bne,a   38b4 <dl_main+0x674>
    38b0:	c4 23 60 60 	st  %g2, [ %o5 + 0x60 ]
    38b4:	c4 03 60 a0 	ld  [ %o5 + 0xa0 ], %g2
    38b8:	80 a0 a0 00 	cmp  %g2, 0
    38bc:	22 80 00 08 	be,a   38dc <dl_main+0x69c>
    38c0:	c2 03 60 74 	ld  [ %o5 + 0x74 ], %g1
    38c4:	c2 00 a0 04 	ld  [ %g2 + 4 ], %g1
    38c8:	80 88 60 01 	btst  1, %g1
    38cc:	02 80 00 03 	be  38d8 <dl_main+0x698>
    38d0:	c2 24 e2 0c 	st  %g1, [ %l3 + 0x20c ]
    38d4:	c4 23 60 60 	st  %g2, [ %o5 + 0x60 ]
    38d8:	c2 03 60 74 	ld  [ %o5 + 0x74 ], %g1
    38dc:	80 a0 60 00 	cmp  %g1, 0
    38e0:	32 80 00 02 	bne,a   38e8 <dl_main+0x6a8>
    38e4:	c0 23 60 3c 	clr  [ %o5 + 0x3c ]
    38e8:	40 00 1f 00 	call  b4e8 <_dl_setup_hash>
    38ec:	90 10 00 13 	mov  %l3, %o0
    38f0:	c2 07 bd dc 	ld  [ %fp + -548 ], %g1
    38f4:	80 a0 60 02 	cmp  %g1, 2
    38f8:	02 80 07 df 	be  5874 <dl_main+0x2634>
    38fc:	05 00 00 01 	sethi  %hi(0x400), %g2
    3900:	82 10 a3 dc 	or  %g2, 0x3dc, %g1	! 7dc <GLIBC_2.0+0x7dc>
    3904:	07 00 00 01 	sethi  %hi(0x400), %g3
    3908:	e0 05 c0 01 	ld  [ %l7 + %g1 ], %l0
    390c:	84 10 e3 b8 	or  %g3, 0x3b8, %g2
    3910:	c6 05 c0 02 	ld  [ %l7 + %g2 ], %g3
    3914:	c2 04 20 a4 	ld  [ %l0 + 0xa4 ], %g1
    3918:	80 a0 60 00 	cmp  %g1, 0
    391c:	12 80 03 4b 	bne  4648 <dl_main+0x1408>
    3920:	ac 00 e3 04 	add  %g3, 0x304, %l6
    3924:	03 00 00 01 	sethi  %hi(0x400), %g1
    3928:	84 10 63 dc 	or  %g1, 0x3dc, %g2	! 7dc <GLIBC_2.0+0x7dc>
    392c:	c2 05 c0 02 	ld  [ %l7 + %g2 ], %g1
    3930:	c2 00 60 a8 	ld  [ %g1 + 0xa8 ], %g1
    3934:	80 a0 60 00 	cmp  %g1, 0
    3938:	02 80 00 38 	be  3a18 <dl_main+0x7d8>
    393c:	a4 10 20 00 	clr  %l2
    3940:	ea 10 61 60 	lduh  [ %g1 + 0x160 ], %l5
    3944:	80 a4 80 15 	cmp  %l2, %l5
    3948:	1a 80 00 34 	bcc  3a18 <dl_main+0x7d8>
    394c:	c2 00 61 58 	ld  [ %g1 + 0x158 ], %g1
    3950:	ba 10 00 02 	mov  %g2, %i5
    3954:	a2 10 00 01 	mov  %g1, %l1
    3958:	10 80 00 06 	b  3970 <dl_main+0x730>
    395c:	b0 10 20 0c 	mov  0xc, %i0
    3960:	a4 04 a0 01 	inc  %l2
    3964:	80 a4 80 15 	cmp  %l2, %l5
    3968:	1a 80 00 2c 	bcc  3a18 <dl_main+0x7d8>
    396c:	a2 04 60 20 	add  %l1, 0x20, %l1
    3970:	c2 04 40 00 	ld  [ %l1 ], %g1
    3974:	80 a0 60 04 	cmp  %g1, 4
    3978:	32 bf ff fb 	bne,a   3964 <dl_main+0x724>
    397c:	a4 04 a0 01 	inc  %l2
    3980:	c2 05 c0 1d 	ld  [ %l7 + %i5 ], %g1
    3984:	c4 00 60 a8 	ld  [ %g1 + 0xa8 ], %g2
    3988:	c2 04 60 08 	ld  [ %l1 + 8 ], %g1
    398c:	c6 00 80 00 	ld  [ %g2 ], %g3
    3990:	a0 00 40 03 	add  %g1, %g3, %l0
    3994:	c2 04 60 14 	ld  [ %l1 + 0x14 ], %g1
    3998:	80 a6 00 01 	cmp  %i0, %g1
    399c:	1a bf ff f1 	bcc  3960 <dl_main+0x720>
    39a0:	a8 10 00 10 	mov  %l0, %l4
    39a4:	05 00 00 00 	sethi  %hi(0), %g2
    39a8:	b4 10 00 01 	mov  %g1, %i2
    39ac:	10 80 00 0f 	b  39e8 <dl_main+0x7a8>
    39b0:	b2 10 a0 60 	or  %g2, 0x60, %i1
    39b4:	c4 04 20 04 	ld  [ %l0 + 4 ], %g2
    39b8:	82 00 60 03 	add  %g1, 3, %g1
    39bc:	82 08 7f fc 	and  %g1, -4, %g1
    39c0:	84 00 a0 03 	add  %g2, 3, %g2
    39c4:	82 00 40 10 	add  %g1, %l0, %g1
    39c8:	84 08 bf fc 	and  %g2, -4, %g2
    39cc:	82 00 40 02 	add  %g1, %g2, %g1
    39d0:	a0 00 60 0c 	add  %g1, 0xc, %l0
    39d4:	84 24 00 14 	sub  %l0, %l4, %g2
    39d8:	84 00 a0 0c 	add  %g2, 0xc, %g2
    39dc:	80 a0 80 1a 	cmp  %g2, %i2
    39e0:	3a bf ff e1 	bcc,a   3964 <dl_main+0x724>
    39e4:	a4 04 a0 01 	inc  %l2
    39e8:	90 10 00 10 	mov  %l0, %o0
    39ec:	d2 05 c0 19 	ld  [ %l7 + %i1 ], %o1
    39f0:	40 00 52 01 	call  181f4 <bcmp>
    39f4:	94 10 20 14 	mov  0x14, %o2
    39f8:	80 a2 20 00 	cmp  %o0, 0
    39fc:	32 bf ff ee 	bne,a   39b4 <dl_main+0x774>
    3a00:	c2 04 00 00 	ld  [ %l0 ], %g1
    3a04:	10 80 00 3b 	b  3af0 <dl_main+0x8b0>
    3a08:	c4 04 20 14 	ld  [ %l0 + 0x14 ], %g2
    3a0c:	86 26 00 01 	sub  %i0, %g1, %g3
    3a10:	10 bf fe b4 	b  34e0 <dl_main+0x2a0>
    3a14:	c6 24 c0 00 	st  %g3, [ %l3 ]
    3a18:	40 00 4e 93 	call  17464 <__uname>
    3a1c:	90 07 be 10 	add  %fp, -496, %o0
    3a20:	80 a2 20 00 	cmp  %o0, 0
    3a24:	12 80 04 88 	bne  4c44 <dl_main+0x1a04>
    3a28:	a4 07 bf 98 	add  %fp, -104, %l2
    3a2c:	a4 07 be 92 	add  %fp, -366, %l2
    3a30:	c4 0c 80 00 	ldub  [ %l2 ], %g2
    3a34:	82 00 bf d0 	add  %g2, -48, %g1
    3a38:	82 08 60 ff 	and  %g1, 0xff, %g1
    3a3c:	92 10 00 12 	mov  %l2, %o1
    3a40:	80 a0 60 09 	cmp  %g1, 9
    3a44:	90 10 20 00 	clr  %o0
    3a48:	18 80 02 03 	bgu  4254 <dl_main+0x1014>
    3a4c:	9a 10 20 00 	clr  %o5
    3a50:	92 02 60 01 	inc  %o1
    3a54:	c8 0a 40 00 	ldub  [ %o1 ], %g4
    3a58:	85 28 a0 18 	sll  %g2, 0x18, %g2
    3a5c:	82 01 3f d0 	add  %g4, -48, %g1
    3a60:	85 38 a0 18 	sra  %g2, 0x18, %g2
    3a64:	82 08 60 ff 	and  %g1, 0xff, %g1
    3a68:	80 a0 60 09 	cmp  %g1, 9
    3a6c:	18 80 00 0f 	bgu  3aa8 <dl_main+0x868>
    3a70:	86 00 bf d0 	add  %g2, -48, %g3
    3a74:	85 28 e0 02 	sll  %g3, 2, %g2
    3a78:	83 29 20 18 	sll  %g4, 0x18, %g1
    3a7c:	84 00 80 03 	add  %g2, %g3, %g2
    3a80:	92 02 60 01 	inc  %o1
    3a84:	86 00 80 02 	add  %g2, %g2, %g3
    3a88:	c8 0a 40 00 	ldub  [ %o1 ], %g4
    3a8c:	83 38 60 18 	sra  %g1, 0x18, %g1
    3a90:	84 01 3f d0 	add  %g4, -48, %g2
    3a94:	82 00 40 03 	add  %g1, %g3, %g1
    3a98:	84 08 a0 ff 	and  %g2, 0xff, %g2
    3a9c:	80 a0 a0 09 	cmp  %g2, 9
    3aa0:	08 bf ff f5 	bleu  3a74 <dl_main+0x834>
    3aa4:	86 00 7f d0 	add  %g1, -48, %g3
    3aa8:	83 29 20 18 	sll  %g4, 0x18, %g1
    3aac:	91 2a 20 08 	sll  %o0, 8, %o0
    3ab0:	83 38 60 18 	sra  %g1, 0x18, %g1
    3ab4:	90 12 00 03 	or  %o0, %g3, %o0
    3ab8:	80 a0 60 2e 	cmp  %g1, 0x2e
    3abc:	9a 03 60 01 	inc  %o5
    3ac0:	12 80 00 08 	bne  3ae0 <dl_main+0x8a0>
    3ac4:	92 02 60 01 	inc  %o1
    3ac8:	c4 0a 40 00 	ldub  [ %o1 ], %g2
    3acc:	82 00 bf d0 	add  %g2, -48, %g1
    3ad0:	82 08 60 ff 	and  %g1, 0xff, %g1
    3ad4:	80 a0 60 09 	cmp  %g1, 9
    3ad8:	28 bf ff df 	bleu,a   3a54 <dl_main+0x814>
    3adc:	92 02 60 01 	inc  %o1
    3ae0:	80 a3 60 02 	cmp  %o5, 2
    3ae4:	04 80 01 dd 	ble  4258 <dl_main+0x1018>
    3ae8:	82 10 20 03 	mov  3, %g1
    3aec:	84 10 00 08 	mov  %o0, %g2
    3af0:	80 a0 a0 00 	cmp  %g2, 0
    3af4:	06 80 06 1e 	bl  536c <dl_main+0x212c>
    3af8:	07 00 00 01 	sethi  %hi(0x400), %g3
    3afc:	82 10 e3 dc 	or  %g3, 0x3dc, %g1	! 7dc <GLIBC_2.0+0x7dc>
    3b00:	c6 05 c0 01 	ld  [ %l7 + %g1 ], %g3
    3b04:	c2 00 e0 08 	ld  [ %g3 + 8 ], %g1
    3b08:	80 a0 60 00 	cmp  %g1, 0
    3b0c:	12 80 06 b4 	bne  55dc <dl_main+0x239c>
    3b10:	80 a0 40 02 	cmp  %g1, %g2
    3b14:	c4 20 e0 08 	st  %g2, [ %g3 + 8 ]
    3b18:	03 00 00 81 	sethi  %hi(0x20400), %g1
    3b1c:	82 10 62 11 	or  %g1, 0x211, %g1	! 20611 <dummy_bucket.4+0x23ad>
    3b20:	80 a0 80 01 	cmp  %g2, %g1
    3b24:	04 80 07 48 	ble  5844 <dl_main+0x2604>
    3b28:	03 00 00 00 	sethi  %hi(0), %g1
    3b2c:	03 00 00 00 	sethi  %hi(0), %g1
    3b30:	82 10 60 74 	or  %g1, 0x74, %g1	! 74 <GLIBC_2.0+0x74>
    3b34:	c4 05 c0 01 	ld  [ %l7 + %g1 ], %g2
    3b38:	40 00 0e d3 	call  7684 <_dl_init_paths>
    3b3c:	d0 00 80 00 	ld  [ %g2 ], %o0
    3b40:	09 00 00 01 	sethi  %hi(0x400), %g4
    3b44:	82 11 23 b8 	or  %g4, 0x3b8, %g1	! 7b8 <GLIBC_2.0+0x7b8>
    3b48:	e0 05 c0 01 	ld  [ %l7 + %g1 ], %l0
    3b4c:	d0 04 22 f8 	ld  [ %l0 + 0x2f8 ], %o0
    3b50:	40 00 31 68 	call  100f0 <_dl_debug_initialize>
    3b54:	92 10 20 00 	clr  %o1
    3b58:	c2 04 22 fc 	ld  [ %l0 + 0x2fc ], %g1
    3b5c:	ba 10 00 08 	mov  %o0, %i5
    3b60:	80 a0 60 00 	cmp  %g1, 0
    3b64:	12 80 00 05 	bne  3b78 <dl_main+0x938>
    3b68:	c0 22 20 0c 	clr  [ %o0 + 0xc ]
    3b6c:	c2 04 23 14 	ld  [ %l0 + 0x314 ], %g1
    3b70:	c4 00 40 00 	ld  [ %g1 ], %g2
    3b74:	c4 24 22 fc 	st  %g2, [ %l0 + 0x2fc ]
    3b78:	c2 04 24 8c 	ld  [ %l0 + 0x48c ], %g1
    3b7c:	09 30 00 00 	sethi  %hi(0xc0000000), %g4
    3b80:	13 00 00 01 	sethi  %hi(0x400), %o1
    3b84:	88 28 40 04 	andn  %g1, %g4, %g4
    3b88:	84 12 63 dc 	or  %o1, 0x3dc, %g2
    3b8c:	03 10 00 00 	sethi  %hi(0x40000000), %g1
    3b90:	d8 05 c0 02 	ld  [ %l7 + %g2 ], %o4
    3b94:	88 11 00 01 	or  %g4, %g1, %g4
    3b98:	c4 1c 22 d8 	ldd  [ %l0 + 0x2d8 ], %g2
    3b9c:	86 80 e0 01 	inccc  %g3
    3ba0:	c8 24 24 8c 	st  %g4, [ %l0 + 0x48c ]
    3ba4:	c2 04 20 04 	ld  [ %l0 + 4 ], %g1
    3ba8:	84 40 a0 00 	addx  %g2, 0, %g2
    3bac:	da 03 20 8c 	ld  [ %o4 + 0x8c ], %o5
    3bb0:	82 00 60 01 	inc  %g1
    3bb4:	88 04 22 f8 	add  %l0, 0x2f8, %g4
    3bb8:	c4 3c 22 d8 	std  %g2, [ %l0 + 0x2d8 ]
    3bbc:	c8 24 e0 0c 	st  %g4, [ %l3 + 0xc ]
    3bc0:	c2 24 20 04 	st  %g1, [ %l0 + 4 ]
    3bc4:	80 a3 7f fe 	cmp  %o5, -2
    3bc8:	02 80 04 44 	be  4cd8 <dl_main+0x1a98>
    3bcc:	e6 24 23 08 	st  %l3, [ %l0 + 0x308 ]
    3bd0:	07 00 00 01 	sethi  %hi(0x400), %g3
    3bd4:	82 10 e3 b8 	or  %g3, 0x3b8, %g1	! 7b8 <GLIBC_2.0+0x7b8>
    3bd8:	c6 05 c0 01 	ld  [ %l7 + %g1 ], %g3
    3bdc:	c4 00 e4 ac 	ld  [ %g3 + 0x4ac ], %g2
    3be0:	c2 10 a0 2c 	lduh  [ %g2 + 0x2c ], %g1
    3be4:	c2 30 e4 58 	sth  %g1, [ %g3 + 0x458 ]
    3be8:	c8 10 a0 2c 	lduh  [ %g2 + 0x2c ], %g4
    3bec:	c2 00 a0 1c 	ld  [ %g2 + 0x1c ], %g1
    3bf0:	9a 00 80 01 	add  %g2, %g1, %o5
    3bf4:	88 01 3f ff 	add  %g4, -1, %g4
    3bf8:	80 a1 3f ff 	cmp  %g4, -1
    3bfc:	02 80 00 0c 	be  3c2c <dl_main+0x9ec>
    3c00:	da 20 e4 50 	st  %o5, [ %g3 + 0x450 ]
    3c04:	03 19 1d 39 	sethi  %hi(0x6474e400), %g1
    3c08:	86 10 61 52 	or  %g1, 0x152, %g3	! 6474e552 <_end+0x6471d5ca>
    3c0c:	85 29 20 05 	sll  %g4, 5, %g2
    3c10:	c2 03 40 02 	ld  [ %o5 + %g2 ], %g1
    3c14:	80 a0 40 03 	cmp  %g1, %g3
    3c18:	02 80 05 cc 	be  5348 <dl_main+0x2108>
    3c1c:	88 01 3f ff 	add  %g4, -1, %g4
    3c20:	80 a1 3f ff 	cmp  %g4, -1
    3c24:	12 bf ff fb 	bne  3c10 <dl_main+0x9d0>
    3c28:	85 29 20 05 	sll  %g4, 5, %g2
    3c2c:	09 00 00 01 	sethi  %hi(0x400), %g4
    3c30:	82 11 23 b8 	or  %g4, 0x3b8, %g1	! 7b8 <GLIBC_2.0+0x7b8>
    3c34:	e0 05 c0 01 	ld  [ %l7 + %g1 ], %l0
    3c38:	c4 04 25 28 	ld  [ %l0 + 0x528 ], %g2
    3c3c:	80 a0 a0 00 	cmp  %g2, 0
    3c40:	12 80 05 be 	bne  5338 <dl_main+0x20f8>
    3c44:	01 00 00 00 	nop 
    3c48:	13 00 00 00 	sethi  %hi(0), %o1
    3c4c:	82 12 60 30 	or  %o1, 0x30, %g1	! 30 <GLIBC_2.0+0x30>
    3c50:	c4 05 c0 01 	ld  [ %l7 + %g1 ], %g2
    3c54:	c4 00 80 00 	ld  [ %g2 ], %g2
    3c58:	80 a0 a0 00 	cmp  %g2, 0
    3c5c:	32 80 07 c1 	bne,a   5b60 <dl_main+0x2920>
    3c60:	07 00 00 00 	sethi  %hi(0), %g3
    3c64:	c2 04 e0 74 	ld  [ %l3 + 0x74 ], %g1
    3c68:	80 a0 60 00 	cmp  %g1, 0
    3c6c:	32 80 00 02 	bne,a   3c74 <dl_main+0xa34>
    3c70:	fa 20 60 04 	st  %i5, [ %g1 + 4 ]
    3c74:	05 00 00 01 	sethi  %hi(0x400), %g2
    3c78:	82 10 a3 b8 	or  %g2, 0x3b8, %g1	! 7b8 <GLIBC_2.0+0x7b8>
    3c7c:	c4 05 c0 01 	ld  [ %l7 + %g1 ], %g2
    3c80:	c2 00 a3 6c 	ld  [ %g2 + 0x36c ], %g1
    3c84:	80 a0 60 00 	cmp  %g1, 0
    3c88:	32 80 00 02 	bne,a   3c90 <dl_main+0xa50>
    3c8c:	fa 20 60 04 	st  %i5, [ %g1 + 4 ]
    3c90:	82 10 20 01 	mov  1, %g1
    3c94:	40 00 31 46 	call  101ac <_dl_debug_state>
    3c98:	c2 27 60 0c 	st  %g1, [ %i5 + 0xc ]
    3c9c:	07 00 00 01 	sethi  %hi(0x400), %g3
    3ca0:	82 10 e3 dc 	or  %g3, 0x3dc, %g1	! 7dc <GLIBC_2.0+0x7dc>
    3ca4:	c4 05 c0 01 	ld  [ %l7 + %g1 ], %g2
    3ca8:	c2 00 a0 d0 	ld  [ %g2 + 0xd0 ], %g1
    3cac:	80 a0 60 00 	cmp  %g1, 0
    3cb0:	32 80 07 99 	bne,a   5b14 <dl_main+0x28d4>
    3cb4:	e2 00 a0 cc 	ld  [ %g2 + 0xcc ], %l1
    3cb8:	c2 05 80 00 	ld  [ %l6 ], %g1
    3cbc:	80 a0 60 00 	cmp  %g1, 0
    3cc0:	12 80 09 69 	bne  6264 <dl_main+0x3024>
    3cc4:	03 00 00 00 	sethi  %hi(0), %g1
    3cc8:	82 10 60 78 	or  %g1, 0x78, %g1	! 78 <GLIBC_2.0+0x78>
    3ccc:	c4 05 c0 01 	ld  [ %l7 + %g1 ], %g2
    3cd0:	e0 00 80 00 	ld  [ %g2 ], %l0
    3cd4:	80 a4 20 00 	cmp  %l0, 0
    3cd8:	a8 10 20 00 	clr  %l4
    3cdc:	12 80 07 69 	bne  5a80 <dl_main+0x2840>
    3ce0:	aa 10 20 00 	clr  %l5
    3ce4:	35 00 00 00 	sethi  %hi(0), %i2
    3ce8:	82 16 a0 68 	or  %i2, 0x68, %g1	! 68 <GLIBC_2.0+0x68>
    3cec:	e0 05 c0 01 	ld  [ %l7 + %g1 ], %l0
    3cf0:	90 10 00 10 	mov  %l0, %o0
    3cf4:	40 00 4d 77 	call  172d0 <__access>
    3cf8:	92 10 20 04 	mov  4, %o1
    3cfc:	80 a2 20 00 	cmp  %o0, 0
    3d00:	02 80 07 21 	be  5984 <dl_main+0x2744>
    3d04:	90 10 00 10 	mov  %l0, %o0
    3d08:	c6 05 80 00 	ld  [ %l6 ], %g3
    3d0c:	80 a0 e0 00 	cmp  %g3, 0
    3d10:	12 80 07 04 	bne  5920 <dl_main+0x26e0>
    3d14:	83 2d 60 02 	sll  %l5, 2, %g1
    3d18:	c2 07 bd dc 	ld  [ %fp + -548 ], %g1
    3d1c:	82 18 60 03 	xor  %g1, 3, %g1
    3d20:	80 a0 00 01 	cmp  %g0, %g1
    3d24:	96 60 3f ff 	subx  %g0, -1, %o3
    3d28:	92 10 00 14 	mov  %l4, %o1
    3d2c:	94 10 00 15 	mov  %l5, %o2
    3d30:	90 10 00 13 	mov  %l3, %o0
    3d34:	40 00 27 8f 	call  db70 <_dl_map_object_deps>
    3d38:	98 10 20 00 	clr  %o4
    3d3c:	e0 04 e1 68 	ld  [ %l3 + 0x168 ], %l0
    3d40:	80 a4 20 00 	cmp  %l0, 0
    3d44:	02 80 00 0d 	be  3d78 <dl_main+0xb38>
    3d48:	9a 10 00 10 	mov  %l0, %o5
    3d4c:	1b 02 00 00 	sethi  %hi(0x8000000), %o5
    3d50:	a0 04 3f ff 	add  %l0, -1, %l0
    3d54:	c6 04 e1 64 	ld  [ %l3 + 0x164 ], %g3
    3d58:	85 2c 20 02 	sll  %l0, 2, %g2
    3d5c:	c8 00 c0 02 	ld  [ %g3 + %g2 ], %g4
    3d60:	c2 01 21 94 	ld  [ %g4 + 0x194 ], %g1
    3d64:	82 10 40 0d 	or  %g1, %o5, %g1
    3d68:	80 a4 20 00 	cmp  %l0, 0
    3d6c:	12 bf ff f9 	bne  3d50 <dl_main+0xb10>
    3d70:	c2 21 21 94 	st  %g1, [ %g4 + 0x194 ]
    3d74:	da 04 e1 68 	ld  [ %l3 + 0x168 ], %o5
    3d78:	13 00 00 01 	sethi  %hi(0x400), %o1
    3d7c:	82 12 63 b8 	or  %o1, 0x3b8, %g1	! 7b8 <GLIBC_2.0+0x7b8>
    3d80:	c4 05 c0 01 	ld  [ %l7 + %g1 ], %g2
    3d84:	c2 00 a3 04 	ld  [ %g2 + 0x304 ], %g1
    3d88:	c6 00 a3 08 	ld  [ %g2 + 0x308 ], %g3
    3d8c:	c2 20 e0 0c 	st  %g1, [ %g3 + 0xc ]
    3d90:	c2 00 a3 04 	ld  [ %g2 + 0x304 ], %g1
    3d94:	80 a0 60 00 	cmp  %g1, 0
    3d98:	32 80 00 02 	bne,a   3da0 <dl_main+0xb60>
    3d9c:	c6 20 60 10 	st  %g3, [ %g1 + 0x10 ]
    3da0:	80 a3 60 01 	cmp  %o5, 1
    3da4:	08 80 00 0d 	bleu  3dd8 <dl_main+0xb98>
    3da8:	a0 10 20 01 	mov  1, %l0
    3dac:	86 00 a2 f8 	add  %g2, 0x2f8, %g3
    3db0:	c8 04 e1 64 	ld  [ %l3 + 0x164 ], %g4
    3db4:	83 2c 20 02 	sll  %l0, 2, %g1
    3db8:	c4 01 00 01 	ld  [ %g4 + %g1 ], %g2
    3dbc:	80 a0 80 03 	cmp  %g2, %g3
    3dc0:	02 80 00 07 	be  3ddc <dl_main+0xb9c>
    3dc4:	80 a3 40 10 	cmp  %o5, %l0
    3dc8:	a0 04 20 01 	inc  %l0
    3dcc:	80 a3 40 10 	cmp  %o5, %l0
    3dd0:	18 bf ff fa 	bgu  3db8 <dl_main+0xb78>
    3dd4:	83 2c 20 02 	sll  %l0, 2, %g1
    3dd8:	80 a3 40 10 	cmp  %o5, %l0
    3ddc:	08 80 06 cf 	bleu  5918 <dl_main+0x26d8>
    3de0:	c0 2f bd 9f 	clrb  [ %fp + -609 ]
    3de4:	c2 04 e1 64 	ld  [ %l3 + 0x164 ], %g1
    3de8:	85 2c 20 02 	sll  %l0, 2, %g2
    3dec:	84 00 80 01 	add  %g2, %g1, %g2
    3df0:	03 00 00 01 	sethi  %hi(0x400), %g1
    3df4:	86 10 63 b8 	or  %g1, 0x3b8, %g3	! 7b8 <GLIBC_2.0+0x7b8>
    3df8:	c6 05 c0 03 	ld  [ %l7 + %g3 ], %g3
    3dfc:	c2 00 bf fc 	ld  [ %g2 + -4 ], %g1
    3e00:	d8 07 bd dc 	ld  [ %fp + -548 ], %o4
    3e04:	88 10 20 01 	mov  1, %g4
    3e08:	c2 20 e3 08 	st  %g1, [ %g3 + 0x308 ]
    3e0c:	80 a3 20 00 	cmp  %o4, 0
    3e10:	12 80 06 bf 	bne  590c <dl_main+0x26cc>
    3e14:	c8 2f bd 9f 	stb  %g4, [ %fp + -609 ]
    3e18:	82 04 20 01 	add  %l0, 1, %g1
    3e1c:	80 a0 40 0d 	cmp  %g1, %o5
    3e20:	9a 10 00 03 	mov  %g3, %o5
    3e24:	1a 80 00 03 	bcc  3e30 <dl_main+0xbf0>
    3e28:	86 10 20 00 	clr  %g3
    3e2c:	c6 00 a0 04 	ld  [ %g2 + 4 ], %g3
    3e30:	13 00 00 01 	sethi  %hi(0x400), %o1
    3e34:	82 12 63 dc 	or  %o1, 0x3dc, %g1	! 7dc <GLIBC_2.0+0x7dc>
    3e38:	c4 05 c0 01 	ld  [ %l7 + %g1 ], %g2
    3e3c:	c8 00 a0 a8 	ld  [ %g2 + 0xa8 ], %g4
    3e40:	80 a1 20 00 	cmp  %g4, 0
    3e44:	02 80 00 0a 	be  3e6c <dl_main+0xc2c>
    3e48:	c6 23 63 04 	st  %g3, [ %o5 + 0x304 ]
    3e4c:	05 00 00 01 	sethi  %hi(0x400), %g2
    3e50:	82 10 a3 b8 	or  %g2, 0x3b8, %g1	! 7b8 <GLIBC_2.0+0x7b8>
    3e54:	c6 05 c0 01 	ld  [ %l7 + %g1 ], %g3
    3e58:	c4 00 e3 08 	ld  [ %g3 + 0x308 ], %g2
    3e5c:	c4 00 a0 0c 	ld  [ %g2 + 0xc ], %g2
    3e60:	80 a0 80 04 	cmp  %g2, %g4
    3e64:	22 80 05 bb 	be,a   5550 <dl_main+0x2310>
    3e68:	c2 00 e3 04 	ld  [ %g3 + 0x304 ], %g1
    3e6c:	07 00 00 01 	sethi  %hi(0x400), %g3
    3e70:	82 10 e3 b8 	or  %g3, 0x3b8, %g1	! 7b8 <GLIBC_2.0+0x7b8>
    3e74:	c6 05 c0 01 	ld  [ %l7 + %g1 ], %g3
    3e78:	c8 00 e3 08 	ld  [ %g3 + 0x308 ], %g4
    3e7c:	c4 01 20 0c 	ld  [ %g4 + 0xc ], %g2
    3e80:	c2 00 e3 04 	ld  [ %g3 + 0x304 ], %g1
    3e84:	80 a0 80 01 	cmp  %g2, %g1
    3e88:	12 80 06 96 	bne  58e0 <dl_main+0x26a0>
    3e8c:	9a 00 e2 f8 	add  %g3, 0x2f8, %o5
    3e90:	da 21 20 0c 	st  %o5, [ %g4 + 0xc ]
    3e94:	c4 00 e3 04 	ld  [ %g3 + 0x304 ], %g2
    3e98:	80 a0 a0 00 	cmp  %g2, 0
    3e9c:	02 80 00 08 	be  3ebc <dl_main+0xc7c>
    3ea0:	80 a0 00 0c 	cmp  %g0, %o4
    3ea4:	c2 00 a0 10 	ld  [ %g2 + 0x10 ], %g1
    3ea8:	80 a0 40 04 	cmp  %g1, %g4
    3eac:	12 80 06 83 	bne  58b8 <dl_main+0x2678>
    3eb0:	03 00 00 00 	sethi  %hi(0), %g1
    3eb4:	da 20 a0 10 	st  %o5, [ %g2 + 0x10 ]
    3eb8:	80 a0 00 0c 	cmp  %g0, %o4
    3ebc:	88 60 3f ff 	subx  %g0, -1, %g4
    3ec0:	82 1b 20 03 	xor  %o4, 3, %g1
    3ec4:	80 a0 00 01 	cmp  %g0, %g1
    3ec8:	05 00 00 00 	sethi  %hi(0), %g2
    3ecc:	03 00 00 00 	sethi  %hi(0), %g1
    3ed0:	86 60 3f ff 	subx  %g0, -1, %g3
    3ed4:	84 10 a0 40 	or  %g2, 0x40, %g2
    3ed8:	82 10 60 18 	or  %g1, 0x18, %g1
    3edc:	c8 27 bd e8 	st  %g4, [ %fp + -536 ]
    3ee0:	d0 05 c0 02 	ld  [ %l7 + %g2 ], %o0
    3ee4:	d2 05 c0 01 	ld  [ %l7 + %g1 ], %o1
    3ee8:	c6 27 bd ec 	st  %g3, [ %fp + -532 ]
    3eec:	40 00 2e 09 	call  f710 <_dl_receive_error>
    3ef0:	94 07 bd e8 	add  %fp, -536, %o2
    3ef4:	09 00 00 00 	sethi  %hi(0), %g4
    3ef8:	82 11 20 20 	or  %g4, 0x20, %g1	! 20 <GLIBC_2.0+0x20>
    3efc:	c4 05 c0 01 	ld  [ %l7 + %g1 ], %g2
    3f00:	c4 08 80 00 	ldub  [ %g2 ], %g2
    3f04:	80 a6 e0 00 	cmp  %i3, 0
    3f08:	02 80 06 68 	be  58a8 <dl_main+0x2668>
    3f0c:	c4 2f bd 97 	stb  %g2, [ %fp + -617 ]
    3f10:	c0 27 bd ac 	clr  [ %fp + -596 ]
    3f14:	82 10 3f ff 	mov  -1, %g1
    3f18:	84 10 20 0a 	mov  0xa, %g2
    3f1c:	c4 2f bd ae 	stb  %g2, [ %fp + -594 ]
    3f20:	c2 2f bd af 	stb  %g1, [ %fp + -593 ]
    3f24:	13 00 00 01 	sethi  %hi(0x400), %o1
    3f28:	c6 07 bd ac 	ld  [ %fp + -596 ], %g3
    3f2c:	84 12 63 dc 	or  %o1, 0x3dc, %g2
    3f30:	c6 21 e0 14 	st  %g3, [ %g7 + 0x14 ]
    3f34:	c8 05 c0 02 	ld  [ %l7 + %g2 ], %g4
    3f38:	c2 01 20 3c 	ld  [ %g4 + 0x3c ], %g1
    3f3c:	80 a0 60 00 	cmp  %g1, 0
    3f40:	02 80 00 08 	be  3f60 <dl_main+0xd20>
    3f44:	d8 07 bd dc 	ld  [ %fp + -548 ], %o4
    3f48:	03 00 00 02 	sethi  %hi(0x800), %g1
    3f4c:	82 10 60 0c 	or  %g1, 0xc, %g1	! 80c <GLIBC_2.0+0x80c>
    3f50:	c6 21 e0 18 	st  %g3, [ %g7 + 0x18 ]
    3f54:	c4 05 c0 01 	ld  [ %l7 + %g1 ], %g2
    3f58:	c6 20 80 00 	st  %g3, [ %g2 ]
    3f5c:	d8 07 bd dc 	ld  [ %fp + -548 ], %o4
    3f60:	80 a3 20 00 	cmp  %o4, 0
    3f64:	32 80 08 6d 	bne,a   6118 <dl_main+0x2ed8>
    3f68:	c2 01 00 00 	ld  [ %g4 ], %g1
    3f6c:	d0 04 e1 44 	ld  [ %l3 + 0x144 ], %o0
    3f70:	80 a2 20 00 	cmp  %o0, 0
    3f74:	02 80 00 55 	be  40c8 <dl_main+0xe88>
    3f78:	a8 10 20 00 	clr  %l4
    3f7c:	09 00 00 01 	sethi  %hi(0x400), %g4
    3f80:	82 11 23 dc 	or  %g4, 0x3dc, %g1	! 7dc <GLIBC_2.0+0x7dc>
    3f84:	c4 05 c0 01 	ld  [ %l7 + %g1 ], %g2
    3f88:	c6 00 a0 90 	ld  [ %g2 + 0x90 ], %g3
    3f8c:	80 a0 e0 00 	cmp  %g3, 0
    3f90:	12 80 00 4f 	bne  40cc <dl_main+0xe8c>
    3f94:	05 00 00 01 	sethi  %hi(0x400), %g2
    3f98:	c2 04 e0 34 	ld  [ %l3 + 0x34 ], %g1
    3f9c:	c4 04 e1 1c 	ld  [ %l3 + 0x11c ], %g2
    3fa0:	80 a0 a0 00 	cmp  %g2, 0
    3fa4:	02 80 08 52 	be  60ec <dl_main+0x2eac>
    3fa8:	ea 00 60 04 	ld  [ %g1 + 4 ], %l5
    3fac:	c2 04 e1 68 	ld  [ %l3 + 0x168 ], %g1
    3fb0:	83 28 60 02 	sll  %g1, 2, %g1
    3fb4:	e2 04 e1 64 	ld  [ %l3 + 0x164 ], %l1
    3fb8:	a8 00 40 11 	add  %g1, %l1, %l4
    3fbc:	c2 00 a0 04 	ld  [ %g2 + 4 ], %g1
    3fc0:	e0 02 20 04 	ld  [ %o0 + 4 ], %l0
    3fc4:	80 a4 40 14 	cmp  %l1, %l4
    3fc8:	84 40 20 00 	addx  %g0, 0, %g2
    3fcc:	a4 00 40 10 	add  %g1, %l0, %l2
    3fd0:	80 a4 00 12 	cmp  %l0, %l2
    3fd4:	82 40 20 00 	addx  %g0, 0, %g1
    3fd8:	80 88 80 01 	btst  %g2, %g1
    3fdc:	02 80 00 2c 	be  408c <dl_main+0xe4c>
    3fe0:	82 1c 40 14 	xor  %l1, %l4, %g1
    3fe4:	d2 04 40 00 	ld  [ %l1 ], %o1
    3fe8:	80 a2 40 13 	cmp  %o1, %l3
    3fec:	22 80 00 20 	be,a   406c <dl_main+0xe2c>
    3ff0:	a2 04 60 04 	add  %l1, 4, %l1
    3ff4:	c2 02 40 00 	ld  [ %o1 ], %g1
    3ff8:	80 a0 60 00 	cmp  %g1, 0
    3ffc:	12 80 00 24 	bne  408c <dl_main+0xe4c>
    4000:	82 1c 40 14 	xor  %l1, %l4, %g1
    4004:	c2 02 61 18 	ld  [ %o1 + 0x118 ], %g1
    4008:	80 a0 60 00 	cmp  %g1, 0
    400c:	22 80 00 20 	be,a   408c <dl_main+0xe4c>
    4010:	82 1c 40 14 	xor  %l1, %l4, %g1
    4014:	c4 00 60 04 	ld  [ %g1 + 4 ], %g2
    4018:	c2 04 20 08 	ld  [ %l0 + 8 ], %g1
    401c:	80 a0 80 01 	cmp  %g2, %g1
    4020:	12 80 00 1b 	bne  408c <dl_main+0xe4c>
    4024:	82 1c 40 14 	xor  %l1, %l4, %g1
    4028:	c2 02 61 24 	ld  [ %o1 + 0x124 ], %g1
    402c:	80 a0 60 00 	cmp  %g1, 0
    4030:	22 80 00 17 	be,a   408c <dl_main+0xe4c>
    4034:	82 1c 40 14 	xor  %l1, %l4, %g1
    4038:	c4 00 60 04 	ld  [ %g1 + 4 ], %g2
    403c:	c2 04 20 04 	ld  [ %l0 + 4 ], %g1
    4040:	80 a0 80 01 	cmp  %g2, %g1
    4044:	12 80 00 12 	bne  408c <dl_main+0xe4c>
    4048:	82 1c 40 14 	xor  %l1, %l4, %g1
    404c:	d0 04 00 00 	ld  [ %l0 ], %o0
    4050:	40 00 31 d6 	call  107a8 <_dl_name_match_p>
    4054:	90 02 00 15 	add  %o0, %l5, %o0
    4058:	80 a2 20 00 	cmp  %o0, 0
    405c:	02 80 00 0c 	be  408c <dl_main+0xe4c>
    4060:	82 1c 40 14 	xor  %l1, %l4, %g1
    4064:	a0 04 20 14 	add  %l0, 0x14, %l0
    4068:	a2 04 60 04 	add  %l1, 4, %l1
    406c:	80 a4 40 14 	cmp  %l1, %l4
    4070:	84 40 20 00 	addx  %g0, 0, %g2
    4074:	80 a4 00 12 	cmp  %l0, %l2
    4078:	82 40 20 00 	addx  %g0, 0, %g1
    407c:	80 88 80 01 	btst  %g2, %g1
    4080:	32 bf ff da 	bne,a   3fe8 <dl_main+0xda8>
    4084:	d2 04 40 00 	ld  [ %l1 ], %o1
    4088:	82 1c 40 14 	xor  %l1, %l4, %g1
    408c:	80 a0 00 01 	cmp  %g0, %g1
    4090:	86 60 3f ff 	subx  %g0, -1, %g3
    4094:	84 1c 00 12 	xor  %l0, %l2, %g2
    4098:	80 a0 00 02 	cmp  %g0, %g2
    409c:	82 60 3f ff 	subx  %g0, -1, %g1
    40a0:	80 88 c0 01 	btst  %g3, %g1
    40a4:	32 80 00 02 	bne,a   40ac <dl_main+0xe6c>
    40a8:	b8 10 20 01 	mov  1, %i4
    40ac:	13 00 00 01 	sethi  %hi(0x400), %o1
    40b0:	82 12 63 dc 	or  %o1, 0x3dc, %g1	! 7dc <GLIBC_2.0+0x7dc>
    40b4:	c4 05 c0 01 	ld  [ %l7 + %g1 ], %g2
    40b8:	c6 00 80 00 	ld  [ %g2 ], %g3
    40bc:	80 88 e0 01 	btst  1, %g3
    40c0:	12 80 07 fe 	bne  60b8 <dl_main+0x2e78>
    40c4:	a8 0f 20 ff 	and  %i4, 0xff, %l4
    40c8:	05 00 00 01 	sethi  %hi(0x400), %g2
    40cc:	82 10 a3 dc 	or  %g2, 0x3dc, %g1	! 7dc <GLIBC_2.0+0x7dc>
    40d0:	da 05 c0 01 	ld  [ %l7 + %g1 ], %o5
    40d4:	c4 04 e1 64 	ld  [ %l3 + 0x164 ], %g2
    40d8:	09 00 00 01 	sethi  %hi(0x400), %g4
    40dc:	82 04 e1 64 	add  %l3, 0x164, %g1
    40e0:	c4 23 60 14 	st  %g2, [ %o5 + 0x14 ]
    40e4:	86 11 23 b8 	or  %g4, 0x3b8, %g3
    40e8:	c8 05 c0 03 	ld  [ %l7 + %g3 ], %g4
    40ec:	c4 00 60 04 	ld  [ %g1 + 4 ], %g2
    40f0:	c2 21 20 08 	st  %g1, [ %g4 + 8 ]
    40f4:	c4 23 60 18 	st  %g2, [ %o5 + 0x18 ]
    40f8:	80 a5 20 00 	cmp  %l4, 0
    40fc:	02 80 04 3f 	be  51f8 <dl_main+0x1fb8>
    4100:	c2 21 20 10 	st  %g1, [ %g4 + 0x10 ]
    4104:	c4 04 e1 48 	ld  [ %l3 + 0x148 ], %g2
    4108:	80 a0 a0 00 	cmp  %g2, 0
    410c:	02 80 00 0c 	be  413c <dl_main+0xefc>
    4110:	80 a4 e0 00 	cmp  %l3, 0
    4114:	c2 04 e1 20 	ld  [ %l3 + 0x120 ], %g1
    4118:	80 a0 60 00 	cmp  %g1, 0
    411c:	22 80 07 dd 	be,a   6090 <dl_main+0x2e50>
    4120:	03 00 00 00 	sethi  %hi(0), %g1
    4124:	d2 00 a0 04 	ld  [ %g2 + 4 ], %o1
    4128:	d4 00 60 04 	ld  [ %g1 + 4 ], %o2
    412c:	94 02 80 09 	add  %o2, %o1, %o2
    4130:	40 00 37 9e 	call  11fa8 <_dl_resolve_conflicts>
    4134:	90 10 00 13 	mov  %l3, %o0
    4138:	80 a4 e0 00 	cmp  %l3, 0
    413c:	02 80 04 08 	be  515c <dl_main+0x1f1c>
    4140:	a0 10 00 13 	mov  %l3, %l0
    4144:	03 00 00 00 	sethi  %hi(0), %g1
    4148:	82 10 60 20 	or  %g1, 0x20, %g1	! 20 <GLIBC_2.0+0x20>
    414c:	e4 05 c0 01 	ld  [ %l7 + %g1 ], %l2
    4150:	10 80 00 0e 	b  4188 <dl_main+0xf48>
    4154:	23 08 00 00 	sethi  %hi(0x20000000), %l1
    4158:	c2 04 22 30 	ld  [ %l0 + 0x230 ], %g1
    415c:	80 a0 60 00 	cmp  %g1, 0
    4160:	22 80 00 07 	be,a   417c <dl_main+0xf3c>
    4164:	e0 04 20 0c 	ld  [ %l0 + 0xc ], %l0
    4168:	c2 0c 80 00 	ldub  [ %l2 ], %g1
    416c:	80 a0 60 00 	cmp  %g1, 0
    4170:	12 80 03 f5 	bne  5144 <dl_main+0x1f04>
    4174:	01 00 00 00 	nop 
    4178:	e0 04 20 0c 	ld  [ %l0 + 0xc ], %l0
    417c:	80 a4 20 00 	cmp  %l0, 0
    4180:	02 80 03 f7 	be  515c <dl_main+0x1f1c>
    4184:	01 00 00 00 	nop 
    4188:	c2 04 21 94 	ld  [ %l0 + 0x194 ], %g1
    418c:	82 10 40 11 	or  %g1, %l1, %g1
    4190:	c4 04 22 48 	ld  [ %l0 + 0x248 ], %g2
    4194:	80 a0 a0 00 	cmp  %g2, 0
    4198:	02 bf ff f0 	be  4158 <dl_main+0xf18>
    419c:	c2 24 21 94 	st  %g1, [ %l0 + 0x194 ]
    41a0:	40 00 21 f3 	call  c96c <_dl_protect_relro>
    41a4:	90 10 00 10 	mov  %l0, %o0
    41a8:	10 bf ff ed 	b  415c <dl_main+0xf1c>
    41ac:	c2 04 22 30 	ld  [ %l0 + 0x230 ], %g1
    41b0:	32 bf fc cd 	bne,a   34e4 <dl_main+0x2a4>
    41b4:	96 02 e0 20 	add  %o3, 0x20, %o3
    41b8:	c8 04 c0 00 	ld  [ %l3 ], %g4
    41bc:	c6 02 e0 08 	ld  [ %o3 + 8 ], %g3
    41c0:	84 01 00 03 	add  %g4, %g3, %g2
    41c4:	c2 02 a3 00 	ld  [ %o2 + 0x300 ], %g1
    41c8:	80 a0 60 00 	cmp  %g1, 0
    41cc:	c4 23 00 00 	st  %g2, [ %o4 ]
    41d0:	12 80 00 07 	bne  41ec <dl_main+0xfac>
    41d4:	d8 22 a3 14 	st  %o4, [ %o2 + 0x314 ]
    41d8:	c2 49 00 03 	ldsb  [ %g4 + %g3 ], %g1
    41dc:	80 a0 60 00 	cmp  %g1, 0
    41e0:	9a 10 20 00 	clr  %o5
    41e4:	12 80 02 c9 	bne  4d08 <dl_main+0x1ac8>
    41e8:	c2 09 00 03 	ldub  [ %g4 + %g3 ], %g1
    41ec:	10 bf fc bd 	b  34e0 <dl_main+0x2a0>
    41f0:	a8 10 20 01 	mov  1, %l4
    41f4:	82 10 61 52 	or  %g1, 0x152, %g1
    41f8:	80 a0 80 01 	cmp  %g2, %g1
    41fc:	32 bf fc ba 	bne,a   34e4 <dl_main+0x2a4>
    4200:	96 02 e0 20 	add  %o3, 0x20, %o3
    4204:	c2 02 e0 08 	ld  [ %o3 + 8 ], %g1
    4208:	c2 24 e2 44 	st  %g1, [ %l3 + 0x244 ]
    420c:	c4 02 e0 14 	ld  [ %o3 + 0x14 ], %g2
    4210:	10 bf fc b4 	b  34e0 <dl_main+0x2a0>
    4214:	c4 24 e2 48 	st  %g2, [ %l3 + 0x248 ]
    4218:	82 12 e3 ff 	or  %o3, 0x3ff, %g1
    421c:	82 20 40 03 	sub  %g1, %g3, %g1
    4220:	80 a0 60 0f 	cmp  %g1, 0xf
    4224:	18 80 00 f5 	bgu  45f8 <dl_main+0x13b8>
    4228:	82 00 c0 03 	add  %g3, %g3, %g1
    422c:	82 22 40 03 	sub  %o1, %g3, %g1
    4230:	83 28 60 02 	sll  %g1, 2, %g1
    4234:	10 bf fd 3f 	b  3730 <dl_main+0x4f0>
    4238:	c8 23 40 01 	st  %g4, [ %o5 + %g1 ]
    423c:	c4 02 e0 08 	ld  [ %o3 + 8 ], %g2
    4240:	82 00 40 02 	add  %g1, %g2, %g1
    4244:	10 bf fc a7 	b  34e0 <dl_main+0x2a0>
    4248:	c2 24 e0 08 	st  %g1, [ %l3 + 8 ]
    424c:	10 bf fc a5 	b  34e0 <dl_main+0x2a0>
    4250:	c2 22 a5 d0 	st  %g1, [ %o2 + 0x5d0 ]
    4254:	82 10 20 03 	mov  3, %g1
    4258:	82 20 40 0d 	sub  %g1, %o5, %g1
    425c:	83 28 60 03 	sll  %g1, 3, %g1
    4260:	10 bf fe 23 	b  3aec <dl_main+0x8ac>
    4264:	91 2a 00 01 	sll  %o0, %g1, %o0
    4268:	13 00 00 01 	sethi  %hi(0x400), %o1
    426c:	84 12 63 c4 	or  %o1, 0x3c4, %g2	! 7c4 <GLIBC_2.0+0x7c4>
    4270:	da 05 c0 02 	ld  [ %l7 + %g2 ], %o5
    4274:	05 00 00 01 	sethi  %hi(0x400), %g2
    4278:	82 10 a3 c0 	or  %g2, 0x3c0, %g1	! 7c0 <GLIBC_2.0+0x7c0>
    427c:	07 00 00 01 	sethi  %hi(0x400), %g3
    4280:	84 10 e3 b8 	or  %g3, 0x3b8, %g2	! 7b8 <GLIBC_2.0+0x7b8>
    4284:	d8 05 c0 01 	ld  [ %l7 + %g1 ], %o4
    4288:	c8 05 c0 02 	ld  [ %l7 + %g2 ], %g4
    428c:	c2 03 40 00 	ld  [ %o5 ], %g1
    4290:	c6 00 40 00 	ld  [ %g1 ], %g3
    4294:	c4 03 00 00 	ld  [ %o4 ], %g2
    4298:	c6 21 22 fc 	st  %g3, [ %g4 + 0x2fc ]
    429c:	80 a0 a0 01 	cmp  %g2, 1
    42a0:	04 80 00 43 	ble  43ac <dl_main+0x116c>
    42a4:	aa 10 20 01 	mov  1, %l5
    42a8:	03 00 00 01 	sethi  %hi(0x400), %g1
    42ac:	09 00 00 01 	sethi  %hi(0x400), %g4
    42b0:	82 10 63 dc 	or  %g1, 0x3dc, %g1
    42b4:	84 11 23 b4 	or  %g4, 0x3b4, %g2
    42b8:	3b 00 00 00 	sethi  %hi(0), %i5
    42bc:	a6 10 00 0c 	mov  %o4, %l3
    42c0:	e4 05 c0 02 	ld  [ %l7 + %g2 ], %l2
    42c4:	ec 05 c0 01 	ld  [ %l7 + %g1 ], %l6
    42c8:	10 80 00 15 	b  431c <dl_main+0x10dc>
    42cc:	ba 17 60 74 	or  %i5, 0x74, %i5
    42d0:	86 00 ff ff 	add  %g3, -1, %g3
    42d4:	c6 24 c0 00 	st  %g3, [ %l3 ]
    42d8:	07 00 00 01 	sethi  %hi(0x400), %g3
    42dc:	c4 04 80 00 	ld  [ %l2 ], %g2
    42e0:	86 10 e3 c4 	or  %g3, 0x3c4, %g3
    42e4:	84 00 a0 01 	inc  %g2
    42e8:	88 04 20 04 	add  %l0, 4, %g4
    42ec:	98 10 20 01 	mov  1, %o4
    42f0:	82 10 3f ff 	mov  -1, %g1
    42f4:	c6 05 c0 03 	ld  [ %l7 + %g3 ], %g3
    42f8:	d8 27 bd dc 	st  %o4, [ %fp + -548 ]
    42fc:	c2 25 a0 28 	st  %g1, [ %l6 + 0x28 ]
    4300:	c4 24 80 00 	st  %g2, [ %l2 ]
    4304:	c8 20 c0 00 	st  %g4, [ %g3 ]
    4308:	c2 04 c0 00 	ld  [ %l3 ], %g1
    430c:	80 a0 60 01 	cmp  %g1, 1
    4310:	04 80 00 28 	ble  43b0 <dl_main+0x1170>
    4314:	13 00 00 01 	sethi  %hi(0x400), %o1
    4318:	13 00 00 01 	sethi  %hi(0x400), %o1
    431c:	92 12 63 c4 	or  %o1, 0x3c4, %o1	! 7c4 <GLIBC_2.0+0x7c4>
    4320:	d2 05 c0 09 	ld  [ %l7 + %o1 ], %o1
    4324:	05 00 00 00 	sethi  %hi(0), %g2
    4328:	e0 02 40 00 	ld  [ %o1 ], %l0
    432c:	82 10 a1 00 	or  %g2, 0x100, %g1
    4330:	d2 05 c0 01 	ld  [ %l7 + %g1 ], %o1
    4334:	40 00 4e 0c 	call  17b64 <strcmp>
    4338:	d0 04 20 04 	ld  [ %l0 + 4 ], %o0
    433c:	80 a2 20 00 	cmp  %o0, 0
    4340:	22 bf ff e4 	be,a   42d0 <dl_main+0x1090>
    4344:	c6 04 c0 00 	ld  [ %l3 ], %g3
    4348:	03 00 00 00 	sethi  %hi(0), %g1
    434c:	82 10 61 04 	or  %g1, 0x104, %g1	! 104 <GLIBC_2.0+0x104>
    4350:	d2 05 c0 01 	ld  [ %l7 + %g1 ], %o1
    4354:	40 00 4e 04 	call  17b64 <strcmp>
    4358:	d0 04 20 04 	ld  [ %l0 + 4 ], %o0
    435c:	80 a2 20 00 	cmp  %o0, 0
    4360:	12 80 00 57 	bne  44bc <dl_main+0x127c>
    4364:	03 00 00 00 	sethi  %hi(0), %g1
    4368:	09 00 00 01 	sethi  %hi(0x400), %g4
    436c:	c2 04 80 00 	ld  [ %l2 ], %g1
    4370:	c4 04 c0 00 	ld  [ %l3 ], %g2
    4374:	88 11 23 c4 	or  %g4, 0x3c4, %g4
    4378:	82 00 60 01 	inc  %g1
    437c:	84 00 bf ff 	add  %g2, -1, %g2
    4380:	86 04 20 04 	add  %l0, 4, %g3
    4384:	98 10 20 02 	mov  2, %o4
    4388:	c8 05 c0 04 	ld  [ %l7 + %g4 ], %g4
    438c:	d8 27 bd dc 	st  %o4, [ %fp + -548 ]
    4390:	c2 24 80 00 	st  %g1, [ %l2 ]
    4394:	c4 24 c0 00 	st  %g2, [ %l3 ]
    4398:	c6 21 00 00 	st  %g3, [ %g4 ]
    439c:	c2 04 c0 00 	ld  [ %l3 ], %g1
    43a0:	80 a0 60 01 	cmp  %g1, 1
    43a4:	14 bf ff de 	bg  431c <dl_main+0x10dc>
    43a8:	13 00 00 01 	sethi  %hi(0x400), %o1
    43ac:	13 00 00 01 	sethi  %hi(0x400), %o1
    43b0:	82 12 63 c0 	or  %o1, 0x3c0, %g1	! 7c0 <GLIBC_2.0+0x7c0>
    43b4:	c4 05 c0 01 	ld  [ %l7 + %g1 ], %g2
    43b8:	c6 00 80 00 	ld  [ %g2 ], %g3
    43bc:	80 a0 e0 01 	cmp  %g3, 1
    43c0:	04 80 04 3c 	ble  54b0 <dl_main+0x2270>
    43c4:	03 00 00 01 	sethi  %hi(0x400), %g1
    43c8:	86 10 63 c4 	or  %g1, 0x3c4, %g3	! 7c4 <GLIBC_2.0+0x7c4>
    43cc:	05 00 00 01 	sethi  %hi(0x400), %g2
    43d0:	82 10 a3 b4 	or  %g2, 0x3b4, %g1	! 7b4 <GLIBC_2.0+0x7b4>
    43d4:	09 00 00 01 	sethi  %hi(0x400), %g4
    43d8:	84 11 23 c0 	or  %g4, 0x3c0, %g2	! 7c0 <GLIBC_2.0+0x7c0>
    43dc:	c8 05 c0 01 	ld  [ %l7 + %g1 ], %g4
    43e0:	da 05 c0 02 	ld  [ %l7 + %g2 ], %o5
    43e4:	d8 05 c0 03 	ld  [ %l7 + %g3 ], %o4
    43e8:	c2 01 00 00 	ld  [ %g4 ], %g1
    43ec:	c4 03 40 00 	ld  [ %o5 ], %g2
    43f0:	c6 03 00 00 	ld  [ %o4 ], %g3
    43f4:	b3 2e 60 05 	sll  %i1, 5, %i1
    43f8:	82 00 60 01 	inc  %g1
    43fc:	84 00 bf ff 	add  %g2, -1, %g2
    4400:	86 00 e0 04 	add  %g3, 4, %g3
    4404:	b2 06 40 18 	add  %i1, %i0, %i1
    4408:	96 10 00 18 	mov  %i0, %o3
    440c:	c2 21 00 00 	st  %g1, [ %g4 ]
    4410:	c4 23 40 00 	st  %g2, [ %o5 ]
    4414:	80 a6 40 18 	cmp  %i1, %i0
    4418:	08 80 00 0d 	bleu  444c <dl_main+0x120c>
    441c:	c6 23 00 00 	st  %g3, [ %o4 ]
    4420:	03 19 1d 39 	sethi  %hi(0x6474e400), %g1
    4424:	84 10 61 51 	or  %g1, 0x151, %g2	! 6474e551 <_end+0x6471d5c9>
    4428:	86 10 00 19 	mov  %i1, %g3
    442c:	c2 02 c0 00 	ld  [ %o3 ], %g1
    4430:	80 a0 40 02 	cmp  %g1, %g2
    4434:	02 80 04 3f 	be  5530 <dl_main+0x22f0>
    4438:	09 00 00 01 	sethi  %hi(0x400), %g4
    443c:	96 02 e0 20 	add  %o3, 0x20, %o3
    4440:	80 a0 c0 0b 	cmp  %g3, %o3
    4444:	38 bf ff fb 	bgu,a   4430 <dl_main+0x11f0>
    4448:	c2 02 c0 00 	ld  [ %o3 ], %g1
    444c:	c2 07 bd dc 	ld  [ %fp + -548 ], %g1
    4450:	80 a0 60 02 	cmp  %g1, 2
    4454:	02 80 06 f4 	be  6024 <dl_main+0x2de4>
    4458:	05 00 00 01 	sethi  %hi(0x400), %g2
    445c:	82 10 a3 c4 	or  %g2, 0x3c4, %g1	! 7c4 <GLIBC_2.0+0x7c4>
    4460:	c4 05 c0 01 	ld  [ %l7 + %g1 ], %g2
    4464:	c6 00 80 00 	ld  [ %g2 ], %g3
    4468:	c0 23 a0 5c 	clr  [ %sp + 0x5c ]
    446c:	d2 00 c0 00 	ld  [ %g3 ], %o1
    4470:	90 10 20 00 	clr  %o0
    4474:	94 10 20 00 	clr  %o2
    4478:	96 10 20 01 	mov  1, %o3
    447c:	98 10 20 00 	clr  %o4
    4480:	40 00 15 4a 	call  99a8 <_dl_map_object>
    4484:	1b 08 00 00 	sethi  %hi(0x20000000), %o5
    4488:	07 00 00 01 	sethi  %hi(0x400), %g3
    448c:	82 10 e3 b8 	or  %g3, 0x3b8, %g1	! 7b8 <GLIBC_2.0+0x7b8>
    4490:	c4 05 c0 01 	ld  [ %l7 + %g1 ], %g2
    4494:	09 00 00 00 	sethi  %hi(0), %g4
    4498:	e6 00 80 00 	ld  [ %g2 ], %l3
    449c:	82 11 20 e8 	or  %g4, 0xe8, %g1
    44a0:	c6 05 c0 01 	ld  [ %l7 + %g1 ], %g3
    44a4:	c4 04 e1 5c 	ld  [ %l3 + 0x15c ], %g2
    44a8:	c4 26 80 00 	st  %g2, [ %i2 ]
    44ac:	c6 24 e0 04 	st  %g3, [ %l3 + 4 ]
    44b0:	f0 04 e1 58 	ld  [ %l3 + 0x158 ], %i0
    44b4:	10 bf fb ec 	b  3464 <dl_main+0x224>
    44b8:	f2 14 e1 60 	lduh  [ %l3 + 0x160 ], %i1
    44bc:	82 10 61 08 	or  %g1, 0x108, %g1
    44c0:	d2 05 c0 01 	ld  [ %l7 + %g1 ], %o1
    44c4:	40 00 4d a8 	call  17b64 <strcmp>
    44c8:	d0 04 20 04 	ld  [ %l0 + 4 ], %o0
    44cc:	80 a2 20 00 	cmp  %o0, 0
    44d0:	12 80 00 17 	bne  452c <dl_main+0x12ec>
    44d4:	05 00 00 01 	sethi  %hi(0x400), %g2
    44d8:	13 00 00 01 	sethi  %hi(0x400), %o1
    44dc:	92 12 63 c0 	or  %o1, 0x3c0, %o1	! 7c0 <GLIBC_2.0+0x7c0>
    44e0:	d2 05 c0 09 	ld  [ %l7 + %o1 ], %o1
    44e4:	c8 02 40 00 	ld  [ %o1 ], %g4
    44e8:	80 a1 20 02 	cmp  %g4, 2
    44ec:	04 80 00 11 	ble  4530 <dl_main+0x12f0>
    44f0:	84 10 a3 c4 	or  %g2, 0x3c4, %g2
    44f4:	c2 04 20 08 	ld  [ %l0 + 8 ], %g1
    44f8:	c6 05 c0 1d 	ld  [ %l7 + %i5 ], %g3
    44fc:	c2 20 c0 00 	st  %g1, [ %g3 ]
    4500:	03 00 00 01 	sethi  %hi(0x400), %g1
    4504:	c4 04 80 00 	ld  [ %l2 ], %g2
    4508:	82 10 63 c4 	or  %g1, 0x3c4, %g1
    450c:	84 00 a0 02 	add  %g2, 2, %g2
    4510:	88 01 3f fe 	add  %g4, -2, %g4
    4514:	9a 04 20 08 	add  %l0, 8, %o5
    4518:	c2 05 c0 01 	ld  [ %l7 + %g1 ], %g1
    451c:	c4 24 80 00 	st  %g2, [ %l2 ]
    4520:	c8 22 40 00 	st  %g4, [ %o1 ]
    4524:	10 bf ff 79 	b  4308 <dl_main+0x10c8>
    4528:	da 20 40 00 	st  %o5, [ %g1 ]
    452c:	84 10 a3 c4 	or  %g2, 0x3c4, %g2
    4530:	c4 05 c0 02 	ld  [ %l7 + %g2 ], %g2
    4534:	03 00 00 00 	sethi  %hi(0), %g1
    4538:	82 10 61 0c 	or  %g1, 0x10c, %g1	! 10c <GLIBC_2.0+0x10c>
    453c:	e0 00 80 00 	ld  [ %g2 ], %l0
    4540:	d2 05 c0 01 	ld  [ %l7 + %g1 ], %o1
    4544:	40 00 4d 88 	call  17b64 <strcmp>
    4548:	d0 04 20 04 	ld  [ %l0 + 4 ], %o0
    454c:	80 a2 20 00 	cmp  %o0, 0
    4550:	12 80 00 0a 	bne  4578 <dl_main+0x1338>
    4554:	05 00 00 01 	sethi  %hi(0x400), %g2
    4558:	09 00 00 01 	sethi  %hi(0x400), %g4
    455c:	88 11 23 c0 	or  %g4, 0x3c0, %g4	! 7c0 <GLIBC_2.0+0x7c0>
    4560:	c8 05 c0 04 	ld  [ %l7 + %g4 ], %g4
    4564:	c6 01 00 00 	ld  [ %g4 ], %g3
    4568:	80 a0 e0 02 	cmp  %g3, 2
    456c:	34 80 01 ff 	bg,a   4d68 <dl_main+0x1b28>
    4570:	c2 04 20 08 	ld  [ %l0 + 8 ], %g1
    4574:	05 00 00 01 	sethi  %hi(0x400), %g2
    4578:	84 10 a3 c4 	or  %g2, 0x3c4, %g2	! 7c4 <GLIBC_2.0+0x7c4>
    457c:	c4 05 c0 02 	ld  [ %l7 + %g2 ], %g2
    4580:	03 00 00 00 	sethi  %hi(0), %g1
    4584:	82 10 61 10 	or  %g1, 0x110, %g1	! 110 <GLIBC_2.0+0x110>
    4588:	e2 00 80 00 	ld  [ %g2 ], %l1
    458c:	d2 05 c0 01 	ld  [ %l7 + %g1 ], %o1
    4590:	40 00 4d 75 	call  17b64 <strcmp>
    4594:	d0 04 60 04 	ld  [ %l1 + 4 ], %o0
    4598:	80 a2 20 00 	cmp  %o0, 0
    459c:	12 bf ff 84 	bne  43ac <dl_main+0x116c>
    45a0:	07 00 00 01 	sethi  %hi(0x400), %g3
    45a4:	82 10 e3 c0 	or  %g3, 0x3c0, %g1	! 7c0 <GLIBC_2.0+0x7c0>
    45a8:	e0 05 c0 01 	ld  [ %l7 + %g1 ], %l0
    45ac:	c4 04 00 00 	ld  [ %l0 ], %g2
    45b0:	80 a0 a0 02 	cmp  %g2, 2
    45b4:	04 bf ff 7f 	ble  43b0 <dl_main+0x1170>
    45b8:	13 00 00 01 	sethi  %hi(0x400), %o1
    45bc:	7f ff f8 09 	call  25e0 <process_dl_audit>
    45c0:	d0 04 60 08 	ld  [ %l1 + 8 ], %o0
    45c4:	09 00 00 01 	sethi  %hi(0x400), %g4
    45c8:	88 11 23 c4 	or  %g4, 0x3c4, %g4	! 7c4 <GLIBC_2.0+0x7c4>
    45cc:	c8 05 c0 04 	ld  [ %l7 + %g4 ], %g4
    45d0:	c2 04 80 00 	ld  [ %l2 ], %g1
    45d4:	c4 04 00 00 	ld  [ %l0 ], %g2
    45d8:	c6 01 00 00 	ld  [ %g4 ], %g3
    45dc:	82 00 60 02 	add  %g1, 2, %g1
    45e0:	84 00 bf fe 	add  %g2, -2, %g2
    45e4:	86 00 e0 08 	add  %g3, 8, %g3
    45e8:	c4 24 00 00 	st  %g2, [ %l0 ]
    45ec:	c2 24 80 00 	st  %g1, [ %l2 ]
    45f0:	10 bf ff 6b 	b  439c <dl_main+0x115c>
    45f4:	c6 21 00 00 	st  %g3, [ %g4 ]
    45f8:	99 38 60 01 	sra  %g1, 1, %o4
    45fc:	84 38 00 0c 	xnor  %g0, %o4, %g2
    4600:	82 10 20 33 	mov  0x33, %g1
    4604:	80 a0 a0 02 	cmp  %g2, 2
    4608:	08 bf ff 0a 	bleu  4230 <dl_main+0xff0>
    460c:	82 20 40 0c 	sub  %g1, %o4, %g1
    4610:	82 12 e1 ff 	or  %o3, 0x1ff, %g1
    4614:	82 20 40 03 	sub  %g1, %g3, %g1
    4618:	80 a0 60 0b 	cmp  %g1, 0xb
    461c:	08 80 01 e2 	bleu  4da4 <dl_main+0x1b64>
    4620:	82 12 e2 36 	or  %o3, 0x236, %g1
    4624:	82 12 e2 ff 	or  %o3, 0x2ff, %g1
    4628:	82 20 40 03 	sub  %g1, %g3, %g1
    462c:	80 a0 60 0a 	cmp  %g1, 0xa
    4630:	38 bf fc 38 	bgu,a   3710 <dl_main+0x4d0>
    4634:	88 01 20 08 	add  %g4, 8, %g4
    4638:	82 12 e3 42 	or  %o3, 0x342, %g1
    463c:	82 20 40 03 	sub  %g1, %g3, %g1
    4640:	10 bf fe fd 	b  4234 <dl_main+0xff4>
    4644:	83 28 60 02 	sll  %g1, 2, %g1
    4648:	09 00 00 00 	sethi  %hi(0), %g4
    464c:	82 11 20 e8 	or  %g4, 0xe8, %g1	! e8 <GLIBC_2.0+0xe8>
    4650:	d0 05 c0 01 	ld  [ %l7 + %g1 ], %o0
    4654:	92 10 00 08 	mov  %o0, %o1
    4658:	94 10 20 01 	mov  1, %o2
    465c:	96 10 20 00 	clr  %o3
    4660:	98 10 20 00 	clr  %o4
    4664:	40 00 1e d9 	call  c1c8 <_dl_new_object>
    4668:	9a 10 20 00 	clr  %o5
    466c:	a2 92 20 00 	orcc  %o0, 0, %l1
    4670:	02 bf fc ae 	be  3928 <dl_main+0x6e8>
    4674:	03 00 00 01 	sethi  %hi(0x400), %g1
    4678:	c2 04 20 a4 	ld  [ %l0 + 0xa4 ], %g1
    467c:	c8 10 60 2c 	lduh  [ %g1 + 0x2c ], %g4
    4680:	87 29 20 10 	sll  %g4, 0x10, %g3
    4684:	c4 00 60 1c 	ld  [ %g1 + 0x1c ], %g2
    4688:	9a 00 40 02 	add  %g1, %g2, %o5
    468c:	87 30 e0 10 	srl  %g3, 0x10, %g3
    4690:	da 24 61 58 	st  %o5, [ %l1 + 0x158 ]
    4694:	c8 34 61 60 	sth  %g4, [ %l1 + 0x160 ]
    4698:	80 a0 e0 00 	cmp  %g3, 0
    469c:	08 80 00 20 	bleu  471c <dl_main+0x14dc>
    46a0:	98 10 20 00 	clr  %o4
    46a4:	15 00 00 00 	sethi  %hi(0), %o2
    46a8:	13 00 00 00 	sethi  %hi(0), %o1
    46ac:	1f 00 00 00 	sethi  %hi(0), %o7
    46b0:	94 12 a1 14 	or  %o2, 0x114, %o2
    46b4:	92 12 60 88 	or  %o1, 0x88, %o1
    46b8:	9e 13 e0 4c 	or  %o7, 0x4c, %o7
    46bc:	10 80 00 0b 	b  46e8 <dl_main+0x14a8>
    46c0:	96 10 00 03 	mov  %g3, %o3
    46c4:	80 a0 a0 01 	cmp  %g2, 1
    46c8:	02 80 01 06 	be  4ae0 <dl_main+0x18a0>
    46cc:	80 a0 a0 07 	cmp  %g2, 7
    46d0:	22 80 03 b5 	be,a   55a4 <dl_main+0x2364>
    46d4:	d0 05 c0 0a 	ld  [ %l7 + %o2 ], %o0
    46d8:	98 03 20 01 	inc  %o4
    46dc:	80 a2 c0 0c 	cmp  %o3, %o4
    46e0:	28 80 00 10 	bleu,a   4720 <dl_main+0x14e0>
    46e4:	13 00 00 01 	sethi  %hi(0x400), %o1
    46e8:	83 2b 20 05 	sll  %o4, 5, %g1
    46ec:	c4 03 40 01 	ld  [ %o5 + %g1 ], %g2
    46f0:	80 a0 a0 02 	cmp  %g2, 2
    46f4:	12 bf ff f4 	bne  46c4 <dl_main+0x1484>
    46f8:	88 03 40 01 	add  %o5, %g1, %g4
    46fc:	c2 01 20 14 	ld  [ %g4 + 0x14 ], %g1
    4700:	83 30 60 03 	srl  %g1, 3, %g1
    4704:	c4 01 20 08 	ld  [ %g4 + 8 ], %g2
    4708:	98 03 20 01 	inc  %o4
    470c:	c4 24 60 08 	st  %g2, [ %l1 + 8 ]
    4710:	80 a2 c0 0c 	cmp  %o3, %o4
    4714:	18 bf ff f5 	bgu  46e8 <dl_main+0x14a8>
    4718:	c2 34 61 62 	sth  %g1, [ %l1 + 0x162 ]
    471c:	13 00 00 01 	sethi  %hi(0x400), %o1
    4720:	82 12 63 dc 	or  %o1, 0x3dc, %g1	! 7dc <GLIBC_2.0+0x7dc>
    4724:	c4 05 c0 01 	ld  [ %l7 + %g1 ], %g2
    4728:	c8 00 a0 a4 	ld  [ %g2 + 0xa4 ], %g4
    472c:	c2 04 40 00 	ld  [ %l1 ], %g1
    4730:	94 21 00 01 	sub  %g4, %g1, %o2
    4734:	d8 04 60 08 	ld  [ %l1 + 8 ], %o4
    4738:	c2 04 61 b8 	ld  [ %l1 + 0x1b8 ], %g1
    473c:	c4 04 61 bc 	ld  [ %l1 + 0x1bc ], %g2
    4740:	07 00 00 00 	sethi  %hi(0), %g3
    4744:	9a 03 00 0a 	add  %o4, %o2, %o5
    4748:	82 00 40 0a 	add  %g1, %o2, %g1
    474c:	84 00 80 0a 	add  %g2, %o2, %g2
    4750:	86 10 e0 5c 	or  %g3, 0x5c, %g3
    4754:	96 10 00 0d 	mov  %o5, %o3
    4758:	c2 24 61 b8 	st  %g1, [ %l1 + 0x1b8 ]
    475c:	c4 24 61 bc 	st  %g2, [ %l1 + 0x1bc ]
    4760:	c8 24 61 b4 	st  %g4, [ %l1 + 0x1b4 ]
    4764:	d4 24 40 00 	st  %o2, [ %l1 ]
    4768:	da 24 60 08 	st  %o5, [ %l1 + 8 ]
    476c:	80 a3 60 00 	cmp  %o5, 0
    4770:	02 80 00 bb 	be  4a5c <dl_main+0x181c>
    4774:	d2 05 c0 03 	ld  [ %l7 + %g3 ], %o1
    4778:	c2 03 00 0a 	ld  [ %o4 + %o2 ], %g1
    477c:	80 a0 60 00 	cmp  %g1, 0
    4780:	02 80 00 1e 	be  47f8 <dl_main+0x15b8>
    4784:	98 04 60 20 	add  %l1, 0x20, %o4
    4788:	9a 10 00 01 	mov  %g1, %o5
    478c:	03 10 00 00 	sethi  %hi(0x40000000), %g1
    4790:	05 1c 00 00 	sethi  %hi(0x70000000), %g2
    4794:	90 10 60 88 	or  %g1, 0x88, %o0
    4798:	10 80 00 0f 	b  47d4 <dl_main+0x1594>
    479c:	9e 10 a0 23 	or  %g2, 0x23, %o7
    47a0:	03 24 00 00 	sethi  %hi(0x90000000), %g1
    47a4:	82 03 40 01 	add  %o5, %g1, %g1
    47a8:	80 a0 60 01 	cmp  %g1, 1
    47ac:	18 80 02 da 	bgu  5314 <dl_main+0x20d4>
    47b0:	09 1b ff ff 	sethi  %hi(0x6ffffc00), %g4
    47b4:	83 2b 60 02 	sll  %o5, 2, %g1
    47b8:	82 00 40 0c 	add  %g1, %o4, %g1
    47bc:	d6 20 40 08 	st  %o3, [ %g1 + %o0 ]
    47c0:	96 02 e0 08 	add  %o3, 8, %o3
    47c4:	da 02 c0 00 	ld  [ %o3 ], %o5
    47c8:	80 a3 60 00 	cmp  %o5, 0
    47cc:	02 80 00 0c 	be  47fc <dl_main+0x15bc>
    47d0:	80 a2 a0 00 	cmp  %o2, 0
    47d4:	80 a3 60 21 	cmp  %o5, 0x21
    47d8:	14 bf ff f2 	bg  47a0 <dl_main+0x1560>
    47dc:	83 2b 60 02 	sll  %o5, 2, %g1
    47e0:	d6 23 00 01 	st  %o3, [ %o4 + %g1 ]
    47e4:	96 02 e0 08 	add  %o3, 8, %o3
    47e8:	da 02 c0 00 	ld  [ %o3 ], %o5
    47ec:	80 a3 60 00 	cmp  %o5, 0
    47f0:	12 bf ff fa 	bne  47d8 <dl_main+0x1598>
    47f4:	80 a3 60 21 	cmp  %o5, 0x21
    47f8:	80 a2 a0 00 	cmp  %o2, 0
    47fc:	22 80 00 6c 	be,a   49ac <dl_main+0x176c>
    4800:	c2 03 20 50 	ld  [ %o4 + 0x50 ], %g1
    4804:	c4 03 20 10 	ld  [ %o4 + 0x10 ], %g2
    4808:	80 a0 a0 00 	cmp  %g2, 0
    480c:	02 80 00 09 	be  4830 <dl_main+0x15f0>
    4810:	9a 10 20 00 	clr  %o5
    4814:	c2 00 a0 04 	ld  [ %g2 + 4 ], %g1
    4818:	82 00 40 0a 	add  %g1, %o2, %g1
    481c:	c2 22 60 04 	st  %g1, [ %o1 + 4 ]
    4820:	c4 00 80 00 	ld  [ %g2 ], %g2
    4824:	c4 22 40 00 	st  %g2, [ %o1 ]
    4828:	d2 23 20 10 	st  %o1, [ %o4 + 0x10 ]
    482c:	9a 10 20 01 	mov  1, %o5
    4830:	c4 03 20 0c 	ld  [ %o4 + 0xc ], %g2
    4834:	80 a0 a0 00 	cmp  %g2, 0
    4838:	22 80 00 0c 	be,a   4868 <dl_main+0x1628>
    483c:	c4 03 20 14 	ld  [ %o4 + 0x14 ], %g2
    4840:	c2 00 a0 04 	ld  [ %g2 + 4 ], %g1
    4844:	87 2b 60 03 	sll  %o5, 3, %g3
    4848:	88 02 40 03 	add  %o1, %g3, %g4
    484c:	82 00 40 0a 	add  %g1, %o2, %g1
    4850:	c2 21 20 04 	st  %g1, [ %g4 + 4 ]
    4854:	c4 00 80 00 	ld  [ %g2 ], %g2
    4858:	c4 22 40 03 	st  %g2, [ %o1 + %g3 ]
    485c:	c8 23 20 0c 	st  %g4, [ %o4 + 0xc ]
    4860:	9a 03 60 01 	inc  %o5
    4864:	c4 03 20 14 	ld  [ %o4 + 0x14 ], %g2
    4868:	80 a0 a0 00 	cmp  %g2, 0
    486c:	22 80 00 0c 	be,a   489c <dl_main+0x165c>
    4870:	c4 03 20 18 	ld  [ %o4 + 0x18 ], %g2
    4874:	c2 00 a0 04 	ld  [ %g2 + 4 ], %g1
    4878:	87 2b 60 03 	sll  %o5, 3, %g3
    487c:	88 02 40 03 	add  %o1, %g3, %g4
    4880:	82 00 40 0a 	add  %g1, %o2, %g1
    4884:	c2 21 20 04 	st  %g1, [ %g4 + 4 ]
    4888:	c4 00 80 00 	ld  [ %g2 ], %g2
    488c:	c4 22 40 03 	st  %g2, [ %o1 + %g3 ]
    4890:	c8 23 20 14 	st  %g4, [ %o4 + 0x14 ]
    4894:	9a 03 60 01 	inc  %o5
    4898:	c4 03 20 18 	ld  [ %o4 + 0x18 ], %g2
    489c:	80 a0 a0 00 	cmp  %g2, 0
    48a0:	22 80 00 0c 	be,a   48d0 <dl_main+0x1690>
    48a4:	c4 03 20 1c 	ld  [ %o4 + 0x1c ], %g2
    48a8:	c2 00 a0 04 	ld  [ %g2 + 4 ], %g1
    48ac:	87 2b 60 03 	sll  %o5, 3, %g3
    48b0:	88 02 40 03 	add  %o1, %g3, %g4
    48b4:	82 00 40 0a 	add  %g1, %o2, %g1
    48b8:	c2 21 20 04 	st  %g1, [ %g4 + 4 ]
    48bc:	c4 00 80 00 	ld  [ %g2 ], %g2
    48c0:	c4 22 40 03 	st  %g2, [ %o1 + %g3 ]
    48c4:	c8 23 20 18 	st  %g4, [ %o4 + 0x18 ]
    48c8:	9a 03 60 01 	inc  %o5
    48cc:	c4 03 20 1c 	ld  [ %o4 + 0x1c ], %g2
    48d0:	80 a0 a0 00 	cmp  %g2, 0
    48d4:	22 80 00 0c 	be,a   4904 <dl_main+0x16c4>
    48d8:	c4 03 20 5c 	ld  [ %o4 + 0x5c ], %g2
    48dc:	c2 00 a0 04 	ld  [ %g2 + 4 ], %g1
    48e0:	87 2b 60 03 	sll  %o5, 3, %g3
    48e4:	88 02 40 03 	add  %o1, %g3, %g4
    48e8:	82 00 40 0a 	add  %g1, %o2, %g1
    48ec:	c2 21 20 04 	st  %g1, [ %g4 + 4 ]
    48f0:	c4 00 80 00 	ld  [ %g2 ], %g2
    48f4:	c4 22 40 03 	st  %g2, [ %o1 + %g3 ]
    48f8:	c8 23 20 1c 	st  %g4, [ %o4 + 0x1c ]
    48fc:	9a 03 60 01 	inc  %o5
    4900:	c4 03 20 5c 	ld  [ %o4 + 0x5c ], %g2
    4904:	80 a0 a0 00 	cmp  %g2, 0
    4908:	22 80 00 0c 	be,a   4938 <dl_main+0x16f8>
    490c:	c4 03 20 cc 	ld  [ %o4 + 0xcc ], %g2
    4910:	c2 00 a0 04 	ld  [ %g2 + 4 ], %g1
    4914:	87 2b 60 03 	sll  %o5, 3, %g3
    4918:	88 02 40 03 	add  %o1, %g3, %g4
    491c:	82 00 40 0a 	add  %g1, %o2, %g1
    4920:	c2 21 20 04 	st  %g1, [ %g4 + 4 ]
    4924:	c4 00 80 00 	ld  [ %g2 ], %g2
    4928:	c4 22 40 03 	st  %g2, [ %o1 + %g3 ]
    492c:	c8 23 20 5c 	st  %g4, [ %o4 + 0x5c ]
    4930:	9a 03 60 01 	inc  %o5
    4934:	c4 03 20 cc 	ld  [ %o4 + 0xcc ], %g2
    4938:	80 a0 a0 00 	cmp  %g2, 0
    493c:	22 80 00 0c 	be,a   496c <dl_main+0x172c>
    4940:	c4 03 21 34 	ld  [ %o4 + 0x134 ], %g2
    4944:	c2 00 a0 04 	ld  [ %g2 + 4 ], %g1
    4948:	87 2b 60 03 	sll  %o5, 3, %g3
    494c:	88 02 40 03 	add  %o1, %g3, %g4
    4950:	82 00 40 0a 	add  %g1, %o2, %g1
    4954:	c2 21 20 04 	st  %g1, [ %g4 + 4 ]
    4958:	c4 00 80 00 	ld  [ %g2 ], %g2
    495c:	c4 22 40 03 	st  %g2, [ %o1 + %g3 ]
    4960:	c8 23 20 cc 	st  %g4, [ %o4 + 0xcc ]
    4964:	9a 03 60 01 	inc  %o5
    4968:	c4 03 21 34 	ld  [ %o4 + 0x134 ], %g2
    496c:	80 a0 a0 00 	cmp  %g2, 0
    4970:	02 80 00 0c 	be  49a0 <dl_main+0x1760>
    4974:	80 a3 60 08 	cmp  %o5, 8
    4978:	c2 00 a0 04 	ld  [ %g2 + 4 ], %g1
    497c:	87 2b 60 03 	sll  %o5, 3, %g3
    4980:	88 02 40 03 	add  %o1, %g3, %g4
    4984:	82 00 40 0a 	add  %g1, %o2, %g1
    4988:	c2 21 20 04 	st  %g1, [ %g4 + 4 ]
    498c:	c4 00 80 00 	ld  [ %g2 ], %g2
    4990:	c4 22 40 03 	st  %g2, [ %o1 + %g3 ]
    4994:	c8 23 21 34 	st  %g4, [ %o4 + 0x134 ]
    4998:	9a 03 60 01 	inc  %o5
    499c:	80 a3 60 08 	cmp  %o5, 8
    49a0:	14 80 06 12 	bg  61e8 <dl_main+0x2fa8>
    49a4:	03 00 00 00 	sethi  %hi(0), %g1
    49a8:	c2 03 20 50 	ld  [ %o4 + 0x50 ], %g1
    49ac:	80 a0 60 00 	cmp  %g1, 0
    49b0:	22 80 00 07 	be,a   49cc <dl_main+0x178c>
    49b4:	c2 03 20 1c 	ld  [ %o4 + 0x1c ], %g1
    49b8:	c2 00 60 04 	ld  [ %g1 + 4 ], %g1
    49bc:	80 a0 60 07 	cmp  %g1, 7
    49c0:	12 80 03 a3 	bne  584c <dl_main+0x260c>
    49c4:	03 00 00 00 	sethi  %hi(0), %g1
    49c8:	c2 03 20 1c 	ld  [ %o4 + 0x1c ], %g1
    49cc:	80 a0 60 00 	cmp  %g1, 0
    49d0:	22 80 00 08 	be,a   49f0 <dl_main+0x17b0>
    49d4:	c4 03 20 78 	ld  [ %o4 + 0x78 ], %g2
    49d8:	c2 03 20 24 	ld  [ %o4 + 0x24 ], %g1
    49dc:	c4 00 60 04 	ld  [ %g1 + 4 ], %g2
    49e0:	80 a0 a0 0c 	cmp  %g2, 0xc
    49e4:	12 80 03 54 	bne  5734 <dl_main+0x24f4>
    49e8:	03 00 00 00 	sethi  %hi(0), %g1
    49ec:	c4 03 20 78 	ld  [ %o4 + 0x78 ], %g2
    49f0:	80 a0 a0 00 	cmp  %g2, 0
    49f4:	22 80 00 0e 	be,a   4a2c <dl_main+0x17ec>
    49f8:	c4 03 20 a0 	ld  [ %o4 + 0xa0 ], %g2
    49fc:	c2 00 a0 04 	ld  [ %g2 + 4 ], %g1
    4a00:	80 88 60 02 	btst  2, %g1
    4a04:	02 80 00 03 	be  4a10 <dl_main+0x17d0>
    4a08:	c2 24 62 10 	st  %g1, [ %l1 + 0x210 ]
    4a0c:	c4 23 20 40 	st  %g2, [ %o4 + 0x40 ]
    4a10:	80 88 60 04 	btst  4, %g1
    4a14:	32 80 00 02 	bne,a   4a1c <dl_main+0x17dc>
    4a18:	c4 23 20 58 	st  %g2, [ %o4 + 0x58 ]
    4a1c:	80 88 60 08 	btst  8, %g1
    4a20:	32 80 00 02 	bne,a   4a28 <dl_main+0x17e8>
    4a24:	c4 23 20 60 	st  %g2, [ %o4 + 0x60 ]
    4a28:	c4 03 20 a0 	ld  [ %o4 + 0xa0 ], %g2
    4a2c:	80 a0 a0 00 	cmp  %g2, 0
    4a30:	22 80 00 08 	be,a   4a50 <dl_main+0x1810>
    4a34:	c2 03 20 74 	ld  [ %o4 + 0x74 ], %g1
    4a38:	c2 00 a0 04 	ld  [ %g2 + 4 ], %g1
    4a3c:	80 88 60 01 	btst  1, %g1
    4a40:	02 80 00 03 	be  4a4c <dl_main+0x180c>
    4a44:	c2 24 62 0c 	st  %g1, [ %l1 + 0x20c ]
    4a48:	c4 23 20 60 	st  %g2, [ %o4 + 0x60 ]
    4a4c:	c2 03 20 74 	ld  [ %o4 + 0x74 ], %g1
    4a50:	80 a0 60 00 	cmp  %g1, 0
    4a54:	32 80 00 02 	bne,a   4a5c <dl_main+0x181c>
    4a58:	c0 23 20 3c 	clr  [ %o4 + 0x3c ]
    4a5c:	40 00 1a a3 	call  b4e8 <_dl_setup_hash>
    4a60:	90 10 00 11 	mov  %l1, %o0
    4a64:	c2 04 61 94 	ld  [ %l1 + 0x194 ], %g1
    4a68:	05 08 00 00 	sethi  %hi(0x20000000), %g2
    4a6c:	82 10 40 02 	or  %g1, %g2, %g1
    4a70:	c2 24 61 94 	st  %g1, [ %l1 + 0x194 ]
    4a74:	c6 04 61 d8 	ld  [ %l1 + 0x1d8 ], %g3
    4a78:	84 04 60 14 	add  %l1, 0x14, %g2
    4a7c:	c8 04 60 58 	ld  [ %l1 + 0x58 ], %g4
    4a80:	82 10 20 01 	mov  1, %g1
    4a84:	c4 20 c0 00 	st  %g2, [ %g3 ]
    4a88:	80 a1 20 00 	cmp  %g4, 0
    4a8c:	12 80 02 b6 	bne  5564 <dl_main+0x2324>
    4a90:	c2 20 e0 04 	st  %g1, [ %g3 + 4 ]
    4a94:	c2 04 60 0c 	ld  [ %l1 + 0xc ], %g1
    4a98:	80 a0 60 00 	cmp  %g1, 0
    4a9c:	12 80 05 e8 	bne  623c <dl_main+0x2ffc>
    4aa0:	03 00 00 00 	sethi  %hi(0), %g1
    4aa4:	c2 04 60 10 	ld  [ %l1 + 0x10 ], %g1
    4aa8:	80 a0 40 13 	cmp  %g1, %l3
    4aac:	12 80 05 d9 	bne  6210 <dl_main+0x2fd0>
    4ab0:	05 00 00 01 	sethi  %hi(0x400), %g2
    4ab4:	82 10 a3 b8 	or  %g2, 0x3b8, %g1	! 7b8 <GLIBC_2.0+0x7b8>
    4ab8:	c8 05 c0 01 	ld  [ %l7 + %g1 ], %g4
    4abc:	13 00 00 01 	sethi  %hi(0x400), %o1
    4ac0:	84 01 22 f8 	add  %g4, 0x2f8, %g2
    4ac4:	86 12 63 dc 	or  %o1, 0x3dc, %g3
    4ac8:	c4 24 60 10 	st  %g2, [ %l1 + 0x10 ]
    4acc:	c2 05 c0 03 	ld  [ %l7 + %g3 ], %g1
    4ad0:	e2 20 60 a8 	st  %l1, [ %g1 + 0xa8 ]
    4ad4:	e2 21 23 04 	st  %l1, [ %g4 + 0x304 ]
    4ad8:	10 bf fb 93 	b  3924 <dl_main+0x6e4>
    4adc:	ac 04 60 0c 	add  %l1, 0xc, %l6
    4ae0:	c2 04 40 00 	ld  [ %l1 ], %g1
    4ae4:	80 a0 60 00 	cmp  %g1, 0
    4ae8:	12 80 00 04 	bne  4af8 <dl_main+0x18b8>
    4aec:	c2 01 20 08 	ld  [ %g4 + 8 ], %g1
    4af0:	c2 24 40 00 	st  %g1, [ %l1 ]
    4af4:	c2 01 20 08 	ld  [ %g4 + 8 ], %g1
    4af8:	c4 01 20 14 	ld  [ %g4 + 0x14 ], %g2
    4afc:	82 00 40 02 	add  %g1, %g2, %g1
    4b00:	c6 04 61 b8 	ld  [ %l1 + 0x1b8 ], %g3
    4b04:	80 a0 40 03 	cmp  %g1, %g3
    4b08:	3a 80 00 02 	bcc,a   4b10 <dl_main+0x18d0>
    4b0c:	c2 24 61 b8 	st  %g1, [ %l1 + 0x1b8 ]
    4b10:	c2 01 20 18 	ld  [ %g4 + 0x18 ], %g1
    4b14:	80 88 60 01 	btst  1, %g1
    4b18:	22 bf fe f1 	be,a   46dc <dl_main+0x149c>
    4b1c:	98 03 20 01 	inc  %o4
    4b20:	c2 01 20 14 	ld  [ %g4 + 0x14 ], %g1
    4b24:	c4 01 20 08 	ld  [ %g4 + 8 ], %g2
    4b28:	84 00 80 01 	add  %g2, %g1, %g2
    4b2c:	c6 04 61 bc 	ld  [ %l1 + 0x1bc ], %g3
    4b30:	80 a0 80 03 	cmp  %g2, %g3
    4b34:	3a bf fe e9 	bcc,a   46d8 <dl_main+0x1498>
    4b38:	c4 24 61 bc 	st  %g2, [ %l1 + 0x1bc ]
    4b3c:	10 bf fe e8 	b  46dc <dl_main+0x149c>
    4b40:	98 03 20 01 	inc  %o4
    4b44:	40 00 4c cf 	call  17e80 <strlen>
    4b48:	90 10 00 1d 	mov  %i5, %o0
    4b4c:	82 02 20 13 	add  %o0, 0x13, %g1
    4b50:	82 08 7f f8 	and  %g1, -8, %g1
    4b54:	9c 23 80 01 	sub  %sp, %g1, %sp
    4b58:	a0 03 a0 68 	add  %sp, 0x68, %l0
    4b5c:	a0 02 00 10 	add  %o0, %l0, %l0
    4b60:	a2 10 00 08 	mov  %o0, %l1
    4b64:	40 00 4a 62 	call  174ec <__getpid>
    4b68:	c0 2c 20 0b 	clrb  [ %l0 + 0xb ]
    4b6c:	92 10 00 08 	mov  %o0, %o1
    4b70:	94 04 20 0b 	add  %l0, 0xb, %o2
    4b74:	96 10 20 0a 	mov  0xa, %o3
    4b78:	98 10 20 00 	clr  %o4
    4b7c:	40 00 45 de 	call  162f4 <_itoa>
    4b80:	91 3a 20 1f 	sra  %o0, 0x1f, %o0
    4b84:	82 10 20 2e 	mov  0x2e, %g1
    4b88:	90 02 3f ff 	add  %o0, -1, %o0
    4b8c:	c2 2a 00 00 	stb  %g1, [ %o0 ]
    4b90:	92 10 00 1d 	mov  %i5, %o1
    4b94:	94 10 00 11 	mov  %l1, %o2
    4b98:	40 00 50 ec 	call  18f48 <memcpy>
    4b9c:	90 22 00 11 	sub  %o0, %l1, %o0
    4ba0:	07 00 00 01 	sethi  %hi(0x400), %g3
    4ba4:	82 10 e3 dc 	or  %g3, 0x3dc, %g1	! 7dc <GLIBC_2.0+0x7dc>
    4ba8:	13 00 00 80 	sethi  %hi(0x20000), %o1
    4bac:	e0 05 c0 01 	ld  [ %l7 + %g1 ], %l0
    4bb0:	92 12 62 09 	or  %o1, 0x209, %o1
    4bb4:	40 00 49 9f 	call  17230 <__libc_open>
    4bb8:	94 10 21 b6 	mov  0x1b6, %o2
    4bbc:	80 a2 3f ff 	cmp  %o0, -1
    4bc0:	02 80 02 61 	be  5544 <dl_main+0x2304>
    4bc4:	82 10 20 01 	mov  1, %g1
    4bc8:	d0 24 20 24 	st  %o0, [ %l0 + 0x24 ]
    4bcc:	10 bf fa 0a 	b  33f4 <dl_main+0x1b4>
    4bd0:	9c 10 00 12 	mov  %l2, %sp
    4bd4:	82 20 00 01 	neg  %g1
    4bd8:	c8 02 e0 08 	ld  [ %o3 + 8 ], %g4
    4bdc:	82 09 00 01 	and  %g4, %g1, %g1
    4be0:	c6 04 c0 00 	ld  [ %l3 ], %g3
    4be4:	82 00 c0 01 	add  %g3, %g1, %g1
    4be8:	c4 04 e1 b4 	ld  [ %l3 + 0x1b4 ], %g2
    4bec:	80 a0 80 01 	cmp  %g2, %g1
    4bf0:	28 80 00 05 	bleu,a   4c04 <dl_main+0x19c4>
    4bf4:	82 00 c0 04 	add  %g3, %g4, %g1
    4bf8:	c2 24 e1 b4 	st  %g1, [ %l3 + 0x1b4 ]
    4bfc:	c8 02 e0 08 	ld  [ %o3 + 8 ], %g4
    4c00:	82 00 c0 04 	add  %g3, %g4, %g1
    4c04:	c4 02 e0 14 	ld  [ %o3 + 0x14 ], %g2
    4c08:	84 00 40 02 	add  %g1, %g2, %g2
    4c0c:	c6 04 e1 b8 	ld  [ %l3 + 0x1b8 ], %g3
    4c10:	80 a0 c0 02 	cmp  %g3, %g2
    4c14:	2a 80 00 02 	bcs,a   4c1c <dl_main+0x19dc>
    4c18:	c4 24 e1 b8 	st  %g2, [ %l3 + 0x1b8 ]
    4c1c:	c2 02 e0 18 	ld  [ %o3 + 0x18 ], %g1
    4c20:	80 88 60 01 	btst  1, %g1
    4c24:	22 bf fa 30 	be,a   34e4 <dl_main+0x2a4>
    4c28:	96 02 e0 20 	add  %o3, 0x20, %o3
    4c2c:	c2 04 e1 bc 	ld  [ %l3 + 0x1bc ], %g1
    4c30:	80 a0 40 02 	cmp  %g1, %g2
    4c34:	2a bf fa 2b 	bcs,a   34e0 <dl_main+0x2a0>
    4c38:	c4 24 e1 bc 	st  %g2, [ %l3 + 0x1bc ]
    4c3c:	10 bf fa 2a 	b  34e4 <dl_main+0x2a4>
    4c40:	96 02 e0 20 	add  %o3, 0x20, %o3
    4c44:	03 00 00 00 	sethi  %hi(0), %g1
    4c48:	82 10 61 20 	or  %g1, 0x120, %g1	! 120 <GLIBC_2.0+0x120>
    4c4c:	d0 05 c0 01 	ld  [ %l7 + %g1 ], %o0
    4c50:	40 00 49 78 	call  17230 <__libc_open>
    4c54:	92 10 20 00 	clr  %o1
    4c58:	a2 92 20 00 	orcc  %o0, 0, %l1
    4c5c:	06 80 01 c4 	bl  536c <dl_main+0x212c>
    4c60:	92 10 00 12 	mov  %l2, %o1
    4c64:	40 00 49 83 	call  17270 <__libc_read>
    4c68:	94 10 20 40 	mov  0x40, %o2
    4c6c:	a0 10 00 08 	mov  %o0, %l0
    4c70:	40 00 49 78 	call  17250 <__close>
    4c74:	90 10 00 11 	mov  %l1, %o0
    4c78:	80 a4 20 00 	cmp  %l0, 0
    4c7c:	04 80 01 bc 	ble  536c <dl_main+0x212c>
    4c80:	80 a4 20 3f 	cmp  %l0, 0x3f
    4c84:	04 80 00 03 	ble  4c90 <dl_main+0x1a50>
    4c88:	90 10 00 10 	mov  %l0, %o0
    4c8c:	90 10 20 3f 	mov  0x3f, %o0
    4c90:	10 bf fb 68 	b  3a30 <dl_main+0x7f0>
    4c94:	c0 2a 00 12 	clrb  [ %o0 + %l2 ]
    4c98:	82 10 e3 b8 	or  %g3, 0x3b8, %g1
    4c9c:	c4 05 c0 01 	ld  [ %l7 + %g1 ], %g2
    4ca0:	c6 00 a3 14 	ld  [ %g2 + 0x314 ], %g3
    4ca4:	80 a0 e0 00 	cmp  %g3, 0
    4ca8:	12 bf fa 5d 	bne  361c <dl_main+0x3dc>
    4cac:	03 00 00 00 	sethi  %hi(0), %g1
    4cb0:	05 00 00 00 	sethi  %hi(0), %g2
    4cb4:	07 00 00 00 	sethi  %hi(0), %g3
    4cb8:	82 10 61 24 	or  %g1, 0x124, %g1
    4cbc:	84 10 a0 88 	or  %g2, 0x88, %g2
    4cc0:	86 10 e0 4c 	or  %g3, 0x4c, %g3
    4cc4:	d0 05 c0 01 	ld  [ %l7 + %g1 ], %o0
    4cc8:	d2 05 c0 02 	ld  [ %l7 + %g2 ], %o1
    4ccc:	d6 05 c0 03 	ld  [ %l7 + %g3 ], %o3
    4cd0:	10 80 02 38 	b  55b0 <dl_main+0x2370>
    4cd4:	94 10 24 bf 	mov  0x4bf, %o2
    4cd8:	c2 04 c0 00 	ld  [ %l3 ], %g1
    4cdc:	80 a0 60 00 	cmp  %g1, 0
    4ce0:	84 10 00 0c 	mov  %o4, %g2
    4ce4:	02 80 00 03 	be  4cf0 <dl_main+0x1ab0>
    4ce8:	82 10 3f ff 	mov  -1, %g1
    4cec:	82 10 20 00 	clr  %g1
    4cf0:	10 bf fb b8 	b  3bd0 <dl_main+0x990>
    4cf4:	c2 20 a0 8c 	st  %g1, [ %g2 + 0x8c ]
    4cf8:	c2 48 80 00 	ldsb  [ %g2 ], %g1
    4cfc:	80 a0 60 00 	cmp  %g1, 0
    4d00:	02 80 01 d8 	be  5460 <dl_main+0x2220>
    4d04:	c2 08 80 00 	ldub  [ %g2 ], %g1
    4d08:	83 28 60 18 	sll  %g1, 0x18, %g1
    4d0c:	83 38 60 18 	sra  %g1, 0x18, %g1
    4d10:	80 a0 60 2f 	cmp  %g1, 0x2f
    4d14:	12 bf ff f9 	bne  4cf8 <dl_main+0x1ab8>
    4d18:	84 00 a0 01 	inc  %g2
    4d1c:	10 bf ff f7 	b  4cf8 <dl_main+0x1ab8>
    4d20:	9a 10 00 02 	mov  %g2, %o5
    4d24:	03 00 00 00 	sethi  %hi(0), %g1
    4d28:	82 10 61 28 	or  %g1, 0x128, %g1	! 128 <GLIBC_2.0+0x128>
    4d2c:	d2 05 c0 01 	ld  [ %l7 + %g1 ], %o1
    4d30:	90 10 00 11 	mov  %l1, %o0
    4d34:	40 00 4d 30 	call  181f4 <bcmp>
    4d38:	94 10 20 04 	mov  4, %o2
    4d3c:	80 a2 20 00 	cmp  %o0, 0
    4d40:	12 bf f9 74 	bne  3310 <dl_main+0xd0>
    4d44:	01 00 00 00 	nop 
    4d48:	c2 4c 60 05 	ldsb  [ %l1 + 5 ], %g1
    4d4c:	80 a0 00 01 	cmp  %g0, %g1
    4d50:	03 00 00 01 	sethi  %hi(0x400), %g1
    4d54:	84 10 63 dc 	or  %g1, 0x3dc, %g2	! 7dc <GLIBC_2.0+0x7dc>
    4d58:	c6 05 c0 02 	ld  [ %l7 + %g2 ], %g3
    4d5c:	82 40 20 00 	addx  %g0, 0, %g1
    4d60:	10 bf f9 6c 	b  3310 <dl_main+0xd0>
    4d64:	c2 20 e0 20 	st  %g1, [ %g3 + 0x20 ]
    4d68:	c2 25 a0 84 	st  %g1, [ %l6 + 0x84 ]
    4d6c:	13 00 00 01 	sethi  %hi(0x400), %o1
    4d70:	03 00 00 01 	sethi  %hi(0x400), %g1
    4d74:	c4 04 80 00 	ld  [ %l2 ], %g2
    4d78:	92 12 63 c0 	or  %o1, 0x3c0, %o1
    4d7c:	82 10 63 c4 	or  %g1, 0x3c4, %g1
    4d80:	84 00 a0 02 	add  %g2, 2, %g2
    4d84:	86 00 ff fe 	add  %g3, -2, %g3
    4d88:	88 04 20 08 	add  %l0, 8, %g4
    4d8c:	d2 05 c0 09 	ld  [ %l7 + %o1 ], %o1
    4d90:	c2 05 c0 01 	ld  [ %l7 + %g1 ], %g1
    4d94:	c4 24 80 00 	st  %g2, [ %l2 ]
    4d98:	c6 22 40 00 	st  %g3, [ %o1 ]
    4d9c:	10 bf fd 5b 	b  4308 <dl_main+0x10c8>
    4da0:	c8 20 40 00 	st  %g4, [ %g1 ]
    4da4:	10 bf fe 27 	b  4640 <dl_main+0x1400>
    4da8:	82 20 40 03 	sub  %g1, %g3, %g1
    4dac:	03 00 00 00 	sethi  %hi(0), %g1
    4db0:	82 10 61 2c 	or  %g1, 0x12c, %g1	! 12c <GLIBC_2.0+0x12c>
    4db4:	90 10 00 11 	mov  %l1, %o0
    4db8:	d2 05 c0 01 	ld  [ %l7 + %g1 ], %o1
    4dbc:	40 00 4d 0e 	call  181f4 <bcmp>
    4dc0:	94 10 20 14 	mov  0x14, %o2
    4dc4:	80 a2 20 00 	cmp  %o0, 0
    4dc8:	22 bf f9 52 	be,a   3310 <dl_main+0xd0>
    4dcc:	ac 10 20 03 	mov  3, %l6
    4dd0:	30 bf f9 50 	b,a   3310 <dl_main+0xd0>
    4dd4:	03 00 00 00 	sethi  %hi(0), %g1
    4dd8:	82 10 61 30 	or  %g1, 0x130, %g1	! 130 <GLIBC_2.0+0x130>
    4ddc:	d2 05 c0 01 	ld  [ %l7 + %g1 ], %o1
    4de0:	90 10 00 11 	mov  %l1, %o0
    4de4:	40 00 4d 04 	call  181f4 <bcmp>
    4de8:	94 10 20 10 	mov  0x10, %o2
    4dec:	80 a2 20 00 	cmp  %o0, 0
    4df0:	12 bf f9 48 	bne  3310 <dl_main+0xd0>
    4df4:	09 00 00 01 	sethi  %hi(0x400), %g4
    4df8:	82 11 23 dc 	or  %g4, 0x3dc, %g1	! 7dc <GLIBC_2.0+0x7dc>
    4dfc:	c6 05 c0 01 	ld  [ %l7 + %g1 ], %g3
    4e00:	c8 00 c0 00 	ld  [ %g3 ], %g4
    4e04:	88 11 24 00 	or  %g4, 0x400, %g4
    4e08:	82 04 60 11 	add  %l1, 0x11, %g1
    4e0c:	84 10 20 01 	mov  1, %g2
    4e10:	c2 20 e0 98 	st  %g1, [ %g3 + 0x98 ]
    4e14:	c4 20 e0 20 	st  %g2, [ %g3 + 0x20 ]
    4e18:	c8 20 c0 00 	st  %g4, [ %g3 ]
    4e1c:	10 bf f9 3d 	b  3310 <dl_main+0xd0>
    4e20:	ac 10 20 03 	mov  3, %l6
    4e24:	05 00 00 01 	sethi  %hi(0x400), %g2
    4e28:	82 10 a3 a4 	or  %g2, 0x3a4, %g1	! 7a4 <GLIBC_2.0+0x7a4>
    4e2c:	c4 05 c0 01 	ld  [ %l7 + %g1 ], %g2
    4e30:	c6 00 80 00 	ld  [ %g2 ], %g3
    4e34:	80 a0 e0 00 	cmp  %g3, 0
    4e38:	12 bf f9 36 	bne  3310 <dl_main+0xd0>
    4e3c:	03 00 00 00 	sethi  %hi(0), %g1
    4e40:	82 10 61 34 	or  %g1, 0x134, %g1	! 134 <GLIBC_2.0+0x134>
    4e44:	d2 05 c0 01 	ld  [ %l7 + %g1 ], %o1
    4e48:	90 10 00 11 	mov  %l1, %o0
    4e4c:	40 00 4c ea 	call  181f4 <bcmp>
    4e50:	94 10 20 0e 	mov  0xe, %o2
    4e54:	80 a2 20 00 	cmp  %o0, 0
    4e58:	12 bf f9 2e 	bne  3310 <dl_main+0xd0>
    4e5c:	01 00 00 00 	nop 
    4e60:	c2 4c 60 0f 	ldsb  [ %l1 + 0xf ], %g1
    4e64:	80 a0 60 00 	cmp  %g1, 0
    4e68:	02 bf f9 2a 	be  3310 <dl_main+0xd0>
    4e6c:	07 00 00 01 	sethi  %hi(0x400), %g3
    4e70:	82 10 e3 dc 	or  %g3, 0x3dc, %g1	! 7dc <GLIBC_2.0+0x7dc>
    4e74:	c6 05 c0 01 	ld  [ %l7 + %g1 ], %g3
    4e78:	84 04 60 0f 	add  %l1, 0xf, %g2
    4e7c:	10 bf f9 25 	b  3310 <dl_main+0xd0>
    4e80:	c4 20 e0 94 	st  %g2, [ %g3 + 0x94 ]
    4e84:	03 00 00 00 	sethi  %hi(0), %g1
    4e88:	82 10 61 38 	or  %g1, 0x138, %g1	! 138 <GLIBC_2.0+0x138>
    4e8c:	d2 05 c0 01 	ld  [ %l7 + %g1 ], %o1
    4e90:	90 10 00 11 	mov  %l1, %o0
    4e94:	40 00 4c d8 	call  181f4 <bcmp>
    4e98:	94 10 20 0d 	mov  0xd, %o2
    4e9c:	80 a2 20 00 	cmp  %o0, 0
    4ea0:	12 80 01 49 	bne  53c4 <dl_main+0x2184>
    4ea4:	09 00 00 01 	sethi  %hi(0x400), %g4
    4ea8:	a0 04 60 0e 	add  %l1, 0xe, %l0
    4eac:	a4 10 20 00 	clr  %l2
    4eb0:	a2 10 20 00 	clr  %l1
    4eb4:	a6 10 20 10 	mov  0x10, %l3
    4eb8:	90 10 00 10 	mov  %l0, %o0
    4ebc:	92 07 bd d8 	add  %fp, -552, %o1
    4ec0:	94 10 20 00 	clr  %o2
    4ec4:	40 00 45 70 	call  16484 <__strtoul_internal>
    4ec8:	96 10 20 00 	clr  %o3
    4ecc:	80 a2 20 fe 	cmp  %o0, 0xfe
    4ed0:	18 bf f9 10 	bgu  3310 <dl_main+0xd0>
    4ed4:	c6 07 bd d8 	ld  [ %fp + -552 ], %g3
    4ed8:	80 a4 00 03 	cmp  %l0, %g3
    4edc:	02 bf f9 0d 	be  3310 <dl_main+0xd0>
    4ee0:	80 a4 60 01 	cmp  %l1, 1
    4ee4:	18 80 00 09 	bgu  4f08 <dl_main+0x1cc8>
    4ee8:	83 2a 00 13 	sll  %o0, %l3, %g1
    4eec:	c4 48 c0 00 	ldsb  [ %g3 ], %g2
    4ef0:	80 a0 a0 00 	cmp  %g2, 0
    4ef4:	22 80 00 0e 	be,a   4f2c <dl_main+0x1cec>
    4ef8:	a4 14 80 01 	or  %l2, %g1, %l2
    4efc:	80 a0 a0 2e 	cmp  %g2, 0x2e
    4f00:	12 bf f9 04 	bne  3310 <dl_main+0xd0>
    4f04:	01 00 00 00 	nop 
    4f08:	c4 48 c0 00 	ldsb  [ %g3 ], %g2
    4f0c:	80 a0 a0 00 	cmp  %g2, 0
    4f10:	02 80 00 07 	be  4f2c <dl_main+0x1cec>
    4f14:	a4 14 80 01 	or  %l2, %g1, %l2
    4f18:	a2 04 60 01 	inc  %l1
    4f1c:	a6 04 ff f8 	add  %l3, -8, %l3
    4f20:	80 a4 60 02 	cmp  %l1, 2
    4f24:	08 bf ff e5 	bleu  4eb8 <dl_main+0x1c78>
    4f28:	a0 00 e0 01 	add  %g3, 1, %l0
    4f2c:	80 a4 a0 00 	cmp  %l2, 0
    4f30:	02 bf f8 f8 	be  3310 <dl_main+0xd0>
    4f34:	07 00 00 01 	sethi  %hi(0x400), %g3
    4f38:	82 10 e3 dc 	or  %g3, 0x3dc, %g1	! 7dc <GLIBC_2.0+0x7dc>
    4f3c:	c4 05 c0 01 	ld  [ %l7 + %g1 ], %g2
    4f40:	10 bf f8 f4 	b  3310 <dl_main+0xd0>
    4f44:	e4 20 a0 08 	st  %l2, [ %g2 + 8 ]
    4f48:	03 00 00 00 	sethi  %hi(0), %g1
    4f4c:	82 10 61 3c 	or  %g1, 0x13c, %g1	! 13c <GLIBC_2.0+0x13c>
    4f50:	d2 05 c0 01 	ld  [ %l7 + %g1 ], %o1
    4f54:	90 10 00 11 	mov  %l1, %o0
    4f58:	40 00 4c a7 	call  181f4 <bcmp>
    4f5c:	94 10 20 0c 	mov  0xc, %o2
    4f60:	80 a2 20 00 	cmp  %o0, 0
    4f64:	12 80 01 5c 	bne  54d4 <dl_main+0x2294>
    4f68:	03 00 00 00 	sethi  %hi(0), %g1
    4f6c:	03 00 00 00 	sethi  %hi(0), %g1
    4f70:	82 10 60 74 	or  %g1, 0x74, %g1	! 74 <GLIBC_2.0+0x74>
    4f74:	c6 05 c0 01 	ld  [ %l7 + %g1 ], %g3
    4f78:	84 04 60 0d 	add  %l1, 0xd, %g2
    4f7c:	10 bf f8 e5 	b  3310 <dl_main+0xd0>
    4f80:	c4 20 c0 00 	st  %g2, [ %g3 ]
    4f84:	07 00 00 01 	sethi  %hi(0x400), %g3
    4f88:	82 10 e3 a4 	or  %g3, 0x3a4, %g1	! 7a4 <GLIBC_2.0+0x7a4>
    4f8c:	c4 05 c0 01 	ld  [ %l7 + %g1 ], %g2
    4f90:	c6 00 80 00 	ld  [ %g2 ], %g3
    4f94:	80 a0 e0 00 	cmp  %g3, 0
    4f98:	12 bf f8 de 	bne  3310 <dl_main+0xd0>
    4f9c:	03 00 00 00 	sethi  %hi(0), %g1
    4fa0:	82 10 61 44 	or  %g1, 0x144, %g1	! 144 <GLIBC_2.0+0x144>
    4fa4:	d2 05 c0 01 	ld  [ %l7 + %g1 ], %o1
    4fa8:	90 10 00 11 	mov  %l1, %o0
    4fac:	40 00 4c 92 	call  181f4 <bcmp>
    4fb0:	94 10 20 0b 	mov  0xb, %o2
    4fb4:	80 a2 20 00 	cmp  %o0, 0
    4fb8:	12 bf f8 d6 	bne  3310 <dl_main+0xd0>
    4fbc:	09 00 00 01 	sethi  %hi(0x400), %g4
    4fc0:	82 11 23 dc 	or  %g4, 0x3dc, %g1	! 7dc <GLIBC_2.0+0x7dc>
    4fc4:	c6 05 c0 01 	ld  [ %l7 + %g1 ], %g3
    4fc8:	84 04 60 0c 	add  %l1, 0xc, %g2
    4fcc:	10 bf f8 d1 	b  3310 <dl_main+0xd0>
    4fd0:	c4 20 e0 88 	st  %g2, [ %g3 + 0x88 ]
    4fd4:	03 00 00 00 	sethi  %hi(0), %g1
    4fd8:	82 10 61 48 	or  %g1, 0x148, %g1	! 148 <GLIBC_2.0+0x148>
    4fdc:	d2 05 c0 01 	ld  [ %l7 + %g1 ], %o1
    4fe0:	90 10 00 11 	mov  %l1, %o0
    4fe4:	40 00 4c 84 	call  181f4 <bcmp>
    4fe8:	94 10 20 0a 	mov  0xa, %o2
    4fec:	80 a2 20 00 	cmp  %o0, 0
    4ff0:	12 bf f8 c8 	bne  3310 <dl_main+0xd0>
    4ff4:	05 00 00 01 	sethi  %hi(0x400), %g2
    4ff8:	82 10 a3 dc 	or  %g2, 0x3dc, %g1	! 7dc <GLIBC_2.0+0x7dc>
    4ffc:	e0 05 c0 01 	ld  [ %l7 + %g1 ], %l0
    5000:	92 10 20 00 	clr  %o1
    5004:	90 04 60 0b 	add  %l1, 0xb, %o0
    5008:	94 10 20 00 	clr  %o2
    500c:	40 00 45 1e 	call  16484 <__strtoul_internal>
    5010:	96 10 20 00 	clr  %o3
    5014:	92 10 00 08 	mov  %o0, %o1
    5018:	90 10 20 00 	clr  %o0
    501c:	10 bf f8 bd 	b  3310 <dl_main+0xd0>
    5020:	d0 3c 20 48 	std  %o0, [ %l0 + 0x48 ]
    5024:	13 00 00 01 	sethi  %hi(0x400), %o1
    5028:	82 12 63 a4 	or  %o1, 0x3a4, %g1	! 7a4 <GLIBC_2.0+0x7a4>
    502c:	c4 05 c0 01 	ld  [ %l7 + %g1 ], %g2
    5030:	c6 00 80 00 	ld  [ %g2 ], %g3
    5034:	80 a0 e0 00 	cmp  %g3, 0
    5038:	12 bf f8 b6 	bne  3310 <dl_main+0xd0>
    503c:	03 00 00 00 	sethi  %hi(0), %g1
    5040:	82 10 61 4c 	or  %g1, 0x14c, %g1	! 14c <GLIBC_2.0+0x14c>
    5044:	90 10 00 11 	mov  %l1, %o0
    5048:	d2 05 c0 01 	ld  [ %l7 + %g1 ], %o1
    504c:	40 00 4c 6a 	call  181f4 <bcmp>
    5050:	94 10 20 09 	mov  9, %o2
    5054:	80 a2 20 00 	cmp  %o0, 0
    5058:	12 bf f8 ae 	bne  3310 <dl_main+0xd0>
    505c:	01 00 00 00 	nop 
    5060:	40 00 41 e2 	call  157e8 <_dl_show_auxv>
    5064:	01 00 00 00 	nop 
    5068:	30 bf f8 aa 	b,a   3310 <dl_main+0xd0>
    506c:	03 00 00 00 	sethi  %hi(0), %g1
    5070:	82 10 61 50 	or  %g1, 0x150, %g1	! 150 <GLIBC_2.0+0x150>
    5074:	d2 05 c0 01 	ld  [ %l7 + %g1 ], %o1
    5078:	90 10 00 11 	mov  %l1, %o0
    507c:	40 00 4c 5e 	call  181f4 <bcmp>
    5080:	94 10 20 08 	mov  8, %o2
    5084:	80 a2 20 00 	cmp  %o0, 0
    5088:	12 80 00 e7 	bne  5424 <dl_main+0x21e4>
    508c:	03 00 00 00 	sethi  %hi(0), %g1
    5090:	c2 4c 60 09 	ldsb  [ %l1 + 9 ], %g1
    5094:	07 00 00 01 	sethi  %hi(0x400), %g3
    5098:	80 a0 00 01 	cmp  %g0, %g1
    509c:	84 10 e3 dc 	or  %g3, 0x3dc, %g2
    50a0:	c6 05 c0 02 	ld  [ %l7 + %g2 ], %g3
    50a4:	82 60 3f ff 	subx  %g0, -1, %g1
    50a8:	10 bf f8 9a 	b  3310 <dl_main+0xd0>
    50ac:	c2 20 e0 28 	st  %g1, [ %g3 + 0x28 ]
    50b0:	03 00 00 00 	sethi  %hi(0), %g1
    50b4:	82 10 61 58 	or  %g1, 0x158, %g1	! 158 <GLIBC_2.0+0x158>
    50b8:	d2 05 c0 01 	ld  [ %l7 + %g1 ], %o1
    50bc:	90 10 00 11 	mov  %l1, %o0
    50c0:	40 00 4c 4d 	call  181f4 <bcmp>
    50c4:	94 10 20 07 	mov  7, %o2
    50c8:	80 a2 20 00 	cmp  %o0, 0
    50cc:	12 80 00 eb 	bne  5478 <dl_main+0x2238>
    50d0:	03 00 00 00 	sethi  %hi(0), %g1
    50d4:	c4 4c 60 08 	ldsb  [ %l1 + 8 ], %g2
    50d8:	03 00 00 00 	sethi  %hi(0), %g1
    50dc:	80 a0 00 02 	cmp  %g0, %g2
    50e0:	82 10 60 7c 	or  %g1, 0x7c, %g1
    50e4:	c6 05 c0 01 	ld  [ %l7 + %g1 ], %g3
    50e8:	84 40 20 00 	addx  %g0, 0, %g2
    50ec:	10 bf f8 89 	b  3310 <dl_main+0xd0>
    50f0:	c4 20 c0 00 	st  %g2, [ %g3 ]
    50f4:	03 00 00 00 	sethi  %hi(0), %g1
    50f8:	82 10 61 60 	or  %g1, 0x160, %g1	! 160 <GLIBC_2.0+0x160>
    50fc:	d2 05 c0 01 	ld  [ %l7 + %g1 ], %o1
    5100:	90 10 00 11 	mov  %l1, %o0
    5104:	40 00 4c 3c 	call  181f4 <bcmp>
    5108:	94 10 20 05 	mov  5, %o2
    510c:	80 a2 20 00 	cmp  %o0, 0
    5110:	02 80 01 48 	be  5630 <dl_main+0x23f0>
    5114:	03 00 00 00 	sethi  %hi(0), %g1
    5118:	82 10 61 64 	or  %g1, 0x164, %g1	! 164 <GLIBC_2.0+0x164>
    511c:	d2 05 c0 01 	ld  [ %l7 + %g1 ], %o1
    5120:	90 10 00 11 	mov  %l1, %o0
    5124:	40 00 4c 34 	call  181f4 <bcmp>
    5128:	94 10 20 05 	mov  5, %o2
    512c:	80 a2 20 00 	cmp  %o0, 0
    5130:	12 bf f8 78 	bne  3310 <dl_main+0xd0>
    5134:	01 00 00 00 	nop 
    5138:	7f ff f5 2a 	call  25e0 <process_dl_audit>
    513c:	90 04 60 06 	add  %l1, 6, %o0
    5140:	30 bf f8 74 	b,a   3310 <dl_main+0xd0>
    5144:	40 00 37 8e 	call  12f7c <_dl_add_to_slotinfo>
    5148:	90 10 00 10 	mov  %l0, %o0
    514c:	e0 04 20 0c 	ld  [ %l0 + 0xc ], %l0
    5150:	80 a4 20 00 	cmp  %l0, 0
    5154:	32 bf fc 0e 	bne,a   418c <dl_main+0xf4c>
    5158:	c2 04 21 94 	ld  [ %l0 + 0x194 ], %g1
    515c:	40 00 41 a1 	call  157e0 <_dl_sysdep_start_cleanup>
    5160:	01 00 00 00 	nop 
    5164:	d2 0f bd 97 	ldub  [ %fp + -617 ], %o1
    5168:	80 a2 60 00 	cmp  %o1, 0
    516c:	12 80 00 0b 	bne  5198 <dl_main+0x1f58>
    5170:	05 00 00 01 	sethi  %hi(0x400), %g2
    5174:	82 10 a3 b8 	or  %g2, 0x3b8, %g1	! 7b8 <GLIBC_2.0+0x7b8>
    5178:	c6 05 c0 01 	ld  [ %l7 + %g1 ], %g3
    517c:	c4 00 e5 d8 	ld  [ %g3 + 0x5d8 ], %g2
    5180:	80 a0 a0 00 	cmp  %g2, 0
    5184:	02 80 00 05 	be  5198 <dl_main+0x1f58>
    5188:	01 00 00 00 	nop 
    518c:	c2 00 e5 f8 	ld  [ %g3 + 0x5f8 ], %g1
    5190:	82 00 60 01 	inc  %g1
    5194:	c2 20 e5 f8 	st  %g1, [ %g3 + 0x5f8 ]
    5198:	40 00 35 90 	call  127d8 <_dl_allocate_tls_init>
    519c:	90 10 00 1b 	mov  %i3, %o0
    51a0:	07 00 00 00 	sethi  %hi(0), %g3
    51a4:	82 10 e0 20 	or  %g3, 0x20, %g1	! 20 <GLIBC_2.0+0x20>
    51a8:	c4 05 c0 01 	ld  [ %l7 + %g1 ], %g2
    51ac:	c6 08 80 00 	ldub  [ %g2 ], %g3
    51b0:	80 a0 e0 00 	cmp  %g3, 0
    51b4:	22 80 00 02 	be,a   51bc <dl_main+0x1f7c>
    51b8:	8e 10 00 1b 	mov  %i3, %g7
    51bc:	80 a5 20 00 	cmp  %l4, 0
    51c0:	12 80 00 06 	bne  51d8 <dl_main+0x1f98>
    51c4:	05 00 00 01 	sethi  %hi(0x400), %g2
    51c8:	c8 0f bd 9f 	ldub  [ %fp + -609 ], %g4
    51cc:	80 89 20 ff 	btst  0xff, %g4
    51d0:	12 80 00 cb 	bne  54fc <dl_main+0x22bc>
    51d4:	13 00 00 01 	sethi  %hi(0x400), %o1
    51d8:	82 10 a3 dc 	or  %g2, 0x3dc, %g1
    51dc:	c6 05 c0 01 	ld  [ %l7 + %g1 ], %g3
    51e0:	c8 00 e0 d0 	ld  [ %g3 + 0xd0 ], %g4
    51e4:	80 a1 20 00 	cmp  %g4, 0
    51e8:	22 80 06 19 	be,a   6a4c <dl_main+0x380c>
    51ec:	92 10 20 00 	clr  %o1
    51f0:	10 80 03 70 	b  5fb0 <dl_main+0x2d70>
    51f4:	13 00 00 01 	sethi  %hi(0x400), %o1
    51f8:	c2 03 60 90 	ld  [ %o5 + 0x90 ], %g1
    51fc:	80 a0 00 01 	cmp  %g0, %g1
    5200:	a2 40 20 00 	addx  %g0, 0, %l1
    5204:	c2 03 60 28 	ld  [ %o5 + 0x28 ], %g1
    5208:	82 10 40 11 	or  %g1, %l1, %g1
    520c:	c4 04 e0 0c 	ld  [ %l3 + 0xc ], %g2
    5210:	c2 23 60 28 	st  %g1, [ %o5 + 0x28 ]
    5214:	80 a0 a0 00 	cmp  %g2, 0
    5218:	02 80 00 10 	be  5258 <dl_main+0x2018>
    521c:	a0 10 00 13 	mov  %l3, %l0
    5220:	82 10 00 02 	mov  %g2, %g1
    5224:	a0 10 00 01 	mov  %g1, %l0
    5228:	c2 00 60 0c 	ld  [ %g1 + 0xc ], %g1
    522c:	80 a0 60 00 	cmp  %g1, 0
    5230:	32 bf ff fe 	bne,a   5228 <dl_main+0x1fe8>
    5234:	a0 10 00 01 	mov  %g1, %l0
    5238:	10 80 00 09 	b  525c <dl_main+0x201c>
    523c:	c2 04 20 1c 	ld  [ %l0 + 0x1c ], %g1
    5240:	40 00 37 4f 	call  12f7c <_dl_add_to_slotinfo>
    5244:	90 10 00 10 	mov  %l0, %o0
    5248:	e0 04 20 10 	ld  [ %l0 + 0x10 ], %l0
    524c:	80 a4 20 00 	cmp  %l0, 0
    5250:	02 80 00 24 	be  52e0 <dl_main+0x20a0>
    5254:	01 00 00 00 	nop 
    5258:	c2 04 20 1c 	ld  [ %l0 + 0x1c ], %g1
    525c:	c2 00 60 04 	ld  [ %g1 + 4 ], %g1
    5260:	80 a0 60 00 	cmp  %g1, 0
    5264:	12 80 03 4c 	bne  5f94 <dl_main+0x2d54>
    5268:	84 10 20 01 	mov  1, %g2
    526c:	13 00 00 01 	sethi  %hi(0x400), %o1
    5270:	84 12 63 b8 	or  %o1, 0x3b8, %g2	! 7b8 <GLIBC_2.0+0x7b8>
    5274:	c2 05 c0 02 	ld  [ %l7 + %g2 ], %g1
    5278:	82 00 62 f8 	add  %g1, 0x2f8, %g1
    527c:	80 a0 40 10 	cmp  %g1, %l0
    5280:	02 80 00 09 	be  52a4 <dl_main+0x2064>
    5284:	05 00 00 01 	sethi  %hi(0x400), %g2
    5288:	82 10 a3 dc 	or  %g2, 0x3dc, %g1	! 7dc <GLIBC_2.0+0x7dc>
    528c:	c4 05 c0 01 	ld  [ %l7 + %g1 ], %g2
    5290:	d4 00 a0 28 	ld  [ %g2 + 0x28 ], %o2
    5294:	90 10 00 10 	mov  %l0, %o0
    5298:	d2 04 21 d4 	ld  [ %l0 + 0x1d4 ], %o1
    529c:	40 00 1d f7 	call  ca78 <_dl_relocate_object>
    52a0:	96 10 00 11 	mov  %l1, %o3
    52a4:	c2 04 22 30 	ld  [ %l0 + 0x230 ], %g1
    52a8:	80 a0 60 00 	cmp  %g1, 0
    52ac:	22 bf ff e8 	be,a   524c <dl_main+0x200c>
    52b0:	e0 04 20 10 	ld  [ %l0 + 0x10 ], %l0
    52b4:	07 00 00 00 	sethi  %hi(0), %g3
    52b8:	82 10 e0 20 	or  %g3, 0x20, %g1	! 20 <GLIBC_2.0+0x20>
    52bc:	c4 05 c0 01 	ld  [ %l7 + %g1 ], %g2
    52c0:	c6 08 80 00 	ldub  [ %g2 ], %g3
    52c4:	80 a0 e0 00 	cmp  %g3, 0
    52c8:	12 bf ff de 	bne  5240 <dl_main+0x2000>
    52cc:	01 00 00 00 	nop 
    52d0:	e0 04 20 10 	ld  [ %l0 + 0x10 ], %l0
    52d4:	80 a4 20 00 	cmp  %l0, 0
    52d8:	32 bf ff e1 	bne,a   525c <dl_main+0x201c>
    52dc:	c2 04 20 1c 	ld  [ %l0 + 0x1c ], %g1
    52e0:	40 00 41 40 	call  157e0 <_dl_sysdep_start_cleanup>
    52e4:	01 00 00 00 	nop 
    52e8:	09 00 00 01 	sethi  %hi(0x400), %g4
    52ec:	82 11 23 b8 	or  %g4, 0x3b8, %g1	! 7b8 <GLIBC_2.0+0x7b8>
    52f0:	c4 05 c0 01 	ld  [ %l7 + %g1 ], %g2
    52f4:	c6 00 a2 e4 	ld  [ %g2 + 0x2e4 ], %g3
    52f8:	80 a0 e0 00 	cmp  %g3, 0
    52fc:	22 bf ff 9b 	be,a   5168 <dl_main+0x1f28>
    5300:	d2 0f bd 97 	ldub  [ %fp + -617 ], %o1
    5304:	40 00 2f 76 	call  110dc <_dl_start_profile>
    5308:	01 00 00 00 	nop 
    530c:	10 bf ff 97 	b  5168 <dl_main+0x1f28>
    5310:	d2 0f bd 97 	ldub  [ %fp + -617 ], %o1
    5314:	82 11 23 ff 	or  %g4, 0x3ff, %g1
    5318:	82 20 40 0d 	sub  %g1, %o5, %g1
    531c:	80 a0 60 0f 	cmp  %g1, 0xf
    5320:	18 80 00 1a 	bgu  5388 <dl_main+0x2148>
    5324:	82 03 40 0d 	add  %o5, %o5, %g1
    5328:	82 23 c0 0d 	sub  %o7, %o5, %g1
    532c:	83 28 60 02 	sll  %g1, 2, %g1
    5330:	10 bf fd 2d 	b  47e4 <dl_main+0x15a4>
    5334:	d6 23 00 01 	st  %o3, [ %o4 + %g1 ]
    5338:	40 00 33 c4 	call  12248 <_dl_next_tls_modid>
    533c:	01 00 00 00 	nop 
    5340:	10 bf fa 42 	b  3c48 <dl_main+0xa08>
    5344:	d0 24 25 38 	st  %o0, [ %l0 + 0x538 ]
    5348:	86 03 40 02 	add  %o5, %g2, %g3
    534c:	05 00 00 01 	sethi  %hi(0x400), %g2
    5350:	82 10 a3 b8 	or  %g2, 0x3b8, %g1	! 7b8 <GLIBC_2.0+0x7b8>
    5354:	c8 05 c0 01 	ld  [ %l7 + %g1 ], %g4
    5358:	c4 00 e0 08 	ld  [ %g3 + 8 ], %g2
    535c:	c4 21 25 3c 	st  %g2, [ %g4 + 0x53c ]
    5360:	c2 00 e0 14 	ld  [ %g3 + 0x14 ], %g1
    5364:	10 bf fa 32 	b  3c2c <dl_main+0x9ec>
    5368:	c2 21 25 40 	st  %g1, [ %g4 + 0x540 ]
    536c:	03 00 00 00 	sethi  %hi(0), %g1
    5370:	82 10 61 68 	or  %g1, 0x168, %g1	! 168 <GLIBC_2.0+0x168>
    5374:	90 10 20 02 	mov  2, %o0
    5378:	40 00 2c ff 	call  10774 <_dl_dprintf>
    537c:	d2 05 c0 01 	ld  [ %l7 + %g1 ], %o1
    5380:	40 00 48 41 	call  17484 <_Exit>
    5384:	90 10 20 01 	mov  1, %o0
    5388:	87 38 60 01 	sra  %g1, 1, %g3
    538c:	84 38 00 03 	xnor  %g0, %g3, %g2
    5390:	82 10 20 33 	mov  0x33, %g1
    5394:	80 a0 a0 02 	cmp  %g2, 2
    5398:	08 bf ff e5 	bleu  532c <dl_main+0x20ec>
    539c:	82 20 40 03 	sub  %g1, %g3, %g1
    53a0:	82 11 21 ff 	or  %g4, 0x1ff, %g1
    53a4:	82 20 40 0d 	sub  %g1, %o5, %g1
    53a8:	80 a0 60 0b 	cmp  %g1, 0xb
    53ac:	38 80 00 fd 	bgu,a   57a0 <dl_main+0x2560>
    53b0:	82 11 22 ff 	or  %g4, 0x2ff, %g1
    53b4:	82 11 22 36 	or  %g4, 0x236, %g1
    53b8:	82 20 40 0d 	sub  %g1, %o5, %g1
    53bc:	10 bf ff dd 	b  5330 <dl_main+0x20f0>
    53c0:	83 28 60 02 	sll  %g1, 2, %g1
    53c4:	82 11 23 a4 	or  %g4, 0x3a4, %g1
    53c8:	c4 05 c0 01 	ld  [ %l7 + %g1 ], %g2
    53cc:	c6 00 80 00 	ld  [ %g2 ], %g3
    53d0:	80 a0 e0 00 	cmp  %g3, 0
    53d4:	12 80 00 e2 	bne  575c <dl_main+0x251c>
    53d8:	03 00 00 00 	sethi  %hi(0), %g1
    53dc:	03 00 00 00 	sethi  %hi(0), %g1
    53e0:	82 10 61 70 	or  %g1, 0x170, %g1	! 170 <GLIBC_2.0+0x170>
    53e4:	d2 05 c0 01 	ld  [ %l7 + %g1 ], %o1
    53e8:	90 10 00 11 	mov  %l1, %o0
    53ec:	40 00 4b 82 	call  181f4 <bcmp>
    53f0:	94 10 20 0d 	mov  0xd, %o2
    53f4:	80 a2 20 00 	cmp  %o0, 0
    53f8:	12 80 00 d9 	bne  575c <dl_main+0x251c>
    53fc:	03 00 00 00 	sethi  %hi(0), %g1
    5400:	c2 4c 60 0e 	ldsb  [ %l1 + 0xe ], %g1
    5404:	82 18 60 31 	xor  %g1, 0x31, %g1
    5408:	13 00 00 01 	sethi  %hi(0x400), %o1
    540c:	80 a0 00 01 	cmp  %g0, %g1
    5410:	84 12 63 dc 	or  %o1, 0x3dc, %g2
    5414:	c6 05 c0 02 	ld  [ %l7 + %g2 ], %g3
    5418:	82 40 3f ff 	addx  %g0, -1, %g1
    541c:	10 bf f7 bd 	b  3310 <dl_main+0xd0>
    5420:	c2 20 e0 8c 	st  %g1, [ %g3 + 0x8c ]
    5424:	82 10 61 54 	or  %g1, 0x154, %g1
    5428:	d2 05 c0 01 	ld  [ %l7 + %g1 ], %o1
    542c:	90 10 00 11 	mov  %l1, %o0
    5430:	40 00 4b 71 	call  181f4 <bcmp>
    5434:	94 10 20 08 	mov  8, %o2
    5438:	80 a2 20 00 	cmp  %o0, 0
    543c:	12 bf f7 b5 	bne  3310 <dl_main+0xd0>
    5440:	09 00 00 01 	sethi  %hi(0x400), %g4
    5444:	c2 4c 60 09 	ldsb  [ %l1 + 9 ], %g1
    5448:	80 a0 00 01 	cmp  %g0, %g1
    544c:	84 11 23 dc 	or  %g4, 0x3dc, %g2
    5450:	c6 05 c0 02 	ld  [ %l7 + %g2 ], %g3
    5454:	82 40 20 00 	addx  %g0, 0, %g1
    5458:	10 bf f7 ae 	b  3310 <dl_main+0xd0>
    545c:	c2 20 e0 2c 	st  %g1, [ %g3 + 0x2c ]
    5460:	80 a3 60 00 	cmp  %o5, 0
    5464:	02 bf f8 1f 	be  34e0 <dl_main+0x2a0>
    5468:	a8 10 20 01 	mov  1, %l4
    546c:	da 22 40 00 	st  %o5, [ %o1 ]
    5470:	10 bf f8 1c 	b  34e0 <dl_main+0x2a0>
    5474:	d2 23 20 04 	st  %o1, [ %o4 + 4 ]
    5478:	82 10 61 5c 	or  %g1, 0x15c, %g1
    547c:	d2 05 c0 01 	ld  [ %l7 + %g1 ], %o1
    5480:	90 10 00 11 	mov  %l1, %o0
    5484:	40 00 4b 5c 	call  181f4 <bcmp>
    5488:	94 10 20 07 	mov  7, %o2
    548c:	80 a2 20 00 	cmp  %o0, 0
    5490:	12 80 00 57 	bne  55ec <dl_main+0x23ac>
    5494:	03 00 00 00 	sethi  %hi(0), %g1
    5498:	03 00 00 00 	sethi  %hi(0), %g1
    549c:	82 10 60 78 	or  %g1, 0x78, %g1	! 78 <GLIBC_2.0+0x78>
    54a0:	c6 05 c0 01 	ld  [ %l7 + %g1 ], %g3
    54a4:	84 04 60 08 	add  %l1, 8, %g2
    54a8:	10 bf f7 9a 	b  3310 <dl_main+0xd0>
    54ac:	c4 20 c0 00 	st  %g2, [ %g3 ]
    54b0:	21 00 00 00 	sethi  %hi(0), %l0
    54b4:	82 14 21 78 	or  %l0, 0x178, %g1	! 178 <GLIBC_2.0+0x178>
    54b8:	d2 05 c0 01 	ld  [ %l7 + %g1 ], %o1
    54bc:	40 00 2c ae 	call  10774 <_dl_dprintf>
    54c0:	90 10 20 02 	mov  2, %o0
    54c4:	40 00 47 f0 	call  17484 <_Exit>
    54c8:	90 10 20 7f 	mov  0x7f, %o0
    54cc:	10 bf ff fb 	b  54b8 <dl_main+0x2278>
    54d0:	82 14 21 78 	or  %l0, 0x178, %g1
    54d4:	82 10 61 40 	or  %g1, 0x140, %g1
    54d8:	d2 05 c0 01 	ld  [ %l7 + %g1 ], %o1
    54dc:	90 10 00 11 	mov  %l1, %o0
    54e0:	40 00 4b 45 	call  181f4 <bcmp>
    54e4:	94 10 20 0c 	mov  0xc, %o2
    54e8:	80 a2 20 00 	cmp  %o0, 0
    54ec:	12 80 00 54 	bne  563c <dl_main+0x23fc>
    54f0:	13 00 00 01 	sethi  %hi(0x400), %o1
    54f4:	10 bf f7 87 	b  3310 <dl_main+0xd0>
    54f8:	ba 04 60 0d 	add  %l1, 0xd, %i5
    54fc:	82 12 63 b8 	or  %o1, 0x3b8, %g1
    5500:	d0 05 c0 01 	ld  [ %l7 + %g1 ], %o0
    5504:	c4 02 24 8c 	ld  [ %o0 + 0x48c ], %g2
    5508:	03 08 00 00 	sethi  %hi(0x20000000), %g1
    550c:	82 28 80 01 	andn  %g2, %g1, %g1
    5510:	c2 22 24 8c 	st  %g1, [ %o0 + 0x48c ]
    5514:	90 02 22 f8 	add  %o0, 0x2f8, %o0
    5518:	d2 04 e1 d4 	ld  [ %l3 + 0x1d4 ], %o1
    551c:	94 10 20 00 	clr  %o2
    5520:	40 00 1d 56 	call  ca78 <_dl_relocate_object>
    5524:	96 10 20 00 	clr  %o3
    5528:	10 bf ff 2c 	b  51d8 <dl_main+0x1f98>
    552c:	05 00 00 01 	sethi  %hi(0x400), %g2
    5530:	82 11 23 b8 	or  %g4, 0x3b8, %g1
    5534:	c6 05 c0 01 	ld  [ %l7 + %g1 ], %g3
    5538:	c4 02 e0 18 	ld  [ %o3 + 0x18 ], %g2
    553c:	10 bf fb c4 	b  444c <dl_main+0x120c>
    5540:	c4 20 e5 d0 	st  %g2, [ %g3 + 0x5d0 ]
    5544:	c2 24 20 24 	st  %g1, [ %l0 + 0x24 ]
    5548:	10 bf f7 ab 	b  33f4 <dl_main+0x1b4>
    554c:	9c 10 00 12 	mov  %l2, %sp
    5550:	80 a0 40 02 	cmp  %g1, %g2
    5554:	32 bf fa 46 	bne,a   3e6c <dl_main+0xc2c>
    5558:	c4 20 e3 08 	st  %g2, [ %g3 + 0x308 ]
    555c:	10 bf fa 45 	b  3e70 <dl_main+0xc30>
    5560:	07 00 00 01 	sethi  %hi(0x400), %g3
    5564:	c2 04 60 34 	ld  [ %l1 + 0x34 ], %g1
    5568:	c6 00 60 04 	ld  [ %g1 + 4 ], %g3
    556c:	c4 01 20 04 	ld  [ %g4 + 4 ], %g2
    5570:	a4 00 c0 02 	add  %g3, %g2, %l2
    5574:	40 00 4a 43 	call  17e80 <strlen>
    5578:	90 10 00 12 	mov  %l2, %o0
    557c:	40 00 ac b4 	call  3084c <malloc@plt>
    5580:	a0 10 00 08 	mov  %o0, %l0
    5584:	80 a2 20 00 	cmp  %o0, 0
    5588:	02 80 00 0c 	be  55b8 <dl_main+0x2378>
    558c:	94 10 00 10 	mov  %l0, %o2
    5590:	e0 04 60 1c 	ld  [ %l1 + 0x1c ], %l0
    5594:	40 00 4e 6d 	call  18f48 <memcpy>
    5598:	92 10 00 12 	mov  %l2, %o1
    559c:	10 bf fd 3e 	b  4a94 <dl_main+0x1854>
    55a0:	d0 24 00 00 	st  %o0, [ %l0 ]
    55a4:	d2 05 c0 09 	ld  [ %l7 + %o1 ], %o1
    55a8:	d6 05 c0 0f 	ld  [ %l7 + %o7 ], %o3
    55ac:	94 10 25 15 	mov  0x515, %o2
    55b0:	40 00 43 39 	call  16294 <__GI___assert_fail>
    55b4:	01 00 00 00 	nop 
    55b8:	21 00 00 00 	sethi  %hi(0), %l0
    55bc:	82 14 21 7c 	or  %l0, 0x17c, %g1	! 17c <GLIBC_2.0+0x17c>
    55c0:	d2 05 c0 01 	ld  [ %l7 + %g1 ], %o1
    55c4:	40 00 2c 6c 	call  10774 <_dl_dprintf>
    55c8:	90 10 20 02 	mov  2, %o0
    55cc:	40 00 47 ae 	call  17484 <_Exit>
    55d0:	90 10 20 7f 	mov  0x7f, %o0
    55d4:	10 bf ff fb 	b  55c0 <dl_main+0x2380>
    55d8:	82 14 21 7c 	or  %l0, 0x17c, %g1
    55dc:	08 bf f9 50 	bleu  3b1c <dl_main+0x8dc>
    55e0:	03 00 00 81 	sethi  %hi(0x20400), %g1
    55e4:	10 bf f9 4e 	b  3b1c <dl_main+0x8dc>
    55e8:	c4 20 e0 08 	st  %g2, [ %g3 + 8 ]
    55ec:	82 10 61 74 	or  %g1, 0x174, %g1
    55f0:	d2 05 c0 01 	ld  [ %l7 + %g1 ], %o1
    55f4:	90 10 00 11 	mov  %l1, %o0
    55f8:	40 00 4a ff 	call  181f4 <bcmp>
    55fc:	94 10 20 07 	mov  7, %o2
    5600:	80 a2 20 00 	cmp  %o0, 0
    5604:	12 bf f7 43 	bne  3310 <dl_main+0xd0>
    5608:	01 00 00 00 	nop 
    560c:	c2 4c 60 08 	ldsb  [ %l1 + 8 ], %g1
    5610:	80 a0 60 00 	cmp  %g1, 0
    5614:	02 bf f7 3f 	be  3310 <dl_main+0xd0>
    5618:	05 00 00 01 	sethi  %hi(0x400), %g2
    561c:	82 10 a3 dc 	or  %g2, 0x3dc, %g1	! 7dc <GLIBC_2.0+0x7dc>
    5620:	c6 05 c0 01 	ld  [ %l7 + %g1 ], %g3
    5624:	84 04 60 08 	add  %l1, 8, %g2
    5628:	10 bf f7 3a 	b  3310 <dl_main+0xd0>
    562c:	c4 20 e0 90 	st  %g2, [ %g3 + 0x90 ]
    5630:	7f ff f6 63 	call  2fbc <process_dl_debug>
    5634:	90 04 60 06 	add  %l1, 6, %o0
    5638:	30 bf f7 36 	b,a   3310 <dl_main+0xd0>
    563c:	82 12 63 a4 	or  %o1, 0x3a4, %g1
    5640:	c4 05 c0 01 	ld  [ %l7 + %g1 ], %g2
    5644:	c6 00 80 00 	ld  [ %g2 ], %g3
    5648:	80 a0 e0 00 	cmp  %g3, 0
    564c:	12 bf f7 31 	bne  3310 <dl_main+0xd0>
    5650:	03 00 00 00 	sethi  %hi(0), %g1
    5654:	82 10 61 80 	or  %g1, 0x180, %g1	! 180 <GLIBC_2.0+0x180>
    5658:	90 10 00 11 	mov  %l1, %o0
    565c:	d2 05 c0 01 	ld  [ %l7 + %g1 ], %o1
    5660:	40 00 4a e5 	call  181f4 <bcmp>
    5664:	94 10 20 0c 	mov  0xc, %o2
    5668:	80 a2 20 00 	cmp  %o0, 0
    566c:	12 bf f7 29 	bne  3310 <dl_main+0xd0>
    5670:	05 00 00 01 	sethi  %hi(0x400), %g2
    5674:	82 10 a3 dc 	or  %g2, 0x3dc, %g1	! 7dc <GLIBC_2.0+0x7dc>
    5678:	c6 05 c0 01 	ld  [ %l7 + %g1 ], %g3
    567c:	84 10 20 01 	mov  1, %g2
    5680:	10 bf f7 24 	b  3310 <dl_main+0xd0>
    5684:	c4 20 e0 30 	st  %g2, [ %g3 + 0x30 ]
    5688:	05 00 00 00 	sethi  %hi(0), %g2
    568c:	07 00 00 00 	sethi  %hi(0), %g3
    5690:	82 10 60 ec 	or  %g1, 0xec, %g1
    5694:	84 10 a0 88 	or  %g2, 0x88, %g2
    5698:	86 10 e0 4c 	or  %g3, 0x4c, %g3
    569c:	d0 05 c0 01 	ld  [ %l7 + %g1 ], %o0
    56a0:	d2 05 c0 02 	ld  [ %l7 + %g2 ], %o1
    56a4:	d6 05 c0 03 	ld  [ %l7 + %g3 ], %o3
    56a8:	10 bf ff c2 	b  55b0 <dl_main+0x2370>
    56ac:	94 10 24 23 	mov  0x423, %o2
    56b0:	03 00 00 00 	sethi  %hi(0), %g1
    56b4:	05 00 00 00 	sethi  %hi(0), %g2
    56b8:	07 00 00 00 	sethi  %hi(0), %g3
    56bc:	82 10 61 84 	or  %g1, 0x184, %g1
    56c0:	84 10 a0 88 	or  %g2, 0x88, %g2
    56c4:	86 10 e0 4c 	or  %g3, 0x4c, %g3
    56c8:	d0 05 c0 01 	ld  [ %l7 + %g1 ], %o0
    56cc:	d2 05 c0 02 	ld  [ %l7 + %g2 ], %o1
    56d0:	d6 05 c0 03 	ld  [ %l7 + %g3 ], %o3
    56d4:	10 bf ff b7 	b  55b0 <dl_main+0x2370>
    56d8:	94 10 24 22 	mov  0x422, %o2
    56dc:	03 00 00 00 	sethi  %hi(0), %g1
    56e0:	05 00 00 00 	sethi  %hi(0), %g2
    56e4:	07 00 00 00 	sethi  %hi(0), %g3
    56e8:	82 10 61 88 	or  %g1, 0x188, %g1
    56ec:	84 10 a0 88 	or  %g2, 0x88, %g2
    56f0:	86 10 e0 4c 	or  %g3, 0x4c, %g3
    56f4:	d0 05 c0 01 	ld  [ %l7 + %g1 ], %o0
    56f8:	d2 05 c0 02 	ld  [ %l7 + %g2 ], %o1
    56fc:	d6 05 c0 03 	ld  [ %l7 + %g3 ], %o3
    5700:	10 bf ff ac 	b  55b0 <dl_main+0x2370>
    5704:	94 10 24 d3 	mov  0x4d3, %o2
    5708:	03 00 00 00 	sethi  %hi(0), %g1
    570c:	05 00 00 00 	sethi  %hi(0), %g2
    5710:	07 00 00 00 	sethi  %hi(0), %g3
    5714:	82 10 61 8c 	or  %g1, 0x18c, %g1
    5718:	84 10 a0 88 	or  %g2, 0x88, %g2
    571c:	86 10 e0 4c 	or  %g3, 0x4c, %g3
    5720:	d0 05 c0 01 	ld  [ %l7 + %g1 ], %o0
    5724:	d2 05 c0 02 	ld  [ %l7 + %g2 ], %o1
    5728:	d6 05 c0 03 	ld  [ %l7 + %g3 ], %o3
    572c:	10 bf ff a1 	b  55b0 <dl_main+0x2370>
    5730:	94 10 24 ce 	mov  0x4ce, %o2
    5734:	05 00 00 00 	sethi  %hi(0), %g2
    5738:	07 00 00 00 	sethi  %hi(0), %g3
    573c:	82 10 60 a0 	or  %g1, 0xa0, %g1
    5740:	84 10 a0 b8 	or  %g2, 0xb8, %g2
    5744:	86 10 e0 58 	or  %g3, 0x58, %g3
    5748:	d0 05 c0 01 	ld  [ %l7 + %g1 ], %o0
    574c:	d2 05 c0 02 	ld  [ %l7 + %g2 ], %o1
    5750:	d6 05 c0 03 	ld  [ %l7 + %g3 ], %o3
    5754:	10 bf ff 97 	b  55b0 <dl_main+0x2370>
    5758:	94 10 20 a5 	mov  0xa5, %o2
    575c:	82 10 61 6c 	or  %g1, 0x16c, %g1
    5760:	d2 05 c0 01 	ld  [ %l7 + %g1 ], %o1
    5764:	90 10 00 11 	mov  %l1, %o0
    5768:	40 00 4a a3 	call  181f4 <bcmp>
    576c:	94 10 20 0d 	mov  0xd, %o2
    5770:	80 a2 20 00 	cmp  %o0, 0
    5774:	12 bf f6 e7 	bne  3310 <dl_main+0xd0>
    5778:	01 00 00 00 	nop 
    577c:	c2 4c 60 0e 	ldsb  [ %l1 + 0xe ], %g1
    5780:	82 18 60 30 	xor  %g1, 0x30, %g1
    5784:	80 a0 00 01 	cmp  %g0, %g1
    5788:	03 00 00 01 	sethi  %hi(0x400), %g1
    578c:	84 10 63 dc 	or  %g1, 0x3dc, %g2	! 7dc <GLIBC_2.0+0x7dc>
    5790:	c6 05 c0 02 	ld  [ %l7 + %g2 ], %g3
    5794:	82 40 20 00 	addx  %g0, 0, %g1
    5798:	10 bf f6 de 	b  3310 <dl_main+0xd0>
    579c:	c2 20 e0 3c 	st  %g1, [ %g3 + 0x3c ]
    57a0:	82 20 40 0d 	sub  %g1, %o5, %g1
    57a4:	80 a0 60 0a 	cmp  %g1, 0xa
    57a8:	38 bf fc 07 	bgu,a   47c4 <dl_main+0x1584>
    57ac:	96 02 e0 08 	add  %o3, 8, %o3
    57b0:	10 bf ff 02 	b  53b8 <dl_main+0x2178>
    57b4:	82 11 23 42 	or  %g4, 0x342, %g1
    57b8:	03 00 00 00 	sethi  %hi(0), %g1
    57bc:	82 10 60 50 	or  %g1, 0x50, %g1	! 50 <GLIBC_2.0+0x50>
    57c0:	e0 05 c0 01 	ld  [ %l7 + %g1 ], %l0
    57c4:	40 00 42 4d 	call  160f8 <unsetenv>
    57c8:	90 10 00 10 	mov  %l0, %o0
    57cc:	90 10 00 10 	mov  %l0, %o0
    57d0:	40 00 48 15 	call  17824 <index>
    57d4:	92 10 20 00 	clr  %o1
    57d8:	c2 4a 20 01 	ldsb  [ %o0 + 1 ], %g1
    57dc:	80 a0 60 00 	cmp  %g1, 0
    57e0:	12 bf ff f9 	bne  57c4 <dl_main+0x2584>
    57e4:	a0 02 20 01 	add  %o0, 1, %l0
    57e8:	03 00 00 00 	sethi  %hi(0), %g1
    57ec:	82 10 61 90 	or  %g1, 0x190, %g1	! 190 <GLIBC_2.0+0x190>
    57f0:	d0 05 c0 01 	ld  [ %l7 + %g1 ], %o0
    57f4:	40 00 46 b7 	call  172d0 <__access>
    57f8:	92 10 20 00 	clr  %o1
    57fc:	80 a2 20 00 	cmp  %o0, 0
    5800:	02 80 00 0b 	be  582c <dl_main+0x25ec>
    5804:	80 a5 a0 00 	cmp  %l6, 0
    5808:	03 00 00 00 	sethi  %hi(0), %g1
    580c:	82 10 61 94 	or  %g1, 0x194, %g1	! 194 <GLIBC_2.0+0x194>
    5810:	40 00 42 3a 	call  160f8 <unsetenv>
    5814:	d0 05 c0 01 	ld  [ %l7 + %g1 ], %o0
    5818:	05 00 00 01 	sethi  %hi(0x400), %g2
    581c:	82 10 a3 dc 	or  %g2, 0x3dc, %g1	! 7dc <GLIBC_2.0+0x7dc>
    5820:	c4 05 c0 01 	ld  [ %l7 + %g1 ], %g2
    5824:	c0 20 80 00 	clr  [ %g2 ]
    5828:	80 a5 a0 00 	cmp  %l6, 0
    582c:	22 bf f6 f3 	be,a   33f8 <dl_main+0x1b8>
    5830:	03 00 00 01 	sethi  %hi(0x400), %g1
    5834:	40 00 47 14 	call  17484 <_Exit>
    5838:	90 10 20 05 	mov  5, %o0
    583c:	10 bf f6 ef 	b  33f8 <dl_main+0x1b8>
    5840:	03 00 00 01 	sethi  %hi(0x400), %g1
    5844:	10 bf fe cc 	b  5374 <dl_main+0x2134>
    5848:	82 10 60 f0 	or  %g1, 0xf0, %g1	! 4f0 <GLIBC_2.0+0x4f0>
    584c:	05 00 00 00 	sethi  %hi(0), %g2
    5850:	07 00 00 00 	sethi  %hi(0), %g3
    5854:	82 10 60 9c 	or  %g1, 0x9c, %g1
    5858:	84 10 a0 b8 	or  %g2, 0xb8, %g2
    585c:	86 10 e0 58 	or  %g3, 0x58, %g3
    5860:	d0 05 c0 01 	ld  [ %l7 + %g1 ], %o0
    5864:	d2 05 c0 02 	ld  [ %l7 + %g2 ], %o1
    5868:	d6 05 c0 03 	ld  [ %l7 + %g3 ], %o3
    586c:	10 bf ff 51 	b  55b0 <dl_main+0x2370>
    5870:	94 10 20 9d 	mov  0x9d, %o2
    5874:	c2 04 e0 08 	ld  [ %l3 + 8 ], %g1
    5878:	80 a0 60 00 	cmp  %g1, 0
    587c:	12 80 00 05 	bne  5890 <dl_main+0x2650>
    5880:	82 0d 20 ff 	and  %l4, 0xff, %g1
    5884:	40 00 47 00 	call  17484 <_Exit>
    5888:	90 10 20 01 	mov  1, %o0
    588c:	82 0d 20 ff 	and  %l4, 0xff, %g1
    5890:	80 a0 00 01 	cmp  %g0, %g1
    5894:	90 60 3f ff 	subx  %g0, -1, %o0
    5898:	40 00 46 fb 	call  17484 <_Exit>
    589c:	90 02 00 08 	add  %o0, %o0, %o0
    58a0:	10 bf f8 18 	b  3900 <dl_main+0x6c0>
    58a4:	05 00 00 01 	sethi  %hi(0x400), %g2
    58a8:	7f ff f2 b1 	call  236c <init_tls>
    58ac:	01 00 00 00 	nop 
    58b0:	10 bf f9 98 	b  3f10 <dl_main+0xcd0>
    58b4:	b6 10 00 08 	mov  %o0, %i3
    58b8:	05 00 00 00 	sethi  %hi(0), %g2
    58bc:	07 00 00 00 	sethi  %hi(0), %g3
    58c0:	82 10 60 f8 	or  %g1, 0xf8, %g1
    58c4:	84 10 a0 88 	or  %g2, 0x88, %g2
    58c8:	86 10 e0 4c 	or  %g3, 0x4c, %g3
    58cc:	d0 05 c0 01 	ld  [ %l7 + %g1 ], %o0
    58d0:	d2 05 c0 02 	ld  [ %l7 + %g2 ], %o1
    58d4:	d6 05 c0 03 	ld  [ %l7 + %g3 ], %o3
    58d8:	10 bf ff 36 	b  55b0 <dl_main+0x2370>
    58dc:	94 10 27 12 	mov  0x712, %o2
    58e0:	03 00 00 00 	sethi  %hi(0), %g1
    58e4:	05 00 00 00 	sethi  %hi(0), %g2
    58e8:	07 00 00 00 	sethi  %hi(0), %g3
    58ec:	82 10 61 98 	or  %g1, 0x198, %g1
    58f0:	84 10 a0 88 	or  %g2, 0x88, %g2
    58f4:	86 10 e0 4c 	or  %g3, 0x4c, %g3
    58f8:	d0 05 c0 01 	ld  [ %l7 + %g1 ], %o0
    58fc:	d2 05 c0 02 	ld  [ %l7 + %g2 ], %o1
    5900:	d6 05 c0 03 	ld  [ %l7 + %g3 ], %o3
    5904:	10 bf ff 2b 	b  55b0 <dl_main+0x2370>
    5908:	94 10 27 0e 	mov  0x70e, %o2
    590c:	c2 00 60 0c 	ld  [ %g1 + 0xc ], %g1
    5910:	10 bf f9 57 	b  3e6c <dl_main+0xc2c>
    5914:	c2 20 e3 04 	st  %g1, [ %g3 + 0x304 ]
    5918:	10 bf f9 68 	b  3eb8 <dl_main+0xc78>
    591c:	d8 07 bd dc 	ld  [ %fp + -548 ], %o4
    5920:	82 00 60 07 	add  %g1, 7, %g1
    5924:	82 08 7f f8 	and  %g1, -8, %g1
    5928:	9c 23 80 01 	sub  %sp, %g1, %sp
    592c:	a8 03 a0 68 	add  %sp, 0x68, %l4
    5930:	a0 10 20 00 	clr  %l0
    5934:	83 2c 20 02 	sll  %l0, 2, %g1
    5938:	c6 25 00 01 	st  %g3, [ %l4 + %g1 ]
    593c:	c6 00 e0 0c 	ld  [ %g3 + 0xc ], %g3
    5940:	80 a0 e0 00 	cmp  %g3, 0
    5944:	12 bf ff fc 	bne  5934 <dl_main+0x26f4>
    5948:	a0 04 20 01 	inc  %l0
    594c:	80 a4 00 15 	cmp  %l0, %l5
    5950:	02 bf f8 f3 	be  3d1c <dl_main+0xadc>
    5954:	c2 07 bd dc 	ld  [ %fp + -548 ], %g1
    5958:	03 00 00 00 	sethi  %hi(0), %g1
    595c:	05 00 00 00 	sethi  %hi(0), %g2
    5960:	07 00 00 00 	sethi  %hi(0), %g3
    5964:	82 10 61 9c 	or  %g1, 0x19c, %g1
    5968:	84 10 a0 88 	or  %g2, 0x88, %g2
    596c:	86 10 e0 4c 	or  %g3, 0x4c, %g3
    5970:	d0 05 c0 01 	ld  [ %l7 + %g1 ], %o0
    5974:	d2 05 c0 02 	ld  [ %l7 + %g2 ], %o1
    5978:	d6 05 c0 03 	ld  [ %l7 + %g3 ], %o3
    597c:	10 bf ff 0d 	b  55b0 <dl_main+0x2370>
    5980:	94 10 26 d1 	mov  0x6d1, %o2
    5984:	92 07 bd b4 	add  %fp, -588, %o1
    5988:	40 00 2a 0b 	call  101b4 <_dl_sysdep_read_whole_file>
    598c:	94 10 20 03 	mov  3, %o2
    5990:	80 a2 3f ff 	cmp  %o0, -1
    5994:	02 bf f8 dd 	be  3d08 <dl_main+0xac8>
    5998:	a2 10 00 08 	mov  %o0, %l1
    599c:	da 07 bd b4 	ld  [ %fp + -588 ], %o5
    59a0:	d0 27 bd b0 	st  %o0, [ %fp + -592 ]
    59a4:	80 a3 60 00 	cmp  %o5, 0
    59a8:	02 80 00 17 	be  5a04 <dl_main+0x27c4>
    59ac:	a0 10 00 0d 	mov  %o5, %l0
    59b0:	d0 07 bd b0 	ld  [ %fp + -592 ], %o0
    59b4:	92 10 20 23 	mov  0x23, %o1
    59b8:	40 00 49 a9 	call  1805c <__memchr>
    59bc:	94 10 00 10 	mov  %l0, %o2
    59c0:	80 a2 20 00 	cmp  %o0, 0
    59c4:	02 80 00 0f 	be  5a00 <dl_main+0x27c0>
    59c8:	c2 07 bd b0 	ld  [ %fp + -592 ], %g1
    59cc:	82 22 00 01 	sub  %o0, %g1, %g1
    59d0:	a0 24 00 01 	sub  %l0, %g1, %l0
    59d4:	84 10 20 20 	mov  0x20, %g2
    59d8:	a0 84 3f ff 	addcc  %l0, -1, %l0
    59dc:	02 80 00 09 	be  5a00 <dl_main+0x27c0>
    59e0:	c4 2a 00 00 	stb  %g2, [ %o0 ]
    59e4:	90 02 20 01 	inc  %o0
    59e8:	c2 4a 00 00 	ldsb  [ %o0 ], %g1
    59ec:	80 a0 60 0a 	cmp  %g1, 0xa
    59f0:	32 bf ff fb 	bne,a   59dc <dl_main+0x279c>
    59f4:	a0 84 3f ff 	addcc  %l0, -1, %l0
    59f8:	10 bf ff ef 	b  59b4 <dl_main+0x2774>
    59fc:	d0 07 bd b0 	ld  [ %fp + -592 ], %o0
    5a00:	da 07 bd b4 	ld  [ %fp + -588 ], %o5
    5a04:	90 04 40 0d 	add  %l1, %o5, %o0
    5a08:	c8 4a 3f ff 	ldsb  [ %o0 + -1 ], %g4
    5a0c:	82 19 20 20 	xor  %g4, 0x20, %g1
    5a10:	80 a0 00 01 	cmp  %g0, %g1
    5a14:	86 40 20 00 	addx  %g0, 0, %g3
    5a18:	82 19 20 09 	xor  %g4, 9, %g1
    5a1c:	80 a0 00 01 	cmp  %g0, %g1
    5a20:	84 40 20 00 	addx  %g0, 0, %g2
    5a24:	80 88 c0 02 	btst  %g3, %g2
    5a28:	22 80 02 33 	be,a   62f4 <dl_main+0x30b4>
    5a2c:	82 04 40 0d 	add  %l1, %o5, %g1
    5a30:	80 a1 20 0a 	cmp  %g4, 0xa
    5a34:	02 80 02 2f 	be  62f0 <dl_main+0x30b0>
    5a38:	80 a1 20 3a 	cmp  %g4, 0x3a
    5a3c:	02 80 02 2d 	be  62f0 <dl_main+0x30b0>
    5a40:	a0 10 00 08 	mov  %o0, %l0
    5a44:	80 a4 00 11 	cmp  %l0, %l1
    5a48:	08 80 02 16 	bleu  62a0 <dl_main+0x3060>
    5a4c:	80 a4 40 10 	cmp  %l1, %l0
    5a50:	c2 4c 3f ff 	ldsb  [ %l0 + -1 ], %g1
    5a54:	80 a0 60 20 	cmp  %g1, 0x20
    5a58:	02 80 02 0e 	be  6290 <dl_main+0x3050>
    5a5c:	80 a0 60 09 	cmp  %g1, 9
    5a60:	02 80 02 0c 	be  6290 <dl_main+0x3050>
    5a64:	80 a0 60 0a 	cmp  %g1, 0xa
    5a68:	02 80 02 0a 	be  6290 <dl_main+0x3050>
    5a6c:	80 a0 60 3a 	cmp  %g1, 0x3a
    5a70:	02 80 02 09 	be  6294 <dl_main+0x3054>
    5a74:	80 a4 00 11 	cmp  %l0, %l1
    5a78:	10 bf ff f3 	b  5a44 <dl_main+0x2804>
    5a7c:	a0 04 3f ff 	add  %l0, -1, %l0
    5a80:	40 00 49 00 	call  17e80 <strlen>
    5a84:	90 10 00 10 	mov  %l0, %o0
    5a88:	82 02 20 08 	add  %o0, 8, %g1
    5a8c:	82 08 7f f8 	and  %g1, -8, %g1
    5a90:	9c 23 80 01 	sub  %sp, %g1, %sp
    5a94:	94 02 20 01 	add  %o0, 1, %o2
    5a98:	92 10 00 10 	mov  %l0, %o1
    5a9c:	40 00 4d 2b 	call  18f48 <memcpy>
    5aa0:	90 03 a0 68 	add  %sp, 0x68, %o0
    5aa4:	23 00 00 00 	sethi  %hi(0), %l1
    5aa8:	25 00 00 00 	sethi  %hi(0), %l2
    5aac:	09 00 00 01 	sethi  %hi(0x400), %g4
    5ab0:	d0 27 bd b8 	st  %o0, [ %fp + -584 ]
    5ab4:	a2 14 61 a0 	or  %l1, 0x1a0, %l1
    5ab8:	ba 11 23 a4 	or  %g4, 0x3a4, %i5
    5abc:	a4 14 a1 a4 	or  %l2, 0x1a4, %l2
    5ac0:	90 07 bd b8 	add  %fp, -584, %o0
    5ac4:	40 00 43 9e 	call  1693c <__strsep>
    5ac8:	d2 05 c0 11 	ld  [ %l7 + %l1 ], %o1
    5acc:	a0 92 20 00 	orcc  %o0, 0, %l0
    5ad0:	02 bf f8 86 	be  3ce8 <dl_main+0xaa8>
    5ad4:	35 00 00 00 	sethi  %hi(0), %i2
    5ad8:	c2 4c 00 00 	ldsb  [ %l0 ], %g1
    5adc:	80 a0 60 00 	cmp  %g1, 0
    5ae0:	22 bf ff f9 	be,a   5ac4 <dl_main+0x2884>
    5ae4:	90 07 bd b8 	add  %fp, -584, %o0
    5ae8:	c2 05 c0 1d 	ld  [ %l7 + %i5 ], %g1
    5aec:	c4 00 40 00 	ld  [ %g1 ], %g2
    5af0:	80 a0 a0 00 	cmp  %g2, 0
    5af4:	12 80 01 0b 	bne  5f20 <dl_main+0x2ce0>
    5af8:	01 00 00 00 	nop 
    5afc:	90 10 00 10 	mov  %l0, %o0
    5b00:	92 10 00 13 	mov  %l3, %o1
    5b04:	7f ff f2 85 	call  2518 <do_preload>
    5b08:	d4 05 c0 12 	ld  [ %l7 + %l2 ], %o2
    5b0c:	10 bf ff ed 	b  5ac0 <dl_main+0x2880>
    5b10:	aa 05 40 08 	add  %l5, %o0, %l5
    5b14:	08 bf f8 69 	bleu  3cb8 <dl_main+0xa78>
    5b18:	a4 10 20 00 	clr  %l2
    5b1c:	a8 10 00 02 	mov  %g2, %l4
    5b20:	10 80 00 07 	b  5b3c <dl_main+0x28fc>
    5b24:	a0 04 e2 4c 	add  %l3, 0x24c, %l0
    5b28:	c2 05 20 d0 	ld  [ %l4 + 0xd0 ], %g1
    5b2c:	80 a0 40 12 	cmp  %g1, %l2
    5b30:	e2 04 60 20 	ld  [ %l1 + 0x20 ], %l1
    5b34:	08 bf f8 61 	bleu  3cb8 <dl_main+0xa78>
    5b38:	a0 04 20 08 	add  %l0, 8, %l0
    5b3c:	c2 04 40 00 	ld  [ %l1 ], %g1
    5b40:	80 a0 60 00 	cmp  %g1, 0
    5b44:	22 bf ff f9 	be,a   5b28 <dl_main+0x28e8>
    5b48:	a4 04 a0 01 	inc  %l2
    5b4c:	90 10 00 10 	mov  %l0, %o0
    5b50:	9f c0 40 00 	call  %g1
    5b54:	92 10 20 01 	mov  1, %o1
    5b58:	10 bf ff f4 	b  5b28 <dl_main+0x28e8>
    5b5c:	a4 04 a0 01 	inc  %l2
    5b60:	31 00 00 01 	sethi  %hi(0x400), %i0
    5b64:	86 10 e0 f4 	or  %g3, 0xf4, %g3
    5b68:	88 07 be 08 	add  %fp, -504, %g4
    5b6c:	92 07 bd f8 	add  %fp, -520, %o1
    5b70:	b0 16 23 b8 	or  %i0, 0x3b8, %i0
    5b74:	f2 00 a0 04 	ld  [ %g2 + 4 ], %i1
    5b78:	c6 27 bd a4 	st  %g3, [ %fp + -604 ]
    5b7c:	b4 10 20 00 	clr  %i2
    5b80:	c8 27 bd 70 	st  %g4, [ %fp + -656 ]
    5b84:	d2 27 bd 6c 	st  %o1, [ %fp + -660 ]
    5b88:	10 80 00 29 	b  5c2c <dl_main+0x29ec>
    5b8c:	f0 05 c0 18 	ld  [ %l7 + %i0 ], %i0
    5b90:	c2 07 be 0c 	ld  [ %fp + -500 ], %g1
    5b94:	e0 00 60 18 	ld  [ %g1 + 0x18 ], %l0
    5b98:	40 00 3a 5d 	call  1450c <_dl_close>
    5b9c:	90 10 00 01 	mov  %g1, %o0
    5ba0:	05 00 00 01 	sethi  %hi(0x400), %g2
    5ba4:	84 10 a3 b8 	or  %g2, 0x3b8, %g2	! 7b8 <GLIBC_2.0+0x7b8>
    5ba8:	a0 5c 20 2c 	smul  %l0, 0x2c, %l0
    5bac:	c4 05 c0 02 	ld  [ %l7 + %g2 ], %g2
    5bb0:	c2 00 80 10 	ld  [ %g2 + %l0 ], %g1
    5bb4:	80 a0 60 00 	cmp  %g1, 0
    5bb8:	12 80 00 ec 	bne  5f68 <dl_main+0x2d28>
    5bbc:	82 04 00 02 	add  %l0, %g2, %g1
    5bc0:	c4 00 60 04 	ld  [ %g1 + 4 ], %g2
    5bc4:	80 a0 a0 00 	cmp  %g2, 0
    5bc8:	12 80 00 dd 	bne  5f3c <dl_main+0x2cfc>
    5bcc:	13 00 00 01 	sethi  %hi(0x400), %o1
    5bd0:	92 12 63 b8 	or  %o1, 0x3b8, %o1	! 7b8 <GLIBC_2.0+0x7b8>
    5bd4:	d2 05 c0 09 	ld  [ %l7 + %o1 ], %o1
    5bd8:	e2 22 65 d8 	st  %l1, [ %o1 + 0x5d8 ]
    5bdc:	03 00 00 00 	sethi  %hi(0), %g1
    5be0:	82 10 61 a8 	or  %g1, 0x1a8, %g1	! 1a8 <GLIBC_2.0+0x1a8>
    5be4:	d2 05 c0 01 	ld  [ %l7 + %g1 ], %o1
    5be8:	90 10 20 02 	mov  2, %o0
    5bec:	d4 06 40 00 	ld  [ %i1 ], %o2
    5bf0:	40 00 2a e1 	call  10774 <_dl_dprintf>
    5bf4:	d6 07 bd c0 	ld  [ %fp + -576 ], %o3
    5bf8:	c2 0f bd bf 	ldub  [ %fp + -577 ], %g1
    5bfc:	80 a0 60 00 	cmp  %g1, 0
    5c00:	12 80 00 9d 	bne  5e74 <dl_main+0x2c34>
    5c04:	01 00 00 00 	nop 
    5c08:	05 00 00 00 	sethi  %hi(0), %g2
    5c0c:	82 10 a0 30 	or  %g2, 0x30, %g1	! 30 <GLIBC_2.0+0x30>
    5c10:	c4 05 c0 01 	ld  [ %l7 + %g1 ], %g2
    5c14:	c6 00 80 00 	ld  [ %g2 ], %g3
    5c18:	f2 06 60 04 	ld  [ %i1 + 4 ], %i1
    5c1c:	c2 00 e0 04 	ld  [ %g3 + 4 ], %g1
    5c20:	80 a0 40 19 	cmp  %g1, %i1
    5c24:	02 80 00 6d 	be  5dd8 <dl_main+0x2b98>
    5c28:	07 00 00 01 	sethi  %hi(0x400), %g3
    5c2c:	7f ff f1 d0 	call  236c <init_tls>
    5c30:	e2 06 25 d8 	ld  [ %i0 + 0x5d8 ], %l1
    5c34:	07 00 00 00 	sethi  %hi(0), %g3
    5c38:	c2 06 40 00 	ld  [ %i1 ], %g1
    5c3c:	84 10 e0 0c 	or  %g3, 0xc, %g2
    5c40:	b6 10 00 08 	mov  %o0, %i3
    5c44:	c2 27 be 08 	st  %g1, [ %fp + -504 ]
    5c48:	c0 27 be 0c 	clr  [ %fp + -500 ]
    5c4c:	c0 27 bd c0 	clr  [ %fp + -576 ]
    5c50:	d6 05 c0 02 	ld  [ %l7 + %g2 ], %o3
    5c54:	90 07 bd c4 	add  %fp, -572, %o0
    5c58:	92 07 bd c0 	add  %fp, -576, %o1
    5c5c:	94 07 bd bf 	add  %fp, -577, %o2
    5c60:	40 00 26 6d 	call  f614 <_dl_catch_error>
    5c64:	d8 07 bd 70 	ld  [ %fp + -656 ], %o4
    5c68:	c2 07 bd c0 	ld  [ %fp + -576 ], %g1
    5c6c:	80 a0 60 00 	cmp  %g1, 0
    5c70:	12 bf ff db 	bne  5bdc <dl_main+0x299c>
    5c74:	03 00 00 00 	sethi  %hi(0), %g1
    5c78:	a0 10 60 14 	or  %g1, 0x14, %l0	! 14 <GLIBC_2.0+0x14>
    5c7c:	c8 07 bd a4 	ld  [ %fp + -604 ], %g4
    5c80:	c2 07 be 0c 	ld  [ %fp + -500 ], %g1
    5c84:	c4 05 c0 04 	ld  [ %l7 + %g4 ], %g2
    5c88:	c2 27 bd fc 	st  %g1, [ %fp + -516 ]
    5c8c:	c4 27 bd f8 	st  %g2, [ %fp + -520 ]
    5c90:	90 07 bd c4 	add  %fp, -572, %o0
    5c94:	92 07 bd c0 	add  %fp, -576, %o1
    5c98:	94 07 bd bf 	add  %fp, -577, %o2
    5c9c:	d6 05 c0 10 	ld  [ %l7 + %l0 ], %o3
    5ca0:	40 00 26 5d 	call  f614 <_dl_catch_error>
    5ca4:	d8 07 bd 6c 	ld  [ %fp + -660 ], %o4
    5ca8:	c2 07 bd c0 	ld  [ %fp + -576 ], %g1
    5cac:	80 a0 60 00 	cmp  %g1, 0
    5cb0:	12 bf ff b8 	bne  5b90 <dl_main+0x2950>
    5cb4:	c2 07 be 00 	ld  [ %fp + -512 ], %g1
    5cb8:	80 a0 60 00 	cmp  %g1, 0
    5cbc:	22 bf ff b6 	be,a   5b94 <dl_main+0x2954>
    5cc0:	c2 07 be 0c 	ld  [ %fp + -500 ], %g1
    5cc4:	9f c0 40 00 	call  %g1
    5cc8:	90 10 20 01 	mov  1, %o0
    5ccc:	80 a2 20 00 	cmp  %o0, 0
    5cd0:	02 bf ff b1 	be  5b94 <dl_main+0x2954>
    5cd4:	c2 07 be 0c 	ld  [ %fp + -500 ], %g1
    5cd8:	80 a2 20 01 	cmp  %o0, 1
    5cdc:	38 bf ff af 	bgu,a   5b98 <dl_main+0x2958>
    5ce0:	e0 00 60 18 	ld  [ %g1 + 0x18 ], %l0
    5ce4:	40 00 aa da 	call  3084c <malloc@plt>
    5ce8:	90 10 20 24 	mov  0x24, %o0
    5cec:	03 00 00 00 	sethi  %hi(0), %g1
    5cf0:	82 10 60 64 	or  %g1, 0x64, %g1	! 64 <GLIBC_2.0+0x64>
    5cf4:	e0 27 bd a0 	st  %l0, [ %fp + -608 ]
    5cf8:	a2 10 00 08 	mov  %o0, %l1
    5cfc:	e8 05 c0 01 	ld  [ %l7 + %g1 ], %l4
    5d00:	a4 10 20 00 	clr  %l2
    5d04:	a0 10 00 08 	mov  %o0, %l0
    5d08:	aa 06 25 44 	add  %i0, 0x544, %l5
    5d0c:	c2 07 bd a0 	ld  [ %fp + -608 ], %g1
    5d10:	d6 05 c0 01 	ld  [ %l7 + %g1 ], %o3
    5d14:	e8 27 bd f8 	st  %l4, [ %fp + -520 ]
    5d18:	90 07 bd c4 	add  %fp, -572, %o0
    5d1c:	92 07 bd c0 	add  %fp, -576, %o1
    5d20:	94 07 bd bf 	add  %fp, -577, %o2
    5d24:	40 00 26 3c 	call  f614 <_dl_catch_error>
    5d28:	d8 07 bd 6c 	ld  [ %fp + -660 ], %o4
    5d2c:	c2 07 bd c0 	ld  [ %fp + -576 ], %g1
    5d30:	80 a0 60 00 	cmp  %g1, 0
    5d34:	32 80 00 0c 	bne,a   5d64 <dl_main+0x2b24>
    5d38:	c0 24 00 00 	clr  [ %l0 ]
    5d3c:	c2 07 be 00 	ld  [ %fp + -512 ], %g1
    5d40:	80 a0 60 00 	cmp  %g1, 0
    5d44:	22 80 00 08 	be,a   5d64 <dl_main+0x2b24>
    5d48:	c0 24 00 00 	clr  [ %l0 ]
    5d4c:	05 00 00 01 	sethi  %hi(0x400), %g2
    5d50:	84 10 a3 b8 	or  %g2, 0x3b8, %g2	! 7b8 <GLIBC_2.0+0x7b8>
    5d54:	c4 05 c0 02 	ld  [ %l7 + %g2 ], %g2
    5d58:	c2 24 00 00 	st  %g1, [ %l0 ]
    5d5c:	84 00 a2 f8 	add  %g2, 0x2f8, %g2
    5d60:	c4 25 40 00 	st  %g2, [ %l5 ]
    5d64:	90 10 00 14 	mov  %l4, %o0
    5d68:	40 00 51 d8 	call  1a4c8 <__rawmemchr>
    5d6c:	92 10 20 00 	clr  %o1
    5d70:	c2 4a 20 01 	ldsb  [ %o0 + 1 ], %g1
    5d74:	80 a0 60 00 	cmp  %g1, 0
    5d78:	a4 04 a0 01 	inc  %l2
    5d7c:	aa 05 60 08 	add  %l5, 8, %l5
    5d80:	a0 04 20 04 	add  %l0, 4, %l0
    5d84:	12 bf ff e2 	bne  5d0c <dl_main+0x2acc>
    5d88:	a8 02 20 01 	add  %o0, 1, %l4
    5d8c:	80 a4 a0 08 	cmp  %l2, 8
    5d90:	12 80 00 59 	bne  5ef4 <dl_main+0x2cb4>
    5d94:	80 a6 a0 00 	cmp  %i2, 0
    5d98:	02 80 00 52 	be  5ee0 <dl_main+0x2ca0>
    5d9c:	c0 24 60 20 	clr  [ %l1 + 0x20 ]
    5da0:	e2 26 a0 20 	st  %l1, [ %i2 + 0x20 ]
    5da4:	09 00 00 01 	sethi  %hi(0x400), %g4
    5da8:	88 11 23 dc 	or  %g4, 0x3dc, %g4	! 7dc <GLIBC_2.0+0x7dc>
    5dac:	c8 05 c0 04 	ld  [ %l7 + %g4 ], %g4
    5db0:	c2 01 20 d0 	ld  [ %g4 + 0xd0 ], %g1
    5db4:	82 00 60 01 	inc  %g1
    5db8:	c2 21 20 d0 	st  %g1, [ %g4 + 0xd0 ]
    5dbc:	c6 07 be 0c 	ld  [ %fp + -500 ], %g3
    5dc0:	c2 00 e1 94 	ld  [ %g3 + 0x194 ], %g1
    5dc4:	05 00 02 00 	sethi  %hi(0x80000), %g2
    5dc8:	82 10 40 02 	or  %g1, %g2, %g1
    5dcc:	b4 10 00 11 	mov  %l1, %i2
    5dd0:	10 bf ff 8e 	b  5c08 <dl_main+0x29c8>
    5dd4:	c2 20 e1 94 	st  %g1, [ %g3 + 0x194 ]
    5dd8:	82 10 e3 dc 	or  %g3, 0x3dc, %g1
    5ddc:	c6 05 c0 01 	ld  [ %l7 + %g1 ], %g3
    5de0:	c4 00 e0 d0 	ld  [ %g3 + 0xd0 ], %g2
    5de4:	80 a0 a0 00 	cmp  %g2, 0
    5de8:	22 bf f7 a0 	be,a   3c68 <dl_main+0xa28>
    5dec:	c2 04 e0 74 	ld  [ %l3 + 0x74 ], %g1
    5df0:	09 00 00 01 	sethi  %hi(0x400), %g4
    5df4:	82 11 23 b8 	or  %g4, 0x3b8, %g1	! 7b8 <GLIBC_2.0+0x7b8>
    5df8:	c4 05 c0 01 	ld  [ %l7 + %g1 ], %g2
    5dfc:	84 00 a2 f8 	add  %g2, 0x2f8, %g2
    5e00:	c4 27 bd f4 	st  %g2, [ %fp + -524 ]
    5e04:	e6 27 bd f0 	st  %l3, [ %fp + -528 ]
    5e08:	b2 10 00 03 	mov  %g3, %i1
    5e0c:	b4 10 20 00 	clr  %i2
    5e10:	aa 07 bf f0 	add  %fp, -16, %l5
    5e14:	c2 06 60 d0 	ld  [ %i1 + 0xd0 ], %g1
    5e18:	80 a0 60 00 	cmp  %g1, 0
    5e1c:	e4 06 60 cc 	ld  [ %i1 + 0xcc ], %l2
    5e20:	08 80 00 0f 	bleu  5e5c <dl_main+0x2c1c>
    5e24:	a8 10 20 00 	clr  %l4
    5e28:	13 00 00 00 	sethi  %hi(0), %o1
    5e2c:	92 12 61 ac 	or  %o1, 0x1ac, %o1	! 1ac <GLIBC_2.0+0x1ac>
    5e30:	d2 05 c0 09 	ld  [ %l7 + %o1 ], %o1
    5e34:	f0 02 40 00 	ld  [ %o1 ], %i0
    5e38:	c2 04 a0 08 	ld  [ %l2 + 8 ], %g1
    5e3c:	80 a0 60 00 	cmp  %g1, 0
    5e40:	32 80 00 11 	bne,a   5e84 <dl_main+0x2c44>
    5e44:	d0 05 7e 00 	ld  [ %l5 + -512 ], %o0
    5e48:	a8 05 20 01 	inc  %l4
    5e4c:	c2 06 60 d0 	ld  [ %i1 + 0xd0 ], %g1
    5e50:	80 a0 40 14 	cmp  %g1, %l4
    5e54:	18 bf ff f9 	bgu  5e38 <dl_main+0x2bf8>
    5e58:	e4 04 a0 20 	ld  [ %l2 + 0x20 ], %l2
    5e5c:	b4 06 a0 01 	inc  %i2
    5e60:	80 a6 a0 01 	cmp  %i2, 1
    5e64:	08 bf ff ec 	bleu  5e14 <dl_main+0x2bd4>
    5e68:	aa 05 60 04 	add  %l5, 4, %l5
    5e6c:	10 bf f7 7f 	b  3c68 <dl_main+0xa28>
    5e70:	c2 04 e0 74 	ld  [ %l3 + 0x74 ], %g1
    5e74:	40 00 aa 7f 	call  30870 <free@plt>
    5e78:	d0 07 bd c0 	ld  [ %fp + -576 ], %o0
    5e7c:	10 bf ff 64 	b  5c0c <dl_main+0x29cc>
    5e80:	05 00 00 00 	sethi  %hi(0), %g2
    5e84:	a1 2d 20 03 	sll  %l4, 3, %l0
    5e88:	a2 04 00 08 	add  %l0, %o0, %l1
    5e8c:	92 10 20 00 	clr  %o1
    5e90:	9f c0 40 00 	call  %g1
    5e94:	94 04 62 4c 	add  %l1, 0x24c, %o2
    5e98:	d0 24 62 50 	st  %o0, [ %l1 + 0x250 ]
    5e9c:	c8 05 7e 00 	ld  [ %l5 + -512 ], %g4
    5ea0:	c2 01 21 94 	ld  [ %g4 + 0x194 ], %g1
    5ea4:	87 30 60 12 	srl  %g1, 0x12, %g3
    5ea8:	a0 04 00 04 	add  %l0, %g4, %l0
    5eac:	86 08 e0 01 	and  %g3, 1, %g3
    5eb0:	c2 04 22 50 	ld  [ %l0 + 0x250 ], %g1
    5eb4:	80 a0 60 00 	cmp  %g1, 0
    5eb8:	12 80 00 03 	bne  5ec4 <dl_main+0x2c84>
    5ebc:	84 10 e0 01 	or  %g3, 1, %g2
    5ec0:	84 10 00 03 	mov  %g3, %g2
    5ec4:	c2 01 21 94 	ld  [ %g4 + 0x194 ], %g1
    5ec8:	84 08 a0 01 	and  %g2, 1, %g2
    5ecc:	85 28 a0 12 	sll  %g2, 0x12, %g2
    5ed0:	82 08 40 18 	and  %g1, %i0, %g1
    5ed4:	82 10 40 02 	or  %g1, %g2, %g1
    5ed8:	10 bf ff dc 	b  5e48 <dl_main+0x2c08>
    5edc:	c2 21 21 94 	st  %g1, [ %g4 + 0x194 ]
    5ee0:	07 00 00 01 	sethi  %hi(0x400), %g3
    5ee4:	86 10 e3 dc 	or  %g3, 0x3dc, %g3	! 7dc <GLIBC_2.0+0x7dc>
    5ee8:	c6 05 c0 03 	ld  [ %l7 + %g3 ], %g3
    5eec:	10 bf ff ae 	b  5da4 <dl_main+0x2b64>
    5ef0:	e2 20 e0 cc 	st  %l1, [ %g3 + 0xcc ]
    5ef4:	03 00 00 00 	sethi  %hi(0), %g1
    5ef8:	05 00 00 00 	sethi  %hi(0), %g2
    5efc:	07 00 00 00 	sethi  %hi(0), %g3
    5f00:	82 10 61 b0 	or  %g1, 0x1b0, %g1
    5f04:	84 10 a0 88 	or  %g2, 0x88, %g2
    5f08:	86 10 e0 4c 	or  %g3, 0x4c, %g3
    5f0c:	d0 05 c0 01 	ld  [ %l7 + %g1 ], %o0
    5f10:	d2 05 c0 02 	ld  [ %l7 + %g2 ], %o1
    5f14:	d6 05 c0 03 	ld  [ %l7 + %g3 ], %o3
    5f18:	10 bf fd a6 	b  55b0 <dl_main+0x2370>
    5f1c:	94 10 25 ef 	mov  0x5ef, %o2
    5f20:	40 00 46 41 	call  17824 <index>
    5f24:	92 10 20 2f 	mov  0x2f, %o1
    5f28:	80 a2 20 00 	cmp  %o0, 0
    5f2c:	32 bf fe e6 	bne,a   5ac4 <dl_main+0x2884>
    5f30:	90 07 bd b8 	add  %fp, -584, %o0
    5f34:	10 bf fe f3 	b  5b00 <dl_main+0x28c0>
    5f38:	90 10 00 10 	mov  %l0, %o0
    5f3c:	03 00 00 00 	sethi  %hi(0), %g1
    5f40:	05 00 00 00 	sethi  %hi(0), %g2
    5f44:	07 00 00 00 	sethi  %hi(0), %g3
    5f48:	82 10 61 b4 	or  %g1, 0x1b4, %g1
    5f4c:	84 10 a0 88 	or  %g2, 0x88, %g2
    5f50:	86 10 e0 4c 	or  %g3, 0x4c, %g3
    5f54:	d0 05 c0 01 	ld  [ %l7 + %g1 ], %o0
    5f58:	d2 05 c0 02 	ld  [ %l7 + %g2 ], %o1
    5f5c:	d6 05 c0 03 	ld  [ %l7 + %g3 ], %o3
    5f60:	10 bf fd 94 	b  55b0 <dl_main+0x2370>
    5f64:	94 10 26 08 	mov  0x608, %o2
    5f68:	03 00 00 00 	sethi  %hi(0), %g1
    5f6c:	05 00 00 00 	sethi  %hi(0), %g2
    5f70:	07 00 00 00 	sethi  %hi(0), %g3
    5f74:	82 10 61 b8 	or  %g1, 0x1b8, %g1
    5f78:	84 10 a0 88 	or  %g2, 0x88, %g2
    5f7c:	86 10 e0 4c 	or  %g3, 0x4c, %g3
    5f80:	d0 05 c0 01 	ld  [ %l7 + %g1 ], %o0
    5f84:	d2 05 c0 02 	ld  [ %l7 + %g2 ], %o1
    5f88:	d6 05 c0 03 	ld  [ %l7 + %g3 ], %o3
    5f8c:	10 bf fd 89 	b  55b0 <dl_main+0x2370>
    5f90:	94 10 26 07 	mov  0x607, %o2
    5f94:	c4 20 60 08 	st  %g2, [ %g1 + 8 ]
    5f98:	c2 00 60 04 	ld  [ %g1 + 4 ], %g1
    5f9c:	80 a0 60 00 	cmp  %g1, 0
    5fa0:	02 bf fc b4 	be  5270 <dl_main+0x2030>
    5fa4:	13 00 00 01 	sethi  %hi(0x400), %o1
    5fa8:	10 bf ff fc 	b  5f98 <dl_main+0x2d58>
    5fac:	c4 20 60 08 	st  %g2, [ %g1 + 8 ]
    5fb0:	82 12 63 b8 	or  %o1, 0x3b8, %g1
    5fb4:	c4 05 c0 01 	ld  [ %l7 + %g1 ], %g2
    5fb8:	c4 00 80 00 	ld  [ %g2 ], %g2
    5fbc:	c2 00 a1 94 	ld  [ %g2 + 0x194 ], %g1
    5fc0:	83 30 60 13 	srl  %g1, 0x13, %g1
    5fc4:	80 88 60 01 	btst  1, %g1
    5fc8:	32 80 02 a1 	bne,a   6a4c <dl_main+0x380c>
    5fcc:	92 10 20 00 	clr  %o1
    5fd0:	80 a1 20 00 	cmp  %g4, 0
    5fd4:	e2 00 e0 cc 	ld  [ %g3 + 0xcc ], %l1
    5fd8:	08 80 02 9c 	bleu  6a48 <dl_main+0x3808>
    5fdc:	a4 10 20 00 	clr  %l2
    5fe0:	a6 10 00 03 	mov  %g3, %l3
    5fe4:	a0 00 a2 4c 	add  %g2, 0x24c, %l0
    5fe8:	c2 04 40 00 	ld  [ %l1 ], %g1
    5fec:	80 a0 60 00 	cmp  %g1, 0
    5ff0:	22 80 00 06 	be,a   6008 <dl_main+0x2dc8>
    5ff4:	a4 04 a0 01 	inc  %l2
    5ff8:	90 10 00 10 	mov  %l0, %o0
    5ffc:	9f c0 40 00 	call  %g1
    6000:	92 10 20 00 	clr  %o1
    6004:	a4 04 a0 01 	inc  %l2
    6008:	c2 04 e0 d0 	ld  [ %l3 + 0xd0 ], %g1
    600c:	80 a0 40 12 	cmp  %g1, %l2
    6010:	e2 04 60 20 	ld  [ %l1 + 0x20 ], %l1
    6014:	18 bf ff f5 	bgu  5fe8 <dl_main+0x2da8>
    6018:	a0 04 20 08 	add  %l0, 8, %l0
    601c:	10 80 02 8c 	b  6a4c <dl_main+0x380c>
    6020:	92 10 20 00 	clr  %o1
    6024:	13 00 00 01 	sethi  %hi(0x400), %o1
    6028:	82 12 63 c4 	or  %o1, 0x3c4, %g1	! 7c4 <GLIBC_2.0+0x7c4>
    602c:	c4 05 c0 01 	ld  [ %l7 + %g1 ], %g2
    6030:	c2 00 80 00 	ld  [ %g2 ], %g1
    6034:	c0 27 bd cc 	clr  [ %fp + -564 ]
    6038:	c4 00 40 00 	ld  [ %g1 ], %g2
    603c:	07 00 00 00 	sethi  %hi(0), %g3
    6040:	03 08 00 00 	sethi  %hi(0x20000000), %g1
    6044:	86 10 e0 08 	or  %g3, 8, %g3
    6048:	c2 27 bf e4 	st  %g1, [ %fp + -28 ]
    604c:	c4 27 bf d8 	st  %g2, [ %fp + -40 ]
    6050:	c0 27 bf dc 	clr  [ %fp + -36 ]
    6054:	c0 27 bf e0 	clr  [ %fp + -32 ]
    6058:	d6 05 c0 03 	ld  [ %l7 + %g3 ], %o3
    605c:	90 07 bd d0 	add  %fp, -560, %o0
    6060:	92 07 bd cc 	add  %fp, -564, %o1
    6064:	94 07 bd cb 	add  %fp, -565, %o2
    6068:	40 00 25 6b 	call  f614 <_dl_catch_error>
    606c:	98 07 bf d8 	add  %fp, -40, %o4
    6070:	c2 07 bd cc 	ld  [ %fp + -564 ], %g1
    6074:	80 a0 60 00 	cmp  %g1, 0
    6078:	22 bf f9 05 	be,a   448c <dl_main+0x124c>
    607c:	07 00 00 01 	sethi  %hi(0x400), %g3
    6080:	40 00 45 01 	call  17484 <_Exit>
    6084:	90 10 20 01 	mov  1, %o0
    6088:	10 bf f9 01 	b  448c <dl_main+0x124c>
    608c:	07 00 00 01 	sethi  %hi(0x400), %g3
    6090:	05 00 00 00 	sethi  %hi(0), %g2
    6094:	07 00 00 00 	sethi  %hi(0), %g3
    6098:	82 10 60 fc 	or  %g1, 0xfc, %g1
    609c:	84 10 a0 88 	or  %g2, 0x88, %g2
    60a0:	86 10 e0 4c 	or  %g3, 0x4c, %g3
    60a4:	d0 05 c0 01 	ld  [ %l7 + %g1 ], %o0
    60a8:	d2 05 c0 02 	ld  [ %l7 + %g2 ], %o1
    60ac:	d6 05 c0 03 	ld  [ %l7 + %g3 ], %o3
    60b0:	10 bf fd 40 	b  55b0 <dl_main+0x2370>
    60b4:	94 10 28 72 	mov  0x872, %o2
    60b8:	03 00 00 00 	sethi  %hi(0), %g1
    60bc:	80 a5 20 00 	cmp  %l4, 0
    60c0:	12 80 00 04 	bne  60d0 <dl_main+0x2e90>
    60c4:	82 10 61 bc 	or  %g1, 0x1bc, %g1
    60c8:	03 00 00 00 	sethi  %hi(0), %g1
    60cc:	82 10 61 c0 	or  %g1, 0x1c0, %g1	! 1c0 <GLIBC_2.0+0x1c0>
    60d0:	d2 05 c0 01 	ld  [ %l7 + %g1 ], %o1
    60d4:	03 00 00 00 	sethi  %hi(0), %g1
    60d8:	82 10 61 c4 	or  %g1, 0x1c4, %g1	! 1c4 <GLIBC_2.0+0x1c4>
    60dc:	40 00 29 7e 	call  106d4 <_dl_debug_printf>
    60e0:	d0 05 c0 01 	ld  [ %l7 + %g1 ], %o0
    60e4:	10 bf f7 fa 	b  40cc <dl_main+0xe8c>
    60e8:	05 00 00 01 	sethi  %hi(0x400), %g2
    60ec:	03 00 00 00 	sethi  %hi(0), %g1
    60f0:	05 00 00 00 	sethi  %hi(0), %g2
    60f4:	07 00 00 00 	sethi  %hi(0), %g3
    60f8:	82 10 61 c8 	or  %g1, 0x1c8, %g1
    60fc:	84 10 a0 88 	or  %g2, 0x88, %g2
    6100:	86 10 e0 4c 	or  %g3, 0x4c, %g3
    6104:	d0 05 c0 01 	ld  [ %l7 + %g1 ], %o0
    6108:	d2 05 c0 02 	ld  [ %l7 + %g2 ], %o1
    610c:	d6 05 c0 03 	ld  [ %l7 + %g3 ], %o3
    6110:	10 bf fd 28 	b  55b0 <dl_main+0x2370>
    6114:	94 10 28 30 	mov  0x830, %o2
    6118:	80 88 64 00 	btst  0x400, %g1
    611c:	02 80 00 d2 	be  6464 <dl_main+0x3224>
    6120:	80 88 61 00 	btst  0x100, %g1
    6124:	a4 04 e1 64 	add  %l3, 0x164, %l2
    6128:	c2 04 a0 04 	ld  [ %l2 + 4 ], %g1
    612c:	80 a0 60 00 	cmp  %g1, 0
    6130:	08 80 00 17 	bleu  618c <dl_main+0x2f4c>
    6134:	a0 10 20 00 	clr  %l0
    6138:	29 00 00 00 	sethi  %hi(0), %l4
    613c:	aa 10 00 04 	mov  %g4, %l5
    6140:	a8 15 21 cc 	or  %l4, 0x1cc, %l4
    6144:	c6 04 80 00 	ld  [ %l2 ], %g3
    6148:	85 2c 20 02 	sll  %l0, 2, %g2
    614c:	e2 00 c0 02 	ld  [ %g3 + %g2 ], %l1
    6150:	c2 04 61 94 	ld  [ %l1 + 0x194 ], %g1
    6154:	83 30 60 16 	srl  %g1, 0x16, %g1
    6158:	80 88 60 01 	btst  1, %g1
    615c:	02 80 00 83 	be  6368 <dl_main+0x3128>
    6160:	90 10 20 01 	mov  1, %o0
    6164:	c2 04 60 1c 	ld  [ %l1 + 0x1c ], %g1
    6168:	d4 00 40 00 	ld  [ %g1 ], %o2
    616c:	40 00 29 82 	call  10774 <_dl_dprintf>
    6170:	d2 05 c0 14 	ld  [ %l7 + %l4 ], %o1
    6174:	a0 04 20 01 	inc  %l0
    6178:	c2 04 a0 04 	ld  [ %l2 + 4 ], %g1
    617c:	80 a0 40 10 	cmp  %g1, %l0
    6180:	38 bf ff f2 	bgu,a   6148 <dl_main+0x2f08>
    6184:	c6 04 80 00 	ld  [ %l2 ], %g3
    6188:	d8 07 bd dc 	ld  [ %fp + -548 ], %o4
    618c:	80 a3 20 03 	cmp  %o4, 3
    6190:	12 80 01 b4 	bne  6860 <dl_main+0x3620>
    6194:	05 00 00 01 	sethi  %hi(0x400), %g2
    6198:	82 10 a3 dc 	or  %g2, 0x3dc, %g1	! 7dc <GLIBC_2.0+0x7dc>
    619c:	c2 05 c0 01 	ld  [ %l7 + %g1 ], %g1
    61a0:	c4 00 60 28 	ld  [ %g1 + 0x28 ], %g2
    61a4:	80 a0 a0 00 	cmp  %g2, 0
    61a8:	26 80 01 05 	bl,a   65bc <dl_main+0x337c>
    61ac:	03 00 00 00 	sethi  %hi(0), %g1
    61b0:	c2 00 60 20 	ld  [ %g1 + 0x20 ], %g1	! 20 <GLIBC_2.0+0x20>
    61b4:	80 a0 60 00 	cmp  %g1, 0
    61b8:	02 80 01 01 	be  65bc <dl_main+0x337c>
    61bc:	03 00 00 00 	sethi  %hi(0), %g1
    61c0:	c2 04 e0 0c 	ld  [ %l3 + 0xc ], %g1
    61c4:	c4 27 bd e4 	st  %g2, [ %fp + -540 ]
    61c8:	80 a0 60 00 	cmp  %g1, 0
    61cc:	a0 10 00 13 	mov  %l3, %l0
    61d0:	02 80 00 cb 	be  64fc <dl_main+0x32bc>
    61d4:	07 00 00 01 	sethi  %hi(0x400), %g3
    61d8:	a0 10 00 01 	mov  %g1, %l0
    61dc:	c2 00 60 0c 	ld  [ %g1 + 0xc ], %g1
    61e0:	10 bf ff fc 	b  61d0 <dl_main+0x2f90>
    61e4:	80 a0 60 00 	cmp  %g1, 0
    61e8:	05 00 00 00 	sethi  %hi(0), %g2
    61ec:	07 00 00 00 	sethi  %hi(0), %g3
    61f0:	82 10 61 18 	or  %g1, 0x118, %g1
    61f4:	84 10 a0 b8 	or  %g2, 0xb8, %g2
    61f8:	86 10 e0 58 	or  %g3, 0x58, %g3
    61fc:	d0 05 c0 01 	ld  [ %l7 + %g1 ], %o0
    6200:	d2 05 c0 02 	ld  [ %l7 + %g2 ], %o1
    6204:	d6 05 c0 03 	ld  [ %l7 + %g3 ], %o3
    6208:	10 bf fc ea 	b  55b0 <dl_main+0x2370>
    620c:	94 10 20 95 	mov  0x95, %o2
    6210:	03 00 00 00 	sethi  %hi(0), %g1
    6214:	05 00 00 00 	sethi  %hi(0), %g2
    6218:	07 00 00 00 	sethi  %hi(0), %g3
    621c:	82 10 61 d0 	or  %g1, 0x1d0, %g1
    6220:	84 10 a0 88 	or  %g2, 0x88, %g2
    6224:	86 10 e0 4c 	or  %g3, 0x4c, %g3
    6228:	d0 05 c0 01 	ld  [ %l7 + %g1 ], %o0
    622c:	d2 05 c0 02 	ld  [ %l7 + %g2 ], %o1
    6230:	d6 05 c0 03 	ld  [ %l7 + %g3 ], %o3
    6234:	10 bf fc df 	b  55b0 <dl_main+0x2370>
    6238:	94 10 25 3a 	mov  0x53a, %o2
    623c:	05 00 00 00 	sethi  %hi(0), %g2
    6240:	07 00 00 00 	sethi  %hi(0), %g3
    6244:	82 10 61 1c 	or  %g1, 0x11c, %g1
    6248:	84 10 a0 88 	or  %g2, 0x88, %g2
    624c:	86 10 e0 4c 	or  %g3, 0x4c, %g3
    6250:	d0 05 c0 01 	ld  [ %l7 + %g1 ], %o0
    6254:	d2 05 c0 02 	ld  [ %l7 + %g2 ], %o1
    6258:	d6 05 c0 03 	ld  [ %l7 + %g3 ], %o3
    625c:	10 bf fc d5 	b  55b0 <dl_main+0x2370>
    6260:	94 10 25 39 	mov  0x539, %o2
    6264:	03 00 00 00 	sethi  %hi(0), %g1
    6268:	05 00 00 00 	sethi  %hi(0), %g2
    626c:	07 00 00 00 	sethi  %hi(0), %g3
    6270:	82 10 61 d4 	or  %g1, 0x1d4, %g1
    6274:	84 10 a0 88 	or  %g2, 0x88, %g2
    6278:	86 10 e0 4c 	or  %g3, 0x4c, %g3
    627c:	d0 05 c0 01 	ld  [ %l7 + %g1 ], %o0
    6280:	d2 05 c0 02 	ld  [ %l7 + %g2 ], %o1
    6284:	d6 05 c0 03 	ld  [ %l7 + %g3 ], %o3
    6288:	10 bf fc ca 	b  55b0 <dl_main+0x2370>
    628c:	94 10 26 56 	mov  0x656, %o2
    6290:	80 a4 00 11 	cmp  %l0, %l1
    6294:	38 80 00 02 	bgu,a   629c <dl_main+0x305c>
    6298:	c0 2c 3f ff 	clrb  [ %l0 + -1 ]
    629c:	80 a4 40 10 	cmp  %l1, %l0
    62a0:	02 80 00 18 	be  6300 <dl_main+0x30c0>
    62a4:	25 00 00 00 	sethi  %hi(0), %l2
    62a8:	e2 27 bd b0 	st  %l1, [ %fp + -592 ]
    62ac:	a4 14 a1 d8 	or  %l2, 0x1d8, %l2
    62b0:	ba 16 a0 68 	or  %i2, 0x68, %i5
    62b4:	90 07 bd b0 	add  %fp, -592, %o0
    62b8:	40 00 41 a1 	call  1693c <__strsep>
    62bc:	d2 05 c0 12 	ld  [ %l7 + %l2 ], %o1
    62c0:	82 92 20 00 	orcc  %o0, 0, %g1
    62c4:	02 80 00 10 	be  6304 <dl_main+0x30c4>
    62c8:	80 a4 20 00 	cmp  %l0, 0
    62cc:	c2 48 40 00 	ldsb  [ %g1 ], %g1
    62d0:	80 a0 60 00 	cmp  %g1, 0
    62d4:	22 bf ff f9 	be,a   62b8 <dl_main+0x3078>
    62d8:	90 07 bd b0 	add  %fp, -592, %o0
    62dc:	92 10 00 13 	mov  %l3, %o1
    62e0:	7f ff f0 8e 	call  2518 <do_preload>
    62e4:	d4 05 c0 1d 	ld  [ %l7 + %i5 ], %o2
    62e8:	10 bf ff f3 	b  62b4 <dl_main+0x3074>
    62ec:	aa 05 40 08 	add  %l5, %o0, %l5
    62f0:	82 04 40 0d 	add  %l1, %o5, %g1
    62f4:	c0 28 7f ff 	clrb  [ %g1 + -1 ]
    62f8:	10 bf ff e9 	b  629c <dl_main+0x305c>
    62fc:	a0 10 20 00 	clr  %l0
    6300:	80 a4 20 00 	cmp  %l0, 0
    6304:	02 80 00 14 	be  6354 <dl_main+0x3114>
    6308:	82 24 00 11 	sub  %l0, %l1, %g1
    630c:	d2 07 bd b4 	ld  [ %fp + -588 ], %o1
    6310:	92 22 40 01 	sub  %o1, %g1, %o1
    6314:	40 00 47 13 	call  17f60 <__strnlen>
    6318:	90 10 00 10 	mov  %l0, %o0
    631c:	82 02 20 08 	add  %o0, 8, %g1
    6320:	82 08 7f f8 	and  %g1, -8, %g1
    6324:	9c 23 80 01 	sub  %sp, %g1, %sp
    6328:	84 03 a0 68 	add  %sp, 0x68, %g2
    632c:	94 10 00 08 	mov  %o0, %o2
    6330:	c0 28 80 08 	clrb  [ %g2 + %o0 ]
    6334:	92 10 00 10 	mov  %l0, %o1
    6338:	40 00 4b 04 	call  18f48 <memcpy>
    633c:	90 10 00 02 	mov  %g2, %o0
    6340:	82 16 a0 68 	or  %i2, 0x68, %g1
    6344:	92 10 00 13 	mov  %l3, %o1
    6348:	7f ff f0 74 	call  2518 <do_preload>
    634c:	d4 05 c0 01 	ld  [ %l7 + %g1 ], %o2
    6350:	aa 05 40 08 	add  %l5, %o0, %l5
    6354:	90 10 00 11 	mov  %l1, %o0
    6358:	40 00 44 33 	call  17424 <__munmap>
    635c:	d2 07 bd b4 	ld  [ %fp + -588 ], %o1
    6360:	10 bf f6 6b 	b  3d0c <dl_main+0xacc>
    6364:	c6 05 80 00 	ld  [ %l6 ], %g3
    6368:	d0 05 60 98 	ld  [ %l5 + 0x98 ], %o0
    636c:	40 00 29 0f 	call  107a8 <_dl_name_match_p>
    6370:	92 10 00 11 	mov  %l1, %o1
    6374:	80 a2 20 00 	cmp  %o0, 0
    6378:	32 80 00 02 	bne,a   6380 <dl_main+0x3140>
    637c:	e2 25 60 9c 	st  %l1, [ %l5 + 0x9c ]
    6380:	c2 04 60 1c 	ld  [ %l1 + 0x1c ], %g1
    6384:	c6 00 40 00 	ld  [ %g1 ], %g3
    6388:	c4 48 c0 00 	ldsb  [ %g3 ], %g2
    638c:	80 a0 a0 00 	cmp  %g2, 0
    6390:	12 80 00 0d 	bne  63c4 <dl_main+0x3184>
    6394:	94 10 00 03 	mov  %g3, %o2
    6398:	05 00 00 01 	sethi  %hi(0x400), %g2
    639c:	82 10 a3 c4 	or  %g2, 0x3c4, %g1	! 7c4 <GLIBC_2.0+0x7c4>
    63a0:	c4 05 c0 01 	ld  [ %l7 + %g1 ], %g2
    63a4:	c6 00 80 00 	ld  [ %g2 ], %g3
    63a8:	c2 00 c0 00 	ld  [ %g3 ], %g1
    63ac:	94 90 60 00 	orcc  %g1, 0, %o2
    63b0:	32 80 00 06 	bne,a   63c8 <dl_main+0x3188>
    63b4:	c4 04 60 04 	ld  [ %l1 + 4 ], %g2
    63b8:	03 00 00 00 	sethi  %hi(0), %g1
    63bc:	82 10 60 c4 	or  %g1, 0xc4, %g1	! c4 <GLIBC_2.0+0xc4>
    63c0:	d4 05 c0 01 	ld  [ %l7 + %g1 ], %o2
    63c4:	c4 04 60 04 	ld  [ %l1 + 4 ], %g2
    63c8:	c2 48 80 00 	ldsb  [ %g2 ], %g1
    63cc:	80 a0 60 00 	cmp  %g1, 0
    63d0:	12 80 00 0d 	bne  6404 <dl_main+0x31c4>
    63d4:	96 10 00 02 	mov  %g2, %o3
    63d8:	07 00 00 01 	sethi  %hi(0x400), %g3
    63dc:	82 10 e3 c4 	or  %g3, 0x3c4, %g1	! 7c4 <GLIBC_2.0+0x7c4>
    63e0:	c4 05 c0 01 	ld  [ %l7 + %g1 ], %g2
    63e4:	c6 00 80 00 	ld  [ %g2 ], %g3
    63e8:	c2 00 c0 00 	ld  [ %g3 ], %g1
    63ec:	96 90 60 00 	orcc  %g1, 0, %o3
    63f0:	12 80 00 06 	bne  6408 <dl_main+0x31c8>
    63f4:	82 10 20 08 	mov  8, %g1
    63f8:	03 00 00 00 	sethi  %hi(0), %g1
    63fc:	82 10 60 c4 	or  %g1, 0xc4, %g1	! c4 <GLIBC_2.0+0xc4>
    6400:	d6 05 c0 01 	ld  [ %l7 + %g1 ], %o3
    6404:	82 10 20 08 	mov  8, %g1
    6408:	c2 23 a0 5c 	st  %g1, [ %sp + 0x5c ]
    640c:	c4 04 40 00 	ld  [ %l1 ], %g2
    6410:	03 00 00 00 	sethi  %hi(0), %g1
    6414:	c4 23 a0 60 	st  %g2, [ %sp + 0x60 ]
    6418:	82 10 61 dc 	or  %g1, 0x1dc, %g1
    641c:	d2 05 c0 01 	ld  [ %l7 + %g1 ], %o1
    6420:	90 10 20 01 	mov  1, %o0
    6424:	98 10 20 08 	mov  8, %o4
    6428:	40 00 28 d3 	call  10774 <_dl_dprintf>
    642c:	da 04 61 b4 	ld  [ %l1 + 0x1b4 ], %o5
    6430:	d4 04 62 40 	ld  [ %l1 + 0x240 ], %o2
    6434:	80 a2 a0 00 	cmp  %o2, 0
    6438:	02 80 01 39 	be  691c <dl_main+0x36dc>
    643c:	03 00 00 00 	sethi  %hi(0), %g1
    6440:	03 00 00 00 	sethi  %hi(0), %g1
    6444:	82 10 61 e4 	or  %g1, 0x1e4, %g1	! 1e4 <GLIBC_2.0+0x1e4>
    6448:	d2 05 c0 01 	ld  [ %l7 + %g1 ], %o1
    644c:	d8 04 62 3c 	ld  [ %l1 + 0x23c ], %o4
    6450:	90 10 20 01 	mov  1, %o0
    6454:	40 00 28 c8 	call  10774 <_dl_dprintf>
    6458:	96 10 20 08 	mov  8, %o3
    645c:	10 bf ff 47 	b  6178 <dl_main+0x2f38>
    6460:	a0 04 20 01 	inc  %l0
    6464:	12 80 01 48 	bne  6984 <dl_main+0x3744>
    6468:	03 00 00 00 	sethi  %hi(0), %g1
    646c:	c2 04 e0 24 	ld  [ %l3 + 0x24 ], %g1
    6470:	80 a0 60 00 	cmp  %g1, 0
    6474:	02 80 01 3e 	be  696c <dl_main+0x372c>
    6478:	03 00 00 00 	sethi  %hi(0), %g1
    647c:	e2 04 e0 0c 	ld  [ %l3 + 0xc ], %l1
    6480:	80 a4 60 00 	cmp  %l1, 0
    6484:	02 bf ff 42 	be  618c <dl_main+0x2f4c>
    6488:	35 00 00 00 	sethi  %hi(0), %i2
    648c:	25 00 00 00 	sethi  %hi(0), %l2
    6490:	29 00 00 00 	sethi  %hi(0), %l4
    6494:	a4 14 a1 cc 	or  %l2, 0x1cc, %l2
    6498:	a8 15 21 f0 	or  %l4, 0x1f0, %l4
    649c:	b4 16 a1 ec 	or  %i2, 0x1ec, %i2
    64a0:	c2 04 61 94 	ld  [ %l1 + 0x194 ], %g1
    64a4:	83 30 60 16 	srl  %g1, 0x16, %g1
    64a8:	80 88 60 01 	btst  1, %g1
    64ac:	32 80 01 2a 	bne,a   6954 <dl_main+0x3714>
    64b0:	c2 04 60 1c 	ld  [ %l1 + 0x1c ], %g1
    64b4:	e0 04 60 1c 	ld  [ %l1 + 0x1c ], %l0
    64b8:	d0 04 00 00 	ld  [ %l0 ], %o0
    64bc:	40 00 45 aa 	call  17b64 <strcmp>
    64c0:	d2 04 60 04 	ld  [ %l1 + 4 ], %o1
    64c4:	80 a2 20 00 	cmp  %o0, 0
    64c8:	12 80 01 1b 	bne  6934 <dl_main+0x36f4>
    64cc:	d4 04 00 00 	ld  [ %l0 ], %o2
    64d0:	90 10 20 01 	mov  1, %o0
    64d4:	d2 05 c0 14 	ld  [ %l7 + %l4 ], %o1
    64d8:	96 10 20 08 	mov  8, %o3
    64dc:	40 00 28 a6 	call  10774 <_dl_dprintf>
    64e0:	d8 04 61 b4 	ld  [ %l1 + 0x1b4 ], %o4
    64e4:	e2 04 60 0c 	ld  [ %l1 + 0xc ], %l1
    64e8:	80 a4 60 00 	cmp  %l1, 0
    64ec:	32 bf ff ee 	bne,a   64a4 <dl_main+0x3264>
    64f0:	c2 04 61 94 	ld  [ %l1 + 0x194 ], %g1
    64f4:	10 bf ff 26 	b  618c <dl_main+0x2f4c>
    64f8:	d8 07 bd dc 	ld  [ %fp + -548 ], %o4
    64fc:	84 10 e3 b8 	or  %g3, 0x3b8, %g2
    6500:	c2 05 c0 02 	ld  [ %l7 + %g2 ], %g1
    6504:	82 00 62 f8 	add  %g1, 0x2f8, %g1
    6508:	80 a0 40 10 	cmp  %g1, %l0
    650c:	22 80 00 11 	be,a   6550 <dl_main+0x3310>
    6510:	e0 04 20 10 	ld  [ %l0 + 0x10 ], %l0
    6514:	c2 04 21 94 	ld  [ %l0 + 0x194 ], %g1
    6518:	83 30 60 16 	srl  %g1, 0x16, %g1
    651c:	80 88 60 01 	btst  1, %g1
    6520:	32 80 00 0c 	bne,a   6550 <dl_main+0x3310>
    6524:	e0 04 20 10 	ld  [ %l0 + 0x10 ], %l0
    6528:	03 00 00 00 	sethi  %hi(0), %g1
    652c:	05 00 00 00 	sethi  %hi(0), %g2
    6530:	82 10 60 3c 	or  %g1, 0x3c, %g1
    6534:	84 10 a0 04 	or  %g2, 4, %g2
    6538:	e0 27 bd e0 	st  %l0, [ %fp + -544 ]
    653c:	d0 05 c0 01 	ld  [ %l7 + %g1 ], %o0
    6540:	d2 05 c0 02 	ld  [ %l7 + %g2 ], %o1
    6544:	40 00 24 73 	call  f710 <_dl_receive_error>
    6548:	94 07 bd e0 	add  %fp, -544, %o2
    654c:	e0 04 20 10 	ld  [ %l0 + 0x10 ], %l0
    6550:	80 a4 20 00 	cmp  %l0, 0
    6554:	12 bf ff ea 	bne  64fc <dl_main+0x32bc>
    6558:	07 00 00 01 	sethi  %hi(0x400), %g3
    655c:	09 00 00 01 	sethi  %hi(0x400), %g4
    6560:	82 11 23 dc 	or  %g4, 0x3dc, %g1	! 7dc <GLIBC_2.0+0x7dc>
    6564:	c4 05 c0 01 	ld  [ %l7 + %g1 ], %g2
    6568:	c6 00 80 00 	ld  [ %g2 ], %g3
    656c:	80 88 e4 00 	btst  0x400, %g3
    6570:	02 80 00 13 	be  65bc <dl_main+0x337c>
    6574:	03 00 00 00 	sethi  %hi(0), %g1
    6578:	d2 0f bd 9f 	ldub  [ %fp + -609 ], %o1
    657c:	80 8a 60 ff 	btst  0xff, %o1
    6580:	02 80 00 10 	be  65c0 <dl_main+0x3380>
    6584:	82 10 60 7c 	or  %g1, 0x7c, %g1
    6588:	05 00 00 01 	sethi  %hi(0x400), %g2
    658c:	82 10 a3 b8 	or  %g2, 0x3b8, %g1	! 7b8 <GLIBC_2.0+0x7b8>
    6590:	d0 05 c0 01 	ld  [ %l7 + %g1 ], %o0
    6594:	c4 02 24 8c 	ld  [ %o0 + 0x48c ], %g2
    6598:	03 08 00 00 	sethi  %hi(0x20000000), %g1
    659c:	82 28 80 01 	andn  %g2, %g1, %g1
    65a0:	c2 22 24 8c 	st  %g1, [ %o0 + 0x48c ]
    65a4:	90 02 22 f8 	add  %o0, 0x2f8, %o0
    65a8:	d2 04 e1 d4 	ld  [ %l3 + 0x1d4 ], %o1
    65ac:	94 10 20 00 	clr  %o2
    65b0:	40 00 19 32 	call  ca78 <_dl_relocate_object>
    65b4:	96 10 20 00 	clr  %o3
    65b8:	03 00 00 00 	sethi  %hi(0), %g1
    65bc:	82 10 60 7c 	or  %g1, 0x7c, %g1	! 7c <GLIBC_2.0+0x7c>
    65c0:	c4 05 c0 01 	ld  [ %l7 + %g1 ], %g2
    65c4:	c6 00 80 00 	ld  [ %g2 ], %g3
    65c8:	80 a0 e0 00 	cmp  %g3, 0
    65cc:	02 80 00 a1 	be  6850 <dl_main+0x3610>
    65d0:	86 10 20 01 	mov  1, %g3
    65d4:	80 a4 e0 00 	cmp  %l3, 0
    65d8:	c6 27 bd 8c 	st  %g3, [ %fp + -628 ]
    65dc:	02 80 00 9d 	be  6850 <dl_main+0x3610>
    65e0:	aa 10 00 13 	mov  %l3, %l5
    65e4:	09 00 00 01 	sethi  %hi(0x400), %g4
    65e8:	88 11 23 c4 	or  %g4, 0x3c4, %g4	! 7c4 <GLIBC_2.0+0x7c4>
    65ec:	c8 27 bd 88 	st  %g4, [ %fp + -632 ]
    65f0:	c2 05 60 b4 	ld  [ %l5 + 0xb4 ], %g1
    65f4:	80 a0 60 00 	cmp  %g1, 0
    65f8:	02 80 00 92 	be  6840 <dl_main+0x3600>
    65fc:	d2 07 bd 8c 	ld  [ %fp + -628 ], %o1
    6600:	c2 00 60 04 	ld  [ %g1 + 4 ], %g1
    6604:	c6 05 60 34 	ld  [ %l5 + 0x34 ], %g3
    6608:	c4 05 40 00 	ld  [ %l5 ], %g2
    660c:	a8 00 80 01 	add  %g2, %g1, %l4
    6610:	80 a2 60 00 	cmp  %o1, 0
    6614:	02 80 00 08 	be  6634 <dl_main+0x33f4>
    6618:	ec 00 e0 04 	ld  [ %g3 + 4 ], %l6
    661c:	03 00 00 00 	sethi  %hi(0), %g1
    6620:	82 10 61 f4 	or  %g1, 0x1f4, %g1	! 1f4 <GLIBC_2.0+0x1f4>
    6624:	d2 05 c0 01 	ld  [ %l7 + %g1 ], %o1
    6628:	40 00 28 53 	call  10774 <_dl_dprintf>
    662c:	90 10 20 01 	mov  1, %o0
    6630:	c0 27 bd 8c 	clr  [ %fp + -628 ]
    6634:	c4 05 60 04 	ld  [ %l5 + 4 ], %g2
    6638:	c2 48 80 00 	ldsb  [ %g2 ], %g1
    663c:	80 a0 60 00 	cmp  %g1, 0
    6640:	12 80 00 07 	bne  665c <dl_main+0x341c>
    6644:	03 00 00 00 	sethi  %hi(0), %g1
    6648:	c4 07 bd 88 	ld  [ %fp + -632 ], %g2
    664c:	c2 05 c0 02 	ld  [ %l7 + %g2 ], %g1
    6650:	c4 00 40 00 	ld  [ %g1 ], %g2
    6654:	c4 00 80 00 	ld  [ %g2 ], %g2
    6658:	03 00 00 00 	sethi  %hi(0), %g1
    665c:	82 10 61 f8 	or  %g1, 0x1f8, %g1	! 1f8 <GLIBC_2.0+0x1f8>
    6660:	d2 05 c0 01 	ld  [ %l7 + %g1 ], %o1
    6664:	94 10 00 02 	mov  %g2, %o2
    6668:	40 00 28 43 	call  10774 <_dl_dprintf>
    666c:	90 10 20 01 	mov  1, %o0
    6670:	07 00 00 01 	sethi  %hi(0x400), %g3
    6674:	86 10 e3 b8 	or  %g3, 0x3b8, %g3	! 7b8 <GLIBC_2.0+0x7b8>
    6678:	c6 27 bd 84 	st  %g3, [ %fp + -636 ]
    667c:	c8 07 bd 84 	ld  [ %fp + -636 ], %g4
    6680:	c2 05 c0 04 	ld  [ %l7 + %g4 ], %g1
    6684:	c4 00 40 00 	ld  [ %g1 ], %g2
    6688:	a2 00 a1 64 	add  %g2, 0x164, %l1
    668c:	e0 04 60 04 	ld  [ %l1 + 4 ], %l0
    6690:	a0 04 3f ff 	add  %l0, -1, %l0
    6694:	e4 05 20 04 	ld  [ %l4 + 4 ], %l2
    6698:	80 a4 3f ff 	cmp  %l0, -1
    669c:	12 80 00 07 	bne  66b8 <dl_main+0x3478>
    66a0:	b2 04 80 16 	add  %l2, %l6, %i1
    66a4:	10 80 00 10 	b  66e4 <dl_main+0x34a4>
    66a8:	ba 10 20 00 	clr  %i5
    66ac:	80 a4 3f ff 	cmp  %l0, -1
    66b0:	22 80 00 62 	be,a   6838 <dl_main+0x35f8>
    66b4:	e4 05 20 04 	ld  [ %l4 + 4 ], %l2
    66b8:	c2 04 40 00 	ld  [ %l1 ], %g1
    66bc:	b5 2c 20 02 	sll  %l0, 2, %i2
    66c0:	d2 00 40 1a 	ld  [ %g1 + %i2 ], %o1
    66c4:	40 00 28 39 	call  107a8 <_dl_name_match_p>
    66c8:	90 10 00 19 	mov  %i1, %o0
    66cc:	80 a2 20 00 	cmp  %o0, 0
    66d0:	22 bf ff f7 	be,a   66ac <dl_main+0x346c>
    66d4:	a0 04 3f ff 	add  %l0, -1, %l0
    66d8:	c2 04 40 00 	ld  [ %l1 ], %g1
    66dc:	fa 00 40 1a 	ld  [ %g1 + %i2 ], %i5
    66e0:	e4 05 20 04 	ld  [ %l4 + 4 ], %l2
    66e4:	13 00 00 00 	sethi  %hi(0), %o1
    66e8:	05 00 00 00 	sethi  %hi(0), %g2
    66ec:	07 00 00 00 	sethi  %hi(0), %g3
    66f0:	09 00 00 00 	sethi  %hi(0), %g4
    66f4:	c2 05 20 08 	ld  [ %l4 + 8 ], %g1
    66f8:	92 12 61 fc 	or  %o1, 0x1fc, %o1
    66fc:	84 10 a2 00 	or  %g2, 0x200, %g2
    6700:	86 10 e0 e8 	or  %g3, 0xe8, %g3
    6704:	88 11 22 04 	or  %g4, 0x204, %g4
    6708:	b2 00 40 14 	add  %g1, %l4, %i1
    670c:	d2 27 bd 80 	st  %o1, [ %fp + -640 ]
    6710:	c4 27 bd 7c 	st  %g2, [ %fp + -644 ]
    6714:	c6 27 bd 78 	st  %g3, [ %fp + -648 ]
    6718:	80 a7 60 00 	cmp  %i5, 0
    671c:	02 80 00 2f 	be  67d8 <dl_main+0x3598>
    6720:	c8 27 bd 74 	st  %g4, [ %fp + -652 ]
    6724:	f0 06 60 08 	ld  [ %i1 + 8 ], %i0
    6728:	c2 07 60 34 	ld  [ %i5 + 0x34 ], %g1
    672c:	c4 07 60 bc 	ld  [ %i5 + 0xbc ], %g2
    6730:	f4 00 60 04 	ld  [ %g1 + 4 ], %i2
    6734:	80 a0 a0 00 	cmp  %g2, 0
    6738:	02 80 00 29 	be  67dc <dl_main+0x359c>
    673c:	a2 06 00 16 	add  %i0, %l6, %l1
    6740:	c4 00 a0 04 	ld  [ %g2 + 4 ], %g2
    6744:	c2 07 40 00 	ld  [ %i5 ], %g1
    6748:	10 80 00 06 	b  6760 <dl_main+0x3520>
    674c:	a0 00 40 02 	add  %g1, %g2, %l0
    6750:	80 a0 60 00 	cmp  %g1, 0
    6754:	02 80 00 23 	be  67e0 <dl_main+0x35a0>
    6758:	d2 07 bd 80 	ld  [ %fp + -640 ], %o1
    675c:	a0 04 00 01 	add  %l0, %g1, %l0
    6760:	c2 04 20 0c 	ld  [ %l0 + 0xc ], %g1
    6764:	d2 00 40 10 	ld  [ %g1 + %l0 ], %o1
    6768:	92 02 40 1a 	add  %o1, %i2, %o1
    676c:	40 00 44 fe 	call  17b64 <strcmp>
    6770:	90 10 00 11 	mov  %l1, %o0
    6774:	80 a2 20 00 	cmp  %o0, 0
    6778:	32 bf ff f6 	bne,a   6750 <dl_main+0x3510>
    677c:	c2 04 20 10 	ld  [ %l0 + 0x10 ], %g1
    6780:	c2 07 60 04 	ld  [ %i5 + 4 ], %g1
    6784:	9a 90 60 00 	orcc  %g1, 0, %o5
    6788:	02 80 00 15 	be  67dc <dl_main+0x359c>
    678c:	94 04 80 16 	add  %l2, %l6, %o2
    6790:	c2 16 60 04 	lduh  [ %i1 + 4 ], %g1
    6794:	80 88 60 02 	btst  2, %g1
    6798:	02 80 00 18 	be  67f8 <dl_main+0x35b8>
    679c:	96 06 00 16 	add  %i0, %l6, %o3
    67a0:	c2 07 bd 7c 	ld  [ %fp + -644 ], %g1
    67a4:	c6 07 bd 74 	ld  [ %fp + -652 ], %g3
    67a8:	d8 05 c0 01 	ld  [ %l7 + %g1 ], %o4
    67ac:	90 10 20 01 	mov  1, %o0
    67b0:	40 00 27 f1 	call  10774 <_dl_dprintf>
    67b4:	d2 05 c0 03 	ld  [ %l7 + %g3 ], %o1
    67b8:	c2 06 60 0c 	ld  [ %i1 + 0xc ], %g1
    67bc:	80 a0 60 00 	cmp  %g1, 0
    67c0:	22 80 00 19 	be,a   6824 <dl_main+0x35e4>
    67c4:	c2 05 20 0c 	ld  [ %l4 + 0xc ], %g1
    67c8:	b2 06 40 01 	add  %i1, %g1, %i1
    67cc:	80 a7 60 00 	cmp  %i5, 0
    67d0:	12 bf ff d5 	bne  6724 <dl_main+0x34e4>
    67d4:	e4 05 20 04 	ld  [ %l4 + 4 ], %l2
    67d8:	f0 06 60 08 	ld  [ %i1 + 8 ], %i0
    67dc:	d2 07 bd 80 	ld  [ %fp + -640 ], %o1
    67e0:	c2 16 60 04 	lduh  [ %i1 + 4 ], %g1
    67e4:	da 05 c0 09 	ld  [ %l7 + %o1 ], %o5
    67e8:	80 88 60 02 	btst  2, %g1
    67ec:	94 04 80 16 	add  %l2, %l6, %o2
    67f0:	12 bf ff ec 	bne  67a0 <dl_main+0x3560>
    67f4:	96 06 00 16 	add  %i0, %l6, %o3
    67f8:	c4 07 bd 78 	ld  [ %fp + -648 ], %g2
    67fc:	c6 07 bd 74 	ld  [ %fp + -652 ], %g3
    6800:	d8 05 c0 02 	ld  [ %l7 + %g2 ], %o4
    6804:	90 10 20 01 	mov  1, %o0
    6808:	40 00 27 db 	call  10774 <_dl_dprintf>
    680c:	d2 05 c0 03 	ld  [ %l7 + %g3 ], %o1
    6810:	c2 06 60 0c 	ld  [ %i1 + 0xc ], %g1
    6814:	80 a0 60 00 	cmp  %g1, 0
    6818:	32 bf ff ed 	bne,a   67cc <dl_main+0x358c>
    681c:	b2 06 40 01 	add  %i1, %g1, %i1
    6820:	c2 05 20 0c 	ld  [ %l4 + 0xc ], %g1
    6824:	80 a0 60 00 	cmp  %g1, 0
    6828:	02 80 00 06 	be  6840 <dl_main+0x3600>
    682c:	a8 05 00 01 	add  %l4, %g1, %l4
    6830:	10 bf ff 94 	b  6680 <dl_main+0x3440>
    6834:	c8 07 bd 84 	ld  [ %fp + -636 ], %g4
    6838:	10 bf ff ab 	b  66e4 <dl_main+0x34a4>
    683c:	ba 10 20 00 	clr  %i5
    6840:	ea 05 60 0c 	ld  [ %l5 + 0xc ], %l5
    6844:	80 a5 60 00 	cmp  %l5, 0
    6848:	32 bf ff 6b 	bne,a   65f4 <dl_main+0x33b4>
    684c:	c2 05 60 b4 	ld  [ %l5 + 0xb4 ], %g1
    6850:	40 00 43 0d 	call  17484 <_Exit>
    6854:	90 10 20 00 	clr  %o0
    6858:	10 bf f5 c6 	b  3f70 <dl_main+0xd30>
    685c:	d0 04 e1 44 	ld  [ %l3 + 0x144 ], %o0
    6860:	09 00 00 01 	sethi  %hi(0x400), %g4
    6864:	86 11 23 c0 	or  %g4, 0x3c0, %g3	! 7c0 <GLIBC_2.0+0x7c0>
    6868:	c2 05 c0 03 	ld  [ %l7 + %g3 ], %g1
    686c:	c4 00 40 00 	ld  [ %g1 ], %g2
    6870:	80 a0 a0 01 	cmp  %g2, 1
    6874:	08 bf ff f7 	bleu  6850 <dl_main+0x3610>
    6878:	a0 10 20 01 	mov  1, %l0
    687c:	13 00 00 01 	sethi  %hi(0x400), %o1
    6880:	82 12 63 c4 	or  %o1, 0x3c4, %g1	! 7c4 <GLIBC_2.0+0x7c4>
    6884:	23 00 00 00 	sethi  %hi(0), %l1
    6888:	ea 05 c0 01 	ld  [ %l7 + %g1 ], %l5
    688c:	a2 14 62 08 	or  %l1, 0x208, %l1
    6890:	a8 10 00 03 	mov  %g3, %l4
    6894:	c4 05 40 00 	ld  [ %l5 ], %g2
    6898:	c0 27 bd a8 	clr  [ %fp + -600 ]
    689c:	82 10 20 01 	mov  1, %g1
    68a0:	c2 23 a0 5c 	st  %g1, [ %sp + 0x5c ]
    68a4:	c0 23 a0 60 	clr  [ %sp + 0x60 ]
    68a8:	a5 2c 20 02 	sll  %l0, 2, %l2
    68ac:	d0 00 80 12 	ld  [ %g2 + %l2 ], %o0
    68b0:	92 10 00 13 	mov  %l3, %o1
    68b4:	94 07 bd a8 	add  %fp, -600, %o2
    68b8:	d6 04 e1 d4 	ld  [ %l3 + 0x1d4 ], %o3
    68bc:	98 10 20 00 	clr  %o4
    68c0:	40 00 13 45 	call  b5d4 <_dl_lookup_symbol_x>
    68c4:	9a 10 20 01 	mov  1, %o5
    68c8:	80 a2 20 00 	cmp  %o0, 0
    68cc:	02 80 00 03 	be  68d8 <dl_main+0x3698>
    68d0:	86 10 20 00 	clr  %g3
    68d4:	c6 02 00 00 	ld  [ %o0 ], %g3
    68d8:	c2 05 40 00 	ld  [ %l5 ], %g1
    68dc:	c4 07 bd a8 	ld  [ %fp + -600 ], %g2
    68e0:	c6 23 a0 5c 	st  %g3, [ %sp + 0x5c ]
    68e4:	d4 00 40 12 	ld  [ %g1 + %l2 ], %o2
    68e8:	d8 00 a0 04 	ld  [ %g2 + 4 ], %o4
    68ec:	90 10 20 01 	mov  1, %o0
    68f0:	d2 05 c0 11 	ld  [ %l7 + %l1 ], %o1
    68f4:	96 10 20 08 	mov  8, %o3
    68f8:	40 00 27 9f 	call  10774 <_dl_dprintf>
    68fc:	9a 10 20 08 	mov  8, %o5
    6900:	c4 05 c0 14 	ld  [ %l7 + %l4 ], %g2
    6904:	a0 04 20 01 	inc  %l0
    6908:	c2 00 80 00 	ld  [ %g2 ], %g1
    690c:	80 a0 40 10 	cmp  %g1, %l0
    6910:	38 bf ff e2 	bgu,a   6898 <dl_main+0x3658>
    6914:	c4 05 40 00 	ld  [ %l5 ], %g2
    6918:	30 bf ff ce 	b,a   6850 <dl_main+0x3610>
    691c:	82 10 61 e0 	or  %g1, 0x1e0, %g1
    6920:	d2 05 c0 01 	ld  [ %l7 + %g1 ], %o1
    6924:	40 00 27 94 	call  10774 <_dl_dprintf>
    6928:	90 10 20 01 	mov  1, %o0
    692c:	10 bf fe 13 	b  6178 <dl_main+0x2f38>
    6930:	a0 04 20 01 	inc  %l0
    6934:	90 10 20 01 	mov  1, %o0
    6938:	d2 05 c0 1a 	ld  [ %l7 + %i2 ], %o1
    693c:	d6 04 60 04 	ld  [ %l1 + 4 ], %o3
    6940:	98 10 20 08 	mov  8, %o4
    6944:	40 00 27 8c 	call  10774 <_dl_dprintf>
    6948:	da 04 61 b4 	ld  [ %l1 + 0x1b4 ], %o5
    694c:	10 bf fe e7 	b  64e8 <dl_main+0x32a8>
    6950:	e2 04 60 0c 	ld  [ %l1 + 0xc ], %l1
    6954:	d4 00 40 00 	ld  [ %g1 ], %o2
    6958:	90 10 20 01 	mov  1, %o0
    695c:	40 00 27 86 	call  10774 <_dl_dprintf>
    6960:	d2 05 c0 12 	ld  [ %l7 + %l2 ], %o1
    6964:	10 bf fe e1 	b  64e8 <dl_main+0x32a8>
    6968:	e2 04 60 0c 	ld  [ %l1 + 0xc ], %l1
    696c:	82 10 61 e8 	or  %g1, 0x1e8, %g1
    6970:	d2 05 c0 01 	ld  [ %l7 + %g1 ], %o1
    6974:	40 00 27 80 	call  10774 <_dl_dprintf>
    6978:	90 10 20 01 	mov  1, %o0
    697c:	10 bf fe 04 	b  618c <dl_main+0x2f4c>
    6980:	d8 07 bd dc 	ld  [ %fp + -548 ], %o4
    6984:	05 00 00 00 	sethi  %hi(0), %g2
    6988:	82 10 60 3c 	or  %g1, 0x3c, %g1
    698c:	c6 01 20 28 	ld  [ %g4 + 0x28 ], %g3
    6990:	84 10 a0 04 	or  %g2, 4, %g2
    6994:	d0 05 c0 01 	ld  [ %l7 + %g1 ], %o0
    6998:	c6 27 bd e4 	st  %g3, [ %fp + -540 ]
    699c:	e6 27 bd e0 	st  %l3, [ %fp + -544 ]
    69a0:	d2 05 c0 02 	ld  [ %l7 + %g2 ], %o1
    69a4:	40 00 23 5b 	call  f710 <_dl_receive_error>
    69a8:	94 07 bd e0 	add  %fp, -544, %o2
    69ac:	e2 04 e0 08 	ld  [ %l3 + 8 ], %l1
    69b0:	c2 04 40 00 	ld  [ %l1 ], %g1
    69b4:	80 a0 60 00 	cmp  %g1, 0
    69b8:	a0 10 00 13 	mov  %l3, %l0
    69bc:	02 80 00 0e 	be  69f4 <dl_main+0x37b4>
    69c0:	aa 10 20 01 	mov  1, %l5
    69c4:	25 00 00 00 	sethi  %hi(0), %l2
    69c8:	29 00 00 00 	sethi  %hi(0), %l4
    69cc:	a4 14 a2 0c 	or  %l2, 0x20c, %l2
    69d0:	a8 15 22 10 	or  %l4, 0x210, %l4
    69d4:	80 a0 60 01 	cmp  %g1, 1
    69d8:	22 80 00 0b 	be,a   6a04 <dl_main+0x37c4>
    69dc:	e0 04 20 0c 	ld  [ %l0 + 0xc ], %l0
    69e0:	a2 04 60 08 	add  %l1, 8, %l1
    69e4:	c2 04 40 00 	ld  [ %l1 ], %g1
    69e8:	80 a0 60 00 	cmp  %g1, 0
    69ec:	12 bf ff fb 	bne  69d8 <dl_main+0x3798>
    69f0:	80 a0 60 01 	cmp  %g1, 1
    69f4:	40 00 42 a4 	call  17484 <_Exit>
    69f8:	90 1d 60 01 	xor  %l5, 1, %o0
    69fc:	10 bf fd e4 	b  618c <dl_main+0x2f4c>
    6a00:	d8 07 bd dc 	ld  [ %fp + -548 ], %o4
    6a04:	c2 04 21 94 	ld  [ %l0 + 0x194 ], %g1
    6a08:	83 30 60 14 	srl  %g1, 0x14, %g1
    6a0c:	80 88 60 01 	btst  1, %g1
    6a10:	32 bf ff f5 	bne,a   69e4 <dl_main+0x37a4>
    6a14:	a2 04 60 08 	add  %l1, 8, %l1
    6a18:	80 a5 60 00 	cmp  %l5, 0
    6a1c:	02 80 00 06 	be  6a34 <dl_main+0x37f4>
    6a20:	90 10 20 01 	mov  1, %o0
    6a24:	40 00 27 54 	call  10774 <_dl_dprintf>
    6a28:	d2 05 c0 12 	ld  [ %l7 + %l2 ], %o1
    6a2c:	aa 10 20 00 	clr  %l5
    6a30:	90 10 20 01 	mov  1, %o0
    6a34:	d2 05 c0 14 	ld  [ %l7 + %l4 ], %o1
    6a38:	40 00 27 4f 	call  10774 <_dl_dprintf>
    6a3c:	d4 04 20 04 	ld  [ %l0 + 4 ], %o2
    6a40:	10 bf ff e9 	b  69e4 <dl_main+0x37a4>
    6a44:	a2 04 60 08 	add  %l1, 8, %l1
    6a48:	92 10 20 00 	clr  %o1
    6a4c:	40 00 25 a9 	call  100f0 <_dl_debug_initialize>
    6a50:	90 10 20 00 	clr  %o0
    6a54:	40 00 25 d6 	call  101ac <_dl_debug_state>
    6a58:	c0 22 20 0c 	clr  [ %o0 + 0xc ]
    6a5c:	40 00 10 e6 	call  adf4 <_dl_unload_cache>
    6a60:	01 00 00 00 	nop 
    6a64:	01 00 00 00 	nop 
    6a68:	81 c7 e0 08 	ret 
    6a6c:	81 e8 00 00 	restore 
    6a70:	01 00 00 00 	nop 
    6a74:	01 00 00 00 	nop 
    6a78:	01 00 00 00 	nop 
    6a7c:	01 00 00 00 	nop 

00006a80 <is_dst>:
is_dst():
    6a80:	9d e3 bf 90 	save  %sp, -112, %sp
    6a84:	c2 4e 40 00 	ldsb  [ %i1 ], %g1
    6a88:	80 a0 60 7b 	cmp  %g1, 0x7b
    6a8c:	9e 10 00 18 	mov  %i0, %o7
    6a90:	86 10 20 00 	clr  %g3
    6a94:	02 80 00 36 	be  6b6c <is_dst+0xec>
    6a98:	c2 0e 40 00 	ldub  [ %i1 ], %g1
    6a9c:	83 28 60 18 	sll  %g1, 0x18, %g1
    6aa0:	83 38 60 18 	sra  %g1, 0x18, %g1
    6aa4:	c4 4e 80 00 	ldsb  [ %i2 ], %g2
    6aa8:	80 a0 40 02 	cmp  %g1, %g2
    6aac:	02 80 00 1e 	be  6b24 <is_dst+0xa4>
    6ab0:	ba 10 20 00 	clr  %i5
    6ab4:	c2 0e 40 00 	ldub  [ %i1 ], %g1
    6ab8:	80 88 e0 ff 	btst  0xff, %g3
    6abc:	02 80 00 0a 	be  6ae4 <is_dst+0x64>
    6ac0:	83 28 60 18 	sll  %g1, 0x18, %g1
    6ac4:	83 38 60 18 	sra  %g1, 0x18, %g1
    6ac8:	b2 06 7f ff 	add  %i1, -1, %i1
    6acc:	ba 07 60 02 	add  %i5, 2, %i5
    6ad0:	80 a0 60 7d 	cmp  %g1, 0x7d
    6ad4:	12 80 00 3c 	bne  6bc4 <is_dst+0x144>
    6ad8:	b0 10 20 00 	clr  %i0
    6adc:	10 80 00 20 	b  6b5c <is_dst+0xdc>
    6ae0:	80 a7 20 00 	cmp  %i4, 0
    6ae4:	89 38 60 18 	sra  %g1, 0x18, %g4
    6ae8:	80 a0 00 04 	cmp  %g0, %g4
    6aec:	86 40 20 00 	addx  %g0, 0, %g3
    6af0:	82 19 20 2f 	xor  %g4, 0x2f, %g1
    6af4:	80 a0 00 01 	cmp  %g0, %g1
    6af8:	84 40 20 00 	addx  %g0, 0, %g2
    6afc:	80 88 c0 02 	btst  %g3, %g2
    6b00:	02 80 00 17 	be  6b5c <is_dst+0xdc>
    6b04:	80 a7 20 00 	cmp  %i4, 0
    6b08:	80 a6 e0 00 	cmp  %i3, 0
    6b0c:	02 80 00 2e 	be  6bc4 <is_dst+0x144>
    6b10:	b0 10 20 00 	clr  %i0
    6b14:	80 a1 20 3a 	cmp  %g4, 0x3a
    6b18:	02 80 00 11 	be  6b5c <is_dst+0xdc>
    6b1c:	80 a7 20 00 	cmp  %i4, 0
    6b20:	30 80 00 29 	b,a   6bc4 <is_dst+0x144>
    6b24:	80 a0 60 00 	cmp  %g1, 0
    6b28:	22 bf ff e4 	be,a   6ab8 <is_dst+0x38>
    6b2c:	c2 0e 40 00 	ldub  [ %i1 ], %g1
    6b30:	ba 07 60 01 	inc  %i5
    6b34:	c2 4e 80 1d 	ldsb  [ %i2 + %i5 ], %g1
    6b38:	c4 4e 40 1d 	ldsb  [ %i1 + %i5 ], %g2
    6b3c:	80 a0 80 01 	cmp  %g2, %g1
    6b40:	12 bf ff de 	bne  6ab8 <is_dst+0x38>
    6b44:	c2 0e 40 1d 	ldub  [ %i1 + %i5 ], %g1
    6b48:	80 a0 a0 00 	cmp  %g2, 0
    6b4c:	32 bf ff fa 	bne,a   6b34 <is_dst+0xb4>
    6b50:	ba 07 60 01 	inc  %i5
    6b54:	10 bf ff da 	b  6abc <is_dst+0x3c>
    6b58:	80 88 e0 ff 	btst  0xff, %g3
    6b5c:	32 80 00 08 	bne,a   6b7c <is_dst+0xfc>
    6b60:	c2 4e 40 1d 	ldsb  [ %i1 + %i5 ], %g1
    6b64:	10 80 00 18 	b  6bc4 <is_dst+0x144>
    6b68:	b0 10 00 1d 	mov  %i5, %i0
    6b6c:	b2 06 60 01 	inc  %i1
    6b70:	86 10 20 01 	mov  1, %g3
    6b74:	10 bf ff ca 	b  6a9c <is_dst+0x1c>
    6b78:	c2 0e 40 00 	ldub  [ %i1 ], %g1
    6b7c:	80 a0 60 00 	cmp  %g1, 0
    6b80:	22 80 00 08 	be,a   6ba0 <is_dst+0x120>
    6b84:	82 03 e0 01 	add  %o7, 1, %g1
    6b88:	80 a6 e0 00 	cmp  %i3, 0
    6b8c:	02 80 00 0e 	be  6bc4 <is_dst+0x144>
    6b90:	b0 10 20 00 	clr  %i0
    6b94:	80 a0 60 3a 	cmp  %g1, 0x3a
    6b98:	12 80 00 0b 	bne  6bc4 <is_dst+0x144>
    6b9c:	82 03 e0 01 	add  %o7, 1, %g1
    6ba0:	80 a0 40 19 	cmp  %g1, %i1
    6ba4:	02 bf ff f0 	be  6b64 <is_dst+0xe4>
    6ba8:	80 a6 e0 00 	cmp  %i3, 0
    6bac:	02 80 00 06 	be  6bc4 <is_dst+0x144>
    6bb0:	b0 10 20 00 	clr  %i0
    6bb4:	c2 4e 7f fe 	ldsb  [ %i1 + -2 ], %g1
    6bb8:	80 a0 60 3a 	cmp  %g1, 0x3a
    6bbc:	22 80 00 02 	be,a   6bc4 <is_dst+0x144>
    6bc0:	b0 10 00 1d 	mov  %i5, %i0
    6bc4:	81 c7 e0 08 	ret 
    6bc8:	81 e8 00 00 	restore 
    6bcc:	81 c3 e0 08 	retl 
    6bd0:	ae 03 c0 17 	add  %o7, %l7, %l7

00006bd4 <_dl_dst_count>:
_dl_dst_count():
    6bd4:	9d e3 bf 90 	save  %sp, -112, %sp
    6bd8:	03 00 00 01 	sethi  %hi(0x400), %g1
    6bdc:	2f 00 00 a5 	sethi  %hi(0x29400), %l7
    6be0:	7f ff ff fb 	call  6bcc <is_dst+0x14c>
    6be4:	ae 05 e0 20 	add  %l7, 0x20, %l7	! 29420 <dummy_bucket.4+0xb1bc>
    6be8:	82 10 63 a4 	or  %g1, 0x3a4, %g1
    6bec:	25 00 00 00 	sethi  %hi(0), %l2
    6bf0:	27 00 00 00 	sethi  %hi(0), %l3
    6bf4:	2b 00 00 00 	sethi  %hi(0), %l5
    6bf8:	e8 05 c0 01 	ld  [ %l7 + %g1 ], %l4
    6bfc:	a4 14 a2 60 	or  %l2, 0x260, %l2
    6c00:	a6 14 e2 64 	or  %l3, 0x264, %l3
    6c04:	aa 15 62 68 	or  %l5, 0x268, %l5
    6c08:	a0 10 00 18 	mov  %i0, %l0
    6c0c:	a2 10 20 00 	clr  %l1
    6c10:	b0 06 20 01 	inc  %i0
    6c14:	92 10 00 18 	mov  %i0, %o1
    6c18:	96 10 00 19 	mov  %i1, %o3
    6c1c:	d8 05 00 00 	ld  [ %l4 ], %o4
    6c20:	d4 05 c0 12 	ld  [ %l7 + %l2 ], %o2
    6c24:	7f ff ff 97 	call  6a80 <is_dst>
    6c28:	90 10 00 10 	mov  %l0, %o0
    6c2c:	82 10 00 08 	mov  %o0, %g1
    6c30:	92 10 00 18 	mov  %i0, %o1
    6c34:	96 10 00 19 	mov  %i1, %o3
    6c38:	98 10 20 00 	clr  %o4
    6c3c:	80 a0 60 00 	cmp  %g1, 0
    6c40:	02 80 00 0a 	be  6c68 <_dl_dst_count+0x94>
    6c44:	90 10 00 10 	mov  %l0, %o0
    6c48:	a2 04 60 01 	inc  %l1
    6c4c:	90 06 00 01 	add  %i0, %g1, %o0
    6c50:	40 00 42 f5 	call  17824 <index>
    6c54:	92 10 20 24 	mov  0x24, %o1
    6c58:	b0 92 20 00 	orcc  %o0, 0, %i0
    6c5c:	32 bf ff ee 	bne,a   6c14 <_dl_dst_count+0x40>
    6c60:	b0 06 20 01 	inc  %i0
    6c64:	30 80 00 11 	b,a   6ca8 <_dl_dst_count+0xd4>
    6c68:	7f ff ff 86 	call  6a80 <is_dst>
    6c6c:	d4 05 c0 13 	ld  [ %l7 + %l3 ], %o2
    6c70:	82 10 00 08 	mov  %o0, %g1
    6c74:	92 10 00 18 	mov  %i0, %o1
    6c78:	96 10 00 19 	mov  %i1, %o3
    6c7c:	98 10 20 00 	clr  %o4
    6c80:	80 a0 60 00 	cmp  %g1, 0
    6c84:	12 bf ff f1 	bne  6c48 <_dl_dst_count+0x74>
    6c88:	90 10 00 10 	mov  %l0, %o0
    6c8c:	7f ff ff 7d 	call  6a80 <is_dst>
    6c90:	d4 05 c0 15 	ld  [ %l7 + %l5 ], %o2
    6c94:	82 92 20 00 	orcc  %o0, 0, %g1
    6c98:	02 bf ff ee 	be  6c50 <_dl_dst_count+0x7c>
    6c9c:	90 06 00 01 	add  %i0, %g1, %o0
    6ca0:	10 bf ff ec 	b  6c50 <_dl_dst_count+0x7c>
    6ca4:	a2 04 60 01 	inc  %l1
    6ca8:	81 c7 e0 08 	ret 
    6cac:	91 e8 00 11 	restore  %g0, %l1, %o0

00006cb0 <_dl_dst_substitute>:
_dl_dst_substitute():
    6cb0:	9d e3 bf 90 	save  %sp, -112, %sp
    6cb4:	03 00 00 01 	sethi  %hi(0x400), %g1
    6cb8:	2f 00 00 a4 	sethi  %hi(0x29000), %l7
    6cbc:	7f ff ff c4 	call  6bcc <is_dst+0x14c>
    6cc0:	ae 05 e3 44 	add  %l7, 0x344, %l7	! 29344 <dummy_bucket.4+0xb0e0>
    6cc4:	82 10 63 a4 	or  %g1, 0x3a4, %g1
    6cc8:	23 00 00 01 	sethi  %hi(0x400), %l1
    6ccc:	ea 05 c0 01 	ld  [ %l7 + %g1 ], %l5
    6cd0:	a2 14 63 dc 	or  %l1, 0x3dc, %l1
    6cd4:	a6 10 00 19 	mov  %i1, %l3
    6cd8:	a0 10 00 1a 	mov  %i2, %l0
    6cdc:	a4 10 00 1a 	mov  %i2, %l2
    6ce0:	10 80 00 0a 	b  6d08 <_dl_dst_substitute+0x58>
    6ce4:	c4 0e 40 00 	ldub  [ %i1 ], %g2
    6ce8:	c2 4e 40 00 	ldsb  [ %i1 ], %g1
    6cec:	80 a0 60 3a 	cmp  %g1, 0x3a
    6cf0:	02 80 00 16 	be  6d48 <_dl_dst_substitute+0x98>
    6cf4:	c4 0e 40 00 	ldub  [ %i1 ], %g2
    6cf8:	83 28 a0 18 	sll  %g2, 0x18, %g1
    6cfc:	80 a0 60 00 	cmp  %g1, 0
    6d00:	22 80 00 64 	be,a   6e90 <_dl_dst_substitute+0x1e0>
    6d04:	c0 2c 00 00 	clrb  [ %l0 ]
    6d08:	83 28 a0 18 	sll  %g2, 0x18, %g1
    6d0c:	83 38 60 18 	sra  %g1, 0x18, %g1
    6d10:	80 a0 60 24 	cmp  %g1, 0x24
    6d14:	02 80 00 0f 	be  6d50 <_dl_dst_substitute+0xa0>
    6d18:	80 a6 e0 00 	cmp  %i3, 0
    6d1c:	c4 2c 00 00 	stb  %g2, [ %l0 ]
    6d20:	b2 06 60 01 	inc  %i1
    6d24:	12 bf ff f1 	bne  6ce8 <_dl_dst_substitute+0x38>
    6d28:	a0 04 20 01 	inc  %l0
    6d2c:	c4 0e 40 00 	ldub  [ %i1 ], %g2
    6d30:	83 28 a0 18 	sll  %g2, 0x18, %g1
    6d34:	80 a0 60 00 	cmp  %g1, 0
    6d38:	12 bf ff f6 	bne  6d10 <_dl_dst_substitute+0x60>
    6d3c:	83 38 60 18 	sra  %g1, 0x18, %g1
    6d40:	10 80 00 54 	b  6e90 <_dl_dst_substitute+0x1e0>
    6d44:	c0 2c 00 00 	clrb  [ %l0 ]
    6d48:	10 bf ff ec 	b  6cf8 <_dl_dst_substitute+0x48>
    6d4c:	a4 10 00 10 	mov  %l0, %l2
    6d50:	03 00 00 00 	sethi  %hi(0), %g1
    6d54:	82 10 62 60 	or  %g1, 0x260, %g1	! 260 <GLIBC_2.0+0x260>
    6d58:	b2 06 60 01 	inc  %i1
    6d5c:	d4 05 c0 01 	ld  [ %l7 + %g1 ], %o2
    6d60:	90 10 00 13 	mov  %l3, %o0
    6d64:	92 10 00 19 	mov  %i1, %o1
    6d68:	96 10 00 1b 	mov  %i3, %o3
    6d6c:	7f ff ff 45 	call  6a80 <is_dst>
    6d70:	d8 05 40 00 	ld  [ %l5 ], %o4
    6d74:	88 92 20 00 	orcc  %o0, 0, %g4
    6d78:	02 80 00 29 	be  6e1c <_dl_dst_substitute+0x16c>
    6d7c:	a8 10 20 00 	clr  %l4
    6d80:	e8 06 21 b0 	ld  [ %i0 + 0x1b0 ], %l4
    6d84:	80 a0 00 14 	cmp  %g0, %l4
    6d88:	82 40 20 00 	addx  %g0, 0, %g1
    6d8c:	84 38 00 14 	xnor  %g0, %l4, %g2
    6d90:	80 a0 00 02 	cmp  %g0, %g2
    6d94:	86 40 20 00 	addx  %g0, 0, %g3
    6d98:	80 88 40 03 	btst  %g1, %g3
    6d9c:	12 80 00 19 	bne  6e00 <_dl_dst_substitute+0x150>
    6da0:	80 a1 20 01 	cmp  %g4, 1
    6da4:	28 80 00 13 	bleu,a   6df0 <_dl_dst_substitute+0x140>
    6da8:	82 10 20 24 	mov  0x24, %g1
    6dac:	b2 06 40 04 	add  %i1, %g4, %i1
    6db0:	c2 4e 40 00 	ldsb  [ %i1 ], %g1
    6db4:	80 a0 60 00 	cmp  %g1, 0
    6db8:	10 80 00 04 	b  6dc8 <_dl_dst_substitute+0x118>
    6dbc:	a0 10 00 12 	mov  %l2, %l0
    6dc0:	c2 4e 40 00 	ldsb  [ %i1 ], %g1
    6dc4:	80 a0 60 00 	cmp  %g1, 0
    6dc8:	02 80 00 31 	be  6e8c <_dl_dst_substitute+0x1dc>
    6dcc:	c4 0e 40 00 	ldub  [ %i1 ], %g2
    6dd0:	80 a6 e0 00 	cmp  %i3, 0
    6dd4:	22 bf ff fb 	be,a   6dc0 <_dl_dst_substitute+0x110>
    6dd8:	b2 06 60 01 	inc  %i1
    6ddc:	80 a0 60 3a 	cmp  %g1, 0x3a
    6de0:	32 bf ff f8 	bne,a   6dc0 <_dl_dst_substitute+0x110>
    6de4:	b2 06 60 01 	inc  %i1
    6de8:	10 bf ff c5 	b  6cfc <_dl_dst_substitute+0x4c>
    6dec:	83 28 a0 18 	sll  %g2, 0x18, %g1
    6df0:	c2 2c 00 00 	stb  %g1, [ %l0 ]
    6df4:	a0 04 20 01 	inc  %l0
    6df8:	10 bf ff ce 	b  6d30 <_dl_dst_substitute+0x80>
    6dfc:	c4 0e 40 00 	ldub  [ %i1 ], %g2
    6e00:	90 10 00 10 	mov  %l0, %o0
    6e04:	b2 06 40 04 	add  %i1, %g4, %i1
    6e08:	40 00 46 58 	call  18768 <__stpcpy>
    6e0c:	92 10 00 14 	mov  %l4, %o1
    6e10:	a0 10 00 08 	mov  %o0, %l0
    6e14:	10 bf ff c7 	b  6d30 <_dl_dst_substitute+0x80>
    6e18:	c4 0e 40 00 	ldub  [ %i1 ], %g2
    6e1c:	03 00 00 00 	sethi  %hi(0), %g1
    6e20:	82 10 62 64 	or  %g1, 0x264, %g1	! 264 <GLIBC_2.0+0x264>
    6e24:	d4 05 c0 01 	ld  [ %l7 + %g1 ], %o2
    6e28:	90 10 00 13 	mov  %l3, %o0
    6e2c:	92 10 00 19 	mov  %i1, %o1
    6e30:	96 10 00 1b 	mov  %i3, %o3
    6e34:	7f ff ff 13 	call  6a80 <is_dst>
    6e38:	98 10 20 00 	clr  %o4
    6e3c:	88 92 20 00 	orcc  %o0, 0, %g4
    6e40:	02 80 00 05 	be  6e54 <_dl_dst_substitute+0x1a4>
    6e44:	03 00 00 00 	sethi  %hi(0), %g1
    6e48:	c2 05 c0 11 	ld  [ %l7 + %l1 ], %g1
    6e4c:	10 bf ff ce 	b  6d84 <_dl_dst_substitute+0xd4>
    6e50:	e8 00 60 0c 	ld  [ %g1 + 0xc ], %l4
    6e54:	82 10 62 68 	or  %g1, 0x268, %g1
    6e58:	d4 05 c0 01 	ld  [ %l7 + %g1 ], %o2
    6e5c:	90 10 00 13 	mov  %l3, %o0
    6e60:	92 10 00 19 	mov  %i1, %o1
    6e64:	96 10 00 1b 	mov  %i3, %o3
    6e68:	7f ff ff 06 	call  6a80 <is_dst>
    6e6c:	98 10 20 00 	clr  %o4
    6e70:	88 92 20 00 	orcc  %o0, 0, %g4
    6e74:	02 bf ff c5 	be  6d88 <_dl_dst_substitute+0xd8>
    6e78:	80 a0 00 14 	cmp  %g0, %l4
    6e7c:	03 00 00 00 	sethi  %hi(0), %g1
    6e80:	82 10 62 6c 	or  %g1, 0x26c, %g1	! 26c <GLIBC_2.0+0x26c>
    6e84:	10 bf ff c0 	b  6d84 <_dl_dst_substitute+0xd4>
    6e88:	e8 05 c0 01 	ld  [ %l7 + %g1 ], %l4
    6e8c:	c0 2c 00 00 	clrb  [ %l0 ]
    6e90:	81 c7 e0 08 	ret 
    6e94:	91 e8 00 1a 	restore  %g0, %i2, %o0

00006e98 <expand_dynamic_string_token>:
expand_dynamic_string_token():
    6e98:	9d e3 bf 90 	save  %sp, -112, %sp
    6e9c:	2f 00 00 a4 	sethi  %hi(0x29000), %l7
    6ea0:	7f ff ff 4b 	call  6bcc <is_dst+0x14c>
    6ea4:	ae 05 e1 60 	add  %l7, 0x160, %l7	! 29160 <dummy_bucket.4+0xaefc>
    6ea8:	90 10 00 19 	mov  %i1, %o0
    6eac:	40 00 42 5e 	call  17824 <index>
    6eb0:	92 10 20 24 	mov  0x24, %o1
    6eb4:	80 a2 20 00 	cmp  %o0, 0
    6eb8:	12 80 00 10 	bne  6ef8 <expand_dynamic_string_token+0x60>
    6ebc:	01 00 00 00 	nop 
    6ec0:	40 00 43 f0 	call  17e80 <strlen>
    6ec4:	90 10 00 19 	mov  %i1, %o0
    6ec8:	b6 02 20 01 	add  %o0, 1, %i3
    6ecc:	40 00 a6 60 	call  3084c <malloc@plt>
    6ed0:	90 10 00 1b 	mov  %i3, %o0
    6ed4:	80 a2 20 00 	cmp  %o0, 0
    6ed8:	02 80 00 06 	be  6ef0 <expand_dynamic_string_token+0x58>
    6edc:	b0 10 20 00 	clr  %i0
    6ee0:	92 10 00 19 	mov  %i1, %o1
    6ee4:	40 00 48 19 	call  18f48 <memcpy>
    6ee8:	94 10 00 1b 	mov  %i3, %o2
    6eec:	b0 10 00 08 	mov  %o0, %i0
    6ef0:	10 80 00 42 	b  6ff8 <expand_dynamic_string_token+0x160>
    6ef4:	90 10 00 18 	mov  %i0, %o0
    6ef8:	7f ff ff 37 	call  6bd4 <_dl_dst_count>
    6efc:	92 10 20 01 	mov  1, %o1
    6f00:	b6 92 20 00 	orcc  %o0, 0, %i3
    6f04:	02 bf ff ef 	be  6ec0 <expand_dynamic_string_token+0x28>
    6f08:	01 00 00 00 	nop 
    6f0c:	40 00 43 dd 	call  17e80 <strlen>
    6f10:	90 10 00 19 	mov  %i1, %o0
    6f14:	b4 10 00 08 	mov  %o0, %i2
    6f18:	d0 06 21 b0 	ld  [ %i0 + 0x1b0 ], %o0
    6f1c:	80 a2 20 00 	cmp  %o0, 0
    6f20:	12 80 00 30 	bne  6fe0 <expand_dynamic_string_token+0x148>
    6f24:	80 a2 3f ff 	cmp  %o0, -1
    6f28:	c2 06 20 04 	ld  [ %i0 + 4 ], %g1
    6f2c:	c4 48 40 00 	ldsb  [ %g1 ], %g2
    6f30:	80 a0 a0 00 	cmp  %g2, 0
    6f34:	12 80 00 21 	bne  6fb8 <expand_dynamic_string_token+0x120>
    6f38:	03 00 00 00 	sethi  %hi(0), %g1
    6f3c:	40 00 30 5c 	call  130ac <_dl_get_origin>
    6f40:	01 00 00 00 	nop 
    6f44:	80 a0 00 08 	cmp  %g0, %o0
    6f48:	88 40 20 00 	addx  %g0, 0, %g4
    6f4c:	82 38 00 08 	xnor  %g0, %o0, %g1
    6f50:	80 a0 00 01 	cmp  %g0, %g1
    6f54:	84 40 20 00 	addx  %g0, 0, %g2
    6f58:	80 89 00 02 	btst  %g4, %g2
    6f5c:	d0 26 21 b0 	st  %o0, [ %i0 + 0x1b0 ]
    6f60:	02 80 00 05 	be  6f74 <expand_dynamic_string_token+0xdc>
    6f64:	86 10 20 00 	clr  %g3
    6f68:	40 00 43 c6 	call  17e80 <strlen>
    6f6c:	01 00 00 00 	nop 
    6f70:	86 10 00 08 	mov  %o0, %g3
    6f74:	03 00 00 01 	sethi  %hi(0x400), %g1
    6f78:	82 10 63 dc 	or  %g1, 0x3dc, %g1	! 7dc <GLIBC_2.0+0x7dc>
    6f7c:	c4 05 c0 01 	ld  [ %l7 + %g1 ], %g2
    6f80:	c2 00 a0 10 	ld  [ %g2 + 0x10 ], %g1
    6f84:	80 a0 40 03 	cmp  %g1, %g3
    6f88:	2a 80 00 02 	bcs,a   6f90 <expand_dynamic_string_token+0xf8>
    6f8c:	82 10 00 03 	mov  %g3, %g1
    6f90:	82 00 7f f9 	add  %g1, -7, %g1
    6f94:	82 58 40 1b 	smul  %g1, %i3, %g1
    6f98:	b4 06 80 01 	add  %i2, %g1, %i2
    6f9c:	40 00 a6 2c 	call  3084c <malloc@plt>
    6fa0:	90 06 a0 01 	add  %i2, 1, %o0
    6fa4:	b4 92 20 00 	orcc  %o0, 0, %i2
    6fa8:	02 80 00 14 	be  6ff8 <expand_dynamic_string_token+0x160>
    6fac:	90 10 20 00 	clr  %o0
    6fb0:	10 bf ff 40 	b  6cb0 <_dl_dst_substitute>
    6fb4:	97 e8 20 01 	restore  %g0, 1, %o3
    6fb8:	05 00 00 00 	sethi  %hi(0), %g2
    6fbc:	07 00 00 00 	sethi  %hi(0), %g3
    6fc0:	82 10 62 70 	or  %g1, 0x270, %g1
    6fc4:	84 10 a2 74 	or  %g2, 0x274, %g2
    6fc8:	86 10 e2 1c 	or  %g3, 0x21c, %g3
    6fcc:	d0 05 c0 01 	ld  [ %l7 + %g1 ], %o0
    6fd0:	d2 05 c0 02 	ld  [ %l7 + %g2 ], %o1
    6fd4:	d6 05 c0 03 	ld  [ %l7 + %g3 ], %o3
    6fd8:	40 00 3c af 	call  16294 <__GI___assert_fail>
    6fdc:	94 10 21 53 	mov  0x153, %o2
    6fe0:	02 bf ff e5 	be  6f74 <expand_dynamic_string_token+0xdc>
    6fe4:	86 10 20 00 	clr  %g3
    6fe8:	40 00 43 a6 	call  17e80 <strlen>
    6fec:	01 00 00 00 	nop 
    6ff0:	10 bf ff e1 	b  6f74 <expand_dynamic_string_token+0xdc>
    6ff4:	86 10 00 08 	mov  %o0, %g3
    6ff8:	81 c7 e0 08 	ret 
    6ffc:	91 e8 00 08 	restore  %g0, %o0, %o0

00007000 <add_name_to_object>:
add_name_to_object():
    7000:	9d e3 bf 90 	save  %sp, -112, %sp
    7004:	d2 06 20 1c 	ld  [ %i0 + 0x1c ], %o1
    7008:	2f 00 00 a3 	sethi  %hi(0x28c00), %l7
    700c:	7f ff fe f0 	call  6bcc <is_dst+0x14c>
    7010:	ae 05 e3 f4 	add  %l7, 0x3f4, %l7	! 28ff4 <dummy_bucket.4+0xad90>
    7014:	80 a2 60 00 	cmp  %o1, 0
    7018:	02 80 00 0d 	be  704c <add_name_to_object+0x4c>
    701c:	a0 10 20 00 	clr  %l0
    7020:	a0 10 00 09 	mov  %o1, %l0
    7024:	d2 02 40 00 	ld  [ %o1 ], %o1
    7028:	40 00 42 cf 	call  17b64 <strcmp>
    702c:	90 10 00 19 	mov  %i1, %o0
    7030:	80 a2 20 00 	cmp  %o0, 0
    7034:	02 80 00 2b 	be  70e0 <add_name_to_object+0xe0>
    7038:	01 00 00 00 	nop 
    703c:	d2 04 20 04 	ld  [ %l0 + 4 ], %o1
    7040:	80 a2 60 00 	cmp  %o1, 0
    7044:	32 bf ff f8 	bne,a   7024 <add_name_to_object+0x24>
    7048:	a0 10 00 09 	mov  %o1, %l0
    704c:	40 00 43 8d 	call  17e80 <strlen>
    7050:	90 10 00 19 	mov  %i1, %o0
    7054:	82 10 00 08 	mov  %o0, %g1
    7058:	90 02 20 0d 	add  %o0, 0xd, %o0
    705c:	40 00 a5 fc 	call  3084c <malloc@plt>
    7060:	a2 00 60 01 	add  %g1, 1, %l1
    7064:	b0 92 20 00 	orcc  %o0, 0, %i0
    7068:	02 80 00 0c 	be  7098 <add_name_to_object+0x98>
    706c:	80 a4 20 00 	cmp  %l0, 0
    7070:	02 80 00 11 	be  70b4 <add_name_to_object+0xb4>
    7074:	92 10 00 19 	mov  %i1, %o1
    7078:	94 10 00 11 	mov  %l1, %o2
    707c:	40 00 47 b3 	call  18f48 <memcpy>
    7080:	90 06 20 0c 	add  %i0, 0xc, %o0
    7084:	c0 26 20 04 	clr  [ %i0 + 4 ]
    7088:	f0 24 20 04 	st  %i0, [ %l0 + 4 ]
    708c:	d0 26 00 00 	st  %o0, [ %i0 ]
    7090:	10 80 00 14 	b  70e0 <add_name_to_object+0xe0>
    7094:	c0 26 20 08 	clr  [ %i0 + 8 ]
    7098:	03 00 00 00 	sethi  %hi(0), %g1
    709c:	82 10 62 78 	or  %g1, 0x278, %g1	! 278 <GLIBC_2.0+0x278>
    70a0:	92 10 00 19 	mov  %i1, %o1
    70a4:	d6 05 c0 01 	ld  [ %l7 + %g1 ], %o3
    70a8:	90 10 20 0c 	mov  0xc, %o0
    70ac:	40 00 20 a2 	call  f334 <_dl_signal_error>
    70b0:	94 10 20 00 	clr  %o2
    70b4:	03 00 00 00 	sethi  %hi(0), %g1
    70b8:	05 00 00 00 	sethi  %hi(0), %g2
    70bc:	07 00 00 00 	sethi  %hi(0), %g3
    70c0:	82 10 62 7c 	or  %g1, 0x27c, %g1
    70c4:	84 10 a2 74 	or  %g2, 0x274, %g2
    70c8:	86 10 e2 20 	or  %g3, 0x220, %g3
    70cc:	d0 05 c0 01 	ld  [ %l7 + %g1 ], %o0
    70d0:	d2 05 c0 02 	ld  [ %l7 + %g2 ], %o1
    70d4:	d6 05 c0 03 	ld  [ %l7 + %g3 ], %o3
    70d8:	40 00 3c 6f 	call  16294 <__GI___assert_fail>
    70dc:	94 10 21 78 	mov  0x178, %o2
    70e0:	01 00 00 00 	nop 
    70e4:	81 c7 e0 08 	ret 
    70e8:	81 e8 00 00 	restore 

000070ec <fillin_rpath>:
fillin_rpath():
    70ec:	9d e3 bf 90 	save  %sp, -112, %sp
    70f0:	03 00 00 00 	sethi  %hi(0), %g1
    70f4:	05 00 00 00 	sethi  %hi(0), %g2
    70f8:	f0 27 a0 44 	st  %i0, [ %fp + 0x44 ]
    70fc:	2f 00 00 a3 	sethi  %hi(0x28c00), %l7
    7100:	7f ff fe b3 	call  6bcc <is_dst+0x14c>
    7104:	ae 05 e3 00 	add  %l7, 0x300, %l7	! 28f00 <dummy_bucket.4+0xac9c>
    7108:	82 10 62 28 	or  %g1, 0x228, %g1
    710c:	84 10 a2 14 	or  %g2, 0x214, %g2
    7110:	b0 10 00 19 	mov  %i1, %i0
    7114:	ec 05 c0 01 	ld  [ %l7 + %g1 ], %l6
    7118:	f2 05 c0 02 	ld  [ %l7 + %g2 ], %i1
    711c:	a8 10 20 00 	clr  %l4
    7120:	90 07 a0 44 	add  %fp, 0x44, %o0
    7124:	40 00 3e 06 	call  1693c <__strsep>
    7128:	92 10 00 1a 	mov  %i2, %o1
    712c:	a4 92 20 00 	orcc  %o0, 0, %l2
    7130:	02 80 00 b1 	be  73f4 <fillin_rpath+0x308>
    7134:	83 2d 20 02 	sll  %l4, 2, %g1
    7138:	40 00 43 52 	call  17e80 <strlen>
    713c:	01 00 00 00 	nop 
    7140:	a2 92 20 00 	orcc  %o0, 0, %l1
    7144:	12 80 00 05 	bne  7158 <fillin_rpath+0x6c>
    7148:	80 a4 60 01 	cmp  %l1, 1
    714c:	03 00 00 00 	sethi  %hi(0), %g1
    7150:	82 10 62 24 	or  %g1, 0x224, %g1	! 224 <GLIBC_2.0+0x224>
    7154:	e4 05 c0 01 	ld  [ %l7 + %g1 ], %l2
    7158:	08 80 00 0e 	bleu  7190 <fillin_rpath+0xa4>
    715c:	82 04 80 11 	add  %l2, %l1, %g1
    7160:	c4 48 7f ff 	ldsb  [ %g1 + -1 ], %g2
    7164:	80 a0 a0 2f 	cmp  %g2, 0x2f
    7168:	12 80 00 0b 	bne  7194 <fillin_rpath+0xa8>
    716c:	80 a4 60 00 	cmp  %l1, 0
    7170:	a2 04 7f ff 	add  %l1, -1, %l1
    7174:	80 a4 60 01 	cmp  %l1, 1
    7178:	08 80 00 06 	bleu  7190 <fillin_rpath+0xa4>
    717c:	82 04 80 11 	add  %l2, %l1, %g1
    7180:	c2 48 7f ff 	ldsb  [ %g1 + -1 ], %g1
    7184:	80 a0 60 2f 	cmp  %g1, 0x2f
    7188:	22 bf ff fb 	be,a   7174 <fillin_rpath+0x88>
    718c:	a2 04 7f ff 	add  %l1, -1, %l1
    7190:	80 a4 60 00 	cmp  %l1, 0
    7194:	02 80 00 0a 	be  71bc <fillin_rpath+0xd0>
    7198:	80 a6 e0 00 	cmp  %i3, 0
    719c:	82 04 80 11 	add  %l2, %l1, %g1
    71a0:	c4 48 7f ff 	ldsb  [ %g1 + -1 ], %g2
    71a4:	80 a0 a0 2f 	cmp  %g2, 0x2f
    71a8:	02 80 00 04 	be  71b8 <fillin_rpath+0xcc>
    71ac:	82 10 20 2f 	mov  0x2f, %g1
    71b0:	c2 2c 80 11 	stb  %g1, [ %l2 + %l1 ]
    71b4:	a2 04 60 01 	inc  %l1
    71b8:	80 a6 e0 00 	cmp  %i3, 0
    71bc:	12 80 00 74 	bne  738c <fillin_rpath+0x2a0>
    71c0:	2b 00 00 01 	sethi  %hi(0x400), %l5
    71c4:	82 15 63 b8 	or  %l5, 0x3b8, %g1	! 7b8 <GLIBC_2.0+0x7b8>
    71c8:	c4 05 c0 01 	ld  [ %l7 + %g1 ], %g2
    71cc:	e0 00 a2 f0 	ld  [ %g2 + 0x2f0 ], %l0
    71d0:	80 a4 20 00 	cmp  %l0, 0
    71d4:	02 80 00 0c 	be  7204 <fillin_rpath+0x118>
    71d8:	80 a7 60 00 	cmp  %i5, 0
    71dc:	c2 04 20 10 	ld  [ %l0 + 0x10 ], %g1
    71e0:	90 10 00 12 	mov  %l2, %o0
    71e4:	80 a0 40 11 	cmp  %g1, %l1
    71e8:	02 80 00 49 	be  730c <fillin_rpath+0x220>
    71ec:	94 10 00 11 	mov  %l1, %o2
    71f0:	e0 04 00 00 	ld  [ %l0 ], %l0
    71f4:	80 a4 20 00 	cmp  %l0, 0
    71f8:	32 bf ff fa 	bne,a   71e0 <fillin_rpath+0xf4>
    71fc:	c2 04 20 10 	ld  [ %l0 + 0x10 ], %g1
    7200:	80 a7 60 00 	cmp  %i5, 0
    7204:	02 80 00 05 	be  7218 <fillin_rpath+0x12c>
    7208:	a6 10 20 00 	clr  %l3
    720c:	40 00 43 1d 	call  17e80 <strlen>
    7210:	90 10 00 1d 	mov  %i5, %o0
    7214:	a6 02 20 01 	add  %o0, 1, %l3
    7218:	d0 05 80 00 	ld  [ %l6 ], %o0
    721c:	91 2a 20 02 	sll  %o0, 2, %o0
    7220:	90 02 00 13 	add  %o0, %l3, %o0
    7224:	90 02 00 11 	add  %o0, %l1, %o0
    7228:	40 00 a5 89 	call  3084c <malloc@plt>
    722c:	90 02 20 15 	add  %o0, 0x15, %o0
    7230:	a0 92 20 00 	orcc  %o0, 0, %l0
    7234:	02 80 00 68 	be  73d4 <fillin_rpath+0x2e8>
    7238:	03 00 00 00 	sethi  %hi(0), %g1
    723c:	d0 05 80 00 	ld  [ %l6 ], %o0
    7240:	91 2a 20 02 	sll  %o0, 2, %o0
    7244:	90 02 00 10 	add  %o0, %l0, %o0
    7248:	90 02 20 14 	add  %o0, 0x14, %o0
    724c:	d0 24 20 0c 	st  %o0, [ %l0 + 0xc ]
    7250:	92 10 00 12 	mov  %l2, %o1
    7254:	40 00 45 1a 	call  186bc <__mempcpy>
    7258:	94 10 00 11 	mov  %l1, %o2
    725c:	03 00 00 00 	sethi  %hi(0), %g1
    7260:	82 10 62 2c 	or  %g1, 0x22c, %g1	! 22c <GLIBC_2.0+0x22c>
    7264:	c0 2a 00 00 	clrb  [ %o0 ]
    7268:	c2 05 c0 01 	ld  [ %l7 + %g1 ], %g1
    726c:	c4 00 40 00 	ld  [ %g1 ], %g2
    7270:	80 a4 40 02 	cmp  %l1, %g2
    7274:	08 80 00 03 	bleu  7280 <fillin_rpath+0x194>
    7278:	e2 24 20 10 	st  %l1, [ %l0 + 0x10 ]
    727c:	e2 20 40 00 	st  %l1, [ %g1 ]
    7280:	c2 4c 80 00 	ldsb  [ %l2 ], %g1
    7284:	82 18 60 2f 	xor  %g1, 0x2f, %g1
    7288:	80 a0 00 01 	cmp  %g0, %g1
    728c:	84 40 20 00 	addx  %g0, 0, %g2
    7290:	c2 05 80 00 	ld  [ %l6 ], %g1
    7294:	80 a0 60 00 	cmp  %g1, 0
    7298:	02 80 00 08 	be  72b8 <fillin_rpath+0x1cc>
    729c:	84 00 80 02 	add  %g2, %g2, %g2
    72a0:	86 10 00 01 	mov  %g1, %g3
    72a4:	82 04 20 14 	add  %l0, 0x14, %g1
    72a8:	c4 20 40 00 	st  %g2, [ %g1 ]
    72ac:	86 80 ff ff 	addcc  %g3, -1, %g3
    72b0:	12 bf ff fe 	bne  72a8 <fillin_rpath+0x1bc>
    72b4:	82 00 60 04 	add  %g1, 4, %g1
    72b8:	80 a7 60 00 	cmp  %i5, 0
    72bc:	02 80 00 4c 	be  73ec <fillin_rpath+0x300>
    72c0:	f8 24 20 04 	st  %i4, [ %l0 + 4 ]
    72c4:	03 00 00 00 	sethi  %hi(0), %g1
    72c8:	82 10 62 28 	or  %g1, 0x228, %g1	! 228 <GLIBC_2.0+0x228>
    72cc:	c4 05 c0 01 	ld  [ %l7 + %g1 ], %g2
    72d0:	d0 00 80 00 	ld  [ %g2 ], %o0
    72d4:	91 2a 20 02 	sll  %o0, 2, %o0
    72d8:	90 02 00 11 	add  %o0, %l1, %o0
    72dc:	90 02 00 10 	add  %o0, %l0, %o0
    72e0:	90 02 20 15 	add  %o0, 0x15, %o0
    72e4:	94 10 00 13 	mov  %l3, %o2
    72e8:	40 00 47 18 	call  18f48 <memcpy>
    72ec:	92 10 00 1d 	mov  %i5, %o1
    72f0:	d0 24 20 08 	st  %o0, [ %l0 + 8 ]
    72f4:	82 15 63 b8 	or  %l5, 0x3b8, %g1
    72f8:	c6 05 c0 01 	ld  [ %l7 + %g1 ], %g3
    72fc:	c4 00 e2 f0 	ld  [ %g3 + 0x2f0 ], %g2
    7300:	c4 24 00 00 	st  %g2, [ %l0 ]
    7304:	10 80 00 18 	b  7364 <fillin_rpath+0x278>
    7308:	e0 20 e2 f0 	st  %l0, [ %g3 + 0x2f0 ]
    730c:	40 00 43 ba 	call  181f4 <bcmp>
    7310:	d2 04 20 0c 	ld  [ %l0 + 0xc ], %o1
    7314:	80 a2 20 00 	cmp  %o0, 0
    7318:	32 bf ff b7 	bne,a   71f4 <fillin_rpath+0x108>
    731c:	e0 04 00 00 	ld  [ %l0 ], %l0
    7320:	80 a4 20 00 	cmp  %l0, 0
    7324:	02 bf ff b7 	be  7200 <fillin_rpath+0x114>
    7328:	86 10 20 00 	clr  %g3
    732c:	80 a0 c0 14 	cmp  %g3, %l4
    7330:	1a 80 00 0b 	bcc  735c <fillin_rpath+0x270>
    7334:	83 28 e0 02 	sll  %g3, 2, %g1
    7338:	c4 06 00 01 	ld  [ %i0 + %g1 ], %g2
    733c:	80 a0 80 10 	cmp  %g2, %l0
    7340:	02 80 00 07 	be  735c <fillin_rpath+0x270>
    7344:	80 a0 c0 14 	cmp  %g3, %l4
    7348:	86 00 e0 01 	inc  %g3
    734c:	80 a0 c0 14 	cmp  %g3, %l4
    7350:	0a bf ff fa 	bcs  7338 <fillin_rpath+0x24c>
    7354:	83 28 e0 02 	sll  %g3, 2, %g1
    7358:	80 a0 c0 14 	cmp  %g3, %l4
    735c:	12 bf ff 72 	bne  7124 <fillin_rpath+0x38>
    7360:	90 07 a0 44 	add  %fp, 0x44, %o0
    7364:	83 2d 20 02 	sll  %l4, 2, %g1
    7368:	e0 26 00 01 	st  %l0, [ %i0 + %g1 ]
    736c:	90 07 a0 44 	add  %fp, 0x44, %o0
    7370:	40 00 3d 73 	call  1693c <__strsep>
    7374:	92 10 00 1a 	mov  %i2, %o1
    7378:	a4 92 20 00 	orcc  %o0, 0, %l2
    737c:	12 bf ff 6f 	bne  7138 <fillin_rpath+0x4c>
    7380:	a8 05 20 01 	inc  %l4
    7384:	10 80 00 1c 	b  73f4 <fillin_rpath+0x308>
    7388:	83 2d 20 02 	sll  %l4, 2, %g1
    738c:	03 00 00 00 	sethi  %hi(0), %g1
    7390:	82 10 62 18 	or  %g1, 0x218, %g1	! 218 <GLIBC_2.0+0x218>
    7394:	c4 4c 80 00 	ldsb  [ %l2 ], %g2
    7398:	80 a0 a0 2f 	cmp  %g2, 0x2f
    739c:	12 bf ff 61 	bne  7120 <fillin_rpath+0x34>
    73a0:	d0 05 c0 01 	ld  [ %l7 + %g1 ], %o0
    73a4:	c2 06 40 00 	ld  [ %i1 ], %g1
    73a8:	80 a0 40 11 	cmp  %g1, %l1
    73ac:	32 bf ff 5e 	bne,a   7124 <fillin_rpath+0x38>
    73b0:	90 07 a0 44 	add  %fp, 0x44, %o0
    73b4:	92 10 00 12 	mov  %l2, %o1
    73b8:	40 00 43 8f 	call  181f4 <bcmp>
    73bc:	94 10 00 11 	mov  %l1, %o2
    73c0:	80 a2 20 00 	cmp  %o0, 0
    73c4:	12 bf ff 58 	bne  7124 <fillin_rpath+0x38>
    73c8:	90 07 a0 44 	add  %fp, 0x44, %o0
    73cc:	10 bf ff 7e 	b  71c4 <fillin_rpath+0xd8>
    73d0:	2b 00 00 01 	sethi  %hi(0x400), %l5
    73d4:	82 10 62 80 	or  %g1, 0x280, %g1
    73d8:	d6 05 c0 01 	ld  [ %l7 + %g1 ], %o3
    73dc:	90 10 20 0c 	mov  0xc, %o0
    73e0:	92 10 20 00 	clr  %o1
    73e4:	40 00 1f d4 	call  f334 <_dl_signal_error>
    73e8:	94 10 20 00 	clr  %o2
    73ec:	10 bf ff c2 	b  72f4 <fillin_rpath+0x208>
    73f0:	c0 24 20 08 	clr  [ %l0 + 8 ]
    73f4:	c0 26 00 01 	clr  [ %i0 + %g1 ]
    73f8:	81 c7 e0 08 	ret 
    73fc:	81 e8 00 00 	restore 

00007400 <decompose_rpath>:
decompose_rpath():
    7400:	9d e3 bf 90 	save  %sp, -112, %sp
    7404:	03 00 00 01 	sethi  %hi(0x400), %g1
    7408:	2f 00 00 a2 	sethi  %hi(0x28800), %l7
    740c:	7f ff fd f0 	call  6bcc <is_dst+0x14c>
    7410:	ae 05 e3 f4 	add  %l7, 0x3f4, %l7	! 28bf4 <dummy_bucket.4+0xa990>
    7414:	82 10 63 dc 	or  %g1, 0x3dc, %g1
    7418:	c4 05 c0 01 	ld  [ %l7 + %g1 ], %g2
    741c:	c8 00 a0 84 	ld  [ %g2 + 0x84 ], %g4
    7420:	90 10 00 1a 	mov  %i2, %o0
    7424:	92 10 00 19 	mov  %i1, %o1
    7428:	80 a1 20 00 	cmp  %g4, 0
    742c:	12 80 00 37 	bne  7508 <decompose_rpath+0x108>
    7430:	e0 06 a0 04 	ld  [ %i2 + 4 ], %l0
    7434:	7f ff fe 99 	call  6e98 <expand_dynamic_string_token>
    7438:	01 00 00 00 	nop 
    743c:	03 00 00 00 	sethi  %hi(0), %g1
    7440:	b4 92 20 00 	orcc  %o0, 0, %i2
    7444:	02 80 00 2c 	be  74f4 <decompose_rpath+0xf4>
    7448:	82 10 62 84 	or  %g1, 0x284, %g1
    744c:	c2 4e 80 00 	ldsb  [ %i2 ], %g1
    7450:	80 a0 60 00 	cmp  %g1, 0
    7454:	90 10 20 00 	clr  %o0
    7458:	84 10 00 1a 	mov  %i2, %g2
    745c:	02 80 00 0c 	be  748c <decompose_rpath+0x8c>
    7460:	c2 0e 80 00 	ldub  [ %i2 ], %g1
    7464:	83 28 60 18 	sll  %g1, 0x18, %g1
    7468:	83 38 60 18 	sra  %g1, 0x18, %g1
    746c:	82 18 60 3a 	xor  %g1, 0x3a, %g1
    7470:	80 a0 00 01 	cmp  %g0, %g1
    7474:	84 00 a0 01 	inc  %g2
    7478:	c2 48 80 00 	ldsb  [ %g2 ], %g1
    747c:	90 62 3f ff 	subx  %o0, -1, %o0
    7480:	80 a0 60 00 	cmp  %g1, 0
    7484:	12 bf ff f8 	bne  7464 <decompose_rpath+0x64>
    7488:	c2 08 80 00 	ldub  [ %g2 ], %g1
    748c:	91 2a 20 02 	sll  %o0, 2, %o0
    7490:	40 00 a4 ef 	call  3084c <malloc@plt>
    7494:	90 02 20 08 	add  %o0, 8, %o0
    7498:	b2 92 20 00 	orcc  %o0, 0, %i1
    749c:	02 80 00 14 	be  74ec <decompose_rpath+0xec>
    74a0:	03 00 00 00 	sethi  %hi(0), %g1
    74a4:	82 10 62 88 	or  %g1, 0x288, %g1	! 288 <GLIBC_2.0+0x288>
    74a8:	d4 05 c0 01 	ld  [ %l7 + %g1 ], %o2
    74ac:	98 10 00 1b 	mov  %i3, %o4
    74b0:	9a 10 00 10 	mov  %l0, %o5
    74b4:	92 10 00 19 	mov  %i1, %o1
    74b8:	96 10 20 00 	clr  %o3
    74bc:	7f ff ff 0c 	call  70ec <fillin_rpath>
    74c0:	90 10 00 1a 	mov  %i2, %o0
    74c4:	40 00 a4 eb 	call  30870 <free@plt>
    74c8:	90 10 00 1a 	mov  %i2, %o0
    74cc:	10 80 00 4d 	b  7600 <decompose_rpath+0x200>
    74d0:	82 10 20 01 	mov  1, %g1
    74d4:	90 10 20 01 	mov  1, %o0
    74d8:	40 00 a4 e0 	call  30858 <calloc@plt>
    74dc:	92 10 20 04 	mov  4, %o1
    74e0:	b2 92 20 00 	orcc  %o0, 0, %i1
    74e4:	12 80 00 47 	bne  7600 <decompose_rpath+0x200>
    74e8:	82 10 20 01 	mov  1, %g1
    74ec:	03 00 00 00 	sethi  %hi(0), %g1
    74f0:	82 10 62 80 	or  %g1, 0x280, %g1	! 280 <GLIBC_2.0+0x280>
    74f4:	d6 05 c0 01 	ld  [ %l7 + %g1 ], %o3
    74f8:	90 10 20 0c 	mov  0xc, %o0
    74fc:	92 10 20 00 	clr  %o1
    7500:	40 00 1f 8d 	call  f334 <_dl_signal_error>
    7504:	94 10 20 00 	clr  %o2
    7508:	03 00 00 01 	sethi  %hi(0x400), %g1
    750c:	82 10 63 a4 	or  %g1, 0x3a4, %g1	! 7a4 <GLIBC_2.0+0x7a4>
    7510:	c4 05 c0 01 	ld  [ %l7 + %g1 ], %g2
    7514:	c6 00 80 00 	ld  [ %g2 ], %g3
    7518:	80 a0 e0 00 	cmp  %g3, 0
    751c:	12 bf ff c6 	bne  7434 <decompose_rpath+0x34>
    7520:	01 00 00 00 	nop 
    7524:	da 09 00 00 	ldub  [ %g4 ], %o5
    7528:	d8 0c 00 00 	ldub  [ %l0 ], %o4
    752c:	85 2b 60 18 	sll  %o5, 0x18, %g2
    7530:	83 2b 20 18 	sll  %o4, 0x18, %g1
    7534:	80 a0 40 02 	cmp  %g1, %g2
    7538:	86 10 00 10 	mov  %l0, %g3
    753c:	02 80 00 1c 	be  75ac <decompose_rpath+0x1ac>
    7540:	85 38 a0 18 	sra  %g2, 0x18, %g2
    7544:	c2 0c 00 00 	ldub  [ %l0 ], %g1
    7548:	83 28 60 18 	sll  %g1, 0x18, %g1
    754c:	80 a0 60 00 	cmp  %g1, 0
    7550:	12 80 00 0b 	bne  757c <decompose_rpath+0x17c>
    7554:	83 2b 60 18 	sll  %o5, 0x18, %g1
    7558:	83 38 60 18 	sra  %g1, 0x18, %g1
    755c:	80 a0 00 01 	cmp  %g0, %g1
    7560:	86 60 3f ff 	subx  %g0, -1, %g3
    7564:	82 18 60 3a 	xor  %g1, 0x3a, %g1
    7568:	80 a0 00 01 	cmp  %g0, %g1
    756c:	84 60 3f ff 	subx  %g0, -1, %g2
    7570:	80 90 c0 02 	orcc  %g3, %g2, %g0
    7574:	12 bf ff d8 	bne  74d4 <decompose_rpath+0xd4>
    7578:	83 2b 60 18 	sll  %o5, 0x18, %g1
    757c:	80 a0 60 00 	cmp  %g1, 0
    7580:	02 bf ff ad 	be  7434 <decompose_rpath+0x34>
    7584:	83 38 60 18 	sra  %g1, 0x18, %g1
    7588:	80 a0 60 3a 	cmp  %g1, 0x3a
    758c:	02 80 00 18 	be  75ec <decompose_rpath+0x1ec>
    7590:	88 01 20 01 	inc  %g4
    7594:	da 09 00 00 	ldub  [ %g4 ], %o5
    7598:	83 2b 60 18 	sll  %o5, 0x18, %g1
    759c:	80 a0 60 00 	cmp  %g1, 0
    75a0:	12 bf ff fa 	bne  7588 <decompose_rpath+0x188>
    75a4:	83 38 60 18 	sra  %g1, 0x18, %g1
    75a8:	30 bf ff a3 	b,a   7434 <decompose_rpath+0x34>
    75ac:	80 a0 a0 00 	cmp  %g2, 0
    75b0:	22 bf ff e6 	be,a   7548 <decompose_rpath+0x148>
    75b4:	c2 0c 00 00 	ldub  [ %l0 ], %g1
    75b8:	88 01 20 01 	inc  %g4
    75bc:	86 00 e0 01 	inc  %g3
    75c0:	c2 48 c0 00 	ldsb  [ %g3 ], %g1
    75c4:	c4 49 00 00 	ldsb  [ %g4 ], %g2
    75c8:	80 a0 80 01 	cmp  %g2, %g1
    75cc:	da 09 00 00 	ldub  [ %g4 ], %o5
    75d0:	12 bf ff de 	bne  7548 <decompose_rpath+0x148>
    75d4:	c2 08 c0 00 	ldub  [ %g3 ], %g1
    75d8:	80 a0 a0 00 	cmp  %g2, 0
    75dc:	32 bf ff f8 	bne,a   75bc <decompose_rpath+0x1bc>
    75e0:	88 01 20 01 	inc  %g4
    75e4:	10 bf ff da 	b  754c <decompose_rpath+0x14c>
    75e8:	83 28 60 18 	sll  %g1, 0x18, %g1
    75ec:	c2 49 00 00 	ldsb  [ %g4 ], %g1
    75f0:	80 a0 60 00 	cmp  %g1, 0
    75f4:	12 bf ff ce 	bne  752c <decompose_rpath+0x12c>
    75f8:	da 09 00 00 	ldub  [ %g4 ], %o5
    75fc:	30 bf ff 8e 	b,a   7434 <decompose_rpath+0x34>
    7600:	c2 26 20 04 	st  %g1, [ %i0 + 4 ]
    7604:	f2 26 00 00 	st  %i1, [ %i0 ]
    7608:	81 c7 e0 08 	ret 
    760c:	81 e8 00 00 	restore 

00007610 <cache_rpath>:
cache_rpath():
    7610:	9d e3 bf 90 	save  %sp, -112, %sp
    7614:	c4 06 40 00 	ld  [ %i1 ], %g2
    7618:	86 10 00 18 	mov  %i0, %g3
    761c:	80 a0 bf ff 	cmp  %g2, -1
    7620:	96 10 00 1b 	mov  %i3, %o3
    7624:	02 80 00 16 	be  767c <cache_rpath+0x6c>
    7628:	b0 10 20 00 	clr  %i0
    762c:	83 2e a0 02 	sll  %i2, 2, %g1
    7630:	82 00 40 03 	add  %g1, %g3, %g1
    7634:	80 a0 a0 00 	cmp  %g2, 0
    7638:	12 80 00 11 	bne  767c <cache_rpath+0x6c>
    763c:	b0 10 20 01 	mov  1, %i0
    7640:	f4 00 60 20 	ld  [ %g1 + 0x20 ], %i2
    7644:	90 10 00 19 	mov  %i1, %o0
    7648:	94 10 00 03 	mov  %g3, %o2
    764c:	80 a6 a0 00 	cmp  %i2, 0
    7650:	12 80 00 05 	bne  7664 <cache_rpath+0x54>
    7654:	b0 10 20 00 	clr  %i0
    7658:	82 10 3f ff 	mov  -1, %g1
    765c:	10 80 00 08 	b  767c <cache_rpath+0x6c>
    7660:	c2 26 40 00 	st  %g1, [ %i1 ]
    7664:	c2 00 e0 34 	ld  [ %g3 + 0x34 ], %g1
    7668:	c4 00 60 04 	ld  [ %g1 + 4 ], %g2
    766c:	d2 06 a0 04 	ld  [ %i2 + 4 ], %o1
    7670:	7f ff ff 64 	call  7400 <decompose_rpath>
    7674:	92 00 80 09 	add  %g2, %o1, %o1
    7678:	b0 10 20 01 	mov  1, %i0
    767c:	81 c7 e0 08 	ret 
    7680:	81 e8 00 00 	restore 

00007684 <_dl_init_paths>:
_dl_init_paths():
    7684:	9d e3 bf 90 	save  %sp, -112, %sp
    7688:	05 00 00 01 	sethi  %hi(0x400), %g2
    768c:	03 00 00 00 	sethi  %hi(0), %g1
    7690:	2f 00 00 a2 	sethi  %hi(0x28800), %l7
    7694:	7f ff fd 4e 	call  6bcc <is_dst+0x14c>
    7698:	ae 05 e1 6c 	add  %l7, 0x16c, %l7	! 2896c <dummy_bucket.4+0xa708>
    769c:	84 10 a3 dc 	or  %g2, 0x3dc, %g2
    76a0:	82 10 62 28 	or  %g1, 0x228, %g1
    76a4:	07 00 00 00 	sethi  %hi(0), %g3
    76a8:	c8 05 c0 02 	ld  [ %l7 + %g2 ], %g4
    76ac:	e6 05 c0 01 	ld  [ %l7 + %g1 ], %l3
    76b0:	86 10 e2 34 	or  %g3, 0x234, %g3
    76b4:	d6 05 c0 03 	ld  [ %l7 + %g3 ], %o3
    76b8:	d2 01 20 10 	ld  [ %g4 + 0x10 ], %o1
    76bc:	94 10 00 13 	mov  %l3, %o2
    76c0:	40 00 38 ca 	call  159e8 <_dl_important_hwcaps>
    76c4:	d0 01 20 0c 	ld  [ %g4 + 0xc ], %o0
    76c8:	03 00 00 00 	sethi  %hi(0), %g1
    76cc:	82 10 62 38 	or  %g1, 0x238, %g1	! 238 <GLIBC_2.0+0x238>
    76d0:	c6 05 c0 01 	ld  [ %l7 + %g1 ], %g3
    76d4:	05 00 00 00 	sethi  %hi(0), %g2
    76d8:	d0 20 c0 00 	st  %o0, [ %g3 ]
    76dc:	84 10 a2 3c 	or  %g2, 0x23c, %g2
    76e0:	e4 05 c0 02 	ld  [ %l7 + %g2 ], %l2
    76e4:	40 00 a4 5a 	call  3084c <malloc@plt>
    76e8:	90 10 20 08 	mov  8, %o0
    76ec:	a2 10 00 08 	mov  %o0, %l1
    76f0:	d0 24 80 00 	st  %o0, [ %l2 ]
    76f4:	80 a2 20 00 	cmp  %o0, 0
    76f8:	02 80 00 d6 	be  7a50 <_dl_init_paths+0x3cc>
    76fc:	2b 00 00 01 	sethi  %hi(0x400), %l5
    7700:	c2 04 c0 00 	ld  [ %l3 ], %g1
    7704:	83 28 60 02 	sll  %g1, 2, %g1
    7708:	05 33 33 33 	sethi  %hi(0xcccccc00), %g2
    770c:	84 10 a0 cd 	or  %g2, 0xcd, %g2	! cccccccd <_end+0xccc9bd45>
    7710:	82 00 60 27 	add  %g1, 0x27, %g1
    7714:	80 50 40 02 	umul  %g1, %g2, %g0
    7718:	83 40 00 00 	rd  %y, %g1
    771c:	a1 30 60 04 	srl  %g1, 4, %l0
    7720:	40 00 a4 4b 	call  3084c <malloc@plt>
    7724:	90 5c 24 60 	smul  %l0, 0x460, %o0
    7728:	d0 24 40 00 	st  %o0, [ %l1 ]
    772c:	c2 04 80 00 	ld  [ %l2 ], %g1
    7730:	da 00 40 00 	ld  [ %g1 ], %o5
    7734:	80 a3 60 00 	cmp  %o5, 0
    7738:	02 80 00 9c 	be  79a8 <_dl_init_paths+0x324>
    773c:	29 00 00 01 	sethi  %hi(0x400), %l4
    7740:	82 15 23 b8 	or  %l4, 0x3b8, %g1	! 7b8 <GLIBC_2.0+0x7b8>
    7744:	05 00 00 00 	sethi  %hi(0), %g2
    7748:	c6 05 c0 01 	ld  [ %l7 + %g1 ], %g3
    774c:	84 10 a2 18 	or  %g2, 0x218, %g2
    7750:	13 00 00 00 	sethi  %hi(0), %o1
    7754:	11 00 00 00 	sethi  %hi(0), %o0
    7758:	1f 00 00 00 	sethi  %hi(0), %o7
    775c:	15 00 00 00 	sethi  %hi(0), %o2
    7760:	c0 24 a0 04 	clr  [ %l2 + 4 ]
    7764:	da 20 e2 f0 	st  %o5, [ %g3 + 0x2f0 ]
    7768:	d6 05 c0 02 	ld  [ %l7 + %g2 ], %o3
    776c:	92 12 62 8c 	or  %o1, 0x28c, %o1
    7770:	90 12 22 90 	or  %o0, 0x290, %o0
    7774:	9e 13 e2 74 	or  %o7, 0x274, %o7
    7778:	94 12 a2 30 	or  %o2, 0x230, %o2
    777c:	a4 10 00 13 	mov  %l3, %l2
    7780:	98 10 20 00 	clr  %o4
    7784:	09 00 00 00 	sethi  %hi(0), %g4
    7788:	82 11 22 14 	or  %g4, 0x214, %g1	! 214 <GLIBC_2.0+0x214>
    778c:	c6 05 c0 01 	ld  [ %l7 + %g1 ], %g3
    7790:	85 2b 20 02 	sll  %o4, 2, %g2
    7794:	c8 00 c0 02 	ld  [ %g3 + %g2 ], %g4
    7798:	c2 05 c0 09 	ld  [ %l7 + %o1 ], %g1
    779c:	d6 23 60 0c 	st  %o3, [ %o5 + 0xc ]
    77a0:	da 24 40 00 	st  %o5, [ %l1 ]
    77a4:	c8 23 60 10 	st  %g4, [ %o5 + 0x10 ]
    77a8:	c2 23 60 04 	st  %g1, [ %o5 + 4 ]
    77ac:	c0 23 60 08 	clr  [ %o5 + 8 ]
    77b0:	88 01 00 0b 	add  %g4, %o3, %g4
    77b4:	c2 4a c0 00 	ldsb  [ %o3 ], %g1
    77b8:	96 01 20 01 	add  %g4, 1, %o3
    77bc:	80 a0 60 2f 	cmp  %g1, 0x2f
    77c0:	a2 04 60 04 	add  %l1, 4, %l1
    77c4:	12 80 00 a6 	bne  7a5c <_dl_init_paths+0x3d8>
    77c8:	09 00 00 00 	sethi  %hi(0), %g4
    77cc:	c2 04 80 00 	ld  [ %l2 ], %g1
    77d0:	80 a0 60 00 	cmp  %g1, 0
    77d4:	02 80 00 07 	be  77f0 <_dl_init_paths+0x16c>
    77d8:	84 10 00 01 	mov  %g1, %g2
    77dc:	82 03 60 14 	add  %o5, 0x14, %g1
    77e0:	c0 20 40 00 	clr  [ %g1 ]
    77e4:	84 80 bf ff 	addcc  %g2, -1, %g2
    77e8:	12 bf ff fe 	bne  77e0 <_dl_init_paths+0x15c>
    77ec:	82 00 60 04 	add  %g1, 4, %g1
    77f0:	98 03 20 01 	inc  %o4
    77f4:	80 a3 20 01 	cmp  %o4, 1
    77f8:	86 10 20 00 	clr  %g3
    77fc:	02 80 00 05 	be  7810 <_dl_init_paths+0x18c>
    7800:	85 2c 20 02 	sll  %l0, 2, %g2
    7804:	82 00 80 10 	add  %g2, %l0, %g1
    7808:	83 28 60 02 	sll  %g1, 2, %g1
    780c:	86 00 40 0d 	add  %g1, %o5, %g3
    7810:	82 00 80 10 	add  %g2, %l0, %g1
    7814:	c6 23 40 00 	st  %g3, [ %o5 ]
    7818:	83 28 60 02 	sll  %g1, 2, %g1
    781c:	80 a3 20 00 	cmp  %o4, 0
    7820:	02 bf ff da 	be  7788 <_dl_init_paths+0x104>
    7824:	9a 03 40 01 	add  %o5, %g1, %o5
    7828:	03 00 00 00 	sethi  %hi(0), %g1
    782c:	82 10 62 2c 	or  %g1, 0x22c, %g1	! 22c <GLIBC_2.0+0x22c>
    7830:	84 15 23 b8 	or  %l4, 0x3b8, %g2
    7834:	c8 05 c0 01 	ld  [ %l7 + %g1 ], %g4
    7838:	c6 05 c0 02 	ld  [ %l7 + %g2 ], %g3
    783c:	e0 00 c0 00 	ld  [ %g3 ], %l0
    7840:	82 10 20 37 	mov  0x37, %g1
    7844:	c2 21 00 00 	st  %g1, [ %g4 ]
    7848:	80 a4 20 00 	cmp  %l0, 0
    784c:	02 80 00 13 	be  7898 <_dl_init_paths+0x214>
    7850:	c0 24 40 00 	clr  [ %l1 ]
    7854:	c2 04 21 94 	ld  [ %l0 + 0x194 ], %g1
    7858:	05 30 00 00 	sethi  %hi(0xc0000000), %g2
    785c:	82 08 40 02 	and  %g1, %g2, %g1
    7860:	07 20 00 00 	sethi  %hi(0x80000000), %g3
    7864:	80 a0 40 03 	cmp  %g1, %g3
    7868:	22 80 00 82 	be,a   7a70 <_dl_init_paths+0x3ec>
    786c:	03 00 00 00 	sethi  %hi(0), %g1
    7870:	c8 04 20 94 	ld  [ %l0 + 0x94 ], %g4
    7874:	80 a1 20 00 	cmp  %g4, 0
    7878:	32 80 00 6b 	bne,a   7a24 <_dl_init_paths+0x3a0>
    787c:	c4 04 20 34 	ld  [ %l0 + 0x34 ], %g2
    7880:	82 10 3f ff 	mov  -1, %g1
    7884:	c8 04 20 5c 	ld  [ %l0 + 0x5c ], %g4
    7888:	80 a1 20 00 	cmp  %g4, 0
    788c:	12 80 00 4e 	bne  79c4 <_dl_init_paths+0x340>
    7890:	c2 24 21 f0 	st  %g1, [ %l0 + 0x1f0 ]
    7894:	c2 24 21 a0 	st  %g1, [ %l0 + 0x1a0 ]
    7898:	80 a6 20 00 	cmp  %i0, 0
    789c:	02 80 00 58 	be  79fc <_dl_init_paths+0x378>
    78a0:	03 00 00 00 	sethi  %hi(0), %g1
    78a4:	c2 4e 00 00 	ldsb  [ %i0 ], %g1
    78a8:	80 a0 60 00 	cmp  %g1, 0
    78ac:	02 80 00 54 	be  79fc <_dl_init_paths+0x378>
    78b0:	03 00 00 00 	sethi  %hi(0), %g1
    78b4:	90 10 00 18 	mov  %i0, %o0
    78b8:	40 00 3f db 	call  17824 <index>
    78bc:	92 10 20 24 	mov  0x24, %o1
    78c0:	80 a2 20 00 	cmp  %o0, 0
    78c4:	12 80 00 75 	bne  7a98 <_dl_init_paths+0x414>
    78c8:	a2 10 00 18 	mov  %i0, %l1
    78cc:	40 00 41 6d 	call  17e80 <strlen>
    78d0:	90 10 00 18 	mov  %i0, %o0
    78d4:	82 02 20 08 	add  %o0, 8, %g1
    78d8:	82 08 7f f8 	and  %g1, -8, %g1
    78dc:	9c 23 80 01 	sub  %sp, %g1, %sp
    78e0:	94 02 20 01 	add  %o0, 1, %o2
    78e4:	90 03 a0 60 	add  %sp, 0x60, %o0
    78e8:	40 00 45 98 	call  18f48 <memcpy>
    78ec:	92 10 00 18 	mov  %i0, %o1
    78f0:	c2 4e 00 00 	ldsb  [ %i0 ], %g1
    78f4:	a4 10 00 08 	mov  %o0, %l2
    78f8:	80 a0 60 00 	cmp  %g1, 0
    78fc:	90 10 20 01 	mov  1, %o0
    7900:	02 80 00 0c 	be  7930 <_dl_init_paths+0x2ac>
    7904:	c2 0e 00 00 	ldub  [ %i0 ], %g1
    7908:	82 00 7f c6 	add  %g1, -58, %g1
    790c:	82 08 60 ff 	and  %g1, 0xff, %g1
    7910:	80 a0 60 01 	cmp  %g1, 1
    7914:	18 80 00 03 	bgu  7920 <_dl_init_paths+0x29c>
    7918:	a2 04 60 01 	inc  %l1
    791c:	90 02 20 01 	inc  %o0
    7920:	c2 4c 40 00 	ldsb  [ %l1 ], %g1
    7924:	80 a0 60 00 	cmp  %g1, 0
    7928:	12 bf ff f8 	bne  7908 <_dl_init_paths+0x284>
    792c:	c2 0c 40 00 	ldub  [ %l1 ], %g1
