
/home/inouema/work/LEON/linux/snapgear-2.6-p42/romfs/lib/libnss_compat-2.5.so:     ファイル形式 elf32-sparc

セクション .init の逆アセンブル:

0000122c <_init>:
_init():
    122c:	9d e3 bf a0 	save  %sp, -96, %sp
    1230:	40 00 00 37 	call  130c <frame_dummy>
    1234:	01 00 00 00 	nop 
    1238:	40 00 13 84 	call  6048 <__do_global_ctors_aux>
    123c:	01 00 00 00 	nop 
    1240:	81 c7 e0 08 	ret 
    1244:	81 e8 00 00 	restore 
セクション .text の逆アセンブル:

00001248 <__do_global_dtors_aux-0x8>:
    1248:	81 c3 e0 08 	retl 
    124c:	ae 03 c0 17 	add  %o7, %l7, %l7

00001250 <__do_global_dtors_aux>:
__do_global_dtors_aux():
    1250:	9d e3 bf 98 	save  %sp, -104, %sp
    1254:	23 00 00 00 	sethi  %hi(0), %l1
    1258:	2f 00 00 5b 	sethi  %hi(0x16c00), %l7
    125c:	7f ff ff fb 	call  1248 <_init+0x1c>
    1260:	ae 05 e1 a4 	add  %l7, 0x1a4, %l7	! 16da4 <__FRAME_END__+0x10a7c>
    1264:	82 14 60 0c 	or  %l1, 0xc, %g1
    1268:	c4 05 c0 01 	ld  [ %l7 + %g1 ], %g2
    126c:	c6 08 80 00 	ldub  [ %g2 ], %g3
    1270:	80 a0 e0 00 	cmp  %g3, 0
    1274:	12 80 00 21 	bne  12f8 <__do_global_dtors_aux+0xa8>
    1278:	03 00 00 00 	sethi  %hi(0), %g1
    127c:	82 10 61 28 	or  %g1, 0x128, %g1	! 128 <GLIBC_PRIVATE+0x128>
    1280:	c4 05 c0 01 	ld  [ %l7 + %g1 ], %g2
    1284:	80 a0 a0 00 	cmp  %g2, 0
    1288:	02 80 00 06 	be  12a0 <__do_global_dtors_aux+0x50>
    128c:	03 00 00 00 	sethi  %hi(0), %g1
    1290:	82 10 61 20 	or  %g1, 0x120, %g1	! 120 <GLIBC_PRIVATE+0x120>
    1294:	c4 05 c0 01 	ld  [ %l7 + %g1 ], %g2
    1298:	40 00 5b f7 	call  18274 <__cxa_finalize@plt>
    129c:	d0 00 80 00 	ld  [ %g2 ], %o0
    12a0:	03 00 00 00 	sethi  %hi(0), %g1
    12a4:	82 10 60 08 	or  %g1, 8, %g1	! 8 <GLIBC_PRIVATE+0x8>
    12a8:	c2 05 c0 01 	ld  [ %l7 + %g1 ], %g1
    12ac:	c4 00 40 00 	ld  [ %g1 ], %g2
    12b0:	c4 00 80 00 	ld  [ %g2 ], %g2
    12b4:	80 a0 a0 00 	cmp  %g2, 0
    12b8:	22 80 00 0d 	be,a   12ec <__do_global_dtors_aux+0x9c>
    12bc:	82 14 60 0c 	or  %l1, 0xc, %g1
    12c0:	a0 10 00 01 	mov  %g1, %l0
    12c4:	c2 04 00 00 	ld  [ %l0 ], %g1
    12c8:	82 00 60 04 	add  %g1, 4, %g1
    12cc:	9f c0 80 00 	call  %g2
    12d0:	c2 24 00 00 	st  %g1, [ %l0 ]
    12d4:	c2 04 00 00 	ld  [ %l0 ], %g1
    12d8:	c4 00 40 00 	ld  [ %g1 ], %g2
    12dc:	80 a0 a0 00 	cmp  %g2, 0
    12e0:	12 bf ff fb 	bne  12cc <__do_global_dtors_aux+0x7c>
    12e4:	82 00 60 04 	add  %g1, 4, %g1
    12e8:	82 14 60 0c 	or  %l1, 0xc, %g1
    12ec:	c6 05 c0 01 	ld  [ %l7 + %g1 ], %g3
    12f0:	84 10 20 01 	mov  1, %g2
    12f4:	c4 28 c0 00 	stb  %g2, [ %g3 ]
    12f8:	81 c7 e0 08 	ret 
    12fc:	81 e8 00 00 	restore 

00001300 <call___do_global_dtors_aux>:
call___do_global_dtors_aux():
    1300:	9d e3 bf 98 	save  %sp, -104, %sp
    1304:	81 c7 e0 08 	ret 
    1308:	81 e8 00 00 	restore 

0000130c <frame_dummy>:
frame_dummy():
    130c:	9d e3 bf 98 	save  %sp, -104, %sp
    1310:	03 00 00 00 	sethi  %hi(0), %g1
    1314:	2f 00 00 5b 	sethi  %hi(0x16c00), %l7
    1318:	7f ff ff cc 	call  1248 <_init+0x1c>
    131c:	ae 05 e0 e8 	add  %l7, 0xe8, %l7	! 16ce8 <__FRAME_END__+0x109c0>
    1320:	82 10 60 04 	or  %g1, 4, %g1
    1324:	f0 05 c0 01 	ld  [ %l7 + %g1 ], %i0
    1328:	05 00 00 00 	sethi  %hi(0), %g2
    132c:	c2 06 00 00 	ld  [ %i0 ], %g1
    1330:	80 a0 60 00 	cmp  %g1, 0
    1334:	02 80 00 08 	be  1354 <frame_dummy+0x48>
    1338:	84 10 a1 2c 	or  %g2, 0x12c, %g2
    133c:	c2 05 c0 02 	ld  [ %l7 + %g2 ], %g1
    1340:	80 a0 60 00 	cmp  %g1, 0
    1344:	02 80 00 04 	be  1354 <frame_dummy+0x48>
    1348:	01 00 00 00 	nop 
    134c:	10 80 5b df 	b  182c8 <_Jv_RegisterClasses@plt>
    1350:	81 e8 00 00 	restore 
    1354:	01 00 00 00 	nop 
    1358:	81 c7 e0 08 	ret 
    135c:	81 e8 00 00 	restore 

00001360 <call_frame_dummy>:
call_frame_dummy():
    1360:	9d e3 bf 98 	save  %sp, -104, %sp
    1364:	81 c7 e0 08 	ret 
    1368:	81 e8 00 00 	restore 
    136c:	81 c3 e0 08 	retl 
    1370:	ae 03 c0 17 	add  %o7, %l7, %l7

00001374 <init_nss_interface>:
init_nss_interface():
    1374:	9d e3 bf 90 	save  %sp, -112, %sp
    1378:	03 00 00 00 	sethi  %hi(0), %g1
    137c:	2f 00 00 5b 	sethi  %hi(0x16c00), %l7
    1380:	7f ff ff fb 	call  136c <call_frame_dummy+0xc>
    1384:	ae 05 e0 80 	add  %l7, 0x80, %l7	! 16c80 <__FRAME_END__+0x10958>
    1388:	82 10 60 14 	or  %g1, 0x14, %g1
    138c:	07 00 00 00 	sethi  %hi(0), %g3
    1390:	05 00 00 00 	sethi  %hi(0), %g2
    1394:	e2 05 c0 01 	ld  [ %l7 + %g1 ], %l1
    1398:	84 10 a0 34 	or  %g2, 0x34, %g2
    139c:	86 10 e0 30 	or  %g3, 0x30, %g3
    13a0:	d4 05 c0 02 	ld  [ %l7 + %g2 ], %o2
    13a4:	d0 05 c0 03 	ld  [ %l7 + %g3 ], %o0
    13a8:	96 10 00 11 	mov  %l1, %o3
    13ac:	40 00 5b bb 	call  18298 <__nss_database_lookup@plt>
    13b0:	92 10 20 00 	clr  %o1
    13b4:	03 00 00 00 	sethi  %hi(0), %g1
    13b8:	05 00 00 00 	sethi  %hi(0), %g2
    13bc:	82 10 60 18 	or  %g1, 0x18, %g1
    13c0:	80 a2 20 00 	cmp  %o0, 0
    13c4:	06 80 00 2b 	bl  1470 <init_nss_interface+0xfc>
    13c8:	84 10 a0 38 	or  %g2, 0x38, %g2
    13cc:	e0 05 c0 01 	ld  [ %l7 + %g1 ], %l0
    13d0:	d2 05 c0 02 	ld  [ %l7 + %g2 ], %o1
    13d4:	40 00 5b 8a 	call  181fc <__nss_lookup_function@plt>
    13d8:	d0 04 40 00 	ld  [ %l1 ], %o0
    13dc:	03 00 00 00 	sethi  %hi(0), %g1
    13e0:	05 00 00 00 	sethi  %hi(0), %g2
    13e4:	d0 24 00 00 	st  %o0, [ %l0 ]
    13e8:	82 10 60 1c 	or  %g1, 0x1c, %g1
    13ec:	84 10 a0 3c 	or  %g2, 0x3c, %g2
    13f0:	e0 05 c0 01 	ld  [ %l7 + %g1 ], %l0
    13f4:	d2 05 c0 02 	ld  [ %l7 + %g2 ], %o1
    13f8:	40 00 5b 81 	call  181fc <__nss_lookup_function@plt>
    13fc:	d0 04 40 00 	ld  [ %l1 ], %o0
    1400:	03 00 00 00 	sethi  %hi(0), %g1
    1404:	05 00 00 00 	sethi  %hi(0), %g2
    1408:	d0 24 00 00 	st  %o0, [ %l0 ]
    140c:	82 10 60 20 	or  %g1, 0x20, %g1
    1410:	84 10 a0 40 	or  %g2, 0x40, %g2
    1414:	e0 05 c0 01 	ld  [ %l7 + %g1 ], %l0
    1418:	d2 05 c0 02 	ld  [ %l7 + %g2 ], %o1
    141c:	40 00 5b 78 	call  181fc <__nss_lookup_function@plt>
    1420:	d0 04 40 00 	ld  [ %l1 ], %o0
    1424:	03 00 00 00 	sethi  %hi(0), %g1
    1428:	05 00 00 00 	sethi  %hi(0), %g2
    142c:	d0 24 00 00 	st  %o0, [ %l0 ]
    1430:	82 10 60 24 	or  %g1, 0x24, %g1
    1434:	84 10 a0 44 	or  %g2, 0x44, %g2
    1438:	e0 05 c0 01 	ld  [ %l7 + %g1 ], %l0
    143c:	d2 05 c0 02 	ld  [ %l7 + %g2 ], %o1
    1440:	40 00 5b 6f 	call  181fc <__nss_lookup_function@plt>
    1444:	d0 04 40 00 	ld  [ %l1 ], %o0
    1448:	03 00 00 00 	sethi  %hi(0), %g1
    144c:	05 00 00 00 	sethi  %hi(0), %g2
    1450:	d0 24 00 00 	st  %o0, [ %l0 ]
    1454:	82 10 60 28 	or  %g1, 0x28, %g1
    1458:	84 10 a0 48 	or  %g2, 0x48, %g2
    145c:	e0 05 c0 01 	ld  [ %l7 + %g1 ], %l0
    1460:	d0 04 40 00 	ld  [ %l1 ], %o0
    1464:	40 00 5b 66 	call  181fc <__nss_lookup_function@plt>
    1468:	d2 05 c0 02 	ld  [ %l7 + %g2 ], %o1
    146c:	d0 24 00 00 	st  %o0, [ %l0 ]
    1470:	81 c7 e0 08 	ret 
    1474:	81 e8 00 00 	restore 

00001478 <internal_setgrent>:
internal_setgrent():
    1478:	9d e3 bf 90 	save  %sp, -112, %sp
    147c:	a2 10 20 01 	mov  1, %l1
    1480:	c4 06 20 0c 	ld  [ %i0 + 0xc ], %g2
    1484:	2f 00 00 5a 	sethi  %hi(0x16800), %l7
    1488:	7f ff ff b9 	call  136c <call_frame_dummy+0xc>
    148c:	ae 05 e3 78 	add  %l7, 0x378, %l7	! 16b78 <__FRAME_END__+0x10850>
    1490:	80 a0 a0 00 	cmp  %g2, 0
    1494:	02 80 00 26 	be  152c <internal_setgrent+0xb4>
    1498:	e2 26 00 00 	st  %l1, [ %i0 ]
    149c:	e2 26 20 10 	st  %l1, [ %i0 + 0x10 ]
    14a0:	82 10 20 7c 	mov  0x7c, %g1
    14a4:	c2 28 80 00 	stb  %g1, [ %g2 ]
    14a8:	c4 06 20 0c 	ld  [ %i0 + 0xc ], %g2
    14ac:	c0 28 a0 01 	clrb  [ %g2 + 1 ]
    14b0:	d0 06 20 08 	ld  [ %i0 + 8 ], %o0
    14b4:	80 a2 20 00 	cmp  %o0, 0
    14b8:	12 80 00 21 	bne  153c <internal_setgrent+0xc4>
    14bc:	01 00 00 00 	nop 
    14c0:	03 00 00 00 	sethi  %hi(0), %g1
    14c4:	05 00 00 00 	sethi  %hi(0), %g2
    14c8:	82 10 60 4c 	or  %g1, 0x4c, %g1
    14cc:	84 10 a0 50 	or  %g2, 0x50, %g2
    14d0:	d0 05 c0 01 	ld  [ %l7 + %g1 ], %o0
    14d4:	40 00 5b 77 	call  182b0 <fopen@plt>
    14d8:	d2 05 c0 02 	ld  [ %l7 + %g2 ], %o1
    14dc:	82 92 20 00 	orcc  %o0, 0, %g1
    14e0:	12 80 00 2b 	bne  158c <internal_setgrent+0x114>
    14e4:	c2 26 20 08 	st  %g1, [ %i0 + 8 ]
    14e8:	40 00 5b 2a 	call  18190 <__errno_location@plt>
    14ec:	01 00 00 00 	nop 
    14f0:	c2 02 00 00 	ld  [ %o0 ], %g1
    14f4:	82 18 60 0b 	xor  %g1, 0xb, %g1
    14f8:	80 a0 00 01 	cmp  %g0, %g1
    14fc:	84 40 20 00 	addx  %g0, 0, %g2
    1500:	80 a0 00 1a 	cmp  %g0, %i2
    1504:	a2 00 bf fe 	add  %g2, -2, %l1
    1508:	82 40 20 00 	addx  %g0, 0, %g1
    150c:	84 1c 60 01 	xor  %l1, 1, %g2
    1510:	80 a0 00 02 	cmp  %g0, %g2
    1514:	86 60 3f ff 	subx  %g0, -1, %g3
    1518:	80 88 40 03 	btst  %g1, %g3
    151c:	02 80 00 37 	be  15f8 <internal_setgrent+0x180>
    1520:	03 00 00 00 	sethi  %hi(0), %g1
    1524:	10 80 00 11 	b  1568 <internal_setgrent+0xf0>
    1528:	82 10 60 18 	or  %g1, 0x18, %g1	! 18 <GLIBC_PRIVATE+0x18>
    152c:	d0 06 20 08 	ld  [ %i0 + 8 ], %o0
    1530:	80 a2 20 00 	cmp  %o0, 0
    1534:	02 bf ff e3 	be  14c0 <internal_setgrent+0x48>
    1538:	c0 26 20 10 	clr  [ %i0 + 0x10 ]
    153c:	40 00 5b 18 	call  1819c <rewind@plt>
    1540:	01 00 00 00 	nop 
    1544:	80 a0 00 1a 	cmp  %g0, %i2
    1548:	82 40 20 00 	addx  %g0, 0, %g1
    154c:	84 1c 60 01 	xor  %l1, 1, %g2
    1550:	80 a0 00 02 	cmp  %g0, %g2
    1554:	86 60 3f ff 	subx  %g0, -1, %g3
    1558:	80 88 40 03 	btst  %g1, %g3
    155c:	02 80 00 27 	be  15f8 <internal_setgrent+0x180>
    1560:	03 00 00 00 	sethi  %hi(0), %g1
    1564:	82 10 60 18 	or  %g1, 0x18, %g1	! 18 <GLIBC_PRIVATE+0x18>
    1568:	c4 05 c0 01 	ld  [ %l7 + %g1 ], %g2
    156c:	c4 00 80 00 	ld  [ %g2 ], %g2
    1570:	80 a0 a0 00 	cmp  %g2, 0
    1574:	02 80 00 21 	be  15f8 <internal_setgrent+0x180>
    1578:	01 00 00 00 	nop 
    157c:	9f c0 80 00 	call  %g2
    1580:	90 10 00 19 	mov  %i1, %o0
    1584:	10 80 00 1d 	b  15f8 <internal_setgrent+0x180>
    1588:	d0 26 20 04 	st  %o0, [ %i0 + 4 ]
    158c:	40 00 5b 25 	call  18220 <fileno_unlocked@plt>
    1590:	01 00 00 00 	nop 
    1594:	92 10 20 01 	mov  1, %o1	! 1 <GLIBC_PRIVATE+0x1>
    1598:	40 00 5b 2b 	call  18244 <fcntl@plt>
    159c:	94 10 20 00 	clr  %o2
    15a0:	a0 92 20 00 	orcc  %o0, 0, %l0
    15a4:	06 80 00 10 	bl  15e4 <internal_setgrent+0x16c>
    15a8:	01 00 00 00 	nop 
    15ac:	40 00 5b 1d 	call  18220 <fileno_unlocked@plt>
    15b0:	d0 06 20 08 	ld  [ %i0 + 8 ], %o0
    15b4:	a0 14 20 01 	or  %l0, 1, %l0
    15b8:	94 10 00 10 	mov  %l0, %o2
    15bc:	40 00 5b 22 	call  18244 <fcntl@plt>
    15c0:	92 10 20 02 	mov  2, %o1
    15c4:	80 a2 20 00 	cmp  %o0, 0
    15c8:	06 80 00 07 	bl  15e4 <internal_setgrent+0x16c>
    15cc:	01 00 00 00 	nop 
    15d0:	d0 06 20 08 	ld  [ %i0 + 8 ], %o0
    15d4:	40 00 5b 2b 	call  18280 <__fsetlocking@plt>
    15d8:	92 10 20 02 	mov  2, %o1
    15dc:	10 bf ff db 	b  1548 <internal_setgrent+0xd0>
    15e0:	80 a0 00 1a 	cmp  %g0, %i2
    15e4:	40 00 5b 1e 	call  1825c <fclose@plt>
    15e8:	d0 06 20 08 	ld  [ %i0 + 8 ], %o0
    15ec:	c0 26 20 08 	clr  [ %i0 + 8 ]
    15f0:	10 bf ff d5 	b  1544 <internal_setgrent+0xcc>
    15f4:	a2 10 3f ff 	mov  -1, %l1
    15f8:	81 c7 e0 08 	ret 
    15fc:	91 e8 00 11 	restore  %g0, %l1, %o0

00001600 <_nss_compat_setgrent>:
_nss_compat_setgrent():
    1600:	9d e3 bf 90 	save  %sp, -112, %sp
    1604:	03 00 00 00 	sethi  %hi(0), %g1
    1608:	2f 00 00 5a 	sethi  %hi(0x16800), %l7
    160c:	7f ff ff 58 	call  136c <call_frame_dummy+0xc>
    1610:	ae 05 e1 f4 	add  %l7, 0x1f4, %l7	! 169f4 <__FRAME_END__+0x106cc>
    1614:	82 10 61 1c 	or  %g1, 0x11c, %g1
    1618:	05 00 00 00 	sethi  %hi(0), %g2
    161c:	c2 05 c0 01 	ld  [ %l7 + %g1 ], %g1
    1620:	80 a0 60 00 	cmp  %g1, 0
    1624:	02 80 00 04 	be  1634 <_nss_compat_setgrent+0x34>
    1628:	84 10 a0 2c 	or  %g2, 0x2c, %g2
    162c:	9f c0 40 00 	call  %g1
    1630:	d0 05 c0 02 	ld  [ %l7 + %g2 ], %o0
    1634:	03 00 00 00 	sethi  %hi(0), %g1
    1638:	82 10 60 14 	or  %g1, 0x14, %g1	! 14 <GLIBC_PRIVATE+0x14>
    163c:	c4 05 c0 01 	ld  [ %l7 + %g1 ], %g2
    1640:	c6 00 80 00 	ld  [ %g2 ], %g3
    1644:	80 a0 e0 00 	cmp  %g3, 0
    1648:	02 80 00 13 	be  1694 <_nss_compat_setgrent+0x94>
    164c:	01 00 00 00 	nop 
    1650:	03 00 00 00 	sethi  %hi(0), %g1
    1654:	82 10 60 10 	or  %g1, 0x10, %g1	! 10 <GLIBC_PRIVATE+0x10>
    1658:	92 10 00 18 	mov  %i0, %o1
    165c:	d0 05 c0 01 	ld  [ %l7 + %g1 ], %o0
    1660:	7f ff ff 86 	call  1478 <internal_setgrent>
    1664:	94 10 20 01 	mov  1, %o2
    1668:	03 00 00 00 	sethi  %hi(0), %g1
    166c:	82 10 61 24 	or  %g1, 0x124, %g1	! 124 <GLIBC_PRIVATE+0x124>
    1670:	05 00 00 00 	sethi  %hi(0), %g2
    1674:	c2 05 c0 01 	ld  [ %l7 + %g1 ], %g1
    1678:	b0 10 00 08 	mov  %o0, %i0
    167c:	80 a0 60 00 	cmp  %g1, 0
    1680:	02 80 00 09 	be  16a4 <_nss_compat_setgrent+0xa4>
    1684:	84 10 a0 2c 	or  %g2, 0x2c, %g2
    1688:	9f c0 40 00 	call  %g1
    168c:	d0 05 c0 02 	ld  [ %l7 + %g2 ], %o0
    1690:	30 80 00 05 	b,a   16a4 <_nss_compat_setgrent+0xa4>
    1694:	7f ff ff 38 	call  1374 <init_nss_interface>
    1698:	01 00 00 00 	nop 
    169c:	10 bf ff ee 	b  1654 <_nss_compat_setgrent+0x54>
    16a0:	03 00 00 00 	sethi  %hi(0), %g1
    16a4:	81 c7 e0 08 	ret 
    16a8:	81 e8 00 00 	restore 

000016ac <internal_endgrent>:
internal_endgrent():
    16ac:	9d e3 bf 90 	save  %sp, -112, %sp
    16b0:	03 00 00 00 	sethi  %hi(0), %g1
    16b4:	2f 00 00 5a 	sethi  %hi(0x16800), %l7
    16b8:	7f ff ff 2d 	call  136c <call_frame_dummy+0xc>
    16bc:	ae 05 e1 48 	add  %l7, 0x148, %l7	! 16948 <__FRAME_END__+0x10620>
    16c0:	82 10 60 28 	or  %g1, 0x28, %g1
    16c4:	c4 05 c0 01 	ld  [ %l7 + %g1 ], %g2
    16c8:	c4 00 80 00 	ld  [ %g2 ], %g2
    16cc:	80 a0 a0 00 	cmp  %g2, 0
    16d0:	12 80 00 11 	bne  1714 <internal_endgrent+0x68>
    16d4:	01 00 00 00 	nop 
    16d8:	c2 06 20 08 	ld  [ %i0 + 8 ], %g1
    16dc:	90 90 60 00 	orcc  %g1, 0, %o0
    16e0:	12 80 00 13 	bne  172c <internal_endgrent+0x80>
    16e4:	01 00 00 00 	nop 
    16e8:	c6 06 20 0c 	ld  [ %i0 + 0xc ], %g3
    16ec:	80 a0 e0 00 	cmp  %g3, 0
    16f0:	22 80 00 13 	be,a   173c <internal_endgrent+0x90>
    16f4:	c0 26 20 10 	clr  [ %i0 + 0x10 ]
    16f8:	82 10 20 01 	mov  1, %g1
    16fc:	c2 26 20 10 	st  %g1, [ %i0 + 0x10 ]
    1700:	84 10 20 7c 	mov  0x7c, %g2
    1704:	c4 28 c0 00 	stb  %g2, [ %g3 ]
    1708:	c2 06 20 0c 	ld  [ %i0 + 0xc ], %g1
    170c:	10 80 00 0c 	b  173c <internal_endgrent+0x90>
    1710:	c0 28 60 01 	clrb  [ %g1 + 1 ]
    1714:	9f c0 80 00 	call  %g2
    1718:	01 00 00 00 	nop 
    171c:	c2 06 20 08 	ld  [ %i0 + 8 ], %g1
    1720:	90 90 60 00 	orcc  %g1, 0, %o0
    1724:	22 bf ff f2 	be,a   16ec <internal_endgrent+0x40>
    1728:	c6 06 20 0c 	ld  [ %i0 + 0xc ], %g3
    172c:	40 00 5a cc 	call  1825c <fclose@plt>
    1730:	01 00 00 00 	nop 
    1734:	10 bf ff ed 	b  16e8 <internal_endgrent+0x3c>
    1738:	c0 26 20 08 	clr  [ %i0 + 8 ]
    173c:	81 c7 e0 08 	ret 
    1740:	91 e8 20 01 	restore  %g0, 1, %o0

00001744 <_nss_compat_endgrent>:
_nss_compat_endgrent():
    1744:	9d e3 bf 90 	save  %sp, -112, %sp
    1748:	03 00 00 00 	sethi  %hi(0), %g1
    174c:	2f 00 00 5a 	sethi  %hi(0x16800), %l7
    1750:	7f ff ff 07 	call  136c <call_frame_dummy+0xc>
    1754:	ae 05 e0 b0 	add  %l7, 0xb0, %l7	! 168b0 <__FRAME_END__+0x10588>
    1758:	82 10 61 1c 	or  %g1, 0x11c, %g1
    175c:	05 00 00 00 	sethi  %hi(0), %g2
    1760:	c2 05 c0 01 	ld  [ %l7 + %g1 ], %g1
    1764:	80 a0 60 00 	cmp  %g1, 0
    1768:	02 80 00 04 	be  1778 <_nss_compat_endgrent+0x34>
    176c:	84 10 a0 2c 	or  %g2, 0x2c, %g2
    1770:	9f c0 40 00 	call  %g1
    1774:	d0 05 c0 02 	ld  [ %l7 + %g2 ], %o0
    1778:	03 00 00 00 	sethi  %hi(0), %g1
    177c:	82 10 60 10 	or  %g1, 0x10, %g1	! 10 <GLIBC_PRIVATE+0x10>
    1780:	7f ff ff cb 	call  16ac <internal_endgrent>
    1784:	d0 05 c0 01 	ld  [ %l7 + %g1 ], %o0
    1788:	03 00 00 00 	sethi  %hi(0), %g1
    178c:	82 10 61 24 	or  %g1, 0x124, %g1	! 124 <GLIBC_PRIVATE+0x124>
    1790:	05 00 00 00 	sethi  %hi(0), %g2
    1794:	c2 05 c0 01 	ld  [ %l7 + %g1 ], %g1
    1798:	b0 10 00 08 	mov  %o0, %i0
    179c:	80 a0 60 00 	cmp  %g1, 0
    17a0:	02 80 00 04 	be  17b0 <_nss_compat_endgrent+0x6c>
    17a4:	84 10 a0 2c 	or  %g2, 0x2c, %g2
    17a8:	9f c0 40 00 	call  %g1
    17ac:	d0 05 c0 02 	ld  [ %l7 + %g2 ], %o0
    17b0:	81 c7 e0 08 	ret 
    17b4:	81 e8 00 00 	restore 

000017b8 <in_blacklist>:
in_blacklist():
    17b8:	9d e3 bf 90 	save  %sp, -112, %sp
    17bc:	b2 06 60 0a 	add  %i1, 0xa, %i1
    17c0:	b2 0e 7f f8 	and  %i1, -8, %i1
    17c4:	a0 10 00 0e 	mov  %sp, %l0
    17c8:	9c 23 80 19 	sub  %sp, %i1, %sp
    17cc:	c2 06 a0 0c 	ld  [ %i2 + 0xc ], %g1
    17d0:	92 10 00 18 	mov  %i0, %o1
    17d4:	b2 03 a0 60 	add  %sp, 0x60, %i1
    17d8:	a2 10 20 7c 	mov  0x7c, %l1
    17dc:	80 a0 60 00 	cmp  %g1, 0
    17e0:	90 06 60 01 	add  %i1, 1, %o0
    17e4:	12 80 00 04 	bne  17f4 <in_blacklist+0x3c>
    17e8:	b0 10 20 00 	clr  %i0
    17ec:	10 80 00 0c 	b  181c <in_blacklist+0x64>
    17f0:	9c 10 00 10 	mov  %l0, %sp
    17f4:	40 00 5a 85 	call  18208 <stpcpy@plt>
    17f8:	e2 2e 40 00 	stb  %l1, [ %i1 ]
    17fc:	e2 2a 00 00 	stb  %l1, [ %o0 ]
    1800:	c0 2a 20 01 	clrb  [ %o0 + 1 ]
    1804:	d0 06 a0 0c 	ld  [ %i2 + 0xc ], %o0
    1808:	40 00 5a 74 	call  181d8 <strstr@plt>
    180c:	92 10 00 19 	mov  %i1, %o1
    1810:	80 a0 00 08 	cmp  %g0, %o0
    1814:	b0 40 20 00 	addx  %g0, 0, %i0
    1818:	9c 10 00 10 	mov  %l0, %sp
    181c:	81 c7 e0 08 	ret 
    1820:	81 e8 00 00 	restore 

00001824 <blacklist_store_name>:
blacklist_store_name():
    1824:	9d e3 bf 90 	save  %sp, -112, %sp
    1828:	40 00 5a 6f 	call  181e4 <strlen@plt>
    182c:	90 10 00 18 	mov  %i0, %o0
    1830:	c2 06 60 14 	ld  [ %i1 + 0x14 ], %g1
    1834:	80 a0 60 00 	cmp  %g1, 0
    1838:	12 80 00 1b 	bne  18a4 <blacklist_store_name+0x80>
    183c:	a0 10 00 08 	mov  %o0, %l0
    1840:	90 02 00 08 	add  %o0, %o0, %o0
    1844:	80 a2 22 00 	cmp  %o0, 0x200
    1848:	26 80 00 02 	bl,a   1850 <blacklist_store_name+0x2c>
    184c:	90 10 22 00 	mov  0x200, %o0
    1850:	40 00 5a 56 	call  181a8 <malloc@plt>
    1854:	d0 26 60 14 	st  %o0, [ %i1 + 0x14 ]
    1858:	80 a2 20 00 	cmp  %o0, 0
    185c:	02 80 00 31 	be  1920 <blacklist_store_name+0xfc>
    1860:	d0 26 60 0c 	st  %o0, [ %i1 + 0xc ]
    1864:	82 10 20 7c 	mov  0x7c, %g1
    1868:	c2 2a 00 00 	stb  %g1, [ %o0 ]
    186c:	c0 2a 20 01 	clrb  [ %o0 + 1 ]
    1870:	84 10 20 01 	mov  1, %g2
    1874:	c4 26 60 10 	st  %g2, [ %i1 + 0x10 ]
    1878:	90 02 00 02 	add  %o0, %g2, %o0
    187c:	40 00 5a 63 	call  18208 <stpcpy@plt>
    1880:	92 10 00 18 	mov  %i0, %o1
    1884:	82 10 20 7c 	mov  0x7c, %g1
    1888:	c2 2a 00 00 	stb  %g1, [ %o0 ]
    188c:	c0 2a 20 01 	clrb  [ %o0 + 1 ]
    1890:	c2 06 60 10 	ld  [ %i1 + 0x10 ], %g1
    1894:	82 00 40 10 	add  %g1, %l0, %g1
    1898:	82 00 60 01 	inc  %g1
    189c:	10 80 00 21 	b  1920 <blacklist_store_name+0xfc>
    18a0:	c2 26 60 10 	st  %g1, [ %i1 + 0x10 ]
    18a4:	90 10 00 18 	mov  %i0, %o0
    18a8:	92 10 00 10 	mov  %l0, %o1
    18ac:	7f ff ff c3 	call  17b8 <in_blacklist>
    18b0:	94 10 00 19 	mov  %i1, %o2
    18b4:	80 a2 20 00 	cmp  %o0, 0
    18b8:	12 80 00 1a 	bne  1920 <blacklist_store_name+0xfc>
    18bc:	01 00 00 00 	nop 
    18c0:	c4 06 60 10 	ld  [ %i1 + 0x10 ], %g2
    18c4:	82 00 80 10 	add  %g2, %l0, %g1
    18c8:	82 00 60 01 	inc  %g1
    18cc:	c6 06 60 14 	ld  [ %i1 + 0x14 ], %g3
    18d0:	80 a0 40 03 	cmp  %g1, %g3
    18d4:	26 bf ff e9 	bl,a   1878 <blacklist_store_name+0x54>
    18d8:	d0 06 60 0c 	ld  [ %i1 + 0xc ], %o0
    18dc:	92 04 00 10 	add  %l0, %l0, %o1
    18e0:	80 a2 61 00 	cmp  %o1, 0x100
    18e4:	26 80 00 02 	bl,a   18ec <blacklist_store_name+0xc8>
    18e8:	92 10 21 00 	mov  0x100, %o1
    18ec:	92 00 c0 09 	add  %g3, %o1, %o1
    18f0:	d2 26 60 14 	st  %o1, [ %i1 + 0x14 ]
    18f4:	40 00 5a 4e 	call  1822c <realloc@plt>
    18f8:	d0 06 60 0c 	ld  [ %i1 + 0xc ], %o0
    18fc:	80 a2 20 00 	cmp  %o0, 0
    1900:	02 80 00 05 	be  1914 <blacklist_store_name+0xf0>
    1904:	01 00 00 00 	nop 
    1908:	d0 26 60 0c 	st  %o0, [ %i1 + 0xc ]
    190c:	10 bf ff db 	b  1878 <blacklist_store_name+0x54>
    1910:	c4 06 60 10 	ld  [ %i1 + 0x10 ], %g2
    1914:	40 00 5a 5e 	call  1828c <free@plt>
    1918:	d0 06 60 0c 	ld  [ %i1 + 0xc ], %o0
    191c:	c0 26 60 14 	clr  [ %i1 + 0x14 ]
    1920:	81 c7 e0 08 	ret 
    1924:	81 e8 00 00 	restore 

00001928 <getgrnam_plusgroup>:
getgrnam_plusgroup():
    1928:	9d e3 bf 90 	save  %sp, -112, %sp
    192c:	03 00 00 00 	sethi  %hi(0), %g1
    1930:	2f 00 00 59 	sethi  %hi(0x16400), %l7
    1934:	7f ff fe 8e 	call  136c <call_frame_dummy+0xc>
    1938:	ae 05 e2 cc 	add  %l7, 0x2cc, %l7	! 166cc <__FRAME_END__+0x103a4>
    193c:	82 10 60 1c 	or  %g1, 0x1c, %g1
    1940:	c4 05 c0 01 	ld  [ %l7 + %g1 ], %g2
    1944:	c4 00 80 00 	ld  [ %g2 ], %g2
    1948:	90 10 00 18 	mov  %i0, %o0
    194c:	92 10 00 19 	mov  %i1, %o1
    1950:	80 a0 a0 00 	cmp  %g2, 0
    1954:	94 10 00 1b 	mov  %i3, %o2
    1958:	96 10 00 1c 	mov  %i4, %o3
    195c:	98 10 00 1d 	mov  %i5, %o4
    1960:	02 80 00 0f 	be  199c <getgrnam_plusgroup+0x74>
    1964:	b0 10 3f ff 	mov  -1, %i0
    1968:	9f c0 80 00 	call  %g2
    196c:	01 00 00 00 	nop 
    1970:	80 a2 20 01 	cmp  %o0, 1
    1974:	12 80 00 0a 	bne  199c <getgrnam_plusgroup+0x74>
    1978:	b0 10 00 08 	mov  %o0, %i0
    197c:	40 00 5a 1a 	call  181e4 <strlen@plt>
    1980:	d0 06 40 00 	ld  [ %i1 ], %o0
    1984:	92 10 00 08 	mov  %o0, %o1
    1988:	d0 06 40 00 	ld  [ %i1 ], %o0
    198c:	7f ff ff 8b 	call  17b8 <in_blacklist>
    1990:	94 10 00 1a 	mov  %i2, %o2
    1994:	80 a0 00 08 	cmp  %g0, %o0
    1998:	b0 60 3f ff 	subx  %g0, -1, %i0
    199c:	81 c7 e0 08 	ret 
    19a0:	81 e8 00 00 	restore 

000019a4 <_nss_compat_getgrgid_r>:
_nss_compat_getgrgid_r():
    19a4:	9d e3 bf 68 	save  %sp, -152, %sp
    19a8:	03 00 00 00 	sethi  %hi(0), %g1
    19ac:	2f 00 00 59 	sethi  %hi(0x16400), %l7
    19b0:	7f ff fe 6f 	call  136c <call_frame_dummy+0xc>
    19b4:	ae 05 e2 50 	add  %l7, 0x250, %l7	! 16650 <__FRAME_END__+0x10328>
    19b8:	82 10 61 1c 	or  %g1, 0x11c, %g1
    19bc:	84 10 20 01 	mov  1, %g2
    19c0:	c6 05 c0 01 	ld  [ %l7 + %g1 ], %g3
    19c4:	c4 27 bf dc 	st  %g2, [ %fp + -36 ]
    19c8:	a8 10 00 18 	mov  %i0, %l4
    19cc:	c4 27 bf d8 	st  %g2, [ %fp + -40 ]
    19d0:	c0 27 bf e0 	clr  [ %fp + -32 ]
    19d4:	c0 27 bf e4 	clr  [ %fp + -28 ]
    19d8:	c0 27 bf e8 	clr  [ %fp + -24 ]
    19dc:	80 a0 e0 00 	cmp  %g3, 0
    19e0:	02 80 00 06 	be  19f8 <_nss_compat_getgrgid_r+0x54>
    19e4:	c0 27 bf ec 	clr  [ %fp + -20 ]
    19e8:	03 00 00 00 	sethi  %hi(0), %g1
    19ec:	82 10 60 2c 	or  %g1, 0x2c, %g1	! 2c <GLIBC_PRIVATE+0x2c>
    19f0:	9f c0 c0 00 	call  %g3
    19f4:	d0 05 c0 01 	ld  [ %l7 + %g1 ], %o0
    19f8:	03 00 00 00 	sethi  %hi(0), %g1
    19fc:	82 10 60 14 	or  %g1, 0x14, %g1	! 14 <GLIBC_PRIVATE+0x14>
    1a00:	c4 05 c0 01 	ld  [ %l7 + %g1 ], %g2
    1a04:	c6 00 80 00 	ld  [ %g2 ], %g3
    1a08:	80 a0 e0 00 	cmp  %g3, 0
    1a0c:	02 80 00 7e 	be  1c04 <_nss_compat_getgrgid_r+0x260>
    1a10:	01 00 00 00 	nop 
    1a14:	03 00 00 00 	sethi  %hi(0), %g1
    1a18:	82 10 61 24 	or  %g1, 0x124, %g1	! 124 <GLIBC_PRIVATE+0x124>
    1a1c:	c4 05 c0 01 	ld  [ %l7 + %g1 ], %g2
    1a20:	80 a0 a0 00 	cmp  %g2, 0
    1a24:	02 80 00 05 	be  1a38 <_nss_compat_getgrgid_r+0x94>
    1a28:	03 00 00 00 	sethi  %hi(0), %g1
    1a2c:	82 10 60 2c 	or  %g1, 0x2c, %g1	! 2c <GLIBC_PRIVATE+0x2c>
    1a30:	9f c0 80 00 	call  %g2
    1a34:	d0 05 c0 01 	ld  [ %l7 + %g1 ], %o0
    1a38:	a4 07 bf d8 	add  %fp, -40, %l2
    1a3c:	90 10 00 12 	mov  %l2, %o0
    1a40:	92 10 20 00 	clr  %o1
    1a44:	7f ff fe 8d 	call  1478 <internal_setgrent>
    1a48:	94 10 20 00 	clr  %o2
    1a4c:	b0 10 00 08 	mov  %o0, %i0
    1a50:	80 a2 20 01 	cmp  %o0, 1
    1a54:	a6 07 bf c8 	add  %fp, -56, %l3
    1a58:	12 80 00 8e 	bne  1c90 <_nss_compat_getgrgid_r+0x2ec>
    1a5c:	a2 06 80 1b 	add  %i2, %i3, %l1
    1a60:	10 80 00 09 	b  1a84 <_nss_compat_getgrgid_r+0xe0>
    1a64:	80 a6 e0 02 	cmp  %i3, 2
    1a68:	80 a0 60 00 	cmp  %g1, 0
    1a6c:	22 80 00 43 	be,a   1b78 <_nss_compat_getgrgid_r+0x1d4>
    1a70:	c2 4a 00 00 	ldsb  [ %o0 ], %g1
    1a74:	90 02 20 01 	inc  %o0
    1a78:	7f ff ff 6b 	call  1824 <blacklist_store_name>
    1a7c:	92 10 00 12 	mov  %l2, %o1
    1a80:	80 a6 e0 02 	cmp  %i3, 2
    1a84:	08 80 00 6b 	bleu  1c30 <_nss_compat_getgrgid_r+0x28c>
    1a88:	92 10 00 13 	mov  %l3, %o1
    1a8c:	40 00 5a 0c 	call  182bc <fgetpos@plt>
    1a90:	d0 04 a0 08 	ld  [ %l2 + 8 ], %o0
    1a94:	82 10 3f ff 	mov  -1, %g1
    1a98:	c2 2c 7f ff 	stb  %g1, [ %l1 + -1 ]
    1a9c:	90 10 00 1a 	mov  %i2, %o0
    1aa0:	92 10 00 1b 	mov  %i3, %o1
    1aa4:	40 00 59 c7 	call  181c0 <fgets_unlocked@plt>
    1aa8:	d4 04 a0 08 	ld  [ %l2 + 8 ], %o2
    1aac:	a0 92 20 00 	orcc  %o0, 0, %l0
    1ab0:	22 80 00 59 	be,a   1c14 <_nss_compat_getgrgid_r+0x270>
    1ab4:	c2 04 a0 08 	ld  [ %l2 + 8 ], %g1
    1ab8:	c2 4c 7f ff 	ldsb  [ %l1 + -1 ], %g1
    1abc:	80 a0 7f ff 	cmp  %g1, -1
    1ac0:	12 80 00 5a 	bne  1c28 <_nss_compat_getgrgid_r+0x284>
    1ac4:	92 10 00 13 	mov  %l3, %o1
    1ac8:	40 00 5a 03 	call  182d4 <__ctype_b_loc@plt>
    1acc:	c0 2c 7f ff 	clrb  [ %l1 + -1 ]
    1ad0:	d0 02 00 00 	ld  [ %o0 ], %o0
    1ad4:	c6 4c 00 00 	ldsb  [ %l0 ], %g3
    1ad8:	82 00 c0 03 	add  %g3, %g3, %g1
    1adc:	c4 12 00 01 	lduh  [ %o0 + %g1 ], %g2
    1ae0:	80 88 a0 20 	btst  0x20, %g2
    1ae4:	32 bf ff fc 	bne,a   1ad4 <_nss_compat_getgrgid_r+0x130>
    1ae8:	a0 04 20 01 	inc  %l0
    1aec:	80 a0 00 03 	cmp  %g0, %g3
    1af0:	82 60 3f ff 	subx  %g0, -1, %g1
    1af4:	84 18 e0 23 	xor  %g3, 0x23, %g2
    1af8:	80 a0 00 02 	cmp  %g0, %g2
    1afc:	86 60 3f ff 	subx  %g0, -1, %g3
    1b00:	80 90 40 03 	orcc  %g1, %g3, %g0
    1b04:	12 bf ff e0 	bne  1a84 <_nss_compat_getgrgid_r+0xe0>
    1b08:	80 a6 e0 02 	cmp  %i3, 2
    1b0c:	90 10 00 10 	mov  %l0, %o0
    1b10:	92 10 00 19 	mov  %i1, %o1
    1b14:	94 10 00 1a 	mov  %i2, %o2
    1b18:	96 10 00 1b 	mov  %i3, %o3
    1b1c:	40 00 59 a6 	call  181b4 <_nss_files_parse_grent@plt>
    1b20:	98 10 00 1c 	mov  %i4, %o4
    1b24:	80 a2 20 00 	cmp  %o0, 0
    1b28:	02 bf ff d7 	be  1a84 <_nss_compat_getgrgid_r+0xe0>
    1b2c:	80 a6 e0 02 	cmp  %i3, 2
    1b30:	80 a2 3f ff 	cmp  %o0, -1
    1b34:	02 80 00 3d 	be  1c28 <_nss_compat_getgrgid_r+0x284>
    1b38:	92 10 00 13 	mov  %l3, %o1
    1b3c:	d0 06 40 00 	ld  [ %i1 ], %o0
    1b40:	c8 4a 00 00 	ldsb  [ %o0 ], %g4
    1b44:	82 19 20 2b 	xor  %g4, 0x2b, %g1
    1b48:	80 a0 00 01 	cmp  %g0, %g1
    1b4c:	86 40 20 00 	addx  %g0, 0, %g3
    1b50:	82 19 20 2d 	xor  %g4, 0x2d, %g1
    1b54:	80 a0 00 01 	cmp  %g0, %g1
    1b58:	84 40 20 00 	addx  %g0, 0, %g2
    1b5c:	80 88 c0 02 	btst  %g3, %g2
    1b60:	32 80 00 47 	bne,a   1c7c <_nss_compat_getgrgid_r+0x2d8>
    1b64:	c2 06 60 08 	ld  [ %i1 + 8 ], %g1
    1b68:	80 a1 20 2d 	cmp  %g4, 0x2d
    1b6c:	22 bf ff bf 	be,a   1a68 <_nss_compat_getgrgid_r+0xc4>
    1b70:	c2 4a 20 01 	ldsb  [ %o0 + 1 ], %g1
    1b74:	c2 4a 00 00 	ldsb  [ %o0 ], %g1
    1b78:	80 a0 60 2b 	cmp  %g1, 0x2b
    1b7c:	12 bf ff c2 	bne  1a84 <_nss_compat_getgrgid_r+0xe0>
    1b80:	80 a6 e0 02 	cmp  %i3, 2
    1b84:	c2 4a 20 01 	ldsb  [ %o0 + 1 ], %g1
    1b88:	80 a0 60 00 	cmp  %g1, 0
    1b8c:	32 80 00 2e 	bne,a   1c44 <_nss_compat_getgrgid_r+0x2a0>
    1b90:	90 02 20 01 	inc  %o0
    1b94:	c2 4a 00 00 	ldsb  [ %o0 ], %g1
    1b98:	80 a0 60 2b 	cmp  %g1, 0x2b
    1b9c:	12 bf ff ba 	bne  1a84 <_nss_compat_getgrgid_r+0xe0>
    1ba0:	80 a6 e0 02 	cmp  %i3, 2
    1ba4:	c2 4a 20 01 	ldsb  [ %o0 + 1 ], %g1
    1ba8:	80 a0 60 00 	cmp  %g1, 0
    1bac:	12 bf ff b6 	bne  1a84 <_nss_compat_getgrgid_r+0xe0>
    1bb0:	80 a6 e0 02 	cmp  %i3, 2
    1bb4:	03 00 00 00 	sethi  %hi(0), %g1
    1bb8:	82 10 60 20 	or  %g1, 0x20, %g1	! 20 <GLIBC_PRIVATE+0x20>
    1bbc:	c4 05 c0 01 	ld  [ %l7 + %g1 ], %g2
    1bc0:	c4 00 80 00 	ld  [ %g2 ], %g2
    1bc4:	80 a0 a0 00 	cmp  %g2, 0
    1bc8:	02 80 00 0d 	be  1bfc <_nss_compat_getgrgid_r+0x258>
    1bcc:	90 10 3f ff 	mov  -1, %o0
    1bd0:	90 10 00 14 	mov  %l4, %o0
    1bd4:	92 10 00 19 	mov  %i1, %o1
    1bd8:	94 10 00 1a 	mov  %i2, %o2
    1bdc:	96 10 00 1b 	mov  %i3, %o3
    1be0:	9f c0 80 00 	call  %g2
    1be4:	98 10 00 1c 	mov  %i4, %o4
    1be8:	82 10 00 08 	mov  %o0, %g1
    1bec:	80 a2 20 02 	cmp  %o0, 2
    1bf0:	02 80 00 03 	be  1bfc <_nss_compat_getgrgid_r+0x258>
    1bf4:	90 10 20 00 	clr  %o0
    1bf8:	90 10 00 01 	mov  %g1, %o0
    1bfc:	10 80 00 25 	b  1c90 <_nss_compat_getgrgid_r+0x2ec>
    1c00:	b0 10 00 08 	mov  %o0, %i0
    1c04:	7f ff fd dc 	call  1374 <init_nss_interface>
    1c08:	01 00 00 00 	nop 
    1c0c:	10 bf ff 83 	b  1a18 <_nss_compat_getgrgid_r+0x74>
    1c10:	03 00 00 00 	sethi  %hi(0), %g1
    1c14:	c4 00 40 00 	ld  [ %g1 ], %g2
    1c18:	80 88 a0 10 	btst  0x10, %g2
    1c1c:	12 bf ff f8 	bne  1bfc <_nss_compat_getgrgid_r+0x258>
    1c20:	90 10 20 00 	clr  %o0
    1c24:	92 10 00 13 	mov  %l3, %o1
    1c28:	40 00 59 54 	call  18178 <fsetpos@plt>
    1c2c:	d0 04 a0 08 	ld  [ %l2 + 8 ], %o0
    1c30:	82 10 20 22 	mov  0x22, %g1
    1c34:	90 10 3f fe 	mov  -2, %o0
    1c38:	c2 27 00 00 	st  %g1, [ %i4 ]
    1c3c:	10 80 00 15 	b  1c90 <_nss_compat_getgrgid_r+0x2ec>
    1c40:	b0 10 00 08 	mov  %o0, %i0
    1c44:	7f ff fe f8 	call  1824 <blacklist_store_name>
    1c48:	92 10 00 12 	mov  %l2, %o1
    1c4c:	d0 06 40 00 	ld  [ %i1 ], %o0
    1c50:	90 02 20 01 	inc  %o0
    1c54:	92 10 00 19 	mov  %i1, %o1
    1c58:	94 10 00 12 	mov  %l2, %o2
    1c5c:	96 10 00 1a 	mov  %i2, %o3
    1c60:	98 10 00 1b 	mov  %i3, %o4
    1c64:	7f ff ff 31 	call  1928 <getgrnam_plusgroup>
    1c68:	9a 10 00 1c 	mov  %i4, %o5
    1c6c:	80 a2 20 01 	cmp  %o0, 1
    1c70:	12 bf ff 85 	bne  1a84 <_nss_compat_getgrgid_r+0xe0>
    1c74:	80 a6 e0 02 	cmp  %i3, 2
    1c78:	c2 06 60 08 	ld  [ %i1 + 8 ], %g1
    1c7c:	80 a0 40 14 	cmp  %g1, %l4
    1c80:	12 bf ff 81 	bne  1a84 <_nss_compat_getgrgid_r+0xe0>
    1c84:	80 a6 e0 02 	cmp  %i3, 2
    1c88:	90 10 20 01 	mov  1, %o0
    1c8c:	b0 10 00 08 	mov  %o0, %i0
    1c90:	7f ff fe 87 	call  16ac <internal_endgrent>
    1c94:	90 10 00 12 	mov  %l2, %o0
    1c98:	01 00 00 00 	nop 
    1c9c:	81 c7 e0 08 	ret 
    1ca0:	81 e8 00 00 	restore 

00001ca4 <_nss_compat_getgrnam_r>:
_nss_compat_getgrnam_r():
    1ca4:	9d e3 bf 68 	save  %sp, -152, %sp
    1ca8:	c2 4e 00 00 	ldsb  [ %i0 ], %g1
    1cac:	84 18 60 2d 	xor  %g1, 0x2d, %g2
    1cb0:	80 a0 00 02 	cmp  %g0, %g2
    1cb4:	86 60 3f ff 	subx  %g0, -1, %g3
    1cb8:	82 18 60 2b 	xor  %g1, 0x2b, %g1
    1cbc:	80 a0 00 01 	cmp  %g0, %g1
    1cc0:	82 10 20 01 	mov  1, %g1
    1cc4:	84 60 3f ff 	subx  %g0, -1, %g2
    1cc8:	2f 00 00 58 	sethi  %hi(0x16000), %l7
    1ccc:	7f ff fd a8 	call  136c <call_frame_dummy+0xc>
    1cd0:	ae 05 e3 34 	add  %l7, 0x334, %l7	! 16334 <__FRAME_END__+0x1000c>
    1cd4:	a8 10 00 18 	mov  %i0, %l4
    1cd8:	80 90 c0 02 	orcc  %g3, %g2, %g0
    1cdc:	c2 27 bf dc 	st  %g1, [ %fp + -36 ]
    1ce0:	c2 27 bf d8 	st  %g1, [ %fp + -40 ]
    1ce4:	c0 27 bf e0 	clr  [ %fp + -32 ]
    1ce8:	c0 27 bf e4 	clr  [ %fp + -28 ]
    1cec:	c0 27 bf e8 	clr  [ %fp + -24 ]
    1cf0:	c0 27 bf ec 	clr  [ %fp + -20 ]
    1cf4:	12 80 00 aa 	bne  1f9c <_nss_compat_getgrnam_r+0x2f8>
    1cf8:	90 10 20 00 	clr  %o0
    1cfc:	03 00 00 00 	sethi  %hi(0), %g1
    1d00:	82 10 61 1c 	or  %g1, 0x11c, %g1	! 11c <GLIBC_PRIVATE+0x11c>
    1d04:	c4 05 c0 01 	ld  [ %l7 + %g1 ], %g2
    1d08:	80 a0 a0 00 	cmp  %g2, 0
    1d0c:	02 80 00 05 	be  1d20 <_nss_compat_getgrnam_r+0x7c>
    1d10:	03 00 00 00 	sethi  %hi(0), %g1
    1d14:	82 10 60 2c 	or  %g1, 0x2c, %g1	! 2c <GLIBC_PRIVATE+0x2c>
    1d18:	9f c0 80 00 	call  %g2
    1d1c:	d0 05 c0 01 	ld  [ %l7 + %g1 ], %o0
    1d20:	03 00 00 00 	sethi  %hi(0), %g1
    1d24:	82 10 60 14 	or  %g1, 0x14, %g1	! 14 <GLIBC_PRIVATE+0x14>
    1d28:	c4 05 c0 01 	ld  [ %l7 + %g1 ], %g2
    1d2c:	c6 00 80 00 	ld  [ %g2 ], %g3
    1d30:	80 a0 e0 00 	cmp  %g3, 0
    1d34:	02 80 00 46 	be  1e4c <_nss_compat_getgrnam_r+0x1a8>
    1d38:	01 00 00 00 	nop 
    1d3c:	03 00 00 00 	sethi  %hi(0), %g1
    1d40:	82 10 61 24 	or  %g1, 0x124, %g1	! 124 <GLIBC_PRIVATE+0x124>
    1d44:	c4 05 c0 01 	ld  [ %l7 + %g1 ], %g2
    1d48:	80 a0 a0 00 	cmp  %g2, 0
    1d4c:	02 80 00 05 	be  1d60 <_nss_compat_getgrnam_r+0xbc>
    1d50:	03 00 00 00 	sethi  %hi(0), %g1
    1d54:	82 10 60 2c 	or  %g1, 0x2c, %g1	! 2c <GLIBC_PRIVATE+0x2c>
    1d58:	9f c0 80 00 	call  %g2
    1d5c:	d0 05 c0 01 	ld  [ %l7 + %g1 ], %o0
    1d60:	a4 07 bf d8 	add  %fp, -40, %l2
    1d64:	90 10 00 12 	mov  %l2, %o0
    1d68:	92 10 20 00 	clr  %o1
    1d6c:	7f ff fd c3 	call  1478 <internal_setgrent>
    1d70:	94 10 20 00 	clr  %o2
    1d74:	b0 10 00 08 	mov  %o0, %i0
    1d78:	80 a2 20 01 	cmp  %o0, 1
    1d7c:	a6 07 bf c8 	add  %fp, -56, %l3
    1d80:	02 80 00 16 	be  1dd8 <_nss_compat_getgrnam_r+0x134>
    1d84:	a2 06 80 1b 	add  %i2, %i3, %l1
    1d88:	7f ff fe 49 	call  16ac <internal_endgrent>
    1d8c:	90 10 00 12 	mov  %l2, %o0
    1d90:	10 80 00 83 	b  1f9c <_nss_compat_getgrnam_r+0x2f8>
    1d94:	90 10 00 18 	mov  %i0, %o0
    1d98:	82 60 3f ff 	subx  %g0, -1, %g1
    1d9c:	84 18 e0 23 	xor  %g3, 0x23, %g2
    1da0:	80 a0 00 02 	cmp  %g0, %g2
    1da4:	86 60 3f ff 	subx  %g0, -1, %g3
    1da8:	80 90 40 03 	orcc  %g1, %g3, %g0
    1dac:	12 80 00 0c 	bne  1ddc <_nss_compat_getgrnam_r+0x138>
    1db0:	80 a6 e0 02 	cmp  %i3, 2
    1db4:	90 10 00 10 	mov  %l0, %o0
    1db8:	92 10 00 19 	mov  %i1, %o1
    1dbc:	94 10 00 1a 	mov  %i2, %o2
    1dc0:	96 10 00 1b 	mov  %i3, %o3
    1dc4:	40 00 58 fc 	call  181b4 <_nss_files_parse_grent@plt>
    1dc8:	98 10 00 1c 	mov  %i4, %o4
    1dcc:	80 a2 20 00 	cmp  %o0, 0
    1dd0:	12 80 00 23 	bne  1e5c <_nss_compat_getgrnam_r+0x1b8>
    1dd4:	80 a2 3f ff 	cmp  %o0, -1
    1dd8:	80 a6 e0 02 	cmp  %i3, 2
    1ddc:	08 80 00 3d 	bleu  1ed0 <_nss_compat_getgrnam_r+0x22c>
    1de0:	92 10 00 13 	mov  %l3, %o1
    1de4:	40 00 59 36 	call  182bc <fgetpos@plt>
    1de8:	d0 04 a0 08 	ld  [ %l2 + 8 ], %o0
    1dec:	82 10 3f ff 	mov  -1, %g1
    1df0:	c2 2c 7f ff 	stb  %g1, [ %l1 + -1 ]
    1df4:	90 10 00 1a 	mov  %i2, %o0
    1df8:	92 10 00 1b 	mov  %i3, %o1
    1dfc:	40 00 58 f1 	call  181c0 <fgets_unlocked@plt>
    1e00:	d4 04 a0 08 	ld  [ %l2 + 8 ], %o2
    1e04:	a0 92 20 00 	orcc  %o0, 0, %l0
    1e08:	22 80 00 2b 	be,a   1eb4 <_nss_compat_getgrnam_r+0x210>
    1e0c:	c2 04 a0 08 	ld  [ %l2 + 8 ], %g1
    1e10:	c2 4c 7f ff 	ldsb  [ %l1 + -1 ], %g1
    1e14:	80 a0 7f ff 	cmp  %g1, -1
    1e18:	12 80 00 2c 	bne  1ec8 <_nss_compat_getgrnam_r+0x224>
    1e1c:	92 10 00 13 	mov  %l3, %o1
    1e20:	40 00 59 2d 	call  182d4 <__ctype_b_loc@plt>
    1e24:	c0 2c 7f ff 	clrb  [ %l1 + -1 ]
    1e28:	d0 02 00 00 	ld  [ %o0 ], %o0
    1e2c:	c6 4c 00 00 	ldsb  [ %l0 ], %g3
    1e30:	82 00 c0 03 	add  %g3, %g3, %g1
    1e34:	c4 12 00 01 	lduh  [ %o0 + %g1 ], %g2
    1e38:	80 88 a0 20 	btst  0x20, %g2
    1e3c:	32 bf ff fc 	bne,a   1e2c <_nss_compat_getgrnam_r+0x188>
    1e40:	a0 04 20 01 	inc  %l0
    1e44:	10 bf ff d5 	b  1d98 <_nss_compat_getgrnam_r+0xf4>
    1e48:	80 a0 00 03 	cmp  %g0, %g3
    1e4c:	7f ff fd 4a 	call  1374 <init_nss_interface>
    1e50:	01 00 00 00 	nop 
    1e54:	10 bf ff bb 	b  1d40 <_nss_compat_getgrnam_r+0x9c>
    1e58:	03 00 00 00 	sethi  %hi(0), %g1
    1e5c:	02 80 00 1b 	be  1ec8 <_nss_compat_getgrnam_r+0x224>
    1e60:	92 10 00 13 	mov  %l3, %o1
    1e64:	e0 06 40 00 	ld  [ %i1 ], %l0
    1e68:	c8 4c 00 00 	ldsb  [ %l0 ], %g4
    1e6c:	82 19 20 2b 	xor  %g4, 0x2b, %g1
    1e70:	80 a0 00 01 	cmp  %g0, %g1
    1e74:	86 40 20 00 	addx  %g0, 0, %g3
    1e78:	82 19 20 2d 	xor  %g4, 0x2d, %g1
    1e7c:	80 a0 00 01 	cmp  %g0, %g1
    1e80:	84 40 20 00 	addx  %g0, 0, %g2
    1e84:	80 88 c0 02 	btst  %g3, %g2
    1e88:	02 80 00 17 	be  1ee4 <_nss_compat_getgrnam_r+0x240>
    1e8c:	80 a1 20 2d 	cmp  %g4, 0x2d
    1e90:	90 10 00 10 	mov  %l0, %o0
    1e94:	40 00 58 b3 	call  18160 <strcmp@plt>
    1e98:	92 10 00 14 	mov  %l4, %o1
    1e9c:	80 a2 20 00 	cmp  %o0, 0
    1ea0:	12 bf ff cf 	bne  1ddc <_nss_compat_getgrnam_r+0x138>
    1ea4:	80 a6 e0 02 	cmp  %i3, 2
    1ea8:	90 10 20 01 	mov  1, %o0
    1eac:	10 bf ff b7 	b  1d88 <_nss_compat_getgrnam_r+0xe4>
    1eb0:	b0 10 00 08 	mov  %o0, %i0
    1eb4:	c4 00 40 00 	ld  [ %g1 ], %g2
    1eb8:	80 88 a0 10 	btst  0x10, %g2
    1ebc:	12 bf ff fc 	bne  1eac <_nss_compat_getgrnam_r+0x208>
    1ec0:	90 10 20 00 	clr  %o0
    1ec4:	92 10 00 13 	mov  %l3, %o1
    1ec8:	40 00 58 ac 	call  18178 <fsetpos@plt>
    1ecc:	d0 04 a0 08 	ld  [ %l2 + 8 ], %o0
    1ed0:	82 10 20 22 	mov  0x22, %g1
    1ed4:	90 10 3f fe 	mov  -2, %o0
    1ed8:	c2 27 00 00 	st  %g1, [ %i4 ]
    1edc:	10 bf ff ab 	b  1d88 <_nss_compat_getgrnam_r+0xe4>
    1ee0:	b0 10 00 08 	mov  %o0, %i0
    1ee4:	22 80 00 23 	be,a   1f70 <_nss_compat_getgrnam_r+0x2cc>
    1ee8:	c2 4c 20 01 	ldsb  [ %l0 + 1 ], %g1
    1eec:	c2 4c 00 00 	ldsb  [ %l0 ], %g1
    1ef0:	80 a0 60 2b 	cmp  %g1, 0x2b
    1ef4:	12 bf ff ba 	bne  1ddc <_nss_compat_getgrnam_r+0x138>
    1ef8:	80 a6 e0 02 	cmp  %i3, 2
    1efc:	c2 4c 20 01 	ldsb  [ %l0 + 1 ], %g1
    1f00:	80 a0 60 00 	cmp  %g1, 0
    1f04:	22 80 00 09 	be,a   1f28 <_nss_compat_getgrnam_r+0x284>
    1f08:	c2 4c 00 00 	ldsb  [ %l0 ], %g1
    1f0c:	90 10 00 14 	mov  %l4, %o0
    1f10:	40 00 58 94 	call  18160 <strcmp@plt>
    1f14:	92 04 20 01 	add  %l0, 1, %o1
    1f18:	80 a2 20 00 	cmp  %o0, 0
    1f1c:	02 80 00 0b 	be  1f48 <_nss_compat_getgrnam_r+0x2a4>
    1f20:	90 10 00 14 	mov  %l4, %o0
    1f24:	c2 4c 00 00 	ldsb  [ %l0 ], %g1
    1f28:	80 a0 60 2b 	cmp  %g1, 0x2b
    1f2c:	12 bf ff ac 	bne  1ddc <_nss_compat_getgrnam_r+0x138>
    1f30:	80 a6 e0 02 	cmp  %i3, 2
    1f34:	c2 4c 20 01 	ldsb  [ %l0 + 1 ], %g1
    1f38:	80 a0 60 00 	cmp  %g1, 0
    1f3c:	12 bf ff a8 	bne  1ddc <_nss_compat_getgrnam_r+0x138>
    1f40:	80 a6 e0 02 	cmp  %i3, 2
    1f44:	90 10 00 14 	mov  %l4, %o0
    1f48:	92 10 00 19 	mov  %i1, %o1
    1f4c:	94 10 00 12 	mov  %l2, %o2
    1f50:	96 10 00 1a 	mov  %i2, %o3
    1f54:	98 10 00 1b 	mov  %i3, %o4
    1f58:	7f ff fe 74 	call  1928 <getgrnam_plusgroup>
    1f5c:	9a 10 00 1c 	mov  %i4, %o5
    1f60:	80 a2 20 02 	cmp  %o0, 2
    1f64:	02 bf ff 9d 	be  1dd8 <_nss_compat_getgrnam_r+0x134>
    1f68:	b0 10 00 08 	mov  %o0, %i0
    1f6c:	30 bf ff 87 	b,a   1d88 <_nss_compat_getgrnam_r+0xe4>
    1f70:	80 a0 60 00 	cmp  %g1, 0
    1f74:	22 bf ff df 	be,a   1ef0 <_nss_compat_getgrnam_r+0x24c>
    1f78:	c2 4c 00 00 	ldsb  [ %l0 ], %g1
    1f7c:	90 04 20 01 	add  %l0, 1, %o0
    1f80:	40 00 58 78 	call  18160 <strcmp@plt>
    1f84:	92 10 00 14 	mov  %l4, %o1
    1f88:	80 a2 20 00 	cmp  %o0, 0
    1f8c:	12 bf ff 94 	bne  1ddc <_nss_compat_getgrnam_r+0x138>
    1f90:	80 a6 e0 02 	cmp  %i3, 2
    1f94:	10 bf ff 7d 	b  1d88 <_nss_compat_getgrnam_r+0xe4>
    1f98:	b0 10 00 08 	mov  %o0, %i0
    1f9c:	81 c7 e0 08 	ret 
    1fa0:	91 e8 00 08 	restore  %g0, %o0, %o0

00001fa4 <getgrent_next_nss>:
getgrent_next_nss():
    1fa4:	9d e3 bf 90 	save  %sp, -112, %sp
    1fa8:	03 00 00 00 	sethi  %hi(0), %g1
    1fac:	2f 00 00 58 	sethi  %hi(0x16000), %l7
    1fb0:	7f ff fc ef 	call  136c <call_frame_dummy+0xc>
    1fb4:	ae 05 e0 50 	add  %l7, 0x50, %l7	! 16050 <__FRAME_END__+0xfd28>
    1fb8:	82 10 60 24 	or  %g1, 0x24, %g1
    1fbc:	c6 05 c0 01 	ld  [ %l7 + %g1 ], %g3
    1fc0:	c4 00 c0 00 	ld  [ %g3 ], %g2
    1fc4:	80 a0 a0 00 	cmp  %g2, 0
    1fc8:	02 80 00 19 	be  202c <getgrent_next_nss+0x88>
    1fcc:	82 10 3f ff 	mov  -1, %g1
    1fd0:	c2 06 60 04 	ld  [ %i1 + 4 ], %g1
    1fd4:	80 a0 60 01 	cmp  %g1, 1
    1fd8:	12 80 00 15 	bne  202c <getgrent_next_nss+0x88>
    1fdc:	a0 10 00 03 	mov  %g3, %l0
    1fe0:	c2 04 00 00 	ld  [ %l0 ], %g1
    1fe4:	92 10 00 1a 	mov  %i2, %o1
    1fe8:	94 10 00 1b 	mov  %i3, %o2
    1fec:	96 10 00 1c 	mov  %i4, %o3
    1ff0:	9f c0 40 00 	call  %g1
    1ff4:	90 10 00 18 	mov  %i0, %o0
    1ff8:	80 a2 20 01 	cmp  %o0, 1
    1ffc:	12 80 00 0c 	bne  202c <getgrent_next_nss+0x88>
    2000:	82 10 00 08 	mov  %o0, %g1
    2004:	40 00 58 78 	call  181e4 <strlen@plt>
    2008:	d0 06 00 00 	ld  [ %i0 ], %o0
    200c:	92 10 00 08 	mov  %o0, %o1
    2010:	d0 06 00 00 	ld  [ %i0 ], %o0
    2014:	7f ff fd e9 	call  17b8 <in_blacklist>
    2018:	94 10 00 19 	mov  %i1, %o2
    201c:	80 a2 20 00 	cmp  %o0, 0
    2020:	32 bf ff f1 	bne,a   1fe4 <getgrent_next_nss+0x40>
    2024:	c2 04 00 00 	ld  [ %l0 ], %g1
    2028:	82 10 20 01 	mov  1, %g1
    202c:	81 c7 e0 08 	ret 
    2030:	91 e8 00 01 	restore  %g0, %g1, %o0

00002034 <_nss_compat_getgrent_r>:
_nss_compat_getgrent_r():
    2034:	9d e3 bf 80 	save  %sp, -128, %sp
    2038:	03 00 00 00 	sethi  %hi(0), %g1
    203c:	2f 00 00 57 	sethi  %hi(0x15c00), %l7
    2040:	7f ff fc cb 	call  136c <call_frame_dummy+0xc>
    2044:	ae 05 e3 c0 	add  %l7, 0x3c0, %l7	! 15fc0 <__FRAME_END__+0xfc98>
    2048:	82 10 61 1c 	or  %g1, 0x11c, %g1
    204c:	c4 05 c0 01 	ld  [ %l7 + %g1 ], %g2
    2050:	80 a0 a0 00 	cmp  %g2, 0
    2054:	02 80 00 06 	be  206c <_nss_compat_getgrent_r+0x38>
    2058:	aa 10 00 18 	mov  %i0, %l5
    205c:	03 00 00 00 	sethi  %hi(0), %g1
    2060:	82 10 60 2c 	or  %g1, 0x2c, %g1	! 2c <GLIBC_PRIVATE+0x2c>
    2064:	9f c0 80 00 	call  %g2
    2068:	d0 05 c0 01 	ld  [ %l7 + %g1 ], %o0
    206c:	03 00 00 00 	sethi  %hi(0), %g1
    2070:	82 10 60 14 	or  %g1, 0x14, %g1	! 14 <GLIBC_PRIVATE+0x14>
    2074:	c4 05 c0 01 	ld  [ %l7 + %g1 ], %g2
    2078:	c6 00 80 00 	ld  [ %g2 ], %g3
    207c:	80 a0 e0 00 	cmp  %g3, 0
    2080:	02 80 00 86 	be  2298 <_nss_compat_getgrent_r+0x264>
    2084:	01 00 00 00 	nop 
    2088:	03 00 00 00 	sethi  %hi(0), %g1
    208c:	82 10 60 10 	or  %g1, 0x10, %g1	! 10 <GLIBC_PRIVATE+0x10>
    2090:	e0 05 c0 01 	ld  [ %l7 + %g1 ], %l0
    2094:	c4 04 20 08 	ld  [ %l0 + 8 ], %g2
    2098:	80 a0 a0 00 	cmp  %g2, 0
    209c:	22 80 00 77 	be,a   2278 <_nss_compat_getgrent_r+0x244>
    20a0:	90 10 00 10 	mov  %l0, %o0
    20a4:	c2 04 00 00 	ld  [ %l0 ], %g1
    20a8:	80 a0 60 00 	cmp  %g1, 0
    20ac:	a4 10 00 10 	mov  %l0, %l2
    20b0:	a8 07 bf e0 	add  %fp, -32, %l4
    20b4:	02 80 00 7d 	be  22a8 <_nss_compat_getgrent_r+0x274>
    20b8:	a2 06 40 1a 	add  %i1, %i2, %l1
    20bc:	80 a6 a0 02 	cmp  %i2, 2
    20c0:	08 80 00 58 	bleu  2220 <_nss_compat_getgrent_r+0x1ec>
    20c4:	82 10 20 22 	mov  0x22, %g1
    20c8:	92 10 00 14 	mov  %l4, %o1
    20cc:	40 00 58 7c 	call  182bc <fgetpos@plt>
    20d0:	d0 04 a0 08 	ld  [ %l2 + 8 ], %o0
    20d4:	82 10 3f ff 	mov  -1, %g1
    20d8:	c2 2c 7f ff 	stb  %g1, [ %l1 + -1 ]
    20dc:	90 10 00 19 	mov  %i1, %o0
    20e0:	92 10 00 1a 	mov  %i2, %o1
    20e4:	40 00 58 37 	call  181c0 <fgets_unlocked@plt>
    20e8:	d4 04 a0 08 	ld  [ %l2 + 8 ], %o2
    20ec:	a0 92 20 00 	orcc  %o0, 0, %l0
    20f0:	22 80 00 59 	be,a   2254 <_nss_compat_getgrent_r+0x220>
    20f4:	c2 04 a0 08 	ld  [ %l2 + 8 ], %g1
    20f8:	c2 4c 7f ff 	ldsb  [ %l1 + -1 ], %g1
    20fc:	80 a0 7f ff 	cmp  %g1, -1
    2100:	32 80 00 45 	bne,a   2214 <_nss_compat_getgrent_r+0x1e0>
    2104:	d0 04 a0 08 	ld  [ %l2 + 8 ], %o0
    2108:	40 00 58 73 	call  182d4 <__ctype_b_loc@plt>
    210c:	c0 2c 7f ff 	clrb  [ %l1 + -1 ]
    2110:	d0 02 00 00 	ld  [ %o0 ], %o0
    2114:	c6 4c 00 00 	ldsb  [ %l0 ], %g3
    2118:	82 00 c0 03 	add  %g3, %g3, %g1
    211c:	c4 12 00 01 	lduh  [ %o0 + %g1 ], %g2
    2120:	80 88 a0 20 	btst  0x20, %g2
    2124:	32 bf ff fc 	bne,a   2114 <_nss_compat_getgrent_r+0xe0>
    2128:	a0 04 20 01 	inc  %l0
    212c:	80 a0 00 03 	cmp  %g0, %g3
    2130:	82 60 3f ff 	subx  %g0, -1, %g1
    2134:	84 18 e0 23 	xor  %g3, 0x23, %g2
    2138:	80 a0 00 02 	cmp  %g0, %g2
    213c:	86 60 3f ff 	subx  %g0, -1, %g3
    2140:	80 90 40 03 	orcc  %g1, %g3, %g0
    2144:	12 bf ff df 	bne  20c0 <_nss_compat_getgrent_r+0x8c>
    2148:	80 a6 a0 02 	cmp  %i2, 2
    214c:	90 10 00 10 	mov  %l0, %o0
    2150:	92 10 00 15 	mov  %l5, %o1
    2154:	94 10 00 19 	mov  %i1, %o2
    2158:	96 10 00 1a 	mov  %i2, %o3
    215c:	40 00 58 16 	call  181b4 <_nss_files_parse_grent@plt>
    2160:	98 10 00 1b 	mov  %i3, %o4
    2164:	80 a2 20 00 	cmp  %o0, 0
    2168:	02 bf ff d6 	be  20c0 <_nss_compat_getgrent_r+0x8c>
    216c:	80 a6 a0 02 	cmp  %i2, 2
    2170:	80 a2 3f ff 	cmp  %o0, -1
    2174:	22 80 00 28 	be,a   2214 <_nss_compat_getgrent_r+0x1e0>
    2178:	d0 04 a0 08 	ld  [ %l2 + 8 ], %o0
    217c:	e6 05 40 00 	ld  [ %l5 ], %l3
    2180:	c8 4c c0 00 	ldsb  [ %l3 ], %g4
    2184:	82 19 20 2b 	xor  %g4, 0x2b, %g1
    2188:	80 a0 00 01 	cmp  %g0, %g1
    218c:	86 40 20 00 	addx  %g0, 0, %g3
    2190:	82 19 20 2d 	xor  %g4, 0x2d, %g1
    2194:	80 a0 00 01 	cmp  %g0, %g1
    2198:	84 40 20 00 	addx  %g0, 0, %g2
    219c:	80 88 c0 02 	btst  %g3, %g2
    21a0:	12 80 00 77 	bne  237c <_nss_compat_getgrent_r+0x348>
    21a4:	80 a1 20 2d 	cmp  %g4, 0x2d
    21a8:	22 80 00 48 	be,a   22c8 <_nss_compat_getgrent_r+0x294>
    21ac:	c2 4c e0 01 	ldsb  [ %l3 + 1 ], %g1
    21b0:	c2 4c c0 00 	ldsb  [ %l3 ], %g1
    21b4:	80 a0 60 2b 	cmp  %g1, 0x2b
    21b8:	12 bf ff c2 	bne  20c0 <_nss_compat_getgrent_r+0x8c>
    21bc:	80 a6 a0 02 	cmp  %i2, 2
    21c0:	c2 4c e0 01 	ldsb  [ %l3 + 1 ], %g1
    21c4:	80 a0 60 00 	cmp  %g1, 0
    21c8:	22 80 00 06 	be,a   21e0 <_nss_compat_getgrent_r+0x1ac>
    21cc:	c2 4c c0 00 	ldsb  [ %l3 ], %g1
    21d0:	80 a0 60 40 	cmp  %g1, 0x40
    21d4:	12 80 00 47 	bne  22f0 <_nss_compat_getgrent_r+0x2bc>
    21d8:	90 10 00 13 	mov  %l3, %o0
    21dc:	c2 4c c0 00 	ldsb  [ %l3 ], %g1
    21e0:	80 a0 60 2b 	cmp  %g1, 0x2b
    21e4:	12 bf ff b7 	bne  20c0 <_nss_compat_getgrent_r+0x8c>
    21e8:	80 a6 a0 02 	cmp  %i2, 2
    21ec:	c2 4c e0 01 	ldsb  [ %l3 + 1 ], %g1
    21f0:	80 a0 60 00 	cmp  %g1, 0
    21f4:	12 bf ff b3 	bne  20c0 <_nss_compat_getgrent_r+0x8c>
    21f8:	80 a6 a0 02 	cmp  %i2, 2
    21fc:	c0 24 80 00 	clr  [ %l2 ]
    2200:	90 10 00 15 	mov  %l5, %o0
    2204:	10 80 00 2b 	b  22b0 <_nss_compat_getgrent_r+0x27c>
    2208:	92 10 00 12 	mov  %l2, %o1
    220c:	9c 10 00 18 	mov  %i0, %sp
    2210:	d0 04 a0 08 	ld  [ %l2 + 8 ], %o0
    2214:	40 00 57 d9 	call  18178 <fsetpos@plt>
    2218:	92 10 00 14 	mov  %l4, %o1
    221c:	82 10 20 22 	mov  0x22, %g1
    2220:	c2 26 c0 00 	st  %g1, [ %i3 ]
    2224:	90 10 3f fe 	mov  -2, %o0
    2228:	b0 10 00 08 	mov  %o0, %i0
    222c:	03 00 00 00 	sethi  %hi(0), %g1
    2230:	82 10 61 24 	or  %g1, 0x124, %g1	! 124 <GLIBC_PRIVATE+0x124>
    2234:	c4 05 c0 01 	ld  [ %l7 + %g1 ], %g2
    2238:	80 a0 a0 00 	cmp  %g2, 0
    223c:	02 80 00 57 	be  2398 <_nss_compat_getgrent_r+0x364>
    2240:	03 00 00 00 	sethi  %hi(0), %g1
    2244:	82 10 60 2c 	or  %g1, 0x2c, %g1	! 2c <GLIBC_PRIVATE+0x2c>
    2248:	9f c0 80 00 	call  %g2
    224c:	d0 05 c0 01 	ld  [ %l7 + %g1 ], %o0
    2250:	30 80 00 52 	b,a   2398 <_nss_compat_getgrent_r+0x364>
    2254:	c4 00 40 00 	ld  [ %g1 ], %g2
    2258:	80 88 a0 10 	btst  0x10, %g2
    225c:	12 bf ff f3 	bne  2228 <_nss_compat_getgrent_r+0x1f4>
    2260:	90 10 20 00 	clr  %o0
    2264:	d0 04 a0 08 	ld  [ %l2 + 8 ], %o0
    2268:	40 00 57 c4 	call  18178 <fsetpos@plt>
    226c:	92 10 00 14 	mov  %l4, %o1
    2270:	10 bf ff ec 	b  2220 <_nss_compat_getgrent_r+0x1ec>
    2274:	82 10 20 22 	mov  0x22, %g1
    2278:	92 10 20 01 	mov  1, %o1
    227c:	7f ff fc 7f 	call  1478 <internal_setgrent>
    2280:	94 10 20 01 	mov  1, %o2
    2284:	80 a2 20 01 	cmp  %o0, 1
    2288:	12 bf ff e9 	bne  222c <_nss_compat_getgrent_r+0x1f8>
    228c:	b0 10 00 08 	mov  %o0, %i0
    2290:	10 bf ff 86 	b  20a8 <_nss_compat_getgrent_r+0x74>
    2294:	c2 04 00 00 	ld  [ %l0 ], %g1
    2298:	7f ff fc 37 	call  1374 <init_nss_interface>
    229c:	01 00 00 00 	nop 
    22a0:	10 bf ff 7b 	b  208c <_nss_compat_getgrent_r+0x58>
    22a4:	03 00 00 00 	sethi  %hi(0), %g1
    22a8:	90 10 00 15 	mov  %l5, %o0
    22ac:	92 10 00 10 	mov  %l0, %o1
    22b0:	94 10 00 19 	mov  %i1, %o2
    22b4:	96 10 00 1a 	mov  %i2, %o3
    22b8:	7f ff ff 3b 	call  1fa4 <getgrent_next_nss>
    22bc:	98 10 00 1b 	mov  %i3, %o4
    22c0:	10 bf ff db 	b  222c <_nss_compat_getgrent_r+0x1f8>
    22c4:	b0 10 00 08 	mov  %o0, %i0
    22c8:	80 a0 60 00 	cmp  %g1, 0
    22cc:	22 bf ff ba 	be,a   21b4 <_nss_compat_getgrent_r+0x180>
    22d0:	c2 4c c0 00 	ldsb  [ %l3 ], %g1
    22d4:	80 a0 60 40 	cmp  %g1, 0x40
    22d8:	02 bf ff b6 	be  21b0 <_nss_compat_getgrent_r+0x17c>
    22dc:	90 04 e0 01 	add  %l3, 1, %o0
    22e0:	7f ff fd 51 	call  1824 <blacklist_store_name>
    22e4:	92 10 00 12 	mov  %l2, %o1
    22e8:	10 bf ff 76 	b  20c0 <_nss_compat_getgrent_r+0x8c>
    22ec:	80 a6 a0 02 	cmp  %i2, 2
    22f0:	40 00 57 bd 	call  181e4 <strlen@plt>
    22f4:	b0 10 00 0e 	mov  %sp, %i0
    22f8:	82 02 20 07 	add  %o0, 7, %g1
    22fc:	82 08 7f f8 	and  %g1, -8, %g1
    2300:	9c 23 80 01 	sub  %sp, %g1, %sp
    2304:	94 10 00 08 	mov  %o0, %o2
    2308:	a0 03 a0 60 	add  %sp, 0x60, %l0
    230c:	92 04 e0 01 	add  %l3, 1, %o1
    2310:	40 00 57 d0 	call  18250 <memcpy@plt>
    2314:	90 10 00 10 	mov  %l0, %o0
    2318:	d0 05 40 00 	ld  [ %l5 ], %o0
    231c:	92 10 00 15 	mov  %l5, %o1
    2320:	94 10 00 12 	mov  %l2, %o2
    2324:	96 10 00 19 	mov  %i1, %o3
    2328:	98 10 00 1a 	mov  %i2, %o4
    232c:	9a 10 00 1b 	mov  %i3, %o5
    2330:	7f ff fd 7e 	call  1928 <getgrnam_plusgroup>
    2334:	90 02 20 01 	inc  %o0
    2338:	a6 10 00 08 	mov  %o0, %l3
    233c:	90 10 00 10 	mov  %l0, %o0
    2340:	7f ff fd 39 	call  1824 <blacklist_store_name>
    2344:	92 10 00 12 	mov  %l2, %o1
    2348:	80 a4 e0 01 	cmp  %l3, 1
    234c:	02 80 00 0b 	be  2378 <_nss_compat_getgrent_r+0x344>
    2350:	82 1c e0 02 	xor  %l3, 2, %g1
    2354:	80 a0 00 01 	cmp  %g0, %g1
    2358:	84 60 3f ff 	subx  %g0, -1, %g2
    235c:	80 a0 00 13 	cmp  %g0, %l3
    2360:	82 60 3f ff 	subx  %g0, -1, %g1
    2364:	80 90 80 01 	orcc  %g2, %g1, %g0
    2368:	02 80 00 07 	be  2384 <_nss_compat_getgrent_r+0x350>
    236c:	9c 10 00 18 	mov  %i0, %sp
    2370:	10 bf ff 54 	b  20c0 <_nss_compat_getgrent_r+0x8c>
    2374:	80 a6 a0 02 	cmp  %i2, 2
    2378:	9c 10 00 18 	mov  %i0, %sp
    237c:	10 bf ff ab 	b  2228 <_nss_compat_getgrent_r+0x1f4>
    2380:	90 10 20 01 	mov  1, %o0
    2384:	80 a4 ff fe 	cmp  %l3, -2
    2388:	02 bf ff a1 	be  220c <_nss_compat_getgrent_r+0x1d8>
    238c:	90 10 00 13 	mov  %l3, %o0
    2390:	10 bf ff a6 	b  2228 <_nss_compat_getgrent_r+0x1f4>
    2394:	9c 10 00 18 	mov  %i0, %sp
    2398:	81 c7 e0 08 	ret 
    239c:	81 e8 00 00 	restore 
    23a0:	81 c3 e0 08 	retl 
    23a4:	ae 03 c0 17 	add  %o7, %l7, %l7

000023a8 <init_nss_interface>:
init_nss_interface():
    23a8:	9d e3 bf 90 	save  %sp, -112, %sp
    23ac:	03 00 00 00 	sethi  %hi(0), %g1
    23b0:	2f 00 00 57 	sethi  %hi(0x15c00), %l7
    23b4:	7f ff ff fb 	call  23a0 <_nss_compat_getgrent_r+0x36c>
    23b8:	ae 05 e0 4c 	add  %l7, 0x4c, %l7	! 15c4c <__FRAME_END__+0xf924>
    23bc:	82 10 60 58 	or  %g1, 0x58, %g1
    23c0:	07 00 00 00 	sethi  %hi(0), %g3
    23c4:	05 00 00 00 	sethi  %hi(0), %g2
    23c8:	e2 05 c0 01 	ld  [ %l7 + %g1 ], %l1
    23cc:	84 10 a0 78 	or  %g2, 0x78, %g2
    23d0:	86 10 e0 74 	or  %g3, 0x74, %g3
    23d4:	d4 05 c0 02 	ld  [ %l7 + %g2 ], %o2
    23d8:	d0 05 c0 03 	ld  [ %l7 + %g3 ], %o0
    23dc:	96 10 00 11 	mov  %l1, %o3
    23e0:	40 00 57 ae 	call  18298 <__nss_database_lookup@plt>
    23e4:	92 10 20 00 	clr  %o1
    23e8:	03 00 00 00 	sethi  %hi(0), %g1
    23ec:	05 00 00 00 	sethi  %hi(0), %g2
    23f0:	82 10 60 5c 	or  %g1, 0x5c, %g1
    23f4:	80 a2 20 00 	cmp  %o0, 0
    23f8:	06 80 00 2b 	bl  24a4 <init_nss_interface+0xfc>
    23fc:	84 10 a0 7c 	or  %g2, 0x7c, %g2
    2400:	e0 05 c0 01 	ld  [ %l7 + %g1 ], %l0
    2404:	d2 05 c0 02 	ld  [ %l7 + %g2 ], %o1
    2408:	40 00 57 7d 	call  181fc <__nss_lookup_function@plt>
    240c:	d0 04 40 00 	ld  [ %l1 ], %o0
    2410:	03 00 00 00 	sethi  %hi(0), %g1
    2414:	05 00 00 00 	sethi  %hi(0), %g2
    2418:	d0 24 00 00 	st  %o0, [ %l0 ]
    241c:	82 10 60 60 	or  %g1, 0x60, %g1
    2420:	84 10 a0 80 	or  %g2, 0x80, %g2
    2424:	e0 05 c0 01 	ld  [ %l7 + %g1 ], %l0
    2428:	d2 05 c0 02 	ld  [ %l7 + %g2 ], %o1
    242c:	40 00 57 74 	call  181fc <__nss_lookup_function@plt>
    2430:	d0 04 40 00 	ld  [ %l1 ], %o0
    2434:	03 00 00 00 	sethi  %hi(0), %g1
    2438:	05 00 00 00 	sethi  %hi(0), %g2
    243c:	d0 24 00 00 	st  %o0, [ %l0 ]
    2440:	82 10 60 64 	or  %g1, 0x64, %g1
    2444:	84 10 a0 84 	or  %g2, 0x84, %g2
    2448:	e0 05 c0 01 	ld  [ %l7 + %g1 ], %l0
    244c:	d2 05 c0 02 	ld  [ %l7 + %g2 ], %o1
    2450:	40 00 57 6b 	call  181fc <__nss_lookup_function@plt>
    2454:	d0 04 40 00 	ld  [ %l1 ], %o0
    2458:	03 00 00 00 	sethi  %hi(0), %g1
    245c:	05 00 00 00 	sethi  %hi(0), %g2
    2460:	d0 24 00 00 	st  %o0, [ %l0 ]
    2464:	82 10 60 68 	or  %g1, 0x68, %g1
    2468:	84 10 a0 88 	or  %g2, 0x88, %g2
    246c:	e0 05 c0 01 	ld  [ %l7 + %g1 ], %l0
    2470:	d2 05 c0 02 	ld  [ %l7 + %g2 ], %o1
    2474:	40 00 57 62 	call  181fc <__nss_lookup_function@plt>
    2478:	d0 04 40 00 	ld  [ %l1 ], %o0
    247c:	03 00 00 00 	sethi  %hi(0), %g1
    2480:	05 00 00 00 	sethi  %hi(0), %g2
    2484:	d0 24 00 00 	st  %o0, [ %l0 ]
    2488:	82 10 60 6c 	or  %g1, 0x6c, %g1
    248c:	84 10 a0 8c 	or  %g2, 0x8c, %g2
    2490:	e0 05 c0 01 	ld  [ %l7 + %g1 ], %l0
    2494:	d0 04 40 00 	ld  [ %l1 ], %o0
    2498:	40 00 57 59 	call  181fc <__nss_lookup_function@plt>
    249c:	d2 05 c0 02 	ld  [ %l7 + %g2 ], %o1
    24a0:	d0 24 00 00 	st  %o0, [ %l0 ]
    24a4:	81 c7 e0 08 	ret 
    24a8:	81 e8 00 00 	restore 

000024ac <give_pwd_free>:
give_pwd_free():
    24ac:	9d e3 bf 90 	save  %sp, -112, %sp
    24b0:	d0 06 00 00 	ld  [ %i0 ], %o0
    24b4:	80 a2 20 00 	cmp  %o0, 0
    24b8:	12 80 00 13 	bne  2504 <give_pwd_free+0x58>
    24bc:	01 00 00 00 	nop 
    24c0:	d0 06 20 04 	ld  [ %i0 + 4 ], %o0
    24c4:	80 a2 20 00 	cmp  %o0, 0
    24c8:	12 80 00 15 	bne  251c <give_pwd_free+0x70>
    24cc:	01 00 00 00 	nop 
    24d0:	d0 06 20 10 	ld  [ %i0 + 0x10 ], %o0
    24d4:	80 a2 20 00 	cmp  %o0, 0
    24d8:	12 80 00 17 	bne  2534 <give_pwd_free+0x88>
    24dc:	01 00 00 00 	nop 
    24e0:	d0 06 20 14 	ld  [ %i0 + 0x14 ], %o0
    24e4:	80 a2 20 00 	cmp  %o0, 0
    24e8:	12 80 00 19 	bne  254c <give_pwd_free+0xa0>
    24ec:	01 00 00 00 	nop 
    24f0:	d0 06 20 18 	ld  [ %i0 + 0x18 ], %o0
    24f4:	80 a2 20 00 	cmp  %o0, 0
    24f8:	22 80 00 1e 	be,a   2570 <give_pwd_free+0xc4>
    24fc:	c0 26 20 18 	clr  [ %i0 + 0x18 ]
    2500:	30 80 00 19 	b,a   2564 <give_pwd_free+0xb8>
    2504:	40 00 57 62 	call  1828c <free@plt>
    2508:	01 00 00 00 	nop 
    250c:	d0 06 20 04 	ld  [ %i0 + 4 ], %o0
    2510:	80 a2 20 00 	cmp  %o0, 0
    2514:	22 bf ff f0 	be,a   24d4 <give_pwd_free+0x28>
    2518:	d0 06 20 10 	ld  [ %i0 + 0x10 ], %o0
    251c:	40 00 57 5c 	call  1828c <free@plt>
    2520:	01 00 00 00 	nop 
    2524:	d0 06 20 10 	ld  [ %i0 + 0x10 ], %o0
    2528:	80 a2 20 00 	cmp  %o0, 0
    252c:	22 bf ff ee 	be,a   24e4 <give_pwd_free+0x38>
    2530:	d0 06 20 14 	ld  [ %i0 + 0x14 ], %o0
    2534:	40 00 57 56 	call  1828c <free@plt>
    2538:	01 00 00 00 	nop 
    253c:	d0 06 20 14 	ld  [ %i0 + 0x14 ], %o0
    2540:	80 a2 20 00 	cmp  %o0, 0
    2544:	22 bf ff ec 	be,a   24f4 <give_pwd_free+0x48>
    2548:	d0 06 20 18 	ld  [ %i0 + 0x18 ], %o0
    254c:	40 00 57 50 	call  1828c <free@plt>
    2550:	01 00 00 00 	nop 
    2554:	d0 06 20 18 	ld  [ %i0 + 0x18 ], %o0
    2558:	80 a2 20 00 	cmp  %o0, 0
    255c:	22 80 00 05 	be,a   2570 <give_pwd_free+0xc4>
    2560:	c0 26 20 18 	clr  [ %i0 + 0x18 ]
    2564:	40 00 57 4a 	call  1828c <free@plt>
    2568:	01 00 00 00 	nop 
    256c:	c0 26 20 18 	clr  [ %i0 + 0x18 ]
    2570:	c0 26 00 00 	clr  [ %i0 ]
    2574:	c0 26 20 04 	clr  [ %i0 + 4 ]
    2578:	c0 26 20 08 	clr  [ %i0 + 8 ]
    257c:	c0 26 20 0c 	clr  [ %i0 + 0xc ]
    2580:	c0 26 20 10 	clr  [ %i0 + 0x10 ]
    2584:	c0 26 20 14 	clr  [ %i0 + 0x14 ]
    2588:	81 c7 e0 08 	ret 
    258c:	81 e8 00 00 	restore 

00002590 <pwd_need_buflen>:
pwd_need_buflen():
    2590:	9d e3 bf 90 	save  %sp, -112, %sp
    2594:	c2 06 20 04 	ld  [ %i0 + 4 ], %g1
    2598:	a0 10 00 18 	mov  %i0, %l0
    259c:	90 90 60 00 	orcc  %g1, 0, %o0
    25a0:	02 80 00 05 	be  25b4 <pwd_need_buflen+0x24>
    25a4:	b0 10 20 00 	clr  %i0
    25a8:	40 00 57 0f 	call  181e4 <strlen@plt>
    25ac:	01 00 00 00 	nop 
    25b0:	b0 02 20 01 	add  %o0, 1, %i0
    25b4:	c2 04 20 10 	ld  [ %l0 + 0x10 ], %g1
    25b8:	90 90 60 00 	orcc  %g1, 0, %o0
    25bc:	22 80 00 07 	be,a   25d8 <pwd_need_buflen+0x48>
    25c0:	c2 04 20 14 	ld  [ %l0 + 0x14 ], %g1
    25c4:	40 00 57 08 	call  181e4 <strlen@plt>
    25c8:	01 00 00 00 	nop 
    25cc:	90 02 00 18 	add  %o0, %i0, %o0
    25d0:	b0 02 20 01 	add  %o0, 1, %i0
    25d4:	c2 04 20 14 	ld  [ %l0 + 0x14 ], %g1
    25d8:	90 90 60 00 	orcc  %g1, 0, %o0
    25dc:	22 80 00 07 	be,a   25f8 <pwd_need_buflen+0x68>
    25e0:	c2 04 20 18 	ld  [ %l0 + 0x18 ], %g1
    25e4:	40 00 57 00 	call  181e4 <strlen@plt>
    25e8:	01 00 00 00 	nop 
    25ec:	90 02 00 18 	add  %o0, %i0, %o0
    25f0:	b0 02 20 01 	add  %o0, 1, %i0
    25f4:	c2 04 20 18 	ld  [ %l0 + 0x18 ], %g1
    25f8:	90 90 60 00 	orcc  %g1, 0, %o0
    25fc:	02 80 00 06 	be  2614 <pwd_need_buflen+0x84>
    2600:	01 00 00 00 	nop 
    2604:	40 00 56 f8 	call  181e4 <strlen@plt>
    2608:	01 00 00 00 	nop 
    260c:	90 02 00 18 	add  %o0, %i0, %o0
    2610:	b0 02 20 01 	add  %o0, 1, %i0
    2614:	81 c7 e0 08 	ret 
    2618:	81 e8 00 00 	restore 

0000261c <copy_pwd_changes>:
copy_pwd_changes():
    261c:	9d e3 bf 90 	save  %sp, -112, %sp
    2620:	e2 06 60 04 	ld  [ %i1 + 4 ], %l1
    2624:	a4 10 00 19 	mov  %i1, %l2
    2628:	80 a4 60 00 	cmp  %l1, 0
    262c:	02 80 00 1d 	be  26a0 <copy_pwd_changes+0x84>
    2630:	a6 10 00 18 	mov  %i0, %l3
    2634:	c2 4c 40 00 	ldsb  [ %l1 ], %g1
    2638:	80 a0 60 00 	cmp  %g1, 0
    263c:	22 80 00 1a 	be,a   26a4 <copy_pwd_changes+0x88>
    2640:	e2 04 a0 10 	ld  [ %l2 + 0x10 ], %l1
    2644:	80 a6 a0 00 	cmp  %i2, 0
    2648:	02 80 00 89 	be  286c <copy_pwd_changes+0x250>
    264c:	01 00 00 00 	nop 
    2650:	f2 06 20 04 	ld  [ %i0 + 4 ], %i1
    2654:	80 a6 60 00 	cmp  %i1, 0
    2658:	22 80 00 0b 	be,a   2684 <copy_pwd_changes+0x68>
    265c:	f4 24 e0 04 	st  %i2, [ %l3 + 4 ]
    2660:	40 00 56 e1 	call  181e4 <strlen@plt>
    2664:	90 10 00 19 	mov  %i1, %o0
    2668:	a0 10 00 08 	mov  %o0, %l0
    266c:	40 00 56 de 	call  181e4 <strlen@plt>
    2670:	90 10 00 11 	mov  %l1, %o0
    2674:	80 a4 00 08 	cmp  %l0, %o0
    2678:	3a 80 00 65 	bcc,a   280c <copy_pwd_changes+0x1f0>
    267c:	90 10 00 19 	mov  %i1, %o0
    2680:	f4 24 e0 04 	st  %i2, [ %l3 + 4 ]
    2684:	90 10 00 1a 	mov  %i2, %o0
    2688:	40 00 57 19 	call  182ec <strcpy@plt>
    268c:	d2 04 a0 04 	ld  [ %l2 + 4 ], %o1
    2690:	40 00 56 d5 	call  181e4 <strlen@plt>
    2694:	d0 04 e0 04 	ld  [ %l3 + 4 ], %o0
    2698:	90 02 00 1a 	add  %o0, %i2, %o0
    269c:	b4 02 20 01 	add  %o0, 1, %i2
    26a0:	e2 04 a0 10 	ld  [ %l2 + 0x10 ], %l1
    26a4:	80 a4 60 00 	cmp  %l1, 0
    26a8:	22 80 00 1e 	be,a   2720 <copy_pwd_changes+0x104>
    26ac:	e2 04 a0 14 	ld  [ %l2 + 0x14 ], %l1
    26b0:	c2 4c 40 00 	ldsb  [ %l1 ], %g1
    26b4:	80 a0 60 00 	cmp  %g1, 0
    26b8:	22 80 00 1a 	be,a   2720 <copy_pwd_changes+0x104>
    26bc:	e2 04 a0 14 	ld  [ %l2 + 0x14 ], %l1
    26c0:	80 a6 a0 00 	cmp  %i2, 0
    26c4:	02 80 00 5e 	be  283c <copy_pwd_changes+0x220>
    26c8:	01 00 00 00 	nop 
    26cc:	f2 04 e0 10 	ld  [ %l3 + 0x10 ], %i1
    26d0:	80 a6 60 00 	cmp  %i1, 0
    26d4:	22 80 00 0b 	be,a   2700 <copy_pwd_changes+0xe4>
    26d8:	f4 24 e0 10 	st  %i2, [ %l3 + 0x10 ]
    26dc:	40 00 56 c2 	call  181e4 <strlen@plt>
    26e0:	90 10 00 19 	mov  %i1, %o0
    26e4:	a0 10 00 08 	mov  %o0, %l0
    26e8:	40 00 56 bf 	call  181e4 <strlen@plt>
    26ec:	90 10 00 11 	mov  %l1, %o0
    26f0:	80 a4 00 08 	cmp  %l0, %o0
    26f4:	3a 80 00 4e 	bcc,a   282c <copy_pwd_changes+0x210>
    26f8:	90 10 00 19 	mov  %i1, %o0
    26fc:	f4 24 e0 10 	st  %i2, [ %l3 + 0x10 ]
    2700:	90 10 00 1a 	mov  %i2, %o0
    2704:	40 00 56 fa 	call  182ec <strcpy@plt>
    2708:	d2 04 a0 10 	ld  [ %l2 + 0x10 ], %o1
    270c:	40 00 56 b6 	call  181e4 <strlen@plt>
    2710:	d0 04 e0 10 	ld  [ %l3 + 0x10 ], %o0
    2714:	90 02 00 1a 	add  %o0, %i2, %o0
    2718:	b4 02 20 01 	add  %o0, 1, %i2
    271c:	e2 04 a0 14 	ld  [ %l2 + 0x14 ], %l1
    2720:	80 a4 60 00 	cmp  %l1, 0
    2724:	22 80 00 1e 	be,a   279c <copy_pwd_changes+0x180>
    2728:	f2 04 a0 18 	ld  [ %l2 + 0x18 ], %i1
    272c:	c2 4c 40 00 	ldsb  [ %l1 ], %g1
    2730:	80 a0 60 00 	cmp  %g1, 0
    2734:	22 80 00 1a 	be,a   279c <copy_pwd_changes+0x180>
    2738:	f2 04 a0 18 	ld  [ %l2 + 0x18 ], %i1
    273c:	80 a6 a0 00 	cmp  %i2, 0
    2740:	02 80 00 43 	be  284c <copy_pwd_changes+0x230>
    2744:	01 00 00 00 	nop 
    2748:	f2 04 e0 14 	ld  [ %l3 + 0x14 ], %i1
    274c:	80 a6 60 00 	cmp  %i1, 0
    2750:	22 80 00 0b 	be,a   277c <copy_pwd_changes+0x160>
    2754:	f4 24 e0 14 	st  %i2, [ %l3 + 0x14 ]
    2758:	40 00 56 a3 	call  181e4 <strlen@plt>
    275c:	90 10 00 19 	mov  %i1, %o0
    2760:	a0 10 00 08 	mov  %o0, %l0
    2764:	40 00 56 a0 	call  181e4 <strlen@plt>
    2768:	90 10 00 11 	mov  %l1, %o0
    276c:	80 a4 00 08 	cmp  %l0, %o0
    2770:	3a 80 00 2b 	bcc,a   281c <copy_pwd_changes+0x200>
    2774:	90 10 00 19 	mov  %i1, %o0
    2778:	f4 24 e0 14 	st  %i2, [ %l3 + 0x14 ]
    277c:	90 10 00 1a 	mov  %i2, %o0
    2780:	40 00 56 db 	call  182ec <strcpy@plt>
    2784:	d2 04 a0 14 	ld  [ %l2 + 0x14 ], %o1
    2788:	40 00 56 97 	call  181e4 <strlen@plt>
    278c:	d0 04 e0 14 	ld  [ %l3 + 0x14 ], %o0
    2790:	90 02 00 1a 	add  %o0, %i2, %o0
    2794:	b4 02 20 01 	add  %o0, 1, %i2
    2798:	f2 04 a0 18 	ld  [ %l2 + 0x18 ], %i1
    279c:	80 a6 60 00 	cmp  %i1, 0
    27a0:	02 80 00 37 	be  287c <copy_pwd_changes+0x260>
    27a4:	01 00 00 00 	nop 
    27a8:	c2 4e 40 00 	ldsb  [ %i1 ], %g1
    27ac:	80 a0 60 00 	cmp  %g1, 0
    27b0:	02 80 00 33 	be  287c <copy_pwd_changes+0x260>
    27b4:	80 a6 a0 00 	cmp  %i2, 0
    27b8:	02 80 00 29 	be  285c <copy_pwd_changes+0x240>
    27bc:	01 00 00 00 	nop 
    27c0:	f0 04 e0 18 	ld  [ %l3 + 0x18 ], %i0
    27c4:	80 a6 20 00 	cmp  %i0, 0
    27c8:	22 80 00 0b 	be,a   27f4 <copy_pwd_changes+0x1d8>
    27cc:	f4 24 e0 18 	st  %i2, [ %l3 + 0x18 ]
    27d0:	40 00 56 85 	call  181e4 <strlen@plt>
    27d4:	90 10 00 18 	mov  %i0, %o0
    27d8:	a0 10 00 08 	mov  %o0, %l0
    27dc:	40 00 56 82 	call  181e4 <strlen@plt>
    27e0:	90 10 00 19 	mov  %i1, %o0
    27e4:	80 a4 00 08 	cmp  %l0, %o0
    27e8:	1a 80 00 07 	bcc  2804 <copy_pwd_changes+0x1e8>
    27ec:	01 00 00 00 	nop 
    27f0:	f4 24 e0 18 	st  %i2, [ %l3 + 0x18 ]
    27f4:	90 10 00 1a 	mov  %i2, %o0
    27f8:	40 00 56 bd 	call  182ec <strcpy@plt>
    27fc:	d2 04 a0 18 	ld  [ %l2 + 0x18 ], %o1
    2800:	30 80 00 1f 	b,a   287c <copy_pwd_changes+0x260>
    2804:	10 80 56 ba 	b  182ec <strcpy@plt>
    2808:	81 e8 00 00 	restore 
    280c:	40 00 56 b8 	call  182ec <strcpy@plt>
    2810:	92 10 00 11 	mov  %l1, %o1
    2814:	10 bf ff a4 	b  26a4 <copy_pwd_changes+0x88>
    2818:	e2 04 a0 10 	ld  [ %l2 + 0x10 ], %l1
    281c:	40 00 56 b4 	call  182ec <strcpy@plt>
    2820:	92 10 00 11 	mov  %l1, %o1
    2824:	10 bf ff de 	b  279c <copy_pwd_changes+0x180>
    2828:	f2 04 a0 18 	ld  [ %l2 + 0x18 ], %i1
    282c:	40 00 56 b0 	call  182ec <strcpy@plt>
    2830:	92 10 00 11 	mov  %l1, %o1
    2834:	10 bf ff bb 	b  2720 <copy_pwd_changes+0x104>
    2838:	e2 04 a0 14 	ld  [ %l2 + 0x14 ], %l1
    283c:	40 00 56 8b 	call  18268 <__strdup@plt>
    2840:	90 10 00 11 	mov  %l1, %o0
    2844:	10 bf ff b6 	b  271c <copy_pwd_changes+0x100>
    2848:	d0 24 e0 10 	st  %o0, [ %l3 + 0x10 ]
    284c:	40 00 56 87 	call  18268 <__strdup@plt>
    2850:	90 10 00 11 	mov  %l1, %o0
    2854:	10 bf ff d1 	b  2798 <copy_pwd_changes+0x17c>
    2858:	d0 24 e0 14 	st  %o0, [ %l3 + 0x14 ]
    285c:	40 00 56 83 	call  18268 <__strdup@plt>
    2860:	90 10 00 19 	mov  %i1, %o0
    2864:	10 80 00 06 	b  287c <copy_pwd_changes+0x260>
    2868:	d0 24 e0 18 	st  %o0, [ %l3 + 0x18 ]
    286c:	40 00 56 7f 	call  18268 <__strdup@plt>
    2870:	90 10 00 11 	mov  %l1, %o0
    2874:	10 bf ff 8b 	b  26a0 <copy_pwd_changes+0x84>
    2878:	d0 26 20 04 	st  %o0, [ %i0 + 4 ]
    287c:	81 c7 e0 08 	ret 
    2880:	81 e8 00 00 	restore 

00002884 <internal_setpwent>:
internal_setpwent():
    2884:	9d e3 bf 90 	save  %sp, -112, %sp
    2888:	a2 10 20 01 	mov  1, %l1
    288c:	c4 06 20 0c 	ld  [ %i0 + 0xc ], %g2
    2890:	2f 00 00 55 	sethi  %hi(0x15400), %l7
    2894:	7f ff fe c3 	call  23a0 <_nss_compat_getgrent_r+0x36c>
    2898:	ae 05 e3 6c 	add  %l7, 0x36c, %l7	! 1576c <__FRAME_END__+0xf444>
    289c:	c0 2e 00 00 	clrb  [ %i0 ]
    28a0:	c0 2e 20 01 	clrb  [ %i0 + 1 ]
    28a4:	e2 2e 20 02 	stb  %l1, [ %i0 + 2 ]
    28a8:	80 a0 a0 00 	cmp  %g2, 0
    28ac:	02 80 00 28 	be  294c <internal_setpwent+0xc8>
    28b0:	e2 26 20 04 	st  %l1, [ %i0 + 4 ]
    28b4:	e2 26 20 10 	st  %l1, [ %i0 + 0x10 ]
    28b8:	82 10 20 7c 	mov  0x7c, %g1
    28bc:	c2 28 80 00 	stb  %g1, [ %g2 ]
    28c0:	c4 06 20 0c 	ld  [ %i0 + 0xc ], %g2
    28c4:	c0 28 a0 01 	clrb  [ %g2 + 1 ]
    28c8:	d0 06 20 08 	ld  [ %i0 + 8 ], %o0
    28cc:	80 a2 20 00 	cmp  %o0, 0
    28d0:	12 80 00 23 	bne  295c <internal_setpwent+0xd8>
    28d4:	01 00 00 00 	nop 
    28d8:	03 00 00 00 	sethi  %hi(0), %g1
    28dc:	05 00 00 00 	sethi  %hi(0), %g2
    28e0:	82 10 60 90 	or  %g1, 0x90, %g1
    28e4:	84 10 a0 94 	or  %g2, 0x94, %g2
    28e8:	d0 05 c0 01 	ld  [ %l7 + %g1 ], %o0
    28ec:	40 00 56 71 	call  182b0 <fopen@plt>
    28f0:	d2 05 c0 02 	ld  [ %l7 + %g2 ], %o1
    28f4:	82 92 20 00 	orcc  %o0, 0, %g1
    28f8:	12 80 00 2f 	bne  29b4 <internal_setpwent+0x130>
    28fc:	c2 26 20 08 	st  %g1, [ %i0 + 8 ]
    2900:	40 00 56 24 	call  18190 <__errno_location@plt>
    2904:	01 00 00 00 	nop 
    2908:	c2 02 00 00 	ld  [ %o0 ], %g1
    290c:	82 18 60 0b 	xor  %g1, 0xb, %g1
    2910:	80 a0 00 01 	cmp  %g0, %g1
    2914:	84 40 20 00 	addx  %g0, 0, %g2
    2918:	a2 00 bf fe 	add  %g2, -2, %l1
    291c:	7f ff fe e4 	call  24ac <give_pwd_free>
    2920:	90 06 20 18 	add  %i0, 0x18, %o0
    2924:	80 a0 00 1a 	cmp  %g0, %i2
    2928:	82 40 20 00 	addx  %g0, 0, %g1
    292c:	84 1c 60 01 	xor  %l1, 1, %g2
    2930:	80 a0 00 02 	cmp  %g0, %g2
    2934:	86 60 3f ff 	subx  %g0, -1, %g3
    2938:	80 88 40 03 	btst  %g1, %g3
    293c:	02 80 00 38 	be  2a1c <internal_setpwent+0x198>
    2940:	03 00 00 00 	sethi  %hi(0), %g1
    2944:	10 80 00 13 	b  2990 <internal_setpwent+0x10c>
    2948:	82 10 60 5c 	or  %g1, 0x5c, %g1	! 5c <GLIBC_PRIVATE+0x5c>
    294c:	d0 06 20 08 	ld  [ %i0 + 8 ], %o0
    2950:	80 a2 20 00 	cmp  %o0, 0
    2954:	02 bf ff e1 	be  28d8 <internal_setpwent+0x54>
    2958:	c0 26 20 10 	clr  [ %i0 + 0x10 ]
    295c:	40 00 56 10 	call  1819c <rewind@plt>
    2960:	01 00 00 00 	nop 
    2964:	7f ff fe d2 	call  24ac <give_pwd_free>
    2968:	90 06 20 18 	add  %i0, 0x18, %o0
    296c:	80 a0 00 1a 	cmp  %g0, %i2
    2970:	82 40 20 00 	addx  %g0, 0, %g1
    2974:	84 1c 60 01 	xor  %l1, 1, %g2
    2978:	80 a0 00 02 	cmp  %g0, %g2
    297c:	86 60 3f ff 	subx  %g0, -1, %g3
    2980:	80 88 40 03 	btst  %g1, %g3
    2984:	02 80 00 26 	be  2a1c <internal_setpwent+0x198>
    2988:	03 00 00 00 	sethi  %hi(0), %g1
    298c:	82 10 60 5c 	or  %g1, 0x5c, %g1	! 5c <GLIBC_PRIVATE+0x5c>
    2990:	c4 05 c0 01 	ld  [ %l7 + %g1 ], %g2
    2994:	c4 00 80 00 	ld  [ %g2 ], %g2
    2998:	80 a0 a0 00 	cmp  %g2, 0
    299c:	02 80 00 20 	be  2a1c <internal_setpwent+0x198>
    29a0:	01 00 00 00 	nop 
    29a4:	9f c0 80 00 	call  %g2
    29a8:	90 10 00 19 	mov  %i1, %o0
    29ac:	10 80 00 1c 	b  2a1c <internal_setpwent+0x198>
    29b0:	d0 26 20 04 	st  %o0, [ %i0 + 4 ]
    29b4:	40 00 56 1b 	call  18220 <fileno_unlocked@plt>
    29b8:	01 00 00 00 	nop 
    29bc:	92 10 20 01 	mov  1, %o1	! 1 <GLIBC_PRIVATE+0x1>
    29c0:	40 00 56 21 	call  18244 <fcntl@plt>
    29c4:	94 10 20 00 	clr  %o2
    29c8:	a0 92 20 00 	orcc  %o0, 0, %l0
    29cc:	06 80 00 0f 	bl  2a08 <internal_setpwent+0x184>
    29d0:	01 00 00 00 	nop 
    29d4:	40 00 56 13 	call  18220 <fileno_unlocked@plt>
    29d8:	d0 06 20 08 	ld  [ %i0 + 8 ], %o0
    29dc:	a0 14 20 01 	or  %l0, 1, %l0
    29e0:	94 10 00 10 	mov  %l0, %o2
    29e4:	40 00 56 18 	call  18244 <fcntl@plt>
    29e8:	92 10 20 02 	mov  2, %o1
    29ec:	80 a2 20 00 	cmp  %o0, 0
    29f0:	06 80 00 06 	bl  2a08 <internal_setpwent+0x184>
    29f4:	01 00 00 00 	nop 
    29f8:	d0 06 20 08 	ld  [ %i0 + 8 ], %o0
    29fc:	40 00 56 21 	call  18280 <__fsetlocking@plt>
    2a00:	92 10 20 02 	mov  2, %o1
    2a04:	30 bf ff d8 	b,a   2964 <internal_setpwent+0xe0>
    2a08:	40 00 56 15 	call  1825c <fclose@plt>
    2a0c:	d0 06 20 08 	ld  [ %i0 + 8 ], %o0
    2a10:	c0 26 20 08 	clr  [ %i0 + 8 ]
    2a14:	10 bf ff d4 	b  2964 <internal_setpwent+0xe0>
    2a18:	a2 10 3f ff 	mov  -1, %l1
    2a1c:	81 c7 e0 08 	ret 
    2a20:	91 e8 00 11 	restore  %g0, %l1, %o0

00002a24 <_nss_compat_setpwent>:
_nss_compat_setpwent():
    2a24:	9d e3 bf 90 	save  %sp, -112, %sp
    2a28:	03 00 00 00 	sethi  %hi(0), %g1
    2a2c:	2f 00 00 55 	sethi  %hi(0x15400), %l7
    2a30:	7f ff fe 5c 	call  23a0 <_nss_compat_getgrent_r+0x36c>
    2a34:	ae 05 e1 d0 	add  %l7, 0x1d0, %l7	! 155d0 <__FRAME_END__+0xf2a8>
    2a38:	82 10 61 1c 	or  %g1, 0x11c, %g1
    2a3c:	05 00 00 00 	sethi  %hi(0), %g2
    2a40:	c2 05 c0 01 	ld  [ %l7 + %g1 ], %g1
    2a44:	80 a0 60 00 	cmp  %g1, 0
    2a48:	02 80 00 04 	be  2a58 <_nss_compat_setpwent+0x34>
    2a4c:	84 10 a0 70 	or  %g2, 0x70, %g2
    2a50:	9f c0 40 00 	call  %g1
    2a54:	d0 05 c0 02 	ld  [ %l7 + %g2 ], %o0
    2a58:	03 00 00 00 	sethi  %hi(0), %g1
    2a5c:	82 10 60 58 	or  %g1, 0x58, %g1	! 58 <GLIBC_PRIVATE+0x58>
    2a60:	c4 05 c0 01 	ld  [ %l7 + %g1 ], %g2
    2a64:	c6 00 80 00 	ld  [ %g2 ], %g3
    2a68:	80 a0 e0 00 	cmp  %g3, 0
    2a6c:	02 80 00 13 	be  2ab8 <_nss_compat_setpwent+0x94>
    2a70:	01 00 00 00 	nop 
    2a74:	03 00 00 00 	sethi  %hi(0), %g1
    2a78:	82 10 60 54 	or  %g1, 0x54, %g1	! 54 <GLIBC_PRIVATE+0x54>
    2a7c:	92 10 00 18 	mov  %i0, %o1
    2a80:	d0 05 c0 01 	ld  [ %l7 + %g1 ], %o0
    2a84:	7f ff ff 80 	call  2884 <internal_setpwent>
    2a88:	94 10 20 01 	mov  1, %o2
    2a8c:	03 00 00 00 	sethi  %hi(0), %g1
    2a90:	82 10 61 24 	or  %g1, 0x124, %g1	! 124 <GLIBC_PRIVATE+0x124>
    2a94:	05 00 00 00 	sethi  %hi(0), %g2
    2a98:	c2 05 c0 01 	ld  [ %l7 + %g1 ], %g1
    2a9c:	b0 10 00 08 	mov  %o0, %i0
    2aa0:	80 a0 60 00 	cmp  %g1, 0
    2aa4:	02 80 00 09 	be  2ac8 <_nss_compat_setpwent+0xa4>
    2aa8:	84 10 a0 70 	or  %g2, 0x70, %g2
    2aac:	9f c0 40 00 	call  %g1
    2ab0:	d0 05 c0 02 	ld  [ %l7 + %g2 ], %o0
    2ab4:	30 80 00 05 	b,a   2ac8 <_nss_compat_setpwent+0xa4>
    2ab8:	7f ff fe 3c 	call  23a8 <init_nss_interface>
    2abc:	01 00 00 00 	nop 
    2ac0:	10 bf ff ee 	b  2a78 <_nss_compat_setpwent+0x54>
    2ac4:	03 00 00 00 	sethi  %hi(0), %g1
    2ac8:	81 c7 e0 08 	ret 
    2acc:	81 e8 00 00 	restore 

00002ad0 <internal_endpwent>:
internal_endpwent():
    2ad0:	9d e3 bf 90 	save  %sp, -112, %sp
    2ad4:	03 00 00 00 	sethi  %hi(0), %g1
    2ad8:	2f 00 00 55 	sethi  %hi(0x15400), %l7
    2adc:	7f ff fe 31 	call  23a0 <_nss_compat_getgrent_r+0x36c>
    2ae0:	ae 05 e1 24 	add  %l7, 0x124, %l7	! 15524 <__FRAME_END__+0xf1fc>
    2ae4:	82 10 60 6c 	or  %g1, 0x6c, %g1
    2ae8:	c4 05 c0 01 	ld  [ %l7 + %g1 ], %g2
    2aec:	c4 00 80 00 	ld  [ %g2 ], %g2
    2af0:	80 a0 a0 00 	cmp  %g2, 0
    2af4:	12 80 00 18 	bne  2b54 <internal_endpwent+0x84>
    2af8:	01 00 00 00 	nop 
    2afc:	c2 06 20 08 	ld  [ %i0 + 8 ], %g1
    2b00:	90 90 60 00 	orcc  %g1, 0, %o0
    2b04:	12 80 00 1a 	bne  2b6c <internal_endpwent+0x9c>
    2b08:	01 00 00 00 	nop 
    2b0c:	c2 0e 00 00 	ldub  [ %i0 ], %g1
    2b10:	80 a0 60 00 	cmp  %g1, 0
    2b14:	12 80 00 1d 	bne  2b88 <internal_endpwent+0xb8>
    2b18:	90 06 20 34 	add  %i0, 0x34, %o0
    2b1c:	c6 06 20 0c 	ld  [ %i0 + 0xc ], %g3
    2b20:	c0 2e 00 00 	clrb  [ %i0 ]
    2b24:	80 a0 e0 00 	cmp  %g3, 0
    2b28:	02 80 00 09 	be  2b4c <internal_endpwent+0x7c>
    2b2c:	c0 2e 20 01 	clrb  [ %i0 + 1 ]
    2b30:	82 10 20 01 	mov  1, %g1
    2b34:	c2 26 20 10 	st  %g1, [ %i0 + 0x10 ]
    2b38:	84 10 20 7c 	mov  0x7c, %g2
    2b3c:	c4 28 c0 00 	stb  %g2, [ %g3 ]
    2b40:	c2 06 20 0c 	ld  [ %i0 + 0xc ], %g1
    2b44:	10 80 00 15 	b  2b98 <internal_endpwent+0xc8>
    2b48:	c0 28 60 01 	clrb  [ %g1 + 1 ]
    2b4c:	10 80 00 13 	b  2b98 <internal_endpwent+0xc8>
    2b50:	c0 26 20 10 	clr  [ %i0 + 0x10 ]
    2b54:	9f c0 80 00 	call  %g2
    2b58:	01 00 00 00 	nop 
    2b5c:	c2 06 20 08 	ld  [ %i0 + 8 ], %g1
    2b60:	90 90 60 00 	orcc  %g1, 0, %o0
    2b64:	22 bf ff eb 	be,a   2b10 <internal_endpwent+0x40>
    2b68:	c2 0e 00 00 	ldub  [ %i0 ], %g1
    2b6c:	40 00 55 bc 	call  1825c <fclose@plt>
    2b70:	01 00 00 00 	nop 
    2b74:	c2 0e 00 00 	ldub  [ %i0 ], %g1
    2b78:	c0 26 20 08 	clr  [ %i0 + 8 ]
    2b7c:	80 a0 60 00 	cmp  %g1, 0
    2b80:	02 bf ff e7 	be  2b1c <internal_endpwent+0x4c>
    2b84:	90 06 20 34 	add  %i0, 0x34, %o0
    2b88:	40 00 55 7f 	call  18184 <__internal_endnetgrent@plt>
    2b8c:	01 00 00 00 	nop 
    2b90:	10 bf ff e4 	b  2b20 <internal_endpwent+0x50>
    2b94:	c6 06 20 0c 	ld  [ %i0 + 0xc ], %g3
    2b98:	7f ff fe 45 	call  24ac <give_pwd_free>
    2b9c:	90 06 20 18 	add  %i0, 0x18, %o0
    2ba0:	81 c7 e0 08 	ret 
    2ba4:	91 e8 20 01 	restore  %g0, 1, %o0

00002ba8 <_nss_compat_endpwent>:
_nss_compat_endpwent():
    2ba8:	9d e3 bf 90 	save  %sp, -112, %sp
    2bac:	03 00 00 00 	sethi  %hi(0), %g1
    2bb0:	2f 00 00 55 	sethi  %hi(0x15400), %l7
    2bb4:	7f ff fd fb 	call  23a0 <_nss_compat_getgrent_r+0x36c>
    2bb8:	ae 05 e0 4c 	add  %l7, 0x4c, %l7	! 1544c <__FRAME_END__+0xf124>
    2bbc:	82 10 61 1c 	or  %g1, 0x11c, %g1
    2bc0:	05 00 00 00 	sethi  %hi(0), %g2
    2bc4:	c2 05 c0 01 	ld  [ %l7 + %g1 ], %g1
    2bc8:	80 a0 60 00 	cmp  %g1, 0
    2bcc:	02 80 00 04 	be  2bdc <_nss_compat_endpwent+0x34>
    2bd0:	84 10 a0 70 	or  %g2, 0x70, %g2
    2bd4:	9f c0 40 00 	call  %g1
    2bd8:	d0 05 c0 02 	ld  [ %l7 + %g2 ], %o0
    2bdc:	03 00 00 00 	sethi  %hi(0), %g1
    2be0:	82 10 60 54 	or  %g1, 0x54, %g1	! 54 <GLIBC_PRIVATE+0x54>
    2be4:	7f ff ff bb 	call  2ad0 <internal_endpwent>
    2be8:	d0 05 c0 01 	ld  [ %l7 + %g1 ], %o0
    2bec:	03 00 00 00 	sethi  %hi(0), %g1
    2bf0:	82 10 61 24 	or  %g1, 0x124, %g1	! 124 <GLIBC_PRIVATE+0x124>
    2bf4:	05 00 00 00 	sethi  %hi(0), %g2
    2bf8:	c2 05 c0 01 	ld  [ %l7 + %g1 ], %g1
    2bfc:	b0 10 00 08 	mov  %o0, %i0
    2c00:	80 a0 60 00 	cmp  %g1, 0
    2c04:	02 80 00 04 	be  2c14 <_nss_compat_endpwent+0x6c>
    2c08:	84 10 a0 70 	or  %g2, 0x70, %g2
    2c0c:	9f c0 40 00 	call  %g1
    2c10:	d0 05 c0 02 	ld  [ %l7 + %g2 ], %o0
    2c14:	81 c7 e0 08 	ret 
    2c18:	81 e8 00 00 	restore 

00002c1c <getpwuid_plususer>:
getpwuid_plususer():
    2c1c:	9d e3 bf 70 	save  %sp, -144, %sp
    2c20:	03 00 00 00 	sethi  %hi(0), %g1
    2c24:	2f 00 00 54 	sethi  %hi(0x15000), %l7
    2c28:	7f ff fd de 	call  23a0 <_nss_compat_getgrent_r+0x36c>
    2c2c:	ae 05 e3 d8 	add  %l7, 0x3d8, %l7	! 153d8 <__FRAME_END__+0xf0b0>
    2c30:	82 10 60 64 	or  %g1, 0x64, %g1
    2c34:	e6 05 c0 01 	ld  [ %l7 + %g1 ], %l3
    2c38:	a2 07 bf d0 	add  %fp, -48, %l1
    2c3c:	c4 04 c0 00 	ld  [ %l3 ], %g2
    2c40:	a4 10 00 18 	mov  %i0, %l2
    2c44:	98 10 20 00 	clr  %o4
    2c48:	9a 10 20 00 	clr  %o5
    2c4c:	90 10 00 11 	mov  %l1, %o0
    2c50:	94 10 20 00 	clr  %o2
    2c54:	96 10 20 00 	clr  %o3
    2c58:	80 a0 a0 00 	cmp  %g2, 0
    2c5c:	92 10 00 19 	mov  %i1, %o1
    2c60:	02 80 00 28 	be  2d00 <getpwuid_plususer+0xe4>
    2c64:	b0 10 3f ff 	mov  -1, %i0
    2c68:	d8 3f bf e0 	std  %o4, [ %fp + -32 ]
    2c6c:	d8 3f bf d0 	std  %o4, [ %fp + -48 ]
    2c70:	d8 3f bf d8 	std  %o4, [ %fp + -40 ]
    2c74:	7f ff fe 6a 	call  261c <copy_pwd_changes>
    2c78:	c0 27 bf e8 	clr  [ %fp + -24 ]
    2c7c:	7f ff fe 45 	call  2590 <pwd_need_buflen>
    2c80:	90 10 00 11 	mov  %l1, %o0
    2c84:	82 26 c0 08 	sub  %i3, %o0, %g1
    2c88:	a0 10 00 08 	mov  %o0, %l0
    2c8c:	94 10 00 1a 	mov  %i2, %o2
    2c90:	98 10 00 1c 	mov  %i4, %o4
    2c94:	96 10 00 01 	mov  %g1, %o3
    2c98:	90 10 00 12 	mov  %l2, %o0
    2c9c:	92 10 00 19 	mov  %i1, %o1
    2ca0:	b4 00 40 1a 	add  %g1, %i2, %i2
    2ca4:	80 a4 00 1b 	cmp  %l0, %i3
    2ca8:	18 80 00 14 	bgu  2cf8 <getpwuid_plususer+0xdc>
    2cac:	b0 10 3f fe 	mov  -2, %i0
    2cb0:	c2 04 c0 00 	ld  [ %l3 ], %g1
    2cb4:	9f c0 40 00 	call  %g1
    2cb8:	01 00 00 00 	nop 
    2cbc:	80 a2 20 01 	cmp  %o0, 1
    2cc0:	94 10 00 1a 	mov  %i2, %o2
    2cc4:	96 10 00 10 	mov  %l0, %o3
    2cc8:	92 10 00 11 	mov  %l1, %o1
    2ccc:	12 80 00 07 	bne  2ce8 <getpwuid_plususer+0xcc>
    2cd0:	90 10 00 19 	mov  %i1, %o0
    2cd4:	7f ff fe 52 	call  261c <copy_pwd_changes>
    2cd8:	b0 10 20 01 	mov  1, %i0
    2cdc:	7f ff fd f4 	call  24ac <give_pwd_free>
    2ce0:	90 10 00 11 	mov  %l1, %o0
    2ce4:	30 80 00 07 	b,a   2d00 <getpwuid_plususer+0xe4>
    2ce8:	7f ff fd f1 	call  24ac <give_pwd_free>
    2cec:	90 10 00 11 	mov  %l1, %o0
    2cf0:	10 80 00 04 	b  2d00 <getpwuid_plususer+0xe4>
    2cf4:	b0 10 20 02 	mov  2, %i0
    2cf8:	82 10 20 22 	mov  0x22, %g1
    2cfc:	c2 27 00 00 	st  %g1, [ %i4 ]
    2d00:	81 c7 e0 08 	ret 
    2d04:	81 e8 00 00 	restore 

00002d08 <_nss_compat_getpwuid_r>:
_nss_compat_getpwuid_r():
    2d08:	9d e3 bf 20 	save  %sp, -224, %sp
    2d0c:	03 00 00 00 	sethi  %hi(0), %g1
    2d10:	2f 00 00 54 	sethi  %hi(0x15000), %l7
    2d14:	7f ff fd a3 	call  23a0 <_nss_compat_getgrent_r+0x36c>
    2d18:	ae 05 e2 ec 	add  %l7, 0x2ec, %l7	! 152ec <__FRAME_END__+0xefc4>
    2d1c:	82 10 60 98 	or  %g1, 0x98, %g1
    2d20:	a4 07 bf 90 	add  %fp, -112, %l2
    2d24:	d2 05 c0 01 	ld  [ %l7 + %g1 ], %o1
    2d28:	90 10 00 12 	mov  %l2, %o0
    2d2c:	40 00 55 49 	call  18250 <memcpy@plt>
    2d30:	94 10 20 60 	mov  0x60, %o2
    2d34:	03 00 00 00 	sethi  %hi(0), %g1
    2d38:	82 10 61 1c 	or  %g1, 0x11c, %g1	! 11c <GLIBC_PRIVATE+0x11c>
    2d3c:	c4 05 c0 01 	ld  [ %l7 + %g1 ], %g2
    2d40:	80 a0 a0 00 	cmp  %g2, 0
    2d44:	02 80 00 06 	be  2d5c <_nss_compat_getpwuid_r+0x54>
    2d48:	aa 10 00 18 	mov  %i0, %l5
    2d4c:	03 00 00 00 	sethi  %hi(0), %g1
    2d50:	82 10 60 70 	or  %g1, 0x70, %g1	! 70 <GLIBC_PRIVATE+0x70>
    2d54:	9f c0 80 00 	call  %g2
    2d58:	d0 05 c0 01 	ld  [ %l7 + %g1 ], %o0
    2d5c:	03 00 00 00 	sethi  %hi(0), %g1
    2d60:	82 10 60 58 	or  %g1, 0x58, %g1	! 58 <GLIBC_PRIVATE+0x58>
    2d64:	c4 05 c0 01 	ld  [ %l7 + %g1 ], %g2
    2d68:	c6 00 80 00 	ld  [ %g2 ], %g3
    2d6c:	80 a0 e0 00 	cmp  %g3, 0
    2d70:	02 80 00 7b 	be  2f5c <_nss_compat_getpwuid_r+0x254>
    2d74:	01 00 00 00 	nop 
    2d78:	03 00 00 00 	sethi  %hi(0), %g1
    2d7c:	82 10 61 24 	or  %g1, 0x124, %g1	! 124 <GLIBC_PRIVATE+0x124>
    2d80:	c4 05 c0 01 	ld  [ %l7 + %g1 ], %g2
    2d84:	80 a0 a0 00 	cmp  %g2, 0
    2d88:	02 80 00 05 	be  2d9c <_nss_compat_getpwuid_r+0x94>
    2d8c:	03 00 00 00 	sethi  %hi(0), %g1
    2d90:	82 10 60 70 	or  %g1, 0x70, %g1	! 70 <GLIBC_PRIVATE+0x70>
    2d94:	9f c0 80 00 	call  %g2
    2d98:	d0 05 c0 01 	ld  [ %l7 + %g1 ], %o0
    2d9c:	90 10 00 12 	mov  %l2, %o0
    2da0:	92 10 20 00 	clr  %o1
    2da4:	7f ff fe b8 	call  2884 <internal_setpwent>
    2da8:	94 10 20 00 	clr  %o2
    2dac:	b0 10 00 08 	mov  %o0, %i0
    2db0:	80 a2 20 01 	cmp  %o0, 1
    2db4:	a8 07 bf 80 	add  %fp, -128, %l4
    2db8:	12 80 00 f9 	bne  319c <_nss_compat_getpwuid_r+0x494>
    2dbc:	a2 06 80 1b 	add  %i2, %i3, %l1
    2dc0:	10 80 00 28 	b  2e60 <_nss_compat_getpwuid_r+0x158>
    2dc4:	80 a6 e0 02 	cmp  %i3, 2
    2dc8:	80 a0 60 40 	cmp  %g1, 0x40
    2dcc:	32 80 00 6e 	bne,a   2f84 <_nss_compat_getpwuid_r+0x27c>
    2dd0:	c2 4c 00 00 	ldsb  [ %l0 ], %g1
    2dd4:	c2 4c 20 02 	ldsb  [ %l0 + 2 ], %g1
    2dd8:	80 a0 60 00 	cmp  %g1, 0
    2ddc:	22 80 00 6a 	be,a   2f84 <_nss_compat_getpwuid_r+0x27c>
    2de0:	c2 4c 00 00 	ldsb  [ %l0 ], %g1
    2de4:	a6 10 00 0e 	mov  %sp, %l3
    2de8:	40 00 54 ff 	call  181e4 <strlen@plt>
    2dec:	90 10 00 10 	mov  %l0, %o0
    2df0:	82 02 20 06 	add  %o0, 6, %g1
    2df4:	82 08 7f f8 	and  %g1, -8, %g1
    2df8:	9c 23 80 01 	sub  %sp, %g1, %sp
    2dfc:	94 02 3f ff 	add  %o0, -1, %o2
    2e00:	b0 03 a0 60 	add  %sp, 0x60, %i0
    2e04:	92 04 20 02 	add  %l0, 2, %o1
    2e08:	40 00 55 12 	call  18250 <memcpy@plt>
    2e0c:	90 10 00 18 	mov  %i0, %o0
    2e10:	90 10 00 15 	mov  %l5, %o0
    2e14:	92 10 00 19 	mov  %i1, %o1
    2e18:	94 10 00 1a 	mov  %i2, %o2
    2e1c:	96 10 00 1b 	mov  %i3, %o3
    2e20:	7f ff ff 7f 	call  2c1c <getpwuid_plususer>
    2e24:	98 10 00 1c 	mov  %i4, %o4
    2e28:	80 a2 20 02 	cmp  %o0, 2
    2e2c:	02 80 00 0b 	be  2e58 <_nss_compat_getpwuid_r+0x150>
    2e30:	80 a2 20 01 	cmp  %o0, 1
    2e34:	12 80 00 d6 	bne  318c <_nss_compat_getpwuid_r+0x484>
    2e38:	92 10 20 00 	clr  %o1
    2e3c:	90 10 00 18 	mov  %i0, %o0
    2e40:	d4 06 40 00 	ld  [ %i1 ], %o2
    2e44:	40 00 54 fd 	call  18238 <innetgr@plt>
    2e48:	96 10 20 00 	clr  %o3
    2e4c:	80 a2 20 00 	cmp  %o0, 0
    2e50:	12 80 00 77 	bne  302c <_nss_compat_getpwuid_r+0x324>
    2e54:	b0 10 20 01 	mov  1, %i0
    2e58:	9c 10 00 13 	mov  %l3, %sp
    2e5c:	80 a6 e0 02 	cmp  %i3, 2
    2e60:	08 80 00 92 	bleu  30a8 <_nss_compat_getpwuid_r+0x3a0>
    2e64:	92 10 00 14 	mov  %l4, %o1
    2e68:	40 00 55 15 	call  182bc <fgetpos@plt>
    2e6c:	d0 04 a0 08 	ld  [ %l2 + 8 ], %o0
    2e70:	82 10 3f ff 	mov  -1, %g1
    2e74:	c2 2c 7f ff 	stb  %g1, [ %l1 + -1 ]
    2e78:	90 10 00 1a 	mov  %i2, %o0
    2e7c:	92 10 00 1b 	mov  %i3, %o1
    2e80:	40 00 54 d0 	call  181c0 <fgets_unlocked@plt>
    2e84:	d4 04 a0 08 	ld  [ %l2 + 8 ], %o2
    2e88:	a0 92 20 00 	orcc  %o0, 0, %l0
    2e8c:	22 80 00 80 	be,a   308c <_nss_compat_getpwuid_r+0x384>
    2e90:	c2 04 a0 08 	ld  [ %l2 + 8 ], %g1
    2e94:	c2 4c 7f ff 	ldsb  [ %l1 + -1 ], %g1
    2e98:	80 a0 7f ff 	cmp  %g1, -1
    2e9c:	12 80 00 81 	bne  30a0 <_nss_compat_getpwuid_r+0x398>
    2ea0:	92 10 00 14 	mov  %l4, %o1
    2ea4:	40 00 55 0c 	call  182d4 <__ctype_b_loc@plt>
    2ea8:	c0 2c 7f ff 	clrb  [ %l1 + -1 ]
    2eac:	d0 02 00 00 	ld  [ %o0 ], %o0
    2eb0:	c6 4c 00 00 	ldsb  [ %l0 ], %g3
    2eb4:	82 00 c0 03 	add  %g3, %g3, %g1
    2eb8:	c4 12 00 01 	lduh  [ %o0 + %g1 ], %g2
    2ebc:	80 88 a0 20 	btst  0x20, %g2
    2ec0:	32 bf ff fc 	bne,a   2eb0 <_nss_compat_getpwuid_r+0x1a8>
    2ec4:	a0 04 20 01 	inc  %l0
    2ec8:	80 a0 00 03 	cmp  %g0, %g3
    2ecc:	82 60 3f ff 	subx  %g0, -1, %g1
    2ed0:	84 18 e0 23 	xor  %g3, 0x23, %g2
    2ed4:	80 a0 00 02 	cmp  %g0, %g2
    2ed8:	86 60 3f ff 	subx  %g0, -1, %g3
    2edc:	80 90 40 03 	orcc  %g1, %g3, %g0
    2ee0:	12 bf ff e0 	bne  2e60 <_nss_compat_getpwuid_r+0x158>
    2ee4:	80 a6 e0 02 	cmp  %i3, 2
    2ee8:	90 10 00 10 	mov  %l0, %o0
    2eec:	92 10 00 19 	mov  %i1, %o1
    2ef0:	94 10 00 1a 	mov  %i2, %o2
    2ef4:	96 10 00 1b 	mov  %i3, %o3
    2ef8:	40 00 54 eb 	call  182a4 <_nss_files_parse_pwent@plt>
    2efc:	98 10 00 1c 	mov  %i4, %o4
    2f00:	80 a2 20 00 	cmp  %o0, 0
    2f04:	02 bf ff d7 	be  2e60 <_nss_compat_getpwuid_r+0x158>
    2f08:	80 a6 e0 02 	cmp  %i3, 2
    2f0c:	80 a2 3f ff 	cmp  %o0, -1
    2f10:	02 80 00 64 	be  30a0 <_nss_compat_getpwuid_r+0x398>
    2f14:	92 10 00 14 	mov  %l4, %o1
    2f18:	e0 06 40 00 	ld  [ %i1 ], %l0
    2f1c:	c8 4c 00 00 	ldsb  [ %l0 ], %g4
    2f20:	82 19 20 2b 	xor  %g4, 0x2b, %g1
    2f24:	80 a0 00 01 	cmp  %g0, %g1
    2f28:	86 40 20 00 	addx  %g0, 0, %g3
    2f2c:	82 19 20 2d 	xor  %g4, 0x2d, %g1
    2f30:	80 a0 00 01 	cmp  %g0, %g1
    2f34:	84 40 20 00 	addx  %g0, 0, %g2
    2f38:	80 88 c0 02 	btst  %g3, %g2
    2f3c:	02 80 00 0c 	be  2f6c <_nss_compat_getpwuid_r+0x264>
    2f40:	80 a1 20 2d 	cmp  %g4, 0x2d
    2f44:	c2 06 60 08 	ld  [ %i1 + 8 ], %g1
    2f48:	80 a0 40 15 	cmp  %g1, %l5
    2f4c:	12 bf ff c5 	bne  2e60 <_nss_compat_getpwuid_r+0x158>
    2f50:	80 a6 e0 02 	cmp  %i3, 2
    2f54:	10 80 00 92 	b  319c <_nss_compat_getpwuid_r+0x494>
    2f58:	b0 10 20 01 	mov  1, %i0
    2f5c:	7f ff fd 13 	call  23a8 <init_nss_interface>
    2f60:	01 00 00 00 	nop 
    2f64:	10 bf ff 86 	b  2d7c <_nss_compat_getpwuid_r+0x74>
    2f68:	03 00 00 00 	sethi  %hi(0), %g1
    2f6c:	22 80 00 53 	be,a   30b8 <_nss_compat_getpwuid_r+0x3b0>
    2f70:	c2 4c 20 01 	ldsb  [ %l0 + 1 ], %g1
    2f74:	c2 4c 00 00 	ldsb  [ %l0 ], %g1
    2f78:	80 a0 60 2b 	cmp  %g1, 0x2b
    2f7c:	22 bf ff 93 	be,a   2dc8 <_nss_compat_getpwuid_r+0xc0>
    2f80:	c2 4c 20 01 	ldsb  [ %l0 + 1 ], %g1
    2f84:	80 a0 60 2d 	cmp  %g1, 0x2d
    2f88:	22 80 00 69 	be,a   312c <_nss_compat_getpwuid_r+0x424>
    2f8c:	c2 4c 20 01 	ldsb  [ %l0 + 1 ], %g1
    2f90:	c2 4c 00 00 	ldsb  [ %l0 ], %g1
    2f94:	80 a0 60 2b 	cmp  %g1, 0x2b
    2f98:	12 bf ff b2 	bne  2e60 <_nss_compat_getpwuid_r+0x158>
    2f9c:	80 a6 e0 02 	cmp  %i3, 2
    2fa0:	c2 4c 20 01 	ldsb  [ %l0 + 1 ], %g1
    2fa4:	80 a0 60 00 	cmp  %g1, 0
    2fa8:	22 80 00 24 	be,a   3038 <_nss_compat_getpwuid_r+0x330>
    2fac:	c2 4c 00 00 	ldsb  [ %l0 ], %g1
    2fb0:	80 a0 60 40 	cmp  %g1, 0x40
    2fb4:	02 80 00 20 	be  3034 <_nss_compat_getpwuid_r+0x32c>
    2fb8:	a6 10 00 0e 	mov  %sp, %l3
    2fbc:	40 00 54 8a 	call  181e4 <strlen@plt>
    2fc0:	90 10 00 10 	mov  %l0, %o0
    2fc4:	82 02 20 07 	add  %o0, 7, %g1
    2fc8:	82 08 7f f8 	and  %g1, -8, %g1
    2fcc:	9c 23 80 01 	sub  %sp, %g1, %sp
    2fd0:	94 10 00 08 	mov  %o0, %o2
    2fd4:	b0 03 a0 60 	add  %sp, 0x60, %i0
    2fd8:	92 04 20 01 	add  %l0, 1, %o1
    2fdc:	40 00 54 9d 	call  18250 <memcpy@plt>
    2fe0:	90 10 00 18 	mov  %i0, %o0
    2fe4:	90 10 00 15 	mov  %l5, %o0
    2fe8:	92 10 00 19 	mov  %i1, %o1
    2fec:	94 10 00 1a 	mov  %i2, %o2
    2ff0:	96 10 00 1b 	mov  %i3, %o3
    2ff4:	7f ff ff 0a 	call  2c1c <getpwuid_plususer>
    2ff8:	98 10 00 1c 	mov  %i4, %o4
    2ffc:	80 a2 20 02 	cmp  %o0, 2
    3000:	02 bf ff 96 	be  2e58 <_nss_compat_getpwuid_r+0x150>
    3004:	80 a2 20 01 	cmp  %o0, 1
    3008:	12 80 00 62 	bne  3190 <_nss_compat_getpwuid_r+0x488>
    300c:	80 a2 20 02 	cmp  %o0, 2
    3010:	90 10 00 18 	mov  %i0, %o0
    3014:	40 00 54 53 	call  18160 <strcmp@plt>
    3018:	d2 06 40 00 	ld  [ %i1 ], %o1
    301c:	80 a2 20 00 	cmp  %o0, 0
    3020:	32 bf ff 8f 	bne,a   2e5c <_nss_compat_getpwuid_r+0x154>
    3024:	9c 10 00 13 	mov  %l3, %sp
    3028:	b0 10 20 01 	mov  1, %i0
    302c:	10 80 00 5c 	b  319c <_nss_compat_getpwuid_r+0x494>
    3030:	9c 10 00 13 	mov  %l3, %sp
    3034:	c2 4c 00 00 	ldsb  [ %l0 ], %g1
    3038:	80 a0 60 2b 	cmp  %g1, 0x2b
    303c:	12 bf ff 89 	bne  2e60 <_nss_compat_getpwuid_r+0x158>
    3040:	80 a6 e0 02 	cmp  %i3, 2
    3044:	c2 4c 20 01 	ldsb  [ %l0 + 1 ], %g1
    3048:	80 a0 60 00 	cmp  %g1, 0
    304c:	12 bf ff 85 	bne  2e60 <_nss_compat_getpwuid_r+0x158>
    3050:	80 a6 e0 02 	cmp  %i3, 2
    3054:	90 10 00 15 	mov  %l5, %o0
    3058:	92 10 00 19 	mov  %i1, %o1
    305c:	94 10 00 1a 	mov  %i2, %o2
    3060:	96 10 00 1b 	mov  %i3, %o3
    3064:	7f ff fe ee 	call  2c1c <getpwuid_plususer>
    3068:	98 10 00 1c 	mov  %i4, %o4
    306c:	80 a2 20 01 	cmp  %o0, 1
    3070:	02 80 00 4b 	be  319c <_nss_compat_getpwuid_r+0x494>
    3074:	b0 10 20 01 	mov  1, %i0
    3078:	80 a2 20 02 	cmp  %o0, 2
    307c:	02 80 00 48 	be  319c <_nss_compat_getpwuid_r+0x494>
    3080:	b0 10 20 00 	clr  %i0
    3084:	10 80 00 46 	b  319c <_nss_compat_getpwuid_r+0x494>
    3088:	b0 10 00 08 	mov  %o0, %i0
    308c:	c4 00 40 00 	ld  [ %g1 ], %g2
    3090:	80 88 a0 10 	btst  0x10, %g2
    3094:	12 80 00 42 	bne  319c <_nss_compat_getpwuid_r+0x494>
    3098:	b0 10 20 00 	clr  %i0
    309c:	92 10 00 14 	mov  %l4, %o1
    30a0:	40 00 54 36 	call  18178 <fsetpos@plt>
    30a4:	d0 04 a0 08 	ld  [ %l2 + 8 ], %o0
    30a8:	82 10 20 22 	mov  0x22, %g1
    30ac:	c2 27 00 00 	st  %g1, [ %i4 ]
    30b0:	10 80 00 3b 	b  319c <_nss_compat_getpwuid_r+0x494>
    30b4:	b0 10 3f fe 	mov  -2, %i0
    30b8:	80 a0 60 40 	cmp  %g1, 0x40
    30bc:	32 bf ff af 	bne,a   2f78 <_nss_compat_getpwuid_r+0x270>
    30c0:	c2 4c 00 00 	ldsb  [ %l0 ], %g1
    30c4:	c2 4c 20 02 	ldsb  [ %l0 + 2 ], %g1
    30c8:	80 a0 60 00 	cmp  %g1, 0
    30cc:	22 bf ff ab 	be,a   2f78 <_nss_compat_getpwuid_r+0x270>
    30d0:	c2 4c 00 00 	ldsb  [ %l0 ], %g1
    30d4:	b0 10 00 0e 	mov  %sp, %i0
    30d8:	40 00 54 43 	call  181e4 <strlen@plt>
    30dc:	90 10 00 10 	mov  %l0, %o0
    30e0:	82 02 20 06 	add  %o0, 6, %g1
    30e4:	82 08 7f f8 	and  %g1, -8, %g1
    30e8:	9c 23 80 01 	sub  %sp, %g1, %sp
    30ec:	a6 03 a0 60 	add  %sp, 0x60, %l3
    30f0:	92 04 20 02 	add  %l0, 2, %o1
    30f4:	94 02 3f ff 	add  %o0, -1, %o2
    30f8:	40 00 54 56 	call  18250 <memcpy@plt>
    30fc:	90 10 00 13 	mov  %l3, %o0
    3100:	90 10 00 15 	mov  %l5, %o0
    3104:	92 10 00 19 	mov  %i1, %o1
    3108:	94 10 00 1a 	mov  %i2, %o2
    310c:	96 10 00 1b 	mov  %i3, %o3
    3110:	7f ff fe c3 	call  2c1c <getpwuid_plususer>
    3114:	98 10 00 1c 	mov  %i4, %o4
    3118:	80 a2 20 01 	cmp  %o0, 1
    311c:	02 80 00 13 	be  3168 <_nss_compat_getpwuid_r+0x460>
    3120:	90 10 00 13 	mov  %l3, %o0
    3124:	10 bf ff 4e 	b  2e5c <_nss_compat_getpwuid_r+0x154>
    3128:	9c 10 00 18 	mov  %i0, %sp
    312c:	80 a0 60 00 	cmp  %g1, 0
    3130:	22 bf ff 99 	be,a   2f94 <_nss_compat_getpwuid_r+0x28c>
    3134:	c2 4c 00 00 	ldsb  [ %l0 ], %g1
    3138:	80 a0 60 40 	cmp  %g1, 0x40
    313c:	02 bf ff 95 	be  2f90 <_nss_compat_getpwuid_r+0x288>
    3140:	b0 10 00 0e 	mov  %sp, %i0
    3144:	40 00 54 28 	call  181e4 <strlen@plt>
    3148:	90 10 00 10 	mov  %l0, %o0
    314c:	82 02 20 07 	add  %o0, 7, %g1
    3150:	82 08 7f f8 	and  %g1, -8, %g1
    3154:	9c 23 80 01 	sub  %sp, %g1, %sp
    3158:	94 10 00 08 	mov  %o0, %o2
    315c:	a6 03 a0 60 	add  %sp, 0x60, %l3
    3160:	10 bf ff e6 	b  30f8 <_nss_compat_getpwuid_r+0x3f0>
    3164:	92 04 20 01 	add  %l0, 1, %o1
    3168:	92 10 20 00 	clr  %o1
    316c:	d4 06 40 00 	ld  [ %i1 ], %o2
    3170:	40 00 54 32 	call  18238 <innetgr@plt>
    3174:	96 10 20 00 	clr  %o3
    3178:	80 a2 20 00 	cmp  %o0, 0
    317c:	02 bf ff 38 	be  2e5c <_nss_compat_getpwuid_r+0x154>
    3180:	9c 10 00 18 	mov  %i0, %sp
    3184:	10 80 00 06 	b  319c <_nss_compat_getpwuid_r+0x494>
    3188:	b0 10 20 00 	clr  %i0
    318c:	80 a2 20 02 	cmp  %o0, 2
    3190:	02 bf ff fd 	be  3184 <_nss_compat_getpwuid_r+0x47c>
    3194:	9c 10 00 13 	mov  %l3, %sp
    3198:	b0 10 00 08 	mov  %o0, %i0
    319c:	7f ff fe 4d 	call  2ad0 <internal_endpwent>
    31a0:	90 10 00 12 	mov  %l2, %o0
    31a4:	01 00 00 00 	nop 
    31a8:	81 c7 e0 08 	ret 
    31ac:	81 e8 00 00 	restore 

000031b0 <in_blacklist>:
in_blacklist():
    31b0:	9d e3 bf 90 	save  %sp, -112, %sp
    31b4:	b2 06 60 0a 	add  %i1, 0xa, %i1
    31b8:	b2 0e 7f f8 	and  %i1, -8, %i1
    31bc:	a0 10 00 0e 	mov  %sp, %l0
    31c0:	9c 23 80 19 	sub  %sp, %i1, %sp
    31c4:	c2 06 a0 0c 	ld  [ %i2 + 0xc ], %g1
    31c8:	92 10 00 18 	mov  %i0, %o1
    31cc:	b2 03 a0 60 	add  %sp, 0x60, %i1
    31d0:	a2 10 20 7c 	mov  0x7c, %l1
    31d4:	80 a0 60 00 	cmp  %g1, 0
    31d8:	90 06 60 01 	add  %i1, 1, %o0
    31dc:	12 80 00 04 	bne  31ec <in_blacklist+0x3c>
    31e0:	b0 10 20 00 	clr  %i0
    31e4:	10 80 00 0c 	b  3214 <in_blacklist+0x64>
    31e8:	9c 10 00 10 	mov  %l0, %sp
    31ec:	40 00 54 07 	call  18208 <stpcpy@plt>
    31f0:	e2 2e 40 00 	stb  %l1, [ %i1 ]
    31f4:	e2 2a 00 00 	stb  %l1, [ %o0 ]
    31f8:	c0 2a 20 01 	clrb  [ %o0 + 1 ]
    31fc:	d0 06 a0 0c 	ld  [ %i2 + 0xc ], %o0
    3200:	40 00 53 f6 	call  181d8 <strstr@plt>
    3204:	92 10 00 19 	mov  %i1, %o1
    3208:	80 a0 00 08 	cmp  %g0, %o0
    320c:	b0 40 20 00 	addx  %g0, 0, %i0
    3210:	9c 10 00 10 	mov  %l0, %sp
    3214:	81 c7 e0 08 	ret 
    3218:	81 e8 00 00 	restore 

0000321c <getpwnam_plususer>:
getpwnam_plususer():
    321c:	9d e3 bf 70 	save  %sp, -144, %sp
    3220:	03 00 00 00 	sethi  %hi(0), %g1
    3224:	2f 00 00 53 	sethi  %hi(0x14c00), %l7
    3228:	7f ff fc 5e 	call  23a0 <_nss_compat_getgrent_r+0x36c>
    322c:	ae 05 e1 d8 	add  %l7, 0x1d8, %l7	! 14dd8 <__FRAME_END__+0xeab0>
    3230:	82 10 60 60 	or  %g1, 0x60, %g1
    3234:	e6 05 c0 01 	ld  [ %l7 + %g1 ], %l3
    3238:	a2 07 bf d0 	add  %fp, -48, %l1
    323c:	c4 04 c0 00 	ld  [ %l3 ], %g2
    3240:	a4 10 00 18 	mov  %i0, %l2
    3244:	98 10 20 00 	clr  %o4
    3248:	9a 10 20 00 	clr  %o5
    324c:	94 10 20 00 	clr  %o2
    3250:	96 10 20 00 	clr  %o3
    3254:	90 10 00 11 	mov  %l1, %o0
    3258:	80 a0 a0 00 	cmp  %g2, 0
    325c:	92 10 00 19 	mov  %i1, %o1
    3260:	02 80 00 2e 	be  3318 <getpwnam_plususer+0xfc>
    3264:	b0 10 3f ff 	mov  -1, %i0
    3268:	d8 3f bf e0 	std  %o4, [ %fp + -32 ]
    326c:	d8 3f bf d0 	std  %o4, [ %fp + -48 ]
    3270:	d8 3f bf d8 	std  %o4, [ %fp + -40 ]
    3274:	7f ff fc ea 	call  261c <copy_pwd_changes>
    3278:	c0 27 bf e8 	clr  [ %fp + -24 ]
    327c:	7f ff fc c5 	call  2590 <pwd_need_buflen>
    3280:	90 10 00 11 	mov  %l1, %o0
    3284:	82 27 00 08 	sub  %i4, %o0, %g1
    3288:	a0 10 00 08 	mov  %o0, %l0
    328c:	94 10 00 1b 	mov  %i3, %o2
    3290:	98 10 00 1d 	mov  %i5, %o4
    3294:	96 10 00 01 	mov  %g1, %o3
    3298:	90 10 00 12 	mov  %l2, %o0
    329c:	92 10 00 19 	mov  %i1, %o1
    32a0:	b6 00 40 1b 	add  %g1, %i3, %i3
    32a4:	80 a4 00 1c 	cmp  %l0, %i4
    32a8:	18 80 00 1a 	bgu  3310 <getpwnam_plususer+0xf4>
    32ac:	b0 10 3f fe 	mov  -2, %i0
    32b0:	c2 04 c0 00 	ld  [ %l3 ], %g1
    32b4:	9f c0 40 00 	call  %g1
    32b8:	01 00 00 00 	nop 
    32bc:	80 a2 20 01 	cmp  %o0, 1
    32c0:	12 80 00 16 	bne  3318 <getpwnam_plususer+0xfc>
    32c4:	b0 10 00 08 	mov  %o0, %i0
    32c8:	40 00 53 c7 	call  181e4 <strlen@plt>
    32cc:	d0 06 40 00 	ld  [ %i1 ], %o0
    32d0:	92 10 00 08 	mov  %o0, %o1
    32d4:	94 10 00 1a 	mov  %i2, %o2
    32d8:	7f ff ff b6 	call  31b0 <in_blacklist>
    32dc:	d0 06 40 00 	ld  [ %i1 ], %o0
    32e0:	80 a2 20 00 	cmp  %o0, 0
    32e4:	94 10 00 1b 	mov  %i3, %o2
    32e8:	96 10 00 10 	mov  %l0, %o3
    32ec:	92 10 00 11 	mov  %l1, %o1
    32f0:	90 10 00 19 	mov  %i1, %o0
    32f4:	12 80 00 09 	bne  3318 <getpwnam_plususer+0xfc>
    32f8:	b0 10 20 00 	clr  %i0
    32fc:	7f ff fc c8 	call  261c <copy_pwd_changes>
    3300:	b0 10 20 01 	mov  1, %i0
    3304:	7f ff fc 6a 	call  24ac <give_pwd_free>
    3308:	90 10 00 11 	mov  %l1, %o0
    330c:	30 80 00 03 	b,a   3318 <getpwnam_plususer+0xfc>
    3310:	82 10 20 22 	mov  0x22, %g1
    3314:	c2 27 40 00 	st  %g1, [ %i5 ]
    3318:	81 c7 e0 08 	ret 
    331c:	81 e8 00 00 	restore 

00003320 <_nss_compat_getpwnam_r>:
_nss_compat_getpwnam_r():
    3320:	9d e3 bf 20 	save  %sp, -224, %sp
    3324:	03 00 00 00 	sethi  %hi(0), %g1
    3328:	2f 00 00 53 	sethi  %hi(0x14c00), %l7
    332c:	7f ff fc 1d 	call  23a0 <_nss_compat_getgrent_r+0x36c>
    3330:	ae 05 e0 d4 	add  %l7, 0xd4, %l7	! 14cd4 <__FRAME_END__+0xe9ac>
    3334:	82 10 60 98 	or  %g1, 0x98, %g1
    3338:	a4 07 bf 90 	add  %fp, -112, %l2
    333c:	d2 05 c0 01 	ld  [ %l7 + %g1 ], %o1
    3340:	90 10 00 12 	mov  %l2, %o0
    3344:	40 00 53 c3 	call  18250 <memcpy@plt>
    3348:	94 10 20 60 	mov  0x60, %o2
    334c:	c2 4e 00 00 	ldsb  [ %i0 ], %g1
    3350:	84 18 60 2d 	xor  %g1, 0x2d, %g2
    3354:	80 a0 00 02 	cmp  %g0, %g2
    3358:	86 60 3f ff 	subx  %g0, -1, %g3
    335c:	82 18 60 2b 	xor  %g1, 0x2b, %g1
    3360:	80 a0 00 01 	cmp  %g0, %g1
    3364:	84 60 3f ff 	subx  %g0, -1, %g2
    3368:	a6 10 00 18 	mov  %i0, %l3
    336c:	80 90 c0 02 	orcc  %g3, %g2, %g0
    3370:	12 80 00 ee 	bne  3728 <_nss_compat_getpwnam_r+0x408>
    3374:	90 10 20 00 	clr  %o0
    3378:	03 00 00 00 	sethi  %hi(0), %g1
    337c:	82 10 61 1c 	or  %g1, 0x11c, %g1	! 11c <GLIBC_PRIVATE+0x11c>
    3380:	c4 05 c0 01 	ld  [ %l7 + %g1 ], %g2
    3384:	80 a0 a0 00 	cmp  %g2, 0
    3388:	02 80 00 05 	be  339c <_nss_compat_getpwnam_r+0x7c>
    338c:	03 00 00 00 	sethi  %hi(0), %g1
    3390:	82 10 60 70 	or  %g1, 0x70, %g1	! 70 <GLIBC_PRIVATE+0x70>
    3394:	9f c0 80 00 	call  %g2
    3398:	d0 05 c0 01 	ld  [ %l7 + %g1 ], %o0
    339c:	03 00 00 00 	sethi  %hi(0), %g1
    33a0:	82 10 60 58 	or  %g1, 0x58, %g1	! 58 <GLIBC_PRIVATE+0x58>
    33a4:	c4 05 c0 01 	ld  [ %l7 + %g1 ], %g2
    33a8:	c6 00 80 00 	ld  [ %g2 ], %g3
    33ac:	80 a0 e0 00 	cmp  %g3, 0
    33b0:	02 80 00 69 	be  3554 <_nss_compat_getpwnam_r+0x234>
    33b4:	01 00 00 00 	nop 
    33b8:	03 00 00 00 	sethi  %hi(0), %g1
    33bc:	82 10 61 24 	or  %g1, 0x124, %g1	! 124 <GLIBC_PRIVATE+0x124>
    33c0:	c4 05 c0 01 	ld  [ %l7 + %g1 ], %g2
    33c4:	80 a0 a0 00 	cmp  %g2, 0
    33c8:	02 80 00 05 	be  33dc <_nss_compat_getpwnam_r+0xbc>
    33cc:	03 00 00 00 	sethi  %hi(0), %g1
    33d0:	82 10 60 70 	or  %g1, 0x70, %g1	! 70 <GLIBC_PRIVATE+0x70>
    33d4:	9f c0 80 00 	call  %g2
    33d8:	d0 05 c0 01 	ld  [ %l7 + %g1 ], %o0
    33dc:	90 10 00 12 	mov  %l2, %o0
    33e0:	92 10 20 00 	clr  %o1
    33e4:	7f ff fd 28 	call  2884 <internal_setpwent>
    33e8:	94 10 20 00 	clr  %o2
    33ec:	b0 10 00 08 	mov  %o0, %i0
    33f0:	80 a2 20 01 	cmp  %o0, 1
    33f4:	a8 07 bf 80 	add  %fp, -128, %l4
    33f8:	02 80 00 14 	be  3448 <_nss_compat_getpwnam_r+0x128>
    33fc:	a2 06 80 1b 	add  %i2, %i3, %l1
    3400:	7f ff fd b4 	call  2ad0 <internal_endpwent>
    3404:	90 10 00 12 	mov  %l2, %o0
    3408:	10 80 00 c8 	b  3728 <_nss_compat_getpwnam_r+0x408>
    340c:	90 10 00 18 	mov  %i0, %o0
    3410:	22 80 00 86 	be,a   3628 <_nss_compat_getpwnam_r+0x308>
    3414:	c2 4c 20 01 	ldsb  [ %l0 + 1 ], %g1
    3418:	c2 4c 00 00 	ldsb  [ %l0 ], %g1
    341c:	80 a0 60 2b 	cmp  %g1, 0x2b
    3420:	22 80 00 93 	be,a   366c <_nss_compat_getpwnam_r+0x34c>
    3424:	c2 4c 20 01 	ldsb  [ %l0 + 1 ], %g1
    3428:	c2 4c 00 00 	ldsb  [ %l0 ], %g1
    342c:	80 a0 60 2d 	cmp  %g1, 0x2d
    3430:	22 80 00 a9 	be,a   36d4 <_nss_compat_getpwnam_r+0x3b4>
    3434:	c2 4c 20 01 	ldsb  [ %l0 + 1 ], %g1
    3438:	c2 4c 00 00 	ldsb  [ %l0 ], %g1
    343c:	80 a0 60 2b 	cmp  %g1, 0x2b
    3440:	22 80 00 49 	be,a   3564 <_nss_compat_getpwnam_r+0x244>
    3444:	c2 4c 20 01 	ldsb  [ %l0 + 1 ], %g1
    3448:	80 a6 e0 02 	cmp  %i3, 2
    344c:	08 80 00 72 	bleu  3614 <_nss_compat_getpwnam_r+0x2f4>
    3450:	92 10 00 14 	mov  %l4, %o1
    3454:	40 00 53 9a 	call  182bc <fgetpos@plt>
    3458:	d0 04 a0 08 	ld  [ %l2 + 8 ], %o0
    345c:	82 10 3f ff 	mov  -1, %g1
    3460:	c2 2c 7f ff 	stb  %g1, [ %l1 + -1 ]
    3464:	90 10 00 1a 	mov  %i2, %o0
    3468:	92 10 00 1b 	mov  %i3, %o1
    346c:	40 00 53 55 	call  181c0 <fgets_unlocked@plt>
    3470:	d4 04 a0 08 	ld  [ %l2 + 8 ], %o2
    3474:	a0 92 20 00 	orcc  %o0, 0, %l0
    3478:	22 80 00 60 	be,a   35f8 <_nss_compat_getpwnam_r+0x2d8>
    347c:	c2 04 a0 08 	ld  [ %l2 + 8 ], %g1
    3480:	c2 4c 7f ff 	ldsb  [ %l1 + -1 ], %g1
    3484:	80 a0 7f ff 	cmp  %g1, -1
    3488:	12 80 00 61 	bne  360c <_nss_compat_getpwnam_r+0x2ec>
    348c:	92 10 00 14 	mov  %l4, %o1
    3490:	40 00 53 91 	call  182d4 <__ctype_b_loc@plt>
    3494:	c0 2c 7f ff 	clrb  [ %l1 + -1 ]
    3498:	d0 02 00 00 	ld  [ %o0 ], %o0
    349c:	c6 4c 00 00 	ldsb  [ %l0 ], %g3
    34a0:	82 00 c0 03 	add  %g3, %g3, %g1
    34a4:	c4 12 00 01 	lduh  [ %o0 + %g1 ], %g2
    34a8:	80 88 a0 20 	btst  0x20, %g2
    34ac:	32 bf ff fc 	bne,a   349c <_nss_compat_getpwnam_r+0x17c>
    34b0:	a0 04 20 01 	inc  %l0
    34b4:	80 a0 00 03 	cmp  %g0, %g3
    34b8:	82 60 3f ff 	subx  %g0, -1, %g1
    34bc:	84 18 e0 23 	xor  %g3, 0x23, %g2
    34c0:	80 a0 00 02 	cmp  %g0, %g2
    34c4:	86 60 3f ff 	subx  %g0, -1, %g3
    34c8:	80 90 40 03 	orcc  %g1, %g3, %g0
    34cc:	12 bf ff e0 	bne  344c <_nss_compat_getpwnam_r+0x12c>
    34d0:	80 a6 e0 02 	cmp  %i3, 2
    34d4:	90 10 00 10 	mov  %l0, %o0
    34d8:	92 10 00 19 	mov  %i1, %o1
    34dc:	94 10 00 1a 	mov  %i2, %o2
    34e0:	96 10 00 1b 	mov  %i3, %o3
    34e4:	40 00 53 70 	call  182a4 <_nss_files_parse_pwent@plt>
    34e8:	98 10 00 1c 	mov  %i4, %o4
    34ec:	80 a2 20 00 	cmp  %o0, 0
    34f0:	02 bf ff d7 	be  344c <_nss_compat_getpwnam_r+0x12c>
    34f4:	80 a6 e0 02 	cmp  %i3, 2
    34f8:	80 a2 3f ff 	cmp  %o0, -1
    34fc:	02 80 00 44 	be  360c <_nss_compat_getpwnam_r+0x2ec>
    3500:	92 10 00 14 	mov  %l4, %o1
    3504:	e0 06 40 00 	ld  [ %i1 ], %l0
    3508:	c8 4c 00 00 	ldsb  [ %l0 ], %g4
    350c:	82 19 20 2b 	xor  %g4, 0x2b, %g1
    3510:	80 a0 00 01 	cmp  %g0, %g1
    3514:	86 40 20 00 	addx  %g0, 0, %g3
    3518:	82 19 20 2d 	xor  %g4, 0x2d, %g1
    351c:	80 a0 00 01 	cmp  %g0, %g1
    3520:	84 40 20 00 	addx  %g0, 0, %g2
    3524:	80 88 c0 02 	btst  %g3, %g2
    3528:	02 bf ff ba 	be  3410 <_nss_compat_getpwnam_r+0xf0>
    352c:	80 a1 20 2d 	cmp  %g4, 0x2d
    3530:	90 10 00 10 	mov  %l0, %o0
    3534:	40 00 53 0b 	call  18160 <strcmp@plt>
    3538:	92 10 00 13 	mov  %l3, %o1
    353c:	80 a2 20 00 	cmp  %o0, 0
    3540:	12 bf ff c3 	bne  344c <_nss_compat_getpwnam_r+0x12c>
    3544:	80 a6 e0 02 	cmp  %i3, 2
    3548:	90 10 20 01 	mov  1, %o0
    354c:	10 bf ff ad 	b  3400 <_nss_compat_getpwnam_r+0xe0>
    3550:	b0 10 00 08 	mov  %o0, %i0
    3554:	7f ff fb 95 	call  23a8 <init_nss_interface>
    3558:	01 00 00 00 	nop 
    355c:	10 bf ff 98 	b  33bc <_nss_compat_getpwnam_r+0x9c>
    3560:	03 00 00 00 	sethi  %hi(0), %g1
    3564:	80 a0 60 00 	cmp  %g1, 0
    3568:	22 80 00 0b 	be,a   3594 <_nss_compat_getpwnam_r+0x274>
    356c:	c2 4c 00 00 	ldsb  [ %l0 ], %g1
    3570:	80 a0 60 40 	cmp  %g1, 0x40
    3574:	02 80 00 07 	be  3590 <_nss_compat_getpwnam_r+0x270>
    3578:	90 10 00 13 	mov  %l3, %o0
    357c:	40 00 52 f9 	call  18160 <strcmp@plt>
    3580:	92 04 20 01 	add  %l0, 1, %o1
    3584:	80 a2 20 00 	cmp  %o0, 0
    3588:	02 80 00 60 	be  3708 <_nss_compat_getpwnam_r+0x3e8>
    358c:	90 10 00 13 	mov  %l3, %o0
    3590:	c2 4c 00 00 	ldsb  [ %l0 ], %g1
    3594:	80 a0 60 2b 	cmp  %g1, 0x2b
    3598:	12 bf ff ad 	bne  344c <_nss_compat_getpwnam_r+0x12c>
    359c:	80 a6 e0 02 	cmp  %i3, 2
    35a0:	c2 4c 20 01 	ldsb  [ %l0 + 1 ], %g1
    35a4:	80 a0 60 00 	cmp  %g1, 0
    35a8:	12 bf ff a9 	bne  344c <_nss_compat_getpwnam_r+0x12c>
    35ac:	80 a6 e0 02 	cmp  %i3, 2
    35b0:	90 10 00 13 	mov  %l3, %o0
    35b4:	92 10 00 19 	mov  %i1, %o1
    35b8:	96 10 00 1a 	mov  %i2, %o3
    35bc:	98 10 00 1b 	mov  %i3, %o4
    35c0:	9a 10 00 1c 	mov  %i4, %o5
    35c4:	7f ff ff 16 	call  321c <getpwnam_plususer>
    35c8:	94 10 00 12 	mov  %l2, %o2
    35cc:	82 10 00 08 	mov  %o0, %g1
    35d0:	80 a2 20 01 	cmp  %o0, 1
    35d4:	02 bf ff de 	be  354c <_nss_compat_getpwnam_r+0x22c>
    35d8:	90 10 20 01 	mov  1, %o0
    35dc:	90 10 00 01 	mov  %g1, %o0
    35e0:	80 a2 20 02 	cmp  %o0, 2
    35e4:	32 bf ff 87 	bne,a   3400 <_nss_compat_getpwnam_r+0xe0>
    35e8:	b0 10 00 08 	mov  %o0, %i0
    35ec:	90 10 20 00 	clr  %o0
    35f0:	10 bf ff 84 	b  3400 <_nss_compat_getpwnam_r+0xe0>
    35f4:	b0 10 00 08 	mov  %o0, %i0
    35f8:	c4 00 40 00 	ld  [ %g1 ], %g2
    35fc:	80 88 a0 10 	btst  0x10, %g2
    3600:	12 bf ff d3 	bne  354c <_nss_compat_getpwnam_r+0x22c>
    3604:	90 10 20 00 	clr  %o0
    3608:	92 10 00 14 	mov  %l4, %o1
    360c:	40 00 52 db 	call  18178 <fsetpos@plt>
    3610:	d0 04 a0 08 	ld  [ %l2 + 8 ], %o0
    3614:	82 10 20 22 	mov  0x22, %g1
    3618:	90 10 3f fe 	mov  -2, %o0
    361c:	c2 27 00 00 	st  %g1, [ %i4 ]
    3620:	10 bf ff 78 	b  3400 <_nss_compat_getpwnam_r+0xe0>
    3624:	b0 10 00 08 	mov  %o0, %i0
    3628:	80 a0 60 40 	cmp  %g1, 0x40
    362c:	32 bf ff 7c 	bne,a   341c <_nss_compat_getpwnam_r+0xfc>
    3630:	c2 4c 00 00 	ldsb  [ %l0 ], %g1
    3634:	c2 4c 20 02 	ldsb  [ %l0 + 2 ], %g1
    3638:	80 a0 60 00 	cmp  %g1, 0
    363c:	22 bf ff 78 	be,a   341c <_nss_compat_getpwnam_r+0xfc>
    3640:	c2 4c 00 00 	ldsb  [ %l0 ], %g1
    3644:	90 04 20 02 	add  %l0, 2, %o0
    3648:	92 10 20 00 	clr  %o1
    364c:	94 10 00 13 	mov  %l3, %o2
    3650:	40 00 52 fa 	call  18238 <innetgr@plt>
    3654:	96 10 20 00 	clr  %o3
    3658:	80 a2 20 00 	cmp  %o0, 0
    365c:	02 bf ff 7c 	be  344c <_nss_compat_getpwnam_r+0x12c>
    3660:	80 a6 e0 02 	cmp  %i3, 2
    3664:	10 bf ff e3 	b  35f0 <_nss_compat_getpwnam_r+0x2d0>
    3668:	90 10 20 00 	clr  %o0
    366c:	80 a0 60 40 	cmp  %g1, 0x40
    3670:	32 bf ff 6f 	bne,a   342c <_nss_compat_getpwnam_r+0x10c>
    3674:	c2 4c 00 00 	ldsb  [ %l0 ], %g1
    3678:	c2 4c 20 02 	ldsb  [ %l0 + 2 ], %g1
    367c:	80 a0 60 00 	cmp  %g1, 0
    3680:	22 bf ff 6b 	be,a   342c <_nss_compat_getpwnam_r+0x10c>
    3684:	c2 4c 00 00 	ldsb  [ %l0 ], %g1
    3688:	90 04 20 02 	add  %l0, 2, %o0
    368c:	92 10 20 00 	clr  %o1
    3690:	94 10 00 13 	mov  %l3, %o2
    3694:	40 00 52 e9 	call  18238 <innetgr@plt>
    3698:	96 10 20 00 	clr  %o3
    369c:	80 a2 20 00 	cmp  %o0, 0
    36a0:	02 bf ff 6b 	be  344c <_nss_compat_getpwnam_r+0x12c>
    36a4:	80 a6 e0 02 	cmp  %i3, 2
    36a8:	90 10 00 13 	mov  %l3, %o0
    36ac:	92 10 00 19 	mov  %i1, %o1
    36b0:	94 10 00 12 	mov  %l2, %o2
    36b4:	96 10 00 1a 	mov  %i2, %o3
    36b8:	98 10 00 1b 	mov  %i3, %o4
    36bc:	7f ff fe d8 	call  321c <getpwnam_plususer>
    36c0:	9a 10 00 1c 	mov  %i4, %o5
    36c4:	80 a2 20 02 	cmp  %o0, 2
    36c8:	02 bf ff 60 	be  3448 <_nss_compat_getpwnam_r+0x128>
    36cc:	b0 10 00 08 	mov  %o0, %i0
    36d0:	30 bf ff 4c 	b,a   3400 <_nss_compat_getpwnam_r+0xe0>
    36d4:	80 a0 60 00 	cmp  %g1, 0
    36d8:	22 bf ff 59 	be,a   343c <_nss_compat_getpwnam_r+0x11c>
    36dc:	c2 4c 00 00 	ldsb  [ %l0 ], %g1
    36e0:	80 a0 60 40 	cmp  %g1, 0x40
    36e4:	02 bf ff 55 	be  3438 <_nss_compat_getpwnam_r+0x118>
    36e8:	90 04 20 01 	add  %l0, 1, %o0
    36ec:	40 00 52 9d 	call  18160 <strcmp@plt>
    36f0:	92 10 00 13 	mov  %l3, %o1
    36f4:	80 a2 20 00 	cmp  %o0, 0
    36f8:	12 bf ff 55 	bne  344c <_nss_compat_getpwnam_r+0x12c>
    36fc:	80 a6 e0 02 	cmp  %i3, 2
    3700:	10 bf ff 40 	b  3400 <_nss_compat_getpwnam_r+0xe0>
    3704:	b0 10 00 08 	mov  %o0, %i0
    3708:	92 10 00 19 	mov  %i1, %o1
    370c:	96 10 00 1a 	mov  %i2, %o3
    3710:	98 10 00 1b 	mov  %i3, %o4
    3714:	9a 10 00 1c 	mov  %i4, %o5
    3718:	7f ff fe c1 	call  321c <getpwnam_plususer>
    371c:	94 10 00 12 	mov  %l2, %o2
    3720:	10 bf ff b1 	b  35e4 <_nss_compat_getpwnam_r+0x2c4>
    3724:	80 a2 20 02 	cmp  %o0, 2
    3728:	81 c7 e0 08 	ret 
    372c:	91 e8 00 08 	restore  %g0, %o0, %o0

00003730 <blacklist_store_name>:
blacklist_store_name():
    3730:	9d e3 bf 90 	save  %sp, -112, %sp
    3734:	40 00 52 ac 	call  181e4 <strlen@plt>
    3738:	90 10 00 18 	mov  %i0, %o0
    373c:	c2 06 60 14 	ld  [ %i1 + 0x14 ], %g1
    3740:	80 a0 60 00 	cmp  %g1, 0
    3744:	12 80 00 1b 	bne  37b0 <blacklist_store_name+0x80>
    3748:	a0 10 00 08 	mov  %o0, %l0
    374c:	90 02 00 08 	add  %o0, %o0, %o0
    3750:	80 a2 22 00 	cmp  %o0, 0x200
    3754:	26 80 00 02 	bl,a   375c <blacklist_store_name+0x2c>
    3758:	90 10 22 00 	mov  0x200, %o0
    375c:	40 00 52 93 	call  181a8 <malloc@plt>
    3760:	d0 26 60 14 	st  %o0, [ %i1 + 0x14 ]
    3764:	80 a2 20 00 	cmp  %o0, 0
    3768:	02 80 00 31 	be  382c <blacklist_store_name+0xfc>
    376c:	d0 26 60 0c 	st  %o0, [ %i1 + 0xc ]
    3770:	82 10 20 7c 	mov  0x7c, %g1
    3774:	c2 2a 00 00 	stb  %g1, [ %o0 ]
    3778:	c0 2a 20 01 	clrb  [ %o0 + 1 ]
    377c:	84 10 20 01 	mov  1, %g2
    3780:	c4 26 60 10 	st  %g2, [ %i1 + 0x10 ]
    3784:	90 02 00 02 	add  %o0, %g2, %o0
    3788:	40 00 52 a0 	call  18208 <stpcpy@plt>
    378c:	92 10 00 18 	mov  %i0, %o1
    3790:	82 10 20 7c 	mov  0x7c, %g1
    3794:	c2 2a 00 00 	stb  %g1, [ %o0 ]
    3798:	c0 2a 20 01 	clrb  [ %o0 + 1 ]
    379c:	c2 06 60 10 	ld  [ %i1 + 0x10 ], %g1
    37a0:	82 00 40 10 	add  %g1, %l0, %g1
    37a4:	82 00 60 01 	inc  %g1
    37a8:	10 80 00 21 	b  382c <blacklist_store_name+0xfc>
    37ac:	c2 26 60 10 	st  %g1, [ %i1 + 0x10 ]
    37b0:	90 10 00 18 	mov  %i0, %o0
    37b4:	92 10 00 10 	mov  %l0, %o1
    37b8:	7f ff fe 7e 	call  31b0 <in_blacklist>
    37bc:	94 10 00 19 	mov  %i1, %o2
    37c0:	80 a2 20 00 	cmp  %o0, 0
    37c4:	12 80 00 1a 	bne  382c <blacklist_store_name+0xfc>
    37c8:	01 00 00 00 	nop 
    37cc:	c4 06 60 10 	ld  [ %i1 + 0x10 ], %g2
    37d0:	82 00 80 10 	add  %g2, %l0, %g1
    37d4:	82 00 60 01 	inc  %g1
    37d8:	c6 06 60 14 	ld  [ %i1 + 0x14 ], %g3
    37dc:	80 a0 40 03 	cmp  %g1, %g3
    37e0:	26 bf ff e9 	bl,a   3784 <blacklist_store_name+0x54>
    37e4:	d0 06 60 0c 	ld  [ %i1 + 0xc ], %o0
    37e8:	92 04 00 10 	add  %l0, %l0, %o1
    37ec:	80 a2 61 00 	cmp  %o1, 0x100
    37f0:	26 80 00 02 	bl,a   37f8 <blacklist_store_name+0xc8>
    37f4:	92 10 21 00 	mov  0x100, %o1
    37f8:	92 00 c0 09 	add  %g3, %o1, %o1
    37fc:	d2 26 60 14 	st  %o1, [ %i1 + 0x14 ]
    3800:	40 00 52 8b 	call  1822c <realloc@plt>
    3804:	d0 06 60 0c 	ld  [ %i1 + 0xc ], %o0
    3808:	80 a2 20 00 	cmp  %o0, 0
    380c:	02 80 00 05 	be  3820 <blacklist_store_name+0xf0>
    3810:	01 00 00 00 	nop 
    3814:	d0 26 60 0c 	st  %o0, [ %i1 + 0xc ]
    3818:	10 bf ff db 	b  3784 <blacklist_store_name+0x54>
    381c:	c4 06 60 10 	ld  [ %i1 + 0x10 ], %g2
    3820:	40 00 52 9b 	call  1828c <free@plt>
    3824:	d0 06 60 0c 	ld  [ %i1 + 0xc ], %o0
    3828:	c0 26 60 14 	clr  [ %i1 + 0x14 ]
    382c:	81 c7 e0 08 	ret 
    3830:	81 e8 00 00 	restore 

00003834 <getpwent_next_nss_netgr>:
getpwent_next_nss_netgr():
    3834:	9d e3 bf 78 	save  %sp, -136, %sp
    3838:	23 00 00 00 	sethi  %hi(0), %l1
    383c:	2f 00 00 51 	sethi  %hi(0x14400), %l7
    3840:	7f ff fa d8 	call  23a0 <_nss_compat_getgrent_r+0x36c>
    3844:	ae 05 e3 c0 	add  %l7, 0x3c0, %l7	! 147c0 <__FRAME_END__+0xe498>
    3848:	82 14 60 60 	or  %l1, 0x60, %g1
    384c:	c4 05 c0 01 	ld  [ %l7 + %g1 ], %g2
    3850:	c6 00 80 00 	ld  [ %g2 ], %g3
    3854:	a8 10 00 18 	mov  %i0, %l4
    3858:	80 a0 e0 00 	cmp  %g3, 0
    385c:	e4 07 a0 5c 	ld  [ %fp + 0x5c ], %l2
    3860:	02 80 00 75 	be  3a34 <getpwent_next_nss_netgr+0x200>
    3864:	b0 10 3f ff 	mov  -1, %i0
    3868:	40 00 52 9e 	call  182e0 <yp_get_default_domain@plt>
    386c:	90 07 bf ec 	add  %fp, -20, %o0
    3870:	80 a2 20 00 	cmp  %o0, 0
    3874:	32 80 00 6d 	bne,a   3a28 <getpwent_next_nss_netgr+0x1f4>
    3878:	c0 2e 80 00 	clrb  [ %i2 ]
    387c:	c2 0e a0 01 	ldub  [ %i2 + 1 ], %g1
    3880:	80 a0 60 01 	cmp  %g1, 1
    3884:	02 80 00 55 	be  39d8 <getpwent_next_nss_netgr+0x1a4>
    3888:	a0 06 a0 34 	add  %i2, 0x34, %l0
    388c:	b0 14 60 60 	or  %l1, 0x60, %i0
    3890:	a6 06 a0 18 	add  %i2, 0x18, %l3
    3894:	e4 23 a0 5c 	st  %l2, [ %sp + 0x5c ]
    3898:	9a 10 00 1d 	mov  %i5, %o5
    389c:	92 07 bf e4 	add  %fp, -28, %o1
    38a0:	94 07 bf e0 	add  %fp, -32, %o2
    38a4:	96 10 00 10 	mov  %l0, %o3
    38a8:	98 10 00 1c 	mov  %i4, %o4
    38ac:	40 00 52 30 	call  1816c <__internal_getnetgrent_r@plt>
    38b0:	90 07 bf e8 	add  %fp, -24, %o0
    38b4:	80 a2 20 01 	cmp  %o0, 1
    38b8:	12 80 00 41 	bne  39bc <getpwent_next_nss_netgr+0x188>
    38bc:	f6 07 bf e4 	ld  [ %fp + -28 ], %i3
    38c0:	80 a6 e0 00 	cmp  %i3, 0
    38c4:	22 bf ff f5 	be,a   3898 <getpwent_next_nss_netgr+0x64>
    38c8:	e4 23 a0 5c 	st  %l2, [ %sp + 0x5c ]
    38cc:	c2 4e c0 00 	ldsb  [ %i3 ], %g1
    38d0:	80 a0 60 2d 	cmp  %g1, 0x2d
    38d4:	02 bf ff f0 	be  3894 <getpwent_next_nss_netgr+0x60>
    38d8:	c2 07 bf e0 	ld  [ %fp + -32 ], %g1
    38dc:	92 90 60 00 	orcc  %g1, 0, %o1
    38e0:	22 80 00 08 	be,a   3900 <getpwent_next_nss_netgr+0xcc>
    38e4:	92 10 00 14 	mov  %l4, %o1
    38e8:	40 00 52 1e 	call  18160 <strcmp@plt>
    38ec:	d0 07 bf ec 	ld  [ %fp + -20 ], %o0
    38f0:	80 a2 20 00 	cmp  %o0, 0
    38f4:	32 bf ff e9 	bne,a   3898 <getpwent_next_nss_netgr+0x64>
    38f8:	e4 23 a0 5c 	st  %l2, [ %sp + 0x5c ]
    38fc:	92 10 00 14 	mov  %l4, %o1
    3900:	80 a5 20 00 	cmp  %l4, 0
    3904:	02 80 00 07 	be  3920 <getpwent_next_nss_netgr+0xec>
    3908:	90 10 00 1b 	mov  %i3, %o0
    390c:	40 00 52 15 	call  18160 <strcmp@plt>
    3910:	01 00 00 00 	nop 
    3914:	80 a2 20 00 	cmp  %o0, 0
    3918:	32 bf ff e0 	bne,a   3898 <getpwent_next_nss_netgr+0x64>
    391c:	e4 23 a0 5c 	st  %l2, [ %sp + 0x5c ]
    3920:	7f ff fb 1c 	call  2590 <pwd_need_buflen>
    3924:	90 10 00 13 	mov  %l3, %o0
    3928:	82 27 40 08 	sub  %i5, %o0, %g1
    392c:	a2 10 00 08 	mov  %o0, %l1
    3930:	90 10 00 1b 	mov  %i3, %o0
    3934:	80 a4 40 1d 	cmp  %l1, %i5
    3938:	92 10 00 19 	mov  %i1, %o1
    393c:	94 10 00 1c 	mov  %i4, %o2
    3940:	98 10 00 12 	mov  %l2, %o4
    3944:	b6 00 40 1c 	add  %g1, %i4, %i3
    3948:	ba 10 00 01 	mov  %g1, %i5
    394c:	18 80 00 33 	bgu  3a18 <getpwent_next_nss_netgr+0x1e4>
    3950:	96 10 00 01 	mov  %g1, %o3
    3954:	c2 05 c0 18 	ld  [ %l7 + %i0 ], %g1
    3958:	c4 00 40 00 	ld  [ %g1 ], %g2
    395c:	9f c0 80 00 	call  %g2
    3960:	01 00 00 00 	nop 
    3964:	80 a2 20 01 	cmp  %o0, 1
    3968:	32 bf ff cc 	bne,a   3898 <getpwent_next_nss_netgr+0x64>
    396c:	e4 23 a0 5c 	st  %l2, [ %sp + 0x5c ]
    3970:	40 00 52 1d 	call  181e4 <strlen@plt>
    3974:	d0 06 40 00 	ld  [ %i1 ], %o0
    3978:	92 10 00 08 	mov  %o0, %o1
    397c:	d0 06 40 00 	ld  [ %i1 ], %o0
    3980:	7f ff fe 0c 	call  31b0 <in_blacklist>
    3984:	94 10 00 1a 	mov  %i2, %o2
    3988:	80 a2 20 00 	cmp  %o0, 0
    398c:	32 bf ff c3 	bne,a   3898 <getpwent_next_nss_netgr+0x64>
    3990:	e4 23 a0 5c 	st  %l2, [ %sp + 0x5c ]
    3994:	92 10 00 1a 	mov  %i2, %o1
    3998:	7f ff ff 66 	call  3730 <blacklist_store_name>
    399c:	d0 06 40 00 	ld  [ %i1 ], %o0
    39a0:	90 10 00 19 	mov  %i1, %o0
    39a4:	92 10 00 13 	mov  %l3, %o1
    39a8:	94 10 00 1b 	mov  %i3, %o2
    39ac:	7f ff fb 1c 	call  261c <copy_pwd_changes>
    39b0:	96 10 00 11 	mov  %l1, %o3
    39b4:	10 80 00 20 	b  3a34 <getpwent_next_nss_netgr+0x200>
    39b8:	b0 10 20 01 	mov  1, %i0
    39bc:	40 00 51 f2 	call  18184 <__internal_endnetgrent@plt>
    39c0:	90 10 00 10 	mov  %l0, %o0
    39c4:	c0 2e 80 00 	clrb  [ %i2 ]
    39c8:	7f ff fa b9 	call  24ac <give_pwd_free>
    39cc:	90 10 00 13 	mov  %l3, %o0
    39d0:	10 80 00 19 	b  3a34 <getpwent_next_nss_netgr+0x200>
    39d4:	b0 10 20 02 	mov  2, %i0
    39d8:	c0 26 a0 34 	clr  [ %i2 + 0x34 ]
    39dc:	c0 26 a0 38 	clr  [ %i2 + 0x38 ]
    39e0:	c0 26 a0 3c 	clr  [ %i2 + 0x3c ]
    39e4:	c0 26 a0 40 	clr  [ %i2 + 0x40 ]
    39e8:	c0 26 a0 44 	clr  [ %i2 + 0x44 ]
    39ec:	c0 26 a0 48 	clr  [ %i2 + 0x48 ]
    39f0:	c0 26 a0 4c 	clr  [ %i2 + 0x4c ]
    39f4:	c0 26 a0 50 	clr  [ %i2 + 0x50 ]
    39f8:	c0 26 a0 54 	clr  [ %i2 + 0x54 ]
    39fc:	c0 26 a0 58 	clr  [ %i2 + 0x58 ]
    3a00:	c0 26 a0 5c 	clr  [ %i2 + 0x5c ]
    3a04:	90 10 00 1b 	mov  %i3, %o0
    3a08:	40 00 51 fa 	call  181f0 <__internal_setnetgrent@plt>
    3a0c:	92 10 00 10 	mov  %l0, %o1
    3a10:	10 bf ff 9f 	b  388c <getpwent_next_nss_netgr+0x58>
    3a14:	c0 2e a0 01 	clrb  [ %i2 + 1 ]
    3a18:	82 10 20 22 	mov  0x22, %g1
    3a1c:	c2 24 80 00 	st  %g1, [ %l2 ]
    3a20:	10 80 00 05 	b  3a34 <getpwent_next_nss_netgr+0x200>
    3a24:	b0 10 3f fe 	mov  -2, %i0
    3a28:	c0 2e a0 01 	clrb  [ %i2 + 1 ]
    3a2c:	7f ff fa a0 	call  24ac <give_pwd_free>
    3a30:	90 06 a0 18 	add  %i2, 0x18, %o0
    3a34:	01 00 00 00 	nop 
    3a38:	81 c7 e0 08 	ret 
    3a3c:	81 e8 00 00 	restore 

00003a40 <getpwent_next_nss>:
getpwent_next_nss():
    3a40:	9d e3 bf 90 	save  %sp, -112, %sp
    3a44:	03 00 00 00 	sethi  %hi(0), %g1
    3a48:	2f 00 00 51 	sethi  %hi(0x14400), %l7
    3a4c:	7f ff fa 55 	call  23a0 <_nss_compat_getgrent_r+0x36c>
    3a50:	ae 05 e1 b4 	add  %l7, 0x1b4, %l7	! 145b4 <__FRAME_END__+0xe28c>
    3a54:	82 10 60 68 	or  %g1, 0x68, %g1
    3a58:	e2 05 c0 01 	ld  [ %l7 + %g1 ], %l1
    3a5c:	c4 04 40 00 	ld  [ %l1 ], %g2
    3a60:	80 a0 a0 00 	cmp  %g2, 0
    3a64:	02 80 00 2e 	be  3b1c <getpwent_next_nss+0xdc>
    3a68:	82 10 3f ff 	mov  -1, %g1
    3a6c:	c2 06 60 04 	ld  [ %i1 + 4 ], %g1
    3a70:	80 a0 60 01 	cmp  %g1, 1
    3a74:	12 80 00 2a 	bne  3b1c <getpwent_next_nss+0xdc>
    3a78:	a4 06 60 18 	add  %i1, 0x18, %l2
    3a7c:	7f ff fa c5 	call  2590 <pwd_need_buflen>
    3a80:	90 10 00 12 	mov  %l2, %o0
    3a84:	80 a2 00 1b 	cmp  %o0, %i3
    3a88:	18 80 00 22 	bgu  3b10 <getpwent_next_nss+0xd0>
    3a8c:	a0 10 00 08 	mov  %o0, %l0
    3a90:	b6 26 c0 08 	sub  %i3, %o0, %i3
    3a94:	c2 0e 60 01 	ldub  [ %i1 + 1 ], %g1
    3a98:	80 a0 60 00 	cmp  %g1, 0
    3a9c:	12 80 00 1b 	bne  3b08 <getpwent_next_nss+0xc8>
    3aa0:	a6 06 c0 1a 	add  %i3, %i2, %l3
    3aa4:	c2 04 40 00 	ld  [ %l1 ], %g1
    3aa8:	92 10 00 1a 	mov  %i2, %o1
    3aac:	94 10 00 1b 	mov  %i3, %o2
    3ab0:	96 10 00 1c 	mov  %i4, %o3
    3ab4:	9f c0 40 00 	call  %g1
    3ab8:	90 10 00 18 	mov  %i0, %o0
    3abc:	80 a2 20 01 	cmp  %o0, 1
    3ac0:	12 80 00 17 	bne  3b1c <getpwent_next_nss+0xdc>
    3ac4:	82 10 00 08 	mov  %o0, %g1
    3ac8:	40 00 51 c7 	call  181e4 <strlen@plt>
    3acc:	d0 06 00 00 	ld  [ %i0 ], %o0
    3ad0:	92 10 00 08 	mov  %o0, %o1
    3ad4:	d0 06 00 00 	ld  [ %i0 ], %o0
    3ad8:	7f ff fd b6 	call  31b0 <in_blacklist>
    3adc:	94 10 00 19 	mov  %i1, %o2
    3ae0:	80 a2 20 00 	cmp  %o0, 0
    3ae4:	32 bf ff f1 	bne,a   3aa8 <getpwent_next_nss+0x68>
    3ae8:	c2 04 40 00 	ld  [ %l1 ], %g1
    3aec:	90 10 00 18 	mov  %i0, %o0
    3af0:	92 10 00 12 	mov  %l2, %o1
    3af4:	94 10 00 13 	mov  %l3, %o2
    3af8:	7f ff fa c9 	call  261c <copy_pwd_changes>
    3afc:	96 10 00 10 	mov  %l0, %o3
    3b00:	10 80 00 07 	b  3b1c <getpwent_next_nss+0xdc>
    3b04:	82 10 20 01 	mov  1, %g1
    3b08:	10 bf ff e7 	b  3aa4 <getpwent_next_nss+0x64>
    3b0c:	c0 2e 60 01 	clrb  [ %i1 + 1 ]
    3b10:	82 10 20 22 	mov  0x22, %g1
    3b14:	c2 27 00 00 	st  %g1, [ %i4 ]
    3b18:	82 10 3f fe 	mov  -2, %g1
    3b1c:	81 c7 e0 08 	ret 
    3b20:	91 e8 00 01 	restore  %g0, %g1, %o0

00003b24 <getpwent_next_file>:
getpwent_next_file():
    3b24:	9d e3 bb 38 	save  %sp, -1224, %sp
    3b28:	a8 10 00 18 	mov  %i0, %l4
    3b2c:	a6 07 bf e0 	add  %fp, -32, %l3
    3b30:	a4 06 80 1b 	add  %i2, %i3, %l2
    3b34:	ac 07 bb b0 	add  %fp, -1104, %l6
    3b38:	ba 07 bb e0 	add  %fp, -1056, %i5
    3b3c:	80 a6 e0 02 	cmp  %i3, 2
    3b40:	08 80 00 72 	bleu  3d08 <getpwent_next_file+0x1e4>
    3b44:	82 10 20 22 	mov  0x22, %g1
    3b48:	92 10 00 13 	mov  %l3, %o1
    3b4c:	40 00 51 dc 	call  182bc <fgetpos@plt>
    3b50:	d0 06 60 08 	ld  [ %i1 + 8 ], %o0
    3b54:	82 10 3f ff 	mov  -1, %g1
    3b58:	c2 2c bf ff 	stb  %g1, [ %l2 + -1 ]
    3b5c:	90 10 00 1a 	mov  %i2, %o0
    3b60:	92 10 00 1b 	mov  %i3, %o1
    3b64:	40 00 51 97 	call  181c0 <fgets_unlocked@plt>
    3b68:	d4 06 60 08 	ld  [ %i1 + 8 ], %o2
    3b6c:	a0 92 20 00 	orcc  %o0, 0, %l0
    3b70:	22 80 00 dc 	be,a   3ee0 <getpwent_next_file+0x3bc>
    3b74:	c2 06 60 08 	ld  [ %i1 + 8 ], %g1
    3b78:	c2 4c bf ff 	ldsb  [ %l2 + -1 ], %g1
    3b7c:	80 a0 7f ff 	cmp  %g1, -1
    3b80:	32 80 00 dd 	bne,a   3ef4 <getpwent_next_file+0x3d0>
    3b84:	d0 06 60 08 	ld  [ %i1 + 8 ], %o0
    3b88:	40 00 51 d3 	call  182d4 <__ctype_b_loc@plt>
    3b8c:	c0 2c bf ff 	clrb  [ %l2 + -1 ]
    3b90:	d0 02 00 00 	ld  [ %o0 ], %o0
    3b94:	c6 4c 00 00 	ldsb  [ %l0 ], %g3
    3b98:	82 00 c0 03 	add  %g3, %g3, %g1
    3b9c:	c4 12 00 01 	lduh  [ %o0 + %g1 ], %g2
    3ba0:	80 88 a0 20 	btst  0x20, %g2
    3ba4:	32 bf ff fc 	bne,a   3b94 <getpwent_next_file+0x70>
    3ba8:	a0 04 20 01 	inc  %l0
    3bac:	80 a0 00 03 	cmp  %g0, %g3
    3bb0:	82 60 3f ff 	subx  %g0, -1, %g1
    3bb4:	84 18 e0 23 	xor  %g3, 0x23, %g2
    3bb8:	80 a0 00 02 	cmp  %g0, %g2
    3bbc:	86 60 3f ff 	subx  %g0, -1, %g3
    3bc0:	80 90 40 03 	orcc  %g1, %g3, %g0
    3bc4:	12 bf ff df 	bne  3b40 <getpwent_next_file+0x1c>
    3bc8:	80 a6 e0 02 	cmp  %i3, 2
    3bcc:	90 10 00 10 	mov  %l0, %o0
    3bd0:	92 10 00 14 	mov  %l4, %o1
    3bd4:	94 10 00 1a 	mov  %i2, %o2
    3bd8:	96 10 00 1b 	mov  %i3, %o3
    3bdc:	40 00 51 b2 	call  182a4 <_nss_files_parse_pwent@plt>
    3be0:	98 10 00 1c 	mov  %i4, %o4
    3be4:	80 a2 20 00 	cmp  %o0, 0
    3be8:	02 bf ff d6 	be  3b40 <getpwent_next_file+0x1c>
    3bec:	80 a6 e0 02 	cmp  %i3, 2
    3bf0:	80 a2 3f ff 	cmp  %o0, -1
    3bf4:	22 80 00 c0 	be,a   3ef4 <getpwent_next_file+0x3d0>
    3bf8:	d0 06 60 08 	ld  [ %i1 + 8 ], %o0
    3bfc:	e2 05 00 00 	ld  [ %l4 ], %l1
    3c00:	c8 4c 40 00 	ldsb  [ %l1 ], %g4
    3c04:	82 19 20 2b 	xor  %g4, 0x2b, %g1
    3c08:	80 a0 00 01 	cmp  %g0, %g1
    3c0c:	86 40 20 00 	addx  %g0, 0, %g3
    3c10:	82 19 20 2d 	xor  %g4, 0x2d, %g1
    3c14:	80 a0 00 01 	cmp  %g0, %g1
    3c18:	84 40 20 00 	addx  %g0, 0, %g2
    3c1c:	80 88 c0 02 	btst  %g3, %g2
    3c20:	12 80 00 bf 	bne  3f1c <getpwent_next_file+0x3f8>
    3c24:	80 a1 20 2d 	cmp  %g4, 0x2d
    3c28:	22 80 00 3b 	be,a   3d14 <getpwent_next_file+0x1f0>
    3c2c:	c2 4c 60 01 	ldsb  [ %l1 + 1 ], %g1
    3c30:	c2 4c 40 00 	ldsb  [ %l1 ], %g1
    3c34:	80 a0 60 2b 	cmp  %g1, 0x2b
    3c38:	22 80 00 6d 	be,a   3dec <getpwent_next_file+0x2c8>
    3c3c:	c2 4c 60 01 	ldsb  [ %l1 + 1 ], %g1
    3c40:	c2 4c 40 00 	ldsb  [ %l1 ], %g1
    3c44:	80 a0 60 2d 	cmp  %g1, 0x2d
    3c48:	22 80 00 85 	be,a   3e5c <getpwent_next_file+0x338>
    3c4c:	c2 4c 60 01 	ldsb  [ %l1 + 1 ], %g1
    3c50:	c2 4c 40 00 	ldsb  [ %l1 ], %g1
    3c54:	80 a0 60 2b 	cmp  %g1, 0x2b
    3c58:	12 bf ff ba 	bne  3b40 <getpwent_next_file+0x1c>
    3c5c:	80 a6 e0 02 	cmp  %i3, 2
    3c60:	c2 4c 60 01 	ldsb  [ %l1 + 1 ], %g1
    3c64:	80 a0 60 00 	cmp  %g1, 0
    3c68:	22 80 00 88 	be,a   3e88 <getpwent_next_file+0x364>
    3c6c:	c2 4c 40 00 	ldsb  [ %l1 ], %g1
    3c70:	80 a0 60 40 	cmp  %g1, 0x40
    3c74:	02 80 00 84 	be  3e84 <getpwent_next_file+0x360>
    3c78:	aa 10 00 0e 	mov  %sp, %l5
    3c7c:	40 00 51 5a 	call  181e4 <strlen@plt>
    3c80:	90 10 00 11 	mov  %l1, %o0
    3c84:	82 02 20 07 	add  %o0, 7, %g1
    3c88:	82 08 7f f8 	and  %g1, -8, %g1
    3c8c:	9c 23 80 01 	sub  %sp, %g1, %sp
    3c90:	94 10 00 08 	mov  %o0, %o2
    3c94:	a0 03 a0 68 	add  %sp, 0x68, %l0
    3c98:	92 04 60 01 	add  %l1, 1, %o1
    3c9c:	40 00 51 6d 	call  18250 <memcpy@plt>
    3ca0:	90 10 00 10 	mov  %l0, %o0
    3ca4:	d0 05 00 00 	ld  [ %l4 ], %o0
    3ca8:	92 10 00 14 	mov  %l4, %o1
    3cac:	94 10 00 19 	mov  %i1, %o2
    3cb0:	96 10 00 1a 	mov  %i2, %o3
    3cb4:	98 10 00 1b 	mov  %i3, %o4
    3cb8:	9a 10 00 1c 	mov  %i4, %o5
    3cbc:	7f ff fd 58 	call  321c <getpwnam_plususer>
    3cc0:	90 02 20 01 	inc  %o0
    3cc4:	b0 10 00 08 	mov  %o0, %i0
    3cc8:	90 10 00 10 	mov  %l0, %o0
    3ccc:	7f ff fe 99 	call  3730 <blacklist_store_name>
    3cd0:	92 10 00 19 	mov  %i1, %o1
    3cd4:	80 a6 20 01 	cmp  %i0, 1
    3cd8:	02 80 00 90 	be  3f18 <getpwent_next_file+0x3f4>
    3cdc:	82 1e 20 02 	xor  %i0, 2, %g1
    3ce0:	80 a0 00 01 	cmp  %g0, %g1
    3ce4:	84 60 3f ff 	subx  %g0, -1, %g2
    3ce8:	80 a0 00 18 	cmp  %g0, %i0
    3cec:	82 60 3f ff 	subx  %g0, -1, %g1
    3cf0:	80 90 80 01 	orcc  %g2, %g1, %g0
    3cf4:	02 80 00 84 	be  3f04 <getpwent_next_file+0x3e0>
    3cf8:	80 a6 e0 02 	cmp  %i3, 2
    3cfc:	18 bf ff 93 	bgu  3b48 <getpwent_next_file+0x24>
    3d00:	9c 10 00 15 	mov  %l5, %sp
    3d04:	82 10 20 22 	mov  0x22, %g1
    3d08:	c2 27 00 00 	st  %g1, [ %i4 ]
    3d0c:	10 80 00 8d 	b  3f40 <getpwent_next_file+0x41c>
    3d10:	90 10 3f fe 	mov  -2, %o0
    3d14:	80 a0 60 40 	cmp  %g1, 0x40
    3d18:	32 bf ff c7 	bne,a   3c34 <getpwent_next_file+0x110>
    3d1c:	c2 4c 40 00 	ldsb  [ %l1 ], %g1
    3d20:	c2 4c 60 02 	ldsb  [ %l1 + 2 ], %g1
    3d24:	80 a0 60 00 	cmp  %g1, 0
    3d28:	22 bf ff c3 	be,a   3c34 <getpwent_next_file+0x110>
    3d2c:	c2 4c 40 00 	ldsb  [ %l1 ], %g1
    3d30:	84 10 20 00 	clr  %g2
    3d34:	86 10 20 00 	clr  %g3
    3d38:	c4 3f bb d0 	std  %g2, [ %fp + -1072 ]
    3d3c:	c4 3f bb b0 	std  %g2, [ %fp + -1104 ]
    3d40:	c4 3f bb b8 	std  %g2, [ %fp + -1096 ]
    3d44:	c4 3f bb c0 	std  %g2, [ %fp + -1088 ]
    3d48:	c4 3f bb c8 	std  %g2, [ %fp + -1080 ]
    3d4c:	c0 27 bb d8 	clr  [ %fp + -1064 ]
    3d50:	90 04 60 02 	add  %l1, 2, %o0
    3d54:	40 00 51 27 	call  181f0 <__internal_setnetgrent@plt>
    3d58:	92 10 00 16 	mov  %l6, %o1
    3d5c:	f8 23 a0 5c 	st  %i4, [ %sp + 0x5c ]
    3d60:	92 07 bb a8 	add  %fp, -1112, %o1
    3d64:	94 07 bb a4 	add  %fp, -1116, %o2
    3d68:	96 10 00 16 	mov  %l6, %o3
    3d6c:	98 10 00 1d 	mov  %i5, %o4
    3d70:	9a 10 24 00 	mov  0x400, %o5
    3d74:	40 00 50 fe 	call  1816c <__internal_getnetgrent_r@plt>
    3d78:	90 07 bb ac 	add  %fp, -1108, %o0
    3d7c:	80 a2 20 00 	cmp  %o0, 0
    3d80:	02 80 00 17 	be  3ddc <getpwent_next_file+0x2b8>
    3d84:	c2 07 bb a8 	ld  [ %fp + -1112 ], %g1
    3d88:	80 a0 60 00 	cmp  %g1, 0
    3d8c:	22 bf ff f5 	be,a   3d60 <getpwent_next_file+0x23c>
    3d90:	f8 23 a0 5c 	st  %i4, [ %sp + 0x5c ]
    3d94:	90 10 00 01 	mov  %g1, %o0
    3d98:	c2 48 40 00 	ldsb  [ %g1 ], %g1
    3d9c:	80 a0 60 2d 	cmp  %g1, 0x2d
    3da0:	02 bf ff ef 	be  3d5c <getpwent_next_file+0x238>
    3da4:	92 10 00 19 	mov  %i1, %o1
    3da8:	7f ff fe 62 	call  3730 <blacklist_store_name>
    3dac:	01 00 00 00 	nop 
    3db0:	f8 23 a0 5c 	st  %i4, [ %sp + 0x5c ]
    3db4:	92 07 bb a8 	add  %fp, -1112, %o1
    3db8:	94 07 bb a4 	add  %fp, -1116, %o2
    3dbc:	96 10 00 16 	mov  %l6, %o3
    3dc0:	98 10 00 1d 	mov  %i5, %o4
    3dc4:	9a 10 24 00 	mov  0x400, %o5
    3dc8:	40 00 50 e9 	call  1816c <__internal_getnetgrent_r@plt>
    3dcc:	90 07 bb ac 	add  %fp, -1108, %o0
    3dd0:	80 a2 20 00 	cmp  %o0, 0
    3dd4:	12 bf ff ed 	bne  3d88 <getpwent_next_file+0x264>
    3dd8:	c2 07 bb a8 	ld  [ %fp + -1112 ], %g1
    3ddc:	40 00 50 ea 	call  18184 <__internal_endnetgrent@plt>
    3de0:	90 10 00 16 	mov  %l6, %o0
    3de4:	10 bf ff 57 	b  3b40 <getpwent_next_file+0x1c>
    3de8:	80 a6 e0 02 	cmp  %i3, 2
    3dec:	80 a0 60 40 	cmp  %g1, 0x40
    3df0:	32 bf ff 95 	bne,a   3c44 <getpwent_next_file+0x120>
    3df4:	c2 4c 40 00 	ldsb  [ %l1 ], %g1
    3df8:	c2 4c 60 02 	ldsb  [ %l1 + 2 ], %g1
    3dfc:	80 a0 60 00 	cmp  %g1, 0
    3e00:	22 bf ff 91 	be,a   3c44 <getpwent_next_file+0x120>
    3e04:	c2 4c 40 00 	ldsb  [ %l1 ], %g1
    3e08:	82 10 20 01 	mov  1, %g1
    3e0c:	c2 2e 60 01 	stb  %g1, [ %i1 + 1 ]
    3e10:	c2 2e 40 00 	stb  %g1, [ %i1 ]
    3e14:	90 06 60 18 	add  %i1, 0x18, %o0
    3e18:	92 10 00 14 	mov  %l4, %o1
    3e1c:	94 10 20 00 	clr  %o2
    3e20:	7f ff f9 ff 	call  261c <copy_pwd_changes>
    3e24:	96 10 20 00 	clr  %o3
    3e28:	d6 05 00 00 	ld  [ %l4 ], %o3
    3e2c:	f8 23 a0 5c 	st  %i4, [ %sp + 0x5c ]
    3e30:	96 02 e0 02 	add  %o3, 2, %o3
    3e34:	90 10 20 00 	clr  %o0
    3e38:	92 10 00 14 	mov  %l4, %o1
    3e3c:	94 10 00 19 	mov  %i1, %o2
    3e40:	98 10 00 1a 	mov  %i2, %o4
    3e44:	7f ff fe 7c 	call  3834 <getpwent_next_nss_netgr>
    3e48:	9a 10 00 1b 	mov  %i3, %o5
    3e4c:	80 a2 20 02 	cmp  %o0, 2
    3e50:	12 80 00 3c 	bne  3f40 <getpwent_next_file+0x41c>
    3e54:	80 a6 e0 02 	cmp  %i3, 2
    3e58:	30 bf ff 3a 	b,a   3b40 <getpwent_next_file+0x1c>
    3e5c:	80 a0 60 00 	cmp  %g1, 0
    3e60:	22 bf ff 7d 	be,a   3c54 <getpwent_next_file+0x130>
    3e64:	c2 4c 40 00 	ldsb  [ %l1 ], %g1
    3e68:	80 a0 60 40 	cmp  %g1, 0x40
    3e6c:	02 bf ff 79 	be  3c50 <getpwent_next_file+0x12c>
    3e70:	90 04 60 01 	add  %l1, 1, %o0
    3e74:	7f ff fe 2f 	call  3730 <blacklist_store_name>
    3e78:	92 10 00 19 	mov  %i1, %o1
    3e7c:	10 bf ff 31 	b  3b40 <getpwent_next_file+0x1c>
    3e80:	80 a6 e0 02 	cmp  %i3, 2
    3e84:	c2 4c 40 00 	ldsb  [ %l1 ], %g1
    3e88:	80 a0 60 2b 	cmp  %g1, 0x2b
    3e8c:	12 bf ff 2d 	bne  3b40 <getpwent_next_file+0x1c>
    3e90:	80 a6 e0 02 	cmp  %i3, 2
    3e94:	c2 4c 60 01 	ldsb  [ %l1 + 1 ], %g1
    3e98:	80 a0 60 00 	cmp  %g1, 0
    3e9c:	12 bf ff 29 	bne  3b40 <getpwent_next_file+0x1c>
    3ea0:	80 a6 e0 02 	cmp  %i3, 2
    3ea4:	82 10 20 01 	mov  1, %g1
    3ea8:	90 06 60 18 	add  %i1, 0x18, %o0
    3eac:	92 10 00 14 	mov  %l4, %o1
    3eb0:	c2 2e 60 01 	stb  %g1, [ %i1 + 1 ]
    3eb4:	c0 2e 60 02 	clrb  [ %i1 + 2 ]
    3eb8:	94 10 20 00 	clr  %o2
    3ebc:	7f ff f9 d8 	call  261c <copy_pwd_changes>
    3ec0:	96 10 20 00 	clr  %o3
    3ec4:	90 10 00 14 	mov  %l4, %o0
    3ec8:	92 10 00 19 	mov  %i1, %o1
    3ecc:	94 10 00 1a 	mov  %i2, %o2
    3ed0:	96 10 00 1b 	mov  %i3, %o3
    3ed4:	7f ff fe db 	call  3a40 <getpwent_next_nss>
    3ed8:	98 10 00 1c 	mov  %i4, %o4
    3edc:	30 80 00 19 	b,a   3f40 <getpwent_next_file+0x41c>
    3ee0:	c4 00 40 00 	ld  [ %g1 ], %g2
    3ee4:	80 88 a0 10 	btst  0x10, %g2
    3ee8:	12 80 00 16 	bne  3f40 <getpwent_next_file+0x41c>
    3eec:	90 10 20 00 	clr  %o0
    3ef0:	d0 06 60 08 	ld  [ %i1 + 8 ], %o0
    3ef4:	40 00 50 a1 	call  18178 <fsetpos@plt>
    3ef8:	92 10 00 13 	mov  %l3, %o1
    3efc:	10 bf ff 83 	b  3d08 <getpwent_next_file+0x1e4>
    3f00:	82 10 20 22 	mov  0x22, %g1
    3f04:	80 a6 3f fe 	cmp  %i0, -2
    3f08:	02 80 00 07 	be  3f24 <getpwent_next_file+0x400>
    3f0c:	90 10 00 18 	mov  %i0, %o0
    3f10:	10 80 00 0c 	b  3f40 <getpwent_next_file+0x41c>
    3f14:	9c 10 00 15 	mov  %l5, %sp
    3f18:	9c 10 00 15 	mov  %l5, %sp
    3f1c:	10 80 00 09 	b  3f40 <getpwent_next_file+0x41c>
    3f20:	90 10 20 01 	mov  1, %o0
    3f24:	d0 06 60 08 	ld  [ %i1 + 8 ], %o0
    3f28:	40 00 50 94 	call  18178 <fsetpos@plt>
    3f2c:	92 10 00 13 	mov  %l3, %o1
    3f30:	82 10 20 22 	mov  0x22, %g1
    3f34:	c2 27 00 00 	st  %g1, [ %i4 ]
    3f38:	90 10 00 18 	mov  %i0, %o0
    3f3c:	9c 10 00 15 	mov  %l5, %sp
    3f40:	81 c7 e0 08 	ret 
    3f44:	91 e8 00 08 	restore  %g0, %o0, %o0

00003f48 <_nss_compat_getpwent_r>:
_nss_compat_getpwent_r():
    3f48:	9d e3 bf 88 	save  %sp, -120, %sp
    3f4c:	03 00 00 00 	sethi  %hi(0), %g1
    3f50:	2f 00 00 50 	sethi  %hi(0x14000), %l7
    3f54:	7f ff f9 13 	call  23a0 <_nss_compat_getgrent_r+0x36c>
    3f58:	ae 05 e0 ac 	add  %l7, 0xac, %l7	! 140ac <__FRAME_END__+0xdd84>
    3f5c:	82 10 61 1c 	or  %g1, 0x11c, %g1
    3f60:	c4 05 c0 01 	ld  [ %l7 + %g1 ], %g2
    3f64:	80 a0 a0 00 	cmp  %g2, 0
    3f68:	02 80 00 06 	be  3f80 <_nss_compat_getpwent_r+0x38>
    3f6c:	a2 10 00 18 	mov  %i0, %l1
    3f70:	03 00 00 00 	sethi  %hi(0), %g1
    3f74:	82 10 60 70 	or  %g1, 0x70, %g1	! 70 <GLIBC_PRIVATE+0x70>
    3f78:	9f c0 80 00 	call  %g2
    3f7c:	d0 05 c0 01 	ld  [ %l7 + %g1 ], %o0
    3f80:	03 00 00 00 	sethi  %hi(0), %g1
    3f84:	82 10 60 58 	or  %g1, 0x58, %g1	! 58 <GLIBC_PRIVATE+0x58>
    3f88:	c4 05 c0 01 	ld  [ %l7 + %g1 ], %g2
    3f8c:	c6 00 80 00 	ld  [ %g2 ], %g3
    3f90:	80 a0 e0 00 	cmp  %g3, 0
    3f94:	02 80 00 27 	be  4030 <_nss_compat_getpwent_r+0xe8>
    3f98:	03 00 00 00 	sethi  %hi(0), %g1
    3f9c:	82 10 60 54 	or  %g1, 0x54, %g1	! 54 <GLIBC_PRIVATE+0x54>
    3fa0:	e0 05 c0 01 	ld  [ %l7 + %g1 ], %l0
    3fa4:	c4 04 20 08 	ld  [ %l0 + 8 ], %g2
    3fa8:	80 a0 a0 00 	cmp  %g2, 0
    3fac:	22 80 00 2b 	be,a   4058 <_nss_compat_getpwent_r+0x110>
    3fb0:	90 10 00 10 	mov  %l0, %o0
    3fb4:	c2 0c 00 00 	ldub  [ %l0 ], %g1
    3fb8:	80 a0 60 00 	cmp  %g1, 0
    3fbc:	32 80 00 2f 	bne,a   4078 <_nss_compat_getpwent_r+0x130>
    3fc0:	f6 23 a0 5c 	st  %i3, [ %sp + 0x5c ]
    3fc4:	c2 0c 20 02 	ldub  [ %l0 + 2 ], %g1
    3fc8:	80 a0 60 00 	cmp  %g1, 0
    3fcc:	02 80 00 12 	be  4014 <_nss_compat_getpwent_r+0xcc>
    3fd0:	90 10 00 11 	mov  %l1, %o0
    3fd4:	92 10 00 10 	mov  %l0, %o1
    3fd8:	94 10 00 19 	mov  %i1, %o2
    3fdc:	96 10 00 1a 	mov  %i2, %o3
    3fe0:	7f ff fe d1 	call  3b24 <getpwent_next_file>
    3fe4:	98 10 00 1b 	mov  %i3, %o4
    3fe8:	b0 10 00 08 	mov  %o0, %i0
    3fec:	03 00 00 00 	sethi  %hi(0), %g1
    3ff0:	82 10 61 24 	or  %g1, 0x124, %g1	! 124 <GLIBC_PRIVATE+0x124>
    3ff4:	c4 05 c0 01 	ld  [ %l7 + %g1 ], %g2
    3ff8:	80 a0 a0 00 	cmp  %g2, 0
    3ffc:	02 80 00 2b 	be  40a8 <_nss_compat_getpwent_r+0x160>
    4000:	03 00 00 00 	sethi  %hi(0), %g1
    4004:	82 10 60 70 	or  %g1, 0x70, %g1	! 70 <GLIBC_PRIVATE+0x70>
    4008:	9f c0 80 00 	call  %g2
    400c:	d0 05 c0 01 	ld  [ %l7 + %g1 ], %o0
    4010:	30 80 00 26 	b,a   40a8 <_nss_compat_getpwent_r+0x160>
    4014:	92 10 00 10 	mov  %l0, %o1
    4018:	94 10 00 19 	mov  %i1, %o2
    401c:	96 10 00 1a 	mov  %i2, %o3
    4020:	7f ff fe 88 	call  3a40 <getpwent_next_nss>
    4024:	98 10 00 1b 	mov  %i3, %o4
    4028:	10 bf ff f1 	b  3fec <_nss_compat_getpwent_r+0xa4>
    402c:	b0 10 00 08 	mov  %o0, %i0
    4030:	7f ff f8 de 	call  23a8 <init_nss_interface>
    4034:	01 00 00 00 	nop 
    4038:	03 00 00 00 	sethi  %hi(0), %g1
    403c:	82 10 60 54 	or  %g1, 0x54, %g1	! 54 <GLIBC_PRIVATE+0x54>
    4040:	e0 05 c0 01 	ld  [ %l7 + %g1 ], %l0
    4044:	c4 04 20 08 	ld  [ %l0 + 8 ], %g2
    4048:	80 a0 a0 00 	cmp  %g2, 0
    404c:	32 bf ff db 	bne,a   3fb8 <_nss_compat_getpwent_r+0x70>
    4050:	c2 0c 00 00 	ldub  [ %l0 ], %g1
    4054:	90 10 00 10 	mov  %l0, %o0
    4058:	92 10 20 01 	mov  1, %o1
    405c:	7f ff fa 0a 	call  2884 <internal_setpwent>
    4060:	94 10 20 01 	mov  1, %o2
    4064:	80 a2 20 01 	cmp  %o0, 1
    4068:	12 bf ff e1 	bne  3fec <_nss_compat_getpwent_r+0xa4>
    406c:	b0 10 00 08 	mov  %o0, %i0
    4070:	10 bf ff d2 	b  3fb8 <_nss_compat_getpwent_r+0x70>
    4074:	c2 0c 00 00 	ldub  [ %l0 ], %g1
    4078:	90 10 20 00 	clr  %o0
    407c:	92 10 00 11 	mov  %l1, %o1
    4080:	94 10 00 10 	mov  %l0, %o2
    4084:	96 10 20 00 	clr  %o3
    4088:	98 10 00 19 	mov  %i1, %o4
    408c:	7f ff fd ea 	call  3834 <getpwent_next_nss_netgr>
    4090:	9a 10 00 1a 	mov  %i2, %o5
    4094:	80 a2 20 02 	cmp  %o0, 2
    4098:	12 bf ff d5 	bne  3fec <_nss_compat_getpwent_r+0xa4>
    409c:	b0 10 00 08 	mov  %o0, %i0
    40a0:	10 bf ff cd 	b  3fd4 <_nss_compat_getpwent_r+0x8c>
    40a4:	90 10 00 11 	mov  %l1, %o0
    40a8:	81 c7 e0 08 	ret 
    40ac:	81 e8 00 00 	restore 
    40b0:	81 c3 e0 08 	retl 
    40b4:	ae 03 c0 17 	add  %o7, %l7, %l7

000040b8 <init_nss_interface>:
init_nss_interface():
    40b8:	9d e3 bf 90 	save  %sp, -112, %sp
    40bc:	03 00 00 00 	sethi  %hi(0), %g1
    40c0:	2f 00 00 4f 	sethi  %hi(0x13c00), %l7
    40c4:	7f ff ff fb 	call  40b0 <_nss_compat_getpwent_r+0x168>
    40c8:	ae 05 e3 3c 	add  %l7, 0x33c, %l7	! 13f3c <__FRAME_END__+0xdc14>
    40cc:	82 10 60 a0 	or  %g1, 0xa0, %g1
    40d0:	09 00 00 00 	sethi  %hi(0), %g4
    40d4:	07 00 00 00 	sethi  %hi(0), %g3
    40d8:	05 00 00 00 	sethi  %hi(0), %g2
    40dc:	e2 05 c0 01 	ld  [ %l7 + %g1 ], %l1
    40e0:	84 10 a0 c0 	or  %g2, 0xc0, %g2
    40e4:	88 11 20 b8 	or  %g4, 0xb8, %g4
    40e8:	86 10 e0 bc 	or  %g3, 0xbc, %g3
    40ec:	d4 05 c0 02 	ld  [ %l7 + %g2 ], %o2
    40f0:	d2 05 c0 03 	ld  [ %l7 + %g3 ], %o1
    40f4:	d0 05 c0 04 	ld  [ %l7 + %g4 ], %o0
    40f8:	40 00 50 68 	call  18298 <__nss_database_lookup@plt>
    40fc:	96 10 00 11 	mov  %l1, %o3
    4100:	03 00 00 00 	sethi  %hi(0), %g1
    4104:	05 00 00 00 	sethi  %hi(0), %g2
    4108:	82 10 60 a4 	or  %g1, 0xa4, %g1
    410c:	80 a2 20 00 	cmp  %o0, 0
    4110:	06 80 00 22 	bl  4198 <init_nss_interface+0xe0>
    4114:	84 10 a0 c4 	or  %g2, 0xc4, %g2
    4118:	e0 05 c0 01 	ld  [ %l7 + %g1 ], %l0
    411c:	d2 05 c0 02 	ld  [ %l7 + %g2 ], %o1
    4120:	40 00 50 37 	call  181fc <__nss_lookup_function@plt>
    4124:	d0 04 40 00 	ld  [ %l1 ], %o0
    4128:	03 00 00 00 	sethi  %hi(0), %g1
    412c:	05 00 00 00 	sethi  %hi(0), %g2
    4130:	d0 24 00 00 	st  %o0, [ %l0 ]
    4134:	82 10 60 a8 	or  %g1, 0xa8, %g1
    4138:	84 10 a0 c8 	or  %g2, 0xc8, %g2
    413c:	e0 05 c0 01 	ld  [ %l7 + %g1 ], %l0
    4140:	d2 05 c0 02 	ld  [ %l7 + %g2 ], %o1
    4144:	40 00 50 2e 	call  181fc <__nss_lookup_function@plt>
    4148:	d0 04 40 00 	ld  [ %l1 ], %o0
    414c:	03 00 00 00 	sethi  %hi(0), %g1
    4150:	05 00 00 00 	sethi  %hi(0), %g2
    4154:	d0 24 00 00 	st  %o0, [ %l0 ]
    4158:	82 10 60 ac 	or  %g1, 0xac, %g1
    415c:	84 10 a0 cc 	or  %g2, 0xcc, %g2
    4160:	e0 05 c0 01 	ld  [ %l7 + %g1 ], %l0
    4164:	d2 05 c0 02 	ld  [ %l7 + %g2 ], %o1
    4168:	40 00 50 25 	call  181fc <__nss_lookup_function@plt>
    416c:	d0 04 40 00 	ld  [ %l1 ], %o0
    4170:	03 00 00 00 	sethi  %hi(0), %g1
    4174:	05 00 00 00 	sethi  %hi(0), %g2
    4178:	d0 24 00 00 	st  %o0, [ %l0 ]
    417c:	82 10 60 b0 	or  %g1, 0xb0, %g1
    4180:	84 10 a0 d0 	or  %g2, 0xd0, %g2
    4184:	e0 05 c0 01 	ld  [ %l7 + %g1 ], %l0
    4188:	d0 04 40 00 	ld  [ %l1 ], %o0
    418c:	40 00 50 1c 	call  181fc <__nss_lookup_function@plt>
    4190:	d2 05 c0 02 	ld  [ %l7 + %g2 ], %o1
    4194:	d0 24 00 00 	st  %o0, [ %l0 ]
    4198:	81 c7 e0 08 	ret 
    419c:	81 e8 00 00 	restore 

000041a0 <give_spwd_free>:
give_spwd_free():
    41a0:	9d e3 bf 90 	save  %sp, -112, %sp
    41a4:	d0 06 00 00 	ld  [ %i0 ], %o0
    41a8:	80 a2 20 00 	cmp  %o0, 0
    41ac:	12 80 00 07 	bne  41c8 <give_spwd_free+0x28>
    41b0:	01 00 00 00 	nop 
    41b4:	d0 06 20 04 	ld  [ %i0 + 4 ], %o0
    41b8:	80 a2 20 00 	cmp  %o0, 0
    41bc:	02 80 00 0c 	be  41ec <give_spwd_free+0x4c>
    41c0:	82 10 3f ff 	mov  -1, %g1
    41c4:	30 80 00 07 	b,a   41e0 <give_spwd_free+0x40>
    41c8:	40 00 50 31 	call  1828c <free@plt>
    41cc:	01 00 00 00 	nop 
    41d0:	d0 06 20 04 	ld  [ %i0 + 4 ], %o0
    41d4:	80 a2 20 00 	cmp  %o0, 0
    41d8:	02 80 00 05 	be  41ec <give_spwd_free+0x4c>
    41dc:	82 10 3f ff 	mov  -1, %g1
    41e0:	40 00 50 2b 	call  1828c <free@plt>
    41e4:	01 00 00 00 	nop 
    41e8:	82 10 3f ff 	mov  -1, %g1	! ffffffff <_end+0xfffe7b17>
    41ec:	c2 26 20 20 	st  %g1, [ %i0 + 0x20 ]
    41f0:	c0 26 00 00 	clr  [ %i0 ]
    41f4:	c0 26 20 04 	clr  [ %i0 + 4 ]
    41f8:	c0 26 20 08 	clr  [ %i0 + 8 ]
    41fc:	c0 26 20 0c 	clr  [ %i0 + 0xc ]
    4200:	c0 26 20 10 	clr  [ %i0 + 0x10 ]
    4204:	c2 26 20 14 	st  %g1, [ %i0 + 0x14 ]
    4208:	c2 26 20 18 	st  %g1, [ %i0 + 0x18 ]
    420c:	c2 26 20 1c 	st  %g1, [ %i0 + 0x1c ]
    4210:	81 c7 e0 08 	ret 
    4214:	81 e8 00 00 	restore 

00004218 <spwd_need_buflen>:
spwd_need_buflen():
    4218:	9d e3 bf 90 	save  %sp, -112, %sp
    421c:	c2 06 20 04 	ld  [ %i0 + 4 ], %g1
    4220:	90 90 60 00 	orcc  %g1, 0, %o0
    4224:	02 80 00 05 	be  4238 <spwd_need_buflen+0x20>
    4228:	b0 10 20 00 	clr  %i0
    422c:	40 00 4f ee 	call  181e4 <strlen@plt>
    4230:	01 00 00 00 	nop 
    4234:	b0 02 20 01 	add  %o0, 1, %i0
    4238:	81 c7 e0 08 	ret 
    423c:	81 e8 00 00 	restore 

00004240 <copy_spwd_changes>:
copy_spwd_changes():
    4240:	9d e3 bf 90 	save  %sp, -112, %sp
    4244:	e2 06 60 04 	ld  [ %i1 + 4 ], %l1
    4248:	80 a4 60 00 	cmp  %l1, 0
    424c:	22 80 00 07 	be,a   4268 <copy_spwd_changes+0x28>
    4250:	c2 06 60 08 	ld  [ %i1 + 8 ], %g1
    4254:	c2 4c 40 00 	ldsb  [ %l1 ], %g1
    4258:	80 a0 60 00 	cmp  %g1, 0
    425c:	12 80 00 1f 	bne  42d8 <copy_spwd_changes+0x98>
    4260:	80 a6 a0 00 	cmp  %i2, 0
    4264:	c2 06 60 08 	ld  [ %i1 + 8 ], %g1
    4268:	80 a0 60 00 	cmp  %g1, 0
    426c:	32 80 00 02 	bne,a   4274 <copy_spwd_changes+0x34>
    4270:	c2 26 20 08 	st  %g1, [ %i0 + 8 ]
    4274:	c2 06 60 0c 	ld  [ %i1 + 0xc ], %g1
    4278:	80 a0 60 00 	cmp  %g1, 0
    427c:	32 80 00 02 	bne,a   4284 <copy_spwd_changes+0x44>
    4280:	c2 26 20 0c 	st  %g1, [ %i0 + 0xc ]
    4284:	c2 06 60 10 	ld  [ %i1 + 0x10 ], %g1
    4288:	80 a0 60 00 	cmp  %g1, 0
    428c:	32 80 00 02 	bne,a   4294 <copy_spwd_changes+0x54>
    4290:	c2 26 20 10 	st  %g1, [ %i0 + 0x10 ]
    4294:	c2 06 60 14 	ld  [ %i1 + 0x14 ], %g1
    4298:	80 a0 7f ff 	cmp  %g1, -1
    429c:	32 80 00 02 	bne,a   42a4 <copy_spwd_changes+0x64>
    42a0:	c2 26 20 14 	st  %g1, [ %i0 + 0x14 ]
    42a4:	c2 06 60 18 	ld  [ %i1 + 0x18 ], %g1
    42a8:	80 a0 7f ff 	cmp  %g1, -1
    42ac:	32 80 00 02 	bne,a   42b4 <copy_spwd_changes+0x74>
    42b0:	c2 26 20 18 	st  %g1, [ %i0 + 0x18 ]
    42b4:	c2 06 60 1c 	ld  [ %i1 + 0x1c ], %g1
    42b8:	80 a0 7f ff 	cmp  %g1, -1
    42bc:	32 80 00 02 	bne,a   42c4 <copy_spwd_changes+0x84>
    42c0:	c2 26 20 1c 	st  %g1, [ %i0 + 0x1c ]
    42c4:	f2 06 60 20 	ld  [ %i1 + 0x20 ], %i1
    42c8:	80 a6 7f ff 	cmp  %i1, -1
    42cc:	32 80 00 1f 	bne,a   4348 <copy_spwd_changes+0x108>
    42d0:	f2 26 20 20 	st  %i1, [ %i0 + 0x20 ]
    42d4:	30 80 00 1d 	b,a   4348 <copy_spwd_changes+0x108>
    42d8:	02 80 00 18 	be  4338 <copy_spwd_changes+0xf8>
    42dc:	01 00 00 00 	nop 
    42e0:	e4 06 20 04 	ld  [ %i0 + 4 ], %l2
    42e4:	80 a4 a0 00 	cmp  %l2, 0
    42e8:	22 80 00 0b 	be,a   4314 <copy_spwd_changes+0xd4>
    42ec:	f4 26 20 04 	st  %i2, [ %i0 + 4 ]
    42f0:	40 00 4f bd 	call  181e4 <strlen@plt>
    42f4:	90 10 00 12 	mov  %l2, %o0
    42f8:	a0 10 00 08 	mov  %o0, %l0
    42fc:	40 00 4f ba 	call  181e4 <strlen@plt>
    4300:	90 10 00 11 	mov  %l1, %o0
    4304:	80 a4 00 08 	cmp  %l0, %o0
    4308:	1a 80 00 08 	bcc  4328 <copy_spwd_changes+0xe8>
    430c:	90 10 00 12 	mov  %l2, %o0
    4310:	f4 26 20 04 	st  %i2, [ %i0 + 4 ]
    4314:	90 10 00 1a 	mov  %i2, %o0
    4318:	40 00 4f f5 	call  182ec <strcpy@plt>
    431c:	d2 06 60 04 	ld  [ %i1 + 4 ], %o1
    4320:	10 bf ff d2 	b  4268 <copy_spwd_changes+0x28>
    4324:	c2 06 60 08 	ld  [ %i1 + 8 ], %g1
    4328:	40 00 4f f1 	call  182ec <strcpy@plt>
    432c:	92 10 00 11 	mov  %l1, %o1
    4330:	10 bf ff ce 	b  4268 <copy_spwd_changes+0x28>
    4334:	c2 06 60 08 	ld  [ %i1 + 8 ], %g1
    4338:	40 00 4f cc 	call  18268 <__strdup@plt>
    433c:	90 10 00 11 	mov  %l1, %o0
    4340:	10 bf ff c9 	b  4264 <copy_spwd_changes+0x24>
    4344:	d0 26 20 04 	st  %o0, [ %i0 + 4 ]
    4348:	81 c7 e0 08 	ret 
    434c:	81 e8 00 00 	restore 

00004350 <internal_setspent>:
internal_setspent():
    4350:	9d e3 bf 90 	save  %sp, -112, %sp
    4354:	a2 10 20 01 	mov  1, %l1
    4358:	c4 06 20 0c 	ld  [ %i0 + 0xc ], %g2
    435c:	2f 00 00 4f 	sethi  %hi(0x13c00), %l7
    4360:	7f ff ff 54 	call  40b0 <_nss_compat_getpwent_r+0x168>
    4364:	ae 05 e0 a0 	add  %l7, 0xa0, %l7	! 13ca0 <__FRAME_END__+0xd978>
    4368:	c0 2e 00 00 	clrb  [ %i0 ]
    436c:	c0 2e 20 02 	clrb  [ %i0 + 2 ]
    4370:	80 a0 a0 00 	cmp  %g2, 0
    4374:	02 80 00 2b 	be  4420 <internal_setspent+0xd0>
    4378:	e2 2e 20 01 	stb  %l1, [ %i0 + 1 ]
    437c:	e2 26 20 10 	st  %l1, [ %i0 + 0x10 ]
    4380:	82 10 20 7c 	mov  0x7c, %g1
    4384:	c2 28 80 00 	stb  %g1, [ %g2 ]
    4388:	c4 06 20 0c 	ld  [ %i0 + 0xc ], %g2
    438c:	c0 28 a0 01 	clrb  [ %g2 + 1 ]
    4390:	d0 06 20 08 	ld  [ %i0 + 8 ], %o0
    4394:	80 a2 20 00 	cmp  %o0, 0
    4398:	12 80 00 26 	bne  4430 <internal_setspent+0xe0>
    439c:	01 00 00 00 	nop 
    43a0:	03 00 00 00 	sethi  %hi(0), %g1
    43a4:	05 00 00 00 	sethi  %hi(0), %g2
    43a8:	82 10 60 d4 	or  %g1, 0xd4, %g1
    43ac:	84 10 a0 d8 	or  %g2, 0xd8, %g2
    43b0:	d0 05 c0 01 	ld  [ %l7 + %g1 ], %o0
    43b4:	40 00 4f bf 	call  182b0 <fopen@plt>
    43b8:	d2 05 c0 02 	ld  [ %l7 + %g2 ], %o1
    43bc:	82 92 20 00 	orcc  %o0, 0, %g1
    43c0:	12 80 00 25 	bne  4454 <internal_setspent+0x104>
    43c4:	c2 26 20 08 	st  %g1, [ %i0 + 8 ]
    43c8:	40 00 4f 72 	call  18190 <__errno_location@plt>
    43cc:	01 00 00 00 	nop 
    43d0:	c2 02 00 00 	ld  [ %o0 ], %g1
    43d4:	82 18 60 0b 	xor  %g1, 0xb, %g1
    43d8:	80 a0 00 01 	cmp  %g0, %g1
    43dc:	84 40 20 00 	addx  %g0, 0, %g2
    43e0:	a2 00 bf fe 	add  %g2, -2, %l1
    43e4:	7f ff ff 6f 	call  41a0 <give_spwd_free>
    43e8:	90 06 20 18 	add  %i0, 0x18, %o0
    43ec:	80 a4 60 01 	cmp  %l1, 1
    43f0:	12 80 00 33 	bne  44bc <internal_setspent+0x16c>
    43f4:	03 00 00 00 	sethi  %hi(0), %g1
    43f8:	82 10 60 a4 	or  %g1, 0xa4, %g1	! a4 <GLIBC_PRIVATE+0xa4>
    43fc:	c4 05 c0 01 	ld  [ %l7 + %g1 ], %g2
    4400:	c4 00 80 00 	ld  [ %g2 ], %g2
    4404:	80 a0 a0 00 	cmp  %g2, 0
    4408:	02 80 00 2d 	be  44bc <internal_setspent+0x16c>
    440c:	01 00 00 00 	nop 
    4410:	9f c0 80 00 	call  %g2
    4414:	90 10 00 19 	mov  %i1, %o0
    4418:	10 80 00 29 	b  44bc <internal_setspent+0x16c>
    441c:	d0 26 20 04 	st  %o0, [ %i0 + 4 ]
    4420:	d0 06 20 08 	ld  [ %i0 + 8 ], %o0
    4424:	80 a2 20 00 	cmp  %o0, 0
    4428:	02 bf ff de 	be  43a0 <internal_setspent+0x50>
    442c:	c0 26 20 10 	clr  [ %i0 + 0x10 ]
    4430:	40 00 4f 5b 	call  1819c <rewind@plt>
    4434:	01 00 00 00 	nop 
    4438:	7f ff ff 5a 	call  41a0 <give_spwd_free>
    443c:	90 06 20 18 	add  %i0, 0x18, %o0
    4440:	80 a4 60 01 	cmp  %l1, 1
    4444:	12 80 00 1e 	bne  44bc <internal_setspent+0x16c>
    4448:	03 00 00 00 	sethi  %hi(0), %g1
    444c:	10 bf ff ec 	b  43fc <internal_setspent+0xac>
    4450:	82 10 60 a4 	or  %g1, 0xa4, %g1	! a4 <GLIBC_PRIVATE+0xa4>
    4454:	40 00 4f 73 	call  18220 <fileno_unlocked@plt>
    4458:	01 00 00 00 	nop 
    445c:	92 10 20 01 	mov  1, %o1	! 1 <GLIBC_PRIVATE+0x1>
    4460:	40 00 4f 79 	call  18244 <fcntl@plt>
    4464:	94 10 20 00 	clr  %o2
    4468:	a0 92 20 00 	orcc  %o0, 0, %l0
    446c:	06 80 00 0f 	bl  44a8 <internal_setspent+0x158>
    4470:	01 00 00 00 	nop 
    4474:	40 00 4f 6b 	call  18220 <fileno_unlocked@plt>
    4478:	d0 06 20 08 	ld  [ %i0 + 8 ], %o0
    447c:	a0 14 20 01 	or  %l0, 1, %l0
    4480:	94 10 00 10 	mov  %l0, %o2
    4484:	40 00 4f 70 	call  18244 <fcntl@plt>
    4488:	92 10 20 02 	mov  2, %o1
    448c:	80 a2 20 00 	cmp  %o0, 0
    4490:	06 80 00 06 	bl  44a8 <internal_setspent+0x158>
    4494:	01 00 00 00 	nop 
    4498:	d0 06 20 08 	ld  [ %i0 + 8 ], %o0
    449c:	40 00 4f 79 	call  18280 <__fsetlocking@plt>
    44a0:	92 10 20 02 	mov  2, %o1
    44a4:	30 bf ff e5 	b,a   4438 <internal_setspent+0xe8>
    44a8:	40 00 4f 6d 	call  1825c <fclose@plt>
    44ac:	d0 06 20 08 	ld  [ %i0 + 8 ], %o0
    44b0:	c0 26 20 08 	clr  [ %i0 + 8 ]
    44b4:	10 bf ff e1 	b  4438 <internal_setspent+0xe8>
    44b8:	a2 10 3f ff 	mov  -1, %l1
    44bc:	81 c7 e0 08 	ret 
    44c0:	91 e8 00 11 	restore  %g0, %l1, %o0

000044c4 <_nss_compat_setspent>:
_nss_compat_setspent():
    44c4:	9d e3 bf 90 	save  %sp, -112, %sp
    44c8:	03 00 00 00 	sethi  %hi(0), %g1
    44cc:	2f 00 00 4e 	sethi  %hi(0x13800), %l7
    44d0:	7f ff fe f8 	call  40b0 <_nss_compat_getpwent_r+0x168>
    44d4:	ae 05 e3 30 	add  %l7, 0x330, %l7	! 13b30 <__FRAME_END__+0xd808>
    44d8:	82 10 61 1c 	or  %g1, 0x11c, %g1
    44dc:	05 00 00 00 	sethi  %hi(0), %g2
    44e0:	c2 05 c0 01 	ld  [ %l7 + %g1 ], %g1
    44e4:	80 a0 60 00 	cmp  %g1, 0
    44e8:	02 80 00 04 	be  44f8 <_nss_compat_setspent+0x34>
    44ec:	84 10 a0 b4 	or  %g2, 0xb4, %g2
    44f0:	9f c0 40 00 	call  %g1
    44f4:	d0 05 c0 02 	ld  [ %l7 + %g2 ], %o0
    44f8:	03 00 00 00 	sethi  %hi(0), %g1
    44fc:	82 10 60 a0 	or  %g1, 0xa0, %g1	! a0 <GLIBC_PRIVATE+0xa0>
    4500:	c4 05 c0 01 	ld  [ %l7 + %g1 ], %g2
    4504:	c6 00 80 00 	ld  [ %g2 ], %g3
    4508:	80 a0 e0 00 	cmp  %g3, 0
    450c:	02 80 00 12 	be  4554 <_nss_compat_setspent+0x90>
    4510:	01 00 00 00 	nop 
    4514:	03 00 00 00 	sethi  %hi(0), %g1
    4518:	82 10 60 9c 	or  %g1, 0x9c, %g1	! 9c <GLIBC_PRIVATE+0x9c>
    451c:	92 10 00 18 	mov  %i0, %o1
    4520:	7f ff ff 8c 	call  4350 <internal_setspent>
    4524:	d0 05 c0 01 	ld  [ %l7 + %g1 ], %o0
    4528:	03 00 00 00 	sethi  %hi(0), %g1
    452c:	82 10 61 24 	or  %g1, 0x124, %g1	! 124 <GLIBC_PRIVATE+0x124>
    4530:	05 00 00 00 	sethi  %hi(0), %g2
    4534:	c2 05 c0 01 	ld  [ %l7 + %g1 ], %g1
    4538:	b0 10 00 08 	mov  %o0, %i0
    453c:	80 a0 60 00 	cmp  %g1, 0
    4540:	02 80 00 09 	be  4564 <_nss_compat_setspent+0xa0>
    4544:	84 10 a0 b4 	or  %g2, 0xb4, %g2
    4548:	9f c0 40 00 	call  %g1
    454c:	d0 05 c0 02 	ld  [ %l7 + %g2 ], %o0
    4550:	30 80 00 05 	b,a   4564 <_nss_compat_setspent+0xa0>
    4554:	7f ff fe d9 	call  40b8 <init_nss_interface>
    4558:	01 00 00 00 	nop 
    455c:	10 bf ff ef 	b  4518 <_nss_compat_setspent+0x54>
    4560:	03 00 00 00 	sethi  %hi(0), %g1
    4564:	81 c7 e0 08 	ret 
    4568:	81 e8 00 00 	restore 

0000456c <internal_endspent>:
internal_endspent():
    456c:	9d e3 bf 90 	save  %sp, -112, %sp
    4570:	03 00 00 00 	sethi  %hi(0), %g1
    4574:	2f 00 00 4e 	sethi  %hi(0x13800), %l7
    4578:	7f ff fe ce 	call  40b0 <_nss_compat_getpwent_r+0x168>
    457c:	ae 05 e2 88 	add  %l7, 0x288, %l7	! 13a88 <__FRAME_END__+0xd760>
    4580:	82 10 60 b0 	or  %g1, 0xb0, %g1
    4584:	c4 05 c0 01 	ld  [ %l7 + %g1 ], %g2
    4588:	c4 00 80 00 	ld  [ %g2 ], %g2
    458c:	80 a0 a0 00 	cmp  %g2, 0
    4590:	12 80 00 1a 	bne  45f8 <internal_endspent+0x8c>
    4594:	01 00 00 00 	nop 
    4598:	c2 06 20 08 	ld  [ %i0 + 8 ], %g1
    459c:	90 90 60 00 	orcc  %g1, 0, %o0
    45a0:	12 80 00 1c 	bne  4610 <internal_endspent+0xa4>
    45a4:	01 00 00 00 	nop 
    45a8:	c2 0e 00 00 	ldub  [ %i0 ], %g1
    45ac:	80 a0 60 00 	cmp  %g1, 0
    45b0:	12 80 00 1f 	bne  462c <internal_endspent+0xc0>
    45b4:	90 06 20 3c 	add  %i0, 0x3c, %o0
    45b8:	c6 06 20 0c 	ld  [ %i0 + 0xc ], %g3
    45bc:	82 10 20 01 	mov  1, %g1
    45c0:	c2 2e 20 01 	stb  %g1, [ %i0 + 1 ]
    45c4:	c0 2e 00 00 	clrb  [ %i0 ]
    45c8:	80 a0 e0 00 	cmp  %g3, 0
    45cc:	02 80 00 09 	be  45f0 <internal_endspent+0x84>
    45d0:	c0 2e 20 02 	clrb  [ %i0 + 2 ]
    45d4:	82 10 20 01 	mov  1, %g1
    45d8:	c2 26 20 10 	st  %g1, [ %i0 + 0x10 ]
    45dc:	84 10 20 7c 	mov  0x7c, %g2
    45e0:	c4 28 c0 00 	stb  %g2, [ %g3 ]
    45e4:	c2 06 20 0c 	ld  [ %i0 + 0xc ], %g1
    45e8:	10 80 00 15 	b  463c <internal_endspent+0xd0>
    45ec:	c0 28 60 01 	clrb  [ %g1 + 1 ]
    45f0:	10 80 00 13 	b  463c <internal_endspent+0xd0>
    45f4:	c0 26 20 10 	clr  [ %i0 + 0x10 ]
    45f8:	9f c0 80 00 	call  %g2
    45fc:	01 00 00 00 	nop 
    4600:	c2 06 20 08 	ld  [ %i0 + 8 ], %g1
    4604:	90 90 60 00 	orcc  %g1, 0, %o0
    4608:	22 bf ff e9 	be,a   45ac <internal_endspent+0x40>
    460c:	c2 0e 00 00 	ldub  [ %i0 ], %g1
    4610:	40 00 4f 13 	call  1825c <fclose@plt>
    4614:	01 00 00 00 	nop 
    4618:	c2 0e 00 00 	ldub  [ %i0 ], %g1
    461c:	c0 26 20 08 	clr  [ %i0 + 8 ]
    4620:	80 a0 60 00 	cmp  %g1, 0
    4624:	02 bf ff e5 	be  45b8 <internal_endspent+0x4c>
    4628:	90 06 20 3c 	add  %i0, 0x3c, %o0
    462c:	40 00 4e d6 	call  18184 <__internal_endnetgrent@plt>
    4630:	01 00 00 00 	nop 
    4634:	10 bf ff e2 	b  45bc <internal_endspent+0x50>
    4638:	c6 06 20 0c 	ld  [ %i0 + 0xc ], %g3
    463c:	7f ff fe d9 	call  41a0 <give_spwd_free>
    4640:	90 06 20 18 	add  %i0, 0x18, %o0
    4644:	81 c7 e0 08 	ret 
    4648:	91 e8 20 01 	restore  %g0, 1, %o0

0000464c <_nss_compat_endspent>:
_nss_compat_endspent():
    464c:	9d e3 bf 90 	save  %sp, -112, %sp
    4650:	03 00 00 00 	sethi  %hi(0), %g1
    4654:	2f 00 00 4e 	sethi  %hi(0x13800), %l7
    4658:	7f ff fe 96 	call  40b0 <_nss_compat_getpwent_r+0x168>
    465c:	ae 05 e1 a8 	add  %l7, 0x1a8, %l7	! 139a8 <__FRAME_END__+0xd680>
    4660:	82 10 61 1c 	or  %g1, 0x11c, %g1
    4664:	05 00 00 00 	sethi  %hi(0), %g2
    4668:	c2 05 c0 01 	ld  [ %l7 + %g1 ], %g1
    466c:	80 a0 60 00 	cmp  %g1, 0
    4670:	02 80 00 04 	be  4680 <_nss_compat_endspent+0x34>
    4674:	84 10 a0 b4 	or  %g2, 0xb4, %g2
    4678:	9f c0 40 00 	call  %g1
    467c:	d0 05 c0 02 	ld  [ %l7 + %g2 ], %o0
    4680:	03 00 00 00 	sethi  %hi(0), %g1
    4684:	82 10 60 9c 	or  %g1, 0x9c, %g1	! 9c <GLIBC_PRIVATE+0x9c>
    4688:	7f ff ff b9 	call  456c <internal_endspent>
    468c:	d0 05 c0 01 	ld  [ %l7 + %g1 ], %o0
    4690:	03 00 00 00 	sethi  %hi(0), %g1
    4694:	82 10 61 24 	or  %g1, 0x124, %g1	! 124 <GLIBC_PRIVATE+0x124>
    4698:	05 00 00 00 	sethi  %hi(0), %g2
    469c:	c2 05 c0 01 	ld  [ %l7 + %g1 ], %g1
    46a0:	b0 10 00 08 	mov  %o0, %i0
    46a4:	80 a0 60 00 	cmp  %g1, 0
    46a8:	02 80 00 04 	be  46b8 <_nss_compat_endspent+0x6c>
    46ac:	84 10 a0 b4 	or  %g2, 0xb4, %g2
    46b0:	9f c0 40 00 	call  %g1
    46b4:	d0 05 c0 02 	ld  [ %l7 + %g2 ], %o0
    46b8:	81 c7 e0 08 	ret 
    46bc:	81 e8 00 00 	restore 

000046c0 <in_blacklist>:
in_blacklist():
    46c0:	9d e3 bf 90 	save  %sp, -112, %sp
    46c4:	b2 06 60 0a 	add  %i1, 0xa, %i1
    46c8:	b2 0e 7f f8 	and  %i1, -8, %i1
    46cc:	a0 10 00 0e 	mov  %sp, %l0
    46d0:	9c 23 80 19 	sub  %sp, %i1, %sp
    46d4:	c2 06 a0 0c 	ld  [ %i2 + 0xc ], %g1
    46d8:	92 10 00 18 	mov  %i0, %o1
    46dc:	b2 03 a0 60 	add  %sp, 0x60, %i1
    46e0:	a2 10 20 7c 	mov  0x7c, %l1
    46e4:	80 a0 60 00 	cmp  %g1, 0
    46e8:	90 06 60 01 	add  %i1, 1, %o0
    46ec:	12 80 00 04 	bne  46fc <in_blacklist+0x3c>
    46f0:	b0 10 20 00 	clr  %i0
    46f4:	10 80 00 0c 	b  4724 <in_blacklist+0x64>
    46f8:	9c 10 00 10 	mov  %l0, %sp
    46fc:	40 00 4e c3 	call  18208 <stpcpy@plt>
    4700:	e2 2e 40 00 	stb  %l1, [ %i1 ]
    4704:	e2 2a 00 00 	stb  %l1, [ %o0 ]
    4708:	c0 2a 20 01 	clrb  [ %o0 + 1 ]
    470c:	d0 06 a0 0c 	ld  [ %i2 + 0xc ], %o0
    4710:	40 00 4e b2 	call  181d8 <strstr@plt>
    4714:	92 10 00 19 	mov  %i1, %o1
    4718:	80 a0 00 08 	cmp  %g0, %o0
    471c:	b0 40 20 00 	addx  %g0, 0, %i0
    4720:	9c 10 00 10 	mov  %l0, %sp
    4724:	81 c7 e0 08 	ret 
    4728:	81 e8 00 00 	restore 

0000472c <getspnam_plususer>:
getspnam_plususer():
    472c:	9d e3 bf 68 	save  %sp, -152, %sp
    4730:	03 00 00 00 	sethi  %hi(0), %g1
    4734:	2f 00 00 4e 	sethi  %hi(0x13800), %l7
    4738:	7f ff fe 5e 	call  40b0 <_nss_compat_getpwent_r+0x168>
    473c:	ae 05 e0 c8 	add  %l7, 0xc8, %l7	! 138c8 <__FRAME_END__+0xd5a0>
    4740:	82 10 60 a8 	or  %g1, 0xa8, %g1
    4744:	e6 05 c0 01 	ld  [ %l7 + %g1 ], %l3
    4748:	a2 07 bf c8 	add  %fp, -56, %l1
    474c:	c4 04 c0 00 	ld  [ %l3 ], %g2
    4750:	a4 10 00 18 	mov  %i0, %l2
    4754:	98 10 20 00 	clr  %o4
    4758:	9a 10 20 00 	clr  %o5
    475c:	86 10 3f ff 	mov  -1, %g3
    4760:	94 10 20 00 	clr  %o2
    4764:	96 10 20 00 	clr  %o3
    4768:	90 10 00 11 	mov  %l1, %o0
    476c:	80 a0 a0 00 	cmp  %g2, 0
    4770:	92 10 00 19 	mov  %i1, %o1
    4774:	02 80 00 32 	be  483c <getspnam_plususer+0x110>
    4778:	b0 10 3f ff 	mov  -1, %i0
    477c:	d8 3f bf e0 	std  %o4, [ %fp + -32 ]
    4780:	d8 3f bf d8 	std  %o4, [ %fp + -40 ]
    4784:	d8 3f bf c8 	std  %o4, [ %fp + -56 ]
    4788:	d8 3f bf d0 	std  %o4, [ %fp + -48 ]
    478c:	c6 27 bf e8 	st  %g3, [ %fp + -24 ]
    4790:	c6 27 bf dc 	st  %g3, [ %fp + -36 ]
    4794:	c6 27 bf e0 	st  %g3, [ %fp + -32 ]
    4798:	7f ff fe aa 	call  4240 <copy_spwd_changes>
    479c:	c6 27 bf e4 	st  %g3, [ %fp + -28 ]
    47a0:	7f ff fe 9e 	call  4218 <spwd_need_buflen>
    47a4:	90 10 00 11 	mov  %l1, %o0
    47a8:	82 27 00 08 	sub  %i4, %o0, %g1
    47ac:	a0 10 00 08 	mov  %o0, %l0
    47b0:	94 10 00 1b 	mov  %i3, %o2
    47b4:	98 10 00 1d 	mov  %i5, %o4
    47b8:	96 10 00 01 	mov  %g1, %o3
    47bc:	90 10 00 12 	mov  %l2, %o0
    47c0:	92 10 00 19 	mov  %i1, %o1
    47c4:	b6 00 40 1b 	add  %g1, %i3, %i3
    47c8:	80 a4 00 1c 	cmp  %l0, %i4
    47cc:	18 80 00 1a 	bgu  4834 <getspnam_plususer+0x108>
    47d0:	b0 10 3f fe 	mov  -2, %i0
    47d4:	c2 04 c0 00 	ld  [ %l3 ], %g1
    47d8:	9f c0 40 00 	call  %g1
    47dc:	01 00 00 00 	nop 
    47e0:	80 a2 20 01 	cmp  %o0, 1
    47e4:	12 80 00 16 	bne  483c <getspnam_plususer+0x110>
    47e8:	b0 10 00 08 	mov  %o0, %i0
    47ec:	40 00 4e 7e 	call  181e4 <strlen@plt>
    47f0:	d0 06 40 00 	ld  [ %i1 ], %o0
    47f4:	92 10 00 08 	mov  %o0, %o1
    47f8:	94 10 00 1a 	mov  %i2, %o2
    47fc:	7f ff ff b1 	call  46c0 <in_blacklist>
    4800:	d0 06 40 00 	ld  [ %i1 ], %o0
    4804:	80 a2 20 00 	cmp  %o0, 0
    4808:	94 10 00 1b 	mov  %i3, %o2
    480c:	96 10 00 10 	mov  %l0, %o3
    4810:	92 10 00 11 	mov  %l1, %o1
    4814:	90 10 00 19 	mov  %i1, %o0
    4818:	12 80 00 09 	bne  483c <getspnam_plususer+0x110>
    481c:	b0 10 20 00 	clr  %i0
    4820:	7f ff fe 88 	call  4240 <copy_spwd_changes>
    4824:	b0 10 20 01 	mov  1, %i0
    4828:	7f ff fe 5e 	call  41a0 <give_spwd_free>
    482c:	90 10 00 11 	mov  %l1, %o0
    4830:	30 80 00 03 	b,a   483c <getspnam_plususer+0x110>
    4834:	82 10 20 22 	mov  0x22, %g1
    4838:	c2 27 40 00 	st  %g1, [ %i5 ]
    483c:	81 c7 e0 08 	ret 
    4840:	81 e8 00 00 	restore 

00004844 <_nss_compat_getspnam_r>:
_nss_compat_getspnam_r():
    4844:	9d e3 bf 18 	save  %sp, -232, %sp
    4848:	03 00 00 00 	sethi  %hi(0), %g1
    484c:	2f 00 00 4d 	sethi  %hi(0x13400), %l7
    4850:	7f ff fe 18 	call  40b0 <_nss_compat_getpwent_r+0x168>
    4854:	ae 05 e3 b0 	add  %l7, 0x3b0, %l7	! 137b0 <__FRAME_END__+0xd488>
    4858:	82 10 60 dc 	or  %g1, 0xdc, %g1
    485c:	a4 07 bf 88 	add  %fp, -120, %l2
    4860:	d2 05 c0 01 	ld  [ %l7 + %g1 ], %o1
    4864:	90 10 00 12 	mov  %l2, %o0
    4868:	40 00 4e 7a 	call  18250 <memcpy@plt>
    486c:	94 10 20 68 	mov  0x68, %o2
    4870:	c2 4e 00 00 	ldsb  [ %i0 ], %g1
    4874:	84 18 60 2d 	xor  %g1, 0x2d, %g2
    4878:	80 a0 00 02 	cmp  %g0, %g2
    487c:	86 60 3f ff 	subx  %g0, -1, %g3
    4880:	82 18 60 2b 	xor  %g1, 0x2b, %g1
    4884:	80 a0 00 01 	cmp  %g0, %g1
    4888:	84 60 3f ff 	subx  %g0, -1, %g2
    488c:	a6 10 00 18 	mov  %i0, %l3
    4890:	80 90 c0 02 	orcc  %g3, %g2, %g0
    4894:	12 80 00 ed 	bne  4c48 <_nss_compat_getspnam_r+0x404>
    4898:	90 10 20 00 	clr  %o0
    489c:	03 00 00 00 	sethi  %hi(0), %g1
    48a0:	82 10 61 1c 	or  %g1, 0x11c, %g1	! 11c <GLIBC_PRIVATE+0x11c>
    48a4:	c4 05 c0 01 	ld  [ %l7 + %g1 ], %g2
    48a8:	80 a0 a0 00 	cmp  %g2, 0
    48ac:	02 80 00 05 	be  48c0 <_nss_compat_getspnam_r+0x7c>
    48b0:	03 00 00 00 	sethi  %hi(0), %g1
    48b4:	82 10 60 b4 	or  %g1, 0xb4, %g1	! b4 <GLIBC_PRIVATE+0xb4>
    48b8:	9f c0 80 00 	call  %g2
    48bc:	d0 05 c0 01 	ld  [ %l7 + %g1 ], %o0
    48c0:	03 00 00 00 	sethi  %hi(0), %g1
    48c4:	82 10 60 a0 	or  %g1, 0xa0, %g1	! a0 <GLIBC_PRIVATE+0xa0>
    48c8:	c4 05 c0 01 	ld  [ %l7 + %g1 ], %g2
    48cc:	c6 00 80 00 	ld  [ %g2 ], %g3
    48d0:	80 a0 e0 00 	cmp  %g3, 0
    48d4:	02 80 00 68 	be  4a74 <_nss_compat_getspnam_r+0x230>
    48d8:	01 00 00 00 	nop 
    48dc:	03 00 00 00 	sethi  %hi(0), %g1
    48e0:	82 10 61 24 	or  %g1, 0x124, %g1	! 124 <GLIBC_PRIVATE+0x124>
    48e4:	c4 05 c0 01 	ld  [ %l7 + %g1 ], %g2
    48e8:	80 a0 a0 00 	cmp  %g2, 0
    48ec:	02 80 00 05 	be  4900 <_nss_compat_getspnam_r+0xbc>
    48f0:	03 00 00 00 	sethi  %hi(0), %g1
    48f4:	82 10 60 b4 	or  %g1, 0xb4, %g1	! b4 <GLIBC_PRIVATE+0xb4>
    48f8:	9f c0 80 00 	call  %g2
    48fc:	d0 05 c0 01 	ld  [ %l7 + %g1 ], %o0
    4900:	90 10 00 12 	mov  %l2, %o0
    4904:	7f ff fe 93 	call  4350 <internal_setspent>
    4908:	92 10 20 00 	clr  %o1
    490c:	b0 10 00 08 	mov  %o0, %i0
    4910:	80 a2 20 01 	cmp  %o0, 1
    4914:	a8 07 bf 78 	add  %fp, -136, %l4
    4918:	02 80 00 14 	be  4968 <_nss_compat_getspnam_r+0x124>
    491c:	a2 06 80 1b 	add  %i2, %i3, %l1
    4920:	7f ff ff 13 	call  456c <internal_endspent>
    4924:	90 10 00 12 	mov  %l2, %o0
    4928:	10 80 00 c8 	b  4c48 <_nss_compat_getspnam_r+0x404>
    492c:	90 10 00 18 	mov  %i0, %o0
    4930:	22 80 00 86 	be,a   4b48 <_nss_compat_getspnam_r+0x304>
    4934:	c2 4c 20 01 	ldsb  [ %l0 + 1 ], %g1
    4938:	c2 4c 00 00 	ldsb  [ %l0 ], %g1
    493c:	80 a0 60 2b 	cmp  %g1, 0x2b
    4940:	22 80 00 93 	be,a   4b8c <_nss_compat_getspnam_r+0x348>
    4944:	c2 4c 20 01 	ldsb  [ %l0 + 1 ], %g1
    4948:	c2 4c 00 00 	ldsb  [ %l0 ], %g1
    494c:	80 a0 60 2d 	cmp  %g1, 0x2d
    4950:	22 80 00 a9 	be,a   4bf4 <_nss_compat_getspnam_r+0x3b0>
    4954:	c2 4c 20 01 	ldsb  [ %l0 + 1 ], %g1
    4958:	c2 4c 00 00 	ldsb  [ %l0 ], %g1
    495c:	80 a0 60 2b 	cmp  %g1, 0x2b
    4960:	22 80 00 49 	be,a   4a84 <_nss_compat_getspnam_r+0x240>
    4964:	c2 4c 20 01 	ldsb  [ %l0 + 1 ], %g1
    4968:	80 a6 e0 02 	cmp  %i3, 2
    496c:	08 80 00 72 	bleu  4b34 <_nss_compat_getspnam_r+0x2f0>
    4970:	92 10 00 14 	mov  %l4, %o1
    4974:	40 00 4e 52 	call  182bc <fgetpos@plt>
    4978:	d0 04 a0 08 	ld  [ %l2 + 8 ], %o0
    497c:	82 10 3f ff 	mov  -1, %g1
    4980:	c2 2c 7f ff 	stb  %g1, [ %l1 + -1 ]
    4984:	90 10 00 1a 	mov  %i2, %o0
    4988:	92 10 00 1b 	mov  %i3, %o1
    498c:	40 00 4e 0d 	call  181c0 <fgets_unlocked@plt>
    4990:	d4 04 a0 08 	ld  [ %l2 + 8 ], %o2
    4994:	a0 92 20 00 	orcc  %o0, 0, %l0
    4998:	22 80 00 60 	be,a   4b18 <_nss_compat_getspnam_r+0x2d4>
    499c:	c2 04 a0 08 	ld  [ %l2 + 8 ], %g1
    49a0:	c2 4c 7f ff 	ldsb  [ %l1 + -1 ], %g1
    49a4:	80 a0 7f ff 	cmp  %g1, -1
    49a8:	12 80 00 61 	bne  4b2c <_nss_compat_getspnam_r+0x2e8>
    49ac:	92 10 00 14 	mov  %l4, %o1
    49b0:	40 00 4e 49 	call  182d4 <__ctype_b_loc@plt>
    49b4:	c0 2c 7f ff 	clrb  [ %l1 + -1 ]
    49b8:	d0 02 00 00 	ld  [ %o0 ], %o0
    49bc:	c6 4c 00 00 	ldsb  [ %l0 ], %g3
    49c0:	82 00 c0 03 	add  %g3, %g3, %g1
    49c4:	c4 12 00 01 	lduh  [ %o0 + %g1 ], %g2
    49c8:	80 88 a0 20 	btst  0x20, %g2
    49cc:	32 bf ff fc 	bne,a   49bc <_nss_compat_getspnam_r+0x178>
    49d0:	a0 04 20 01 	inc  %l0
    49d4:	80 a0 00 03 	cmp  %g0, %g3
    49d8:	82 60 3f ff 	subx  %g0, -1, %g1
    49dc:	84 18 e0 23 	xor  %g3, 0x23, %g2
    49e0:	80 a0 00 02 	cmp  %g0, %g2
    49e4:	86 60 3f ff 	subx  %g0, -1, %g3
    49e8:	80 90 40 03 	orcc  %g1, %g3, %g0
    49ec:	12 bf ff e0 	bne  496c <_nss_compat_getspnam_r+0x128>
    49f0:	80 a6 e0 02 	cmp  %i3, 2
    49f4:	90 10 00 10 	mov  %l0, %o0
    49f8:	92 10 00 19 	mov  %i1, %o1
    49fc:	94 10 00 1a 	mov  %i2, %o2
    4a00:	96 10 00 1b 	mov  %i3, %o3
    4a04:	40 00 4e 04 	call  18214 <_nss_files_parse_spent@plt>
    4a08:	98 10 00 1c 	mov  %i4, %o4
    4a0c:	80 a2 20 00 	cmp  %o0, 0
    4a10:	02 bf ff d7 	be  496c <_nss_compat_getspnam_r+0x128>
    4a14:	80 a6 e0 02 	cmp  %i3, 2
    4a18:	80 a2 3f ff 	cmp  %o0, -1
    4a1c:	02 80 00 44 	be  4b2c <_nss_compat_getspnam_r+0x2e8>
    4a20:	92 10 00 14 	mov  %l4, %o1
    4a24:	e0 06 40 00 	ld  [ %i1 ], %l0
    4a28:	c8 4c 00 00 	ldsb  [ %l0 ], %g4
    4a2c:	82 19 20 2b 	xor  %g4, 0x2b, %g1
    4a30:	80 a0 00 01 	cmp  %g0, %g1
    4a34:	86 40 20 00 	addx  %g0, 0, %g3
    4a38:	82 19 20 2d 	xor  %g4, 0x2d, %g1
    4a3c:	80 a0 00 01 	cmp  %g0, %g1
    4a40:	84 40 20 00 	addx  %g0, 0, %g2
    4a44:	80 88 c0 02 	btst  %g3, %g2
    4a48:	02 bf ff ba 	be  4930 <_nss_compat_getspnam_r+0xec>
    4a4c:	80 a1 20 2d 	cmp  %g4, 0x2d
    4a50:	90 10 00 10 	mov  %l0, %o0
    4a54:	40 00 4d c3 	call  18160 <strcmp@plt>
    4a58:	92 10 00 13 	mov  %l3, %o1
    4a5c:	80 a2 20 00 	cmp  %o0, 0
    4a60:	12 bf ff c3 	bne  496c <_nss_compat_getspnam_r+0x128>
    4a64:	80 a6 e0 02 	cmp  %i3, 2
    4a68:	90 10 20 01 	mov  1, %o0
    4a6c:	10 bf ff ad 	b  4920 <_nss_compat_getspnam_r+0xdc>
    4a70:	b0 10 00 08 	mov  %o0, %i0
    4a74:	7f ff fd 91 	call  40b8 <init_nss_interface>
    4a78:	01 00 00 00 	nop 
    4a7c:	10 bf ff 99 	b  48e0 <_nss_compat_getspnam_r+0x9c>
    4a80:	03 00 00 00 	sethi  %hi(0), %g1
    4a84:	80 a0 60 00 	cmp  %g1, 0
    4a88:	22 80 00 0b 	be,a   4ab4 <_nss_compat_getspnam_r+0x270>
    4a8c:	c2 4c 00 00 	ldsb  [ %l0 ], %g1
    4a90:	80 a0 60 40 	cmp  %g1, 0x40
    4a94:	02 80 00 07 	be  4ab0 <_nss_compat_getspnam_r+0x26c>
    4a98:	90 10 00 13 	mov  %l3, %o0
    4a9c:	40 00 4d b1 	call  18160 <strcmp@plt>
    4aa0:	92 04 20 01 	add  %l0, 1, %o1
    4aa4:	80 a2 20 00 	cmp  %o0, 0
    4aa8:	02 80 00 60 	be  4c28 <_nss_compat_getspnam_r+0x3e4>
    4aac:	90 10 00 13 	mov  %l3, %o0
    4ab0:	c2 4c 00 00 	ldsb  [ %l0 ], %g1
    4ab4:	80 a0 60 2b 	cmp  %g1, 0x2b
    4ab8:	12 bf ff ad 	bne  496c <_nss_compat_getspnam_r+0x128>
    4abc:	80 a6 e0 02 	cmp  %i3, 2
    4ac0:	c2 4c 20 01 	ldsb  [ %l0 + 1 ], %g1
    4ac4:	80 a0 60 00 	cmp  %g1, 0
    4ac8:	12 bf ff a9 	bne  496c <_nss_compat_getspnam_r+0x128>
    4acc:	80 a6 e0 02 	cmp  %i3, 2
    4ad0:	90 10 00 13 	mov  %l3, %o0
    4ad4:	92 10 00 19 	mov  %i1, %o1
    4ad8:	96 10 00 1a 	mov  %i2, %o3
    4adc:	98 10 00 1b 	mov  %i3, %o4
    4ae0:	9a 10 00 1c 	mov  %i4, %o5
    4ae4:	7f ff ff 12 	call  472c <getspnam_plususer>
    4ae8:	94 10 00 12 	mov  %l2, %o2
    4aec:	82 10 00 08 	mov  %o0, %g1
    4af0:	80 a2 20 01 	cmp  %o0, 1
    4af4:	02 bf ff de 	be  4a6c <_nss_compat_getspnam_r+0x228>
    4af8:	90 10 20 01 	mov  1, %o0
    4afc:	90 10 00 01 	mov  %g1, %o0
    4b00:	80 a2 20 02 	cmp  %o0, 2
    4b04:	32 bf ff 87 	bne,a   4920 <_nss_compat_getspnam_r+0xdc>
    4b08:	b0 10 00 08 	mov  %o0, %i0
    4b0c:	90 10 20 00 	clr  %o0
    4b10:	10 bf ff 84 	b  4920 <_nss_compat_getspnam_r+0xdc>
    4b14:	b0 10 00 08 	mov  %o0, %i0
    4b18:	c4 00 40 00 	ld  [ %g1 ], %g2
    4b1c:	80 88 a0 10 	btst  0x10, %g2
    4b20:	12 bf ff d3 	bne  4a6c <_nss_compat_getspnam_r+0x228>
    4b24:	90 10 20 00 	clr  %o0
    4b28:	92 10 00 14 	mov  %l4, %o1
    4b2c:	40 00 4d 93 	call  18178 <fsetpos@plt>
    4b30:	d0 04 a0 08 	ld  [ %l2 + 8 ], %o0
    4b34:	82 10 20 22 	mov  0x22, %g1
    4b38:	90 10 3f fe 	mov  -2, %o0
    4b3c:	c2 27 00 00 	st  %g1, [ %i4 ]
    4b40:	10 bf ff 78 	b  4920 <_nss_compat_getspnam_r+0xdc>
    4b44:	b0 10 00 08 	mov  %o0, %i0
    4b48:	80 a0 60 40 	cmp  %g1, 0x40
    4b4c:	32 bf ff 7c 	bne,a   493c <_nss_compat_getspnam_r+0xf8>
    4b50:	c2 4c 00 00 	ldsb  [ %l0 ], %g1
    4b54:	c2 4c 20 02 	ldsb  [ %l0 + 2 ], %g1
    4b58:	80 a0 60 00 	cmp  %g1, 0
    4b5c:	22 bf ff 78 	be,a   493c <_nss_compat_getspnam_r+0xf8>
    4b60:	c2 4c 00 00 	ldsb  [ %l0 ], %g1
    4b64:	90 04 20 02 	add  %l0, 2, %o0
    4b68:	92 10 20 00 	clr  %o1
    4b6c:	94 10 00 13 	mov  %l3, %o2
    4b70:	40 00 4d b2 	call  18238 <innetgr@plt>
    4b74:	96 10 20 00 	clr  %o3
    4b78:	80 a2 20 00 	cmp  %o0, 0
    4b7c:	02 bf ff 7c 	be  496c <_nss_compat_getspnam_r+0x128>
    4b80:	80 a6 e0 02 	cmp  %i3, 2
    4b84:	10 bf ff e3 	b  4b10 <_nss_compat_getspnam_r+0x2cc>
    4b88:	90 10 20 00 	clr  %o0
    4b8c:	80 a0 60 40 	cmp  %g1, 0x40
    4b90:	32 bf ff 6f 	bne,a   494c <_nss_compat_getspnam_r+0x108>
    4b94:	c2 4c 00 00 	ldsb  [ %l0 ], %g1
    4b98:	c2 4c 20 02 	ldsb  [ %l0 + 2 ], %g1
    4b9c:	80 a0 60 00 	cmp  %g1, 0
    4ba0:	22 bf ff 6b 	be,a   494c <_nss_compat_getspnam_r+0x108>
    4ba4:	c2 4c 00 00 	ldsb  [ %l0 ], %g1
    4ba8:	90 04 20 02 	add  %l0, 2, %o0
    4bac:	92 10 20 00 	clr  %o1
    4bb0:	94 10 00 13 	mov  %l3, %o2
    4bb4:	40 00 4d a1 	call  18238 <innetgr@plt>
    4bb8:	96 10 20 00 	clr  %o3
    4bbc:	80 a2 20 00 	cmp  %o0, 0
    4bc0:	02 bf ff 6b 	be  496c <_nss_compat_getspnam_r+0x128>
    4bc4:	80 a6 e0 02 	cmp  %i3, 2
    4bc8:	90 10 00 13 	mov  %l3, %o0
    4bcc:	92 10 00 19 	mov  %i1, %o1
    4bd0:	94 10 00 12 	mov  %l2, %o2
    4bd4:	96 10 00 1a 	mov  %i2, %o3
    4bd8:	98 10 00 1b 	mov  %i3, %o4
    4bdc:	7f ff fe d4 	call  472c <getspnam_plususer>
    4be0:	9a 10 00 1c 	mov  %i4, %o5
    4be4:	80 a2 20 02 	cmp  %o0, 2
    4be8:	02 bf ff 60 	be  4968 <_nss_compat_getspnam_r+0x124>
    4bec:	b0 10 00 08 	mov  %o0, %i0
    4bf0:	30 bf ff 4c 	b,a   4920 <_nss_compat_getspnam_r+0xdc>
    4bf4:	80 a0 60 00 	cmp  %g1, 0
    4bf8:	22 bf ff 59 	be,a   495c <_nss_compat_getspnam_r+0x118>
    4bfc:	c2 4c 00 00 	ldsb  [ %l0 ], %g1
    4c00:	80 a0 60 40 	cmp  %g1, 0x40
    4c04:	02 bf ff 55 	be  4958 <_nss_compat_getspnam_r+0x114>
    4c08:	90 04 20 01 	add  %l0, 1, %o0
    4c0c:	40 00 4d 55 	call  18160 <strcmp@plt>
    4c10:	92 10 00 13 	mov  %l3, %o1
    4c14:	80 a2 20 00 	cmp  %o0, 0
    4c18:	12 bf ff 55 	bne  496c <_nss_compat_getspnam_r+0x128>
    4c1c:	80 a6 e0 02 	cmp  %i3, 2
    4c20:	10 bf ff 40 	b  4920 <_nss_compat_getspnam_r+0xdc>
    4c24:	b0 10 00 08 	mov  %o0, %i0
    4c28:	92 10 00 19 	mov  %i1, %o1
    4c2c:	96 10 00 1a 	mov  %i2, %o3
    4c30:	98 10 00 1b 	mov  %i3, %o4
    4c34:	9a 10 00 1c 	mov  %i4, %o5
    4c38:	7f ff fe bd 	call  472c <getspnam_plususer>
    4c3c:	94 10 00 12 	mov  %l2, %o2
    4c40:	10 bf ff b1 	b  4b04 <_nss_compat_getspnam_r+0x2c0>
    4c44:	80 a2 20 02 	cmp  %o0, 2
    4c48:	81 c7 e0 08 	ret 
    4c4c:	91 e8 00 08 	restore  %g0, %o0, %o0

00004c50 <blacklist_store_name>:
blacklist_store_name():
    4c50:	9d e3 bf 90 	save  %sp, -112, %sp
    4c54:	40 00 4d 64 	call  181e4 <strlen@plt>
    4c58:	90 10 00 18 	mov  %i0, %o0
    4c5c:	c2 06 60 14 	ld  [ %i1 + 0x14 ], %g1
    4c60:	80 a0 60 00 	cmp  %g1, 0
    4c64:	12 80 00 1b 	bne  4cd0 <blacklist_store_name+0x80>
    4c68:	a0 10 00 08 	mov  %o0, %l0
    4c6c:	90 02 00 08 	add  %o0, %o0, %o0
    4c70:	80 a2 22 00 	cmp  %o0, 0x200
    4c74:	26 80 00 02 	bl,a   4c7c <blacklist_store_name+0x2c>
    4c78:	90 10 22 00 	mov  0x200, %o0
    4c7c:	40 00 4d 4b 	call  181a8 <malloc@plt>
    4c80:	d0 26 60 14 	st  %o0, [ %i1 + 0x14 ]
    4c84:	80 a2 20 00 	cmp  %o0, 0
    4c88:	02 80 00 31 	be  4d4c <blacklist_store_name+0xfc>
    4c8c:	d0 26 60 0c 	st  %o0, [ %i1 + 0xc ]
    4c90:	82 10 20 7c 	mov  0x7c, %g1
    4c94:	c2 2a 00 00 	stb  %g1, [ %o0 ]
    4c98:	c0 2a 20 01 	clrb  [ %o0 + 1 ]
    4c9c:	84 10 20 01 	mov  1, %g2
    4ca0:	c4 26 60 10 	st  %g2, [ %i1 + 0x10 ]
    4ca4:	90 02 00 02 	add  %o0, %g2, %o0
    4ca8:	40 00 4d 58 	call  18208 <stpcpy@plt>
    4cac:	92 10 00 18 	mov  %i0, %o1
    4cb0:	82 10 20 7c 	mov  0x7c, %g1
    4cb4:	c2 2a 00 00 	stb  %g1, [ %o0 ]
    4cb8:	c0 2a 20 01 	clrb  [ %o0 + 1 ]
    4cbc:	c2 06 60 10 	ld  [ %i1 + 0x10 ], %g1
    4cc0:	82 00 40 10 	add  %g1, %l0, %g1
    4cc4:	82 00 60 01 	inc  %g1
    4cc8:	10 80 00 21 	b  4d4c <blacklist_store_name+0xfc>
    4ccc:	c2 26 60 10 	st  %g1, [ %i1 + 0x10 ]
    4cd0:	90 10 00 18 	mov  %i0, %o0
    4cd4:	92 10 00 10 	mov  %l0, %o1
    4cd8:	7f ff fe 7a 	call  46c0 <in_blacklist>
    4cdc:	94 10 00 19 	mov  %i1, %o2
    4ce0:	80 a2 20 00 	cmp  %o0, 0
    4ce4:	12 80 00 1a 	bne  4d4c <blacklist_store_name+0xfc>
    4ce8:	01 00 00 00 	nop 
    4cec:	c4 06 60 10 	ld  [ %i1 + 0x10 ], %g2
    4cf0:	82 00 80 10 	add  %g2, %l0, %g1
    4cf4:	82 00 60 01 	inc  %g1
    4cf8:	c6 06 60 14 	ld  [ %i1 + 0x14 ], %g3
    4cfc:	80 a0 40 03 	cmp  %g1, %g3
    4d00:	26 bf ff e9 	bl,a   4ca4 <blacklist_store_name+0x54>
    4d04:	d0 06 60 0c 	ld  [ %i1 + 0xc ], %o0
    4d08:	92 04 00 10 	add  %l0, %l0, %o1
    4d0c:	80 a2 61 00 	cmp  %o1, 0x100
    4d10:	26 80 00 02 	bl,a   4d18 <blacklist_store_name+0xc8>
    4d14:	92 10 21 00 	mov  0x100, %o1
    4d18:	92 00 c0 09 	add  %g3, %o1, %o1
    4d1c:	d2 26 60 14 	st  %o1, [ %i1 + 0x14 ]
    4d20:	40 00 4d 43 	call  1822c <realloc@plt>
    4d24:	d0 06 60 0c 	ld  [ %i1 + 0xc ], %o0
    4d28:	80 a2 20 00 	cmp  %o0, 0
    4d2c:	02 80 00 05 	be  4d40 <blacklist_store_name+0xf0>
    4d30:	01 00 00 00 	nop 
    4d34:	d0 26 60 0c 	st  %o0, [ %i1 + 0xc ]
    4d38:	10 bf ff db 	b  4ca4 <blacklist_store_name+0x54>
    4d3c:	c4 06 60 10 	ld  [ %i1 + 0x10 ], %g2
    4d40:	40 00 4d 53 	call  1828c <free@plt>
    4d44:	d0 06 60 0c 	ld  [ %i1 + 0xc ], %o0
    4d48:	c0 26 60 14 	clr  [ %i1 + 0x14 ]
    4d4c:	81 c7 e0 08 	ret 
    4d50:	81 e8 00 00 	restore 

00004d54 <getspent_next_nss_netgr>:
getspent_next_nss_netgr():
    4d54:	9d e3 bf 78 	save  %sp, -136, %sp
    4d58:	23 00 00 00 	sethi  %hi(0), %l1
    4d5c:	2f 00 00 4c 	sethi  %hi(0x13000), %l7
    4d60:	7f ff fc d4 	call  40b0 <_nss_compat_getpwent_r+0x168>
    4d64:	ae 05 e2 a0 	add  %l7, 0x2a0, %l7	! 132a0 <__FRAME_END__+0xcf78>
    4d68:	82 14 60 a8 	or  %l1, 0xa8, %g1
    4d6c:	c4 05 c0 01 	ld  [ %l7 + %g1 ], %g2
    4d70:	c6 00 80 00 	ld  [ %g2 ], %g3
    4d74:	80 a0 e0 00 	cmp  %g3, 0
    4d78:	e4 07 a0 5c 	ld  [ %fp + 0x5c ], %l2
    4d7c:	02 80 00 7a 	be  4f64 <getspent_next_nss_netgr+0x210>
    4d80:	82 10 3f ff 	mov  -1, %g1
    4d84:	c2 06 a0 04 	ld  [ %i2 + 4 ], %g1
    4d88:	80 a0 60 01 	cmp  %g1, 1
    4d8c:	12 80 00 76 	bne  4f64 <getspent_next_nss_netgr+0x210>
    4d90:	01 00 00 00 	nop 
    4d94:	40 00 4d 53 	call  182e0 <yp_get_default_domain@plt>
    4d98:	90 07 bf ec 	add  %fp, -20, %o0
    4d9c:	80 a2 20 00 	cmp  %o0, 0
    4da0:	32 80 00 6d 	bne,a   4f54 <getspent_next_nss_netgr+0x200>
    4da4:	c0 2e 80 00 	clrb  [ %i2 ]
    4da8:	c2 0e a0 02 	ldub  [ %i2 + 2 ], %g1
    4dac:	80 a0 60 01 	cmp  %g1, 1
    4db0:	02 80 00 4e 	be  4ee8 <getspent_next_nss_netgr+0x194>
    4db4:	a0 06 a0 3c 	add  %i2, 0x3c, %l0
    4db8:	a8 14 60 a8 	or  %l1, 0xa8, %l4
    4dbc:	a6 06 a0 18 	add  %i2, 0x18, %l3
    4dc0:	e4 23 a0 5c 	st  %l2, [ %sp + 0x5c ]
    4dc4:	9a 10 00 1d 	mov  %i5, %o5
    4dc8:	92 07 bf e4 	add  %fp, -28, %o1
    4dcc:	94 07 bf e0 	add  %fp, -32, %o2
    4dd0:	96 10 00 10 	mov  %l0, %o3
    4dd4:	98 10 00 1c 	mov  %i4, %o4
    4dd8:	40 00 4c e5 	call  1816c <__internal_getnetgrent_r@plt>
    4ddc:	90 07 bf e8 	add  %fp, -24, %o0
    4de0:	80 a2 20 01 	cmp  %o0, 1
    4de4:	12 80 00 51 	bne  4f28 <getspent_next_nss_netgr+0x1d4>
    4de8:	f6 07 bf e4 	ld  [ %fp + -28 ], %i3
    4dec:	80 a6 e0 00 	cmp  %i3, 0
    4df0:	22 bf ff f5 	be,a   4dc4 <getspent_next_nss_netgr+0x70>
    4df4:	e4 23 a0 5c 	st  %l2, [ %sp + 0x5c ]
    4df8:	c2 4e c0 00 	ldsb  [ %i3 ], %g1
    4dfc:	80 a0 60 2d 	cmp  %g1, 0x2d
    4e00:	02 bf ff f0 	be  4dc0 <getspent_next_nss_netgr+0x6c>
    4e04:	c2 07 bf e0 	ld  [ %fp + -32 ], %g1
    4e08:	92 90 60 00 	orcc  %g1, 0, %o1
    4e0c:	22 80 00 08 	be,a   4e2c <getspent_next_nss_netgr+0xd8>
    4e10:	92 10 00 18 	mov  %i0, %o1
    4e14:	40 00 4c d3 	call  18160 <strcmp@plt>
    4e18:	d0 07 bf ec 	ld  [ %fp + -20 ], %o0
    4e1c:	80 a2 20 00 	cmp  %o0, 0
    4e20:	32 bf ff e9 	bne,a   4dc4 <getspent_next_nss_netgr+0x70>
    4e24:	e4 23 a0 5c 	st  %l2, [ %sp + 0x5c ]
    4e28:	92 10 00 18 	mov  %i0, %o1
    4e2c:	80 a6 20 00 	cmp  %i0, 0
    4e30:	02 80 00 07 	be  4e4c <getspent_next_nss_netgr+0xf8>
    4e34:	90 10 00 1b 	mov  %i3, %o0
    4e38:	40 00 4c ca 	call  18160 <strcmp@plt>
    4e3c:	01 00 00 00 	nop 
    4e40:	80 a2 20 00 	cmp  %o0, 0
    4e44:	32 bf ff e0 	bne,a   4dc4 <getspent_next_nss_netgr+0x70>
    4e48:	e4 23 a0 5c 	st  %l2, [ %sp + 0x5c ]
    4e4c:	7f ff fc f3 	call  4218 <spwd_need_buflen>
    4e50:	90 10 00 13 	mov  %l3, %o0
    4e54:	82 27 40 08 	sub  %i5, %o0, %g1
    4e58:	a2 10 00 08 	mov  %o0, %l1
    4e5c:	90 10 00 1b 	mov  %i3, %o0
    4e60:	80 a4 40 1d 	cmp  %l1, %i5
    4e64:	92 10 00 19 	mov  %i1, %o1
    4e68:	94 10 00 1c 	mov  %i4, %o2
    4e6c:	98 10 00 12 	mov  %l2, %o4
    4e70:	b6 00 40 1c 	add  %g1, %i4, %i3
    4e74:	ba 10 00 01 	mov  %g1, %i5
    4e78:	18 80 00 33 	bgu  4f44 <getspent_next_nss_netgr+0x1f0>
    4e7c:	96 10 00 01 	mov  %g1, %o3
    4e80:	c2 05 c0 14 	ld  [ %l7 + %l4 ], %g1
    4e84:	c4 00 40 00 	ld  [ %g1 ], %g2
    4e88:	9f c0 80 00 	call  %g2
    4e8c:	01 00 00 00 	nop 
    4e90:	80 a2 20 01 	cmp  %o0, 1
    4e94:	32 bf ff cc 	bne,a   4dc4 <getspent_next_nss_netgr+0x70>
    4e98:	e4 23 a0 5c 	st  %l2, [ %sp + 0x5c ]
    4e9c:	40 00 4c d2 	call  181e4 <strlen@plt>
    4ea0:	d0 06 40 00 	ld  [ %i1 ], %o0
    4ea4:	92 10 00 08 	mov  %o0, %o1
    4ea8:	d0 06 40 00 	ld  [ %i1 ], %o0
    4eac:	7f ff fe 05 	call  46c0 <in_blacklist>
    4eb0:	94 10 00 1a 	mov  %i2, %o2
    4eb4:	80 a2 20 00 	cmp  %o0, 0
    4eb8:	32 bf ff c3 	bne,a   4dc4 <getspent_next_nss_netgr+0x70>
    4ebc:	e4 23 a0 5c 	st  %l2, [ %sp + 0x5c ]
    4ec0:	92 10 00 1a 	mov  %i2, %o1
    4ec4:	7f ff ff 63 	call  4c50 <blacklist_store_name>
    4ec8:	d0 06 40 00 	ld  [ %i1 ], %o0
    4ecc:	90 10 00 19 	mov  %i1, %o0
    4ed0:	92 10 00 13 	mov  %l3, %o1
    4ed4:	94 10 00 1b 	mov  %i3, %o2
    4ed8:	7f ff fc da 	call  4240 <copy_spwd_changes>
    4edc:	96 10 00 11 	mov  %l1, %o3
    4ee0:	10 80 00 21 	b  4f64 <getspent_next_nss_netgr+0x210>
    4ee4:	82 10 20 01 	mov  1, %g1
    4ee8:	c0 26 a0 3c 	clr  [ %i2 + 0x3c ]
    4eec:	c0 26 a0 40 	clr  [ %i2 + 0x40 ]
    4ef0:	c0 26 a0 44 	clr  [ %i2 + 0x44 ]
    4ef4:	c0 26 a0 48 	clr  [ %i2 + 0x48 ]
    4ef8:	c0 26 a0 4c 	clr  [ %i2 + 0x4c ]
    4efc:	c0 26 a0 50 	clr  [ %i2 + 0x50 ]
    4f00:	c0 26 a0 54 	clr  [ %i2 + 0x54 ]
    4f04:	c0 26 a0 58 	clr  [ %i2 + 0x58 ]
    4f08:	c0 26 a0 5c 	clr  [ %i2 + 0x5c ]
    4f0c:	c0 26 a0 60 	clr  [ %i2 + 0x60 ]
    4f10:	c0 26 a0 64 	clr  [ %i2 + 0x64 ]
    4f14:	90 10 00 1b 	mov  %i3, %o0
    4f18:	40 00 4c b6 	call  181f0 <__internal_setnetgrent@plt>
    4f1c:	92 10 00 10 	mov  %l0, %o1
    4f20:	10 bf ff a6 	b  4db8 <getspent_next_nss_netgr+0x64>
    4f24:	c0 2e a0 02 	clrb  [ %i2 + 2 ]
    4f28:	40 00 4c 97 	call  18184 <__internal_endnetgrent@plt>
    4f2c:	90 10 00 10 	mov  %l0, %o0
    4f30:	c0 2e 80 00 	clrb  [ %i2 ]
    4f34:	7f ff fc 9b 	call  41a0 <give_spwd_free>
    4f38:	90 10 00 13 	mov  %l3, %o0
    4f3c:	10 80 00 0a 	b  4f64 <getspent_next_nss_netgr+0x210>
    4f40:	82 10 20 02 	mov  2, %g1
    4f44:	82 10 20 22 	mov  0x22, %g1
    4f48:	c2 24 80 00 	st  %g1, [ %l2 ]
    4f4c:	10 80 00 06 	b  4f64 <getspent_next_nss_netgr+0x210>
    4f50:	82 10 3f fe 	mov  -2, %g1
    4f54:	c0 2e a0 02 	clrb  [ %i2 + 2 ]
    4f58:	7f ff fc 92 	call  41a0 <give_spwd_free>
    4f5c:	90 06 a0 18 	add  %i2, 0x18, %o0
    4f60:	82 10 3f ff 	mov  -1, %g1
    4f64:	81 c7 e0 08 	ret 
    4f68:	91 e8 00 01 	restore  %g0, %g1, %o0

00004f6c <getspent_next_nss>:
getspent_next_nss():
    4f6c:	9d e3 bf 90 	save  %sp, -112, %sp
    4f70:	03 00 00 00 	sethi  %hi(0), %g1
    4f74:	2f 00 00 4c 	sethi  %hi(0x13000), %l7
    4f78:	7f ff fc 4e 	call  40b0 <_nss_compat_getpwent_r+0x168>
    4f7c:	ae 05 e0 88 	add  %l7, 0x88, %l7	! 13088 <__FRAME_END__+0xcd60>
    4f80:	82 10 60 ac 	or  %g1, 0xac, %g1
    4f84:	e6 05 c0 01 	ld  [ %l7 + %g1 ], %l3
    4f88:	c4 04 c0 00 	ld  [ %l3 ], %g2
    4f8c:	80 a0 a0 00 	cmp  %g2, 0
    4f90:	02 80 00 27 	be  502c <getspent_next_nss+0xc0>
    4f94:	90 10 3f ff 	mov  -1, %o0
    4f98:	a4 06 60 18 	add  %i1, 0x18, %l2
    4f9c:	7f ff fc 9f 	call  4218 <spwd_need_buflen>
    4fa0:	90 10 00 12 	mov  %l2, %o0
    4fa4:	a0 26 c0 08 	sub  %i3, %o0, %l0
    4fa8:	80 a2 00 1b 	cmp  %o0, %i3
    4fac:	b6 10 00 13 	mov  %l3, %i3
    4fb0:	a2 10 00 08 	mov  %o0, %l1
    4fb4:	18 80 00 1b 	bgu  5020 <getspent_next_nss+0xb4>
    4fb8:	a6 04 00 1a 	add  %l0, %i2, %l3
    4fbc:	92 10 00 1a 	mov  %i2, %o1
    4fc0:	94 10 00 10 	mov  %l0, %o2
    4fc4:	96 10 00 1c 	mov  %i4, %o3
    4fc8:	c2 06 c0 00 	ld  [ %i3 ], %g1
    4fcc:	9f c0 40 00 	call  %g1
    4fd0:	90 10 00 18 	mov  %i0, %o0
    4fd4:	80 a2 20 01 	cmp  %o0, 1
    4fd8:	12 80 00 15 	bne  502c <getspent_next_nss+0xc0>
    4fdc:	01 00 00 00 	nop 
    4fe0:	40 00 4c 81 	call  181e4 <strlen@plt>
    4fe4:	d0 06 00 00 	ld  [ %i0 ], %o0
    4fe8:	92 10 00 08 	mov  %o0, %o1
    4fec:	d0 06 00 00 	ld  [ %i0 ], %o0
    4ff0:	7f ff fd b4 	call  46c0 <in_blacklist>
    4ff4:	94 10 00 19 	mov  %i1, %o2
    4ff8:	80 a2 20 00 	cmp  %o0, 0
    4ffc:	12 bf ff f1 	bne  4fc0 <getspent_next_nss+0x54>
    5000:	92 10 00 1a 	mov  %i2, %o1
    5004:	90 10 00 18 	mov  %i0, %o0
    5008:	92 10 00 12 	mov  %l2, %o1
    500c:	94 10 00 13 	mov  %l3, %o2
    5010:	7f ff fc 8c 	call  4240 <copy_spwd_changes>
    5014:	96 10 00 11 	mov  %l1, %o3
    5018:	10 80 00 05 	b  502c <getspent_next_nss+0xc0>
    501c:	90 10 20 01 	mov  1, %o0
    5020:	82 10 20 22 	mov  0x22, %g1
    5024:	c2 27 00 00 	st  %g1, [ %i4 ]
    5028:	90 10 3f fe 	mov  -2, %o0
    502c:	81 c7 e0 08 	ret 
    5030:	91 e8 00 08 	restore  %g0, %o0, %o0

00005034 <getspent_next_file>:
getspent_next_file():
    5034:	9d e3 bb 38 	save  %sp, -1224, %sp
    5038:	a8 10 00 18 	mov  %i0, %l4
    503c:	a6 07 bf e0 	add  %fp, -32, %l3
    5040:	a4 06 80 1b 	add  %i2, %i3, %l2
    5044:	ac 07 bb b0 	add  %fp, -1104, %l6
    5048:	ba 07 bb e0 	add  %fp, -1056, %i5
    504c:	80 a6 e0 02 	cmp  %i3, 2
    5050:	08 80 00 79 	bleu  5234 <getspent_next_file+0x200>
    5054:	82 10 20 22 	mov  0x22, %g1
    5058:	92 10 00 13 	mov  %l3, %o1
    505c:	40 00 4c 98 	call  182bc <fgetpos@plt>
    5060:	d0 06 60 08 	ld  [ %i1 + 8 ], %o0
    5064:	82 10 3f ff 	mov  -1, %g1
    5068:	c2 2c bf ff 	stb  %g1, [ %l2 + -1 ]
    506c:	90 10 00 1a 	mov  %i2, %o0
    5070:	92 10 00 1b 	mov  %i3, %o1
    5074:	40 00 4c 53 	call  181c0 <fgets_unlocked@plt>
    5078:	d4 06 60 08 	ld  [ %i1 + 8 ], %o2
    507c:	a0 92 20 00 	orcc  %o0, 0, %l0
    5080:	22 80 00 65 	be,a   5214 <getspent_next_file+0x1e0>
    5084:	c2 06 60 08 	ld  [ %i1 + 8 ], %g1
    5088:	c2 4c bf ff 	ldsb  [ %l2 + -1 ], %g1
    508c:	80 a0 7f ff 	cmp  %g1, -1
    5090:	32 80 00 66 	bne,a   5228 <getspent_next_file+0x1f4>
    5094:	d0 06 60 08 	ld  [ %i1 + 8 ], %o0
    5098:	40 00 4c 8f 	call  182d4 <__ctype_b_loc@plt>
    509c:	01 00 00 00 	nop 
    50a0:	d0 02 00 00 	ld  [ %o0 ], %o0
    50a4:	c6 4c 00 00 	ldsb  [ %l0 ], %g3
    50a8:	82 00 c0 03 	add  %g3, %g3, %g1
    50ac:	c4 12 00 01 	lduh  [ %o0 + %g1 ], %g2
    50b0:	80 88 a0 20 	btst  0x20, %g2
    50b4:	32 bf ff fc 	bne,a   50a4 <getspent_next_file+0x70>
    50b8:	a0 04 20 01 	inc  %l0
    50bc:	80 a0 00 03 	cmp  %g0, %g3
    50c0:	82 60 3f ff 	subx  %g0, -1, %g1
    50c4:	84 18 e0 23 	xor  %g3, 0x23, %g2
    50c8:	80 a0 00 02 	cmp  %g0, %g2
    50cc:	86 60 3f ff 	subx  %g0, -1, %g3
    50d0:	80 90 40 03 	orcc  %g1, %g3, %g0
    50d4:	12 bf ff df 	bne  5050 <getspent_next_file+0x1c>
    50d8:	80 a6 e0 02 	cmp  %i3, 2
    50dc:	90 10 00 10 	mov  %l0, %o0
    50e0:	92 10 00 14 	mov  %l4, %o1
    50e4:	94 10 00 1a 	mov  %i2, %o2
    50e8:	96 10 00 1b 	mov  %i3, %o3
    50ec:	40 00 4c 4a 	call  18214 <_nss_files_parse_spent@plt>
    50f0:	98 10 00 1c 	mov  %i4, %o4
    50f4:	80 a2 20 00 	cmp  %o0, 0
    50f8:	02 bf ff d6 	be  5050 <getspent_next_file+0x1c>
    50fc:	80 a6 e0 02 	cmp  %i3, 2
    5100:	80 a2 3f ff 	cmp  %o0, -1
    5104:	22 80 00 49 	be,a   5228 <getspent_next_file+0x1f4>
    5108:	d0 06 60 08 	ld  [ %i1 + 8 ], %o0
    510c:	e2 05 00 00 	ld  [ %l4 ], %l1
    5110:	c8 4c 40 00 	ldsb  [ %l1 ], %g4
    5114:	82 19 20 2b 	xor  %g4, 0x2b, %g1
    5118:	80 a0 00 01 	cmp  %g0, %g1
    511c:	86 40 20 00 	addx  %g0, 0, %g3
    5120:	82 19 20 2d 	xor  %g4, 0x2d, %g1
    5124:	80 a0 00 01 	cmp  %g0, %g1
    5128:	84 40 20 00 	addx  %g0, 0, %g2
    512c:	80 88 c0 02 	btst  %g3, %g2
    5130:	12 80 00 af 	bne  53ec <getspent_next_file+0x3b8>
    5134:	80 a1 20 2d 	cmp  %g4, 0x2d
    5138:	22 80 00 42 	be,a   5240 <getspent_next_file+0x20c>
    513c:	c2 4c 60 01 	ldsb  [ %l1 + 1 ], %g1
    5140:	c2 4c 40 00 	ldsb  [ %l1 ], %g1
    5144:	80 a0 60 2b 	cmp  %g1, 0x2b
    5148:	22 80 00 71 	be,a   530c <getspent_next_file+0x2d8>
    514c:	c2 4c 60 01 	ldsb  [ %l1 + 1 ], %g1
    5150:	c2 4c 40 00 	ldsb  [ %l1 ], %g1
    5154:	80 a0 60 2d 	cmp  %g1, 0x2d
    5158:	22 80 00 63 	be,a   52e4 <getspent_next_file+0x2b0>
    515c:	c2 4c 60 01 	ldsb  [ %l1 + 1 ], %g1
    5160:	c2 4c 40 00 	ldsb  [ %l1 ], %g1
    5164:	80 a0 60 2b 	cmp  %g1, 0x2b
    5168:	12 bf ff ba 	bne  5050 <getspent_next_file+0x1c>
    516c:	80 a6 e0 02 	cmp  %i3, 2
    5170:	c2 4c 60 01 	ldsb  [ %l1 + 1 ], %g1
    5174:	80 a0 60 00 	cmp  %g1, 0
    5178:	22 80 00 82 	be,a   5380 <getspent_next_file+0x34c>
    517c:	c2 4c 40 00 	ldsb  [ %l1 ], %g1
    5180:	80 a0 60 40 	cmp  %g1, 0x40
    5184:	02 80 00 7e 	be  537c <getspent_next_file+0x348>
    5188:	aa 10 00 0e 	mov  %sp, %l5
    518c:	40 00 4c 16 	call  181e4 <strlen@plt>
    5190:	90 10 00 11 	mov  %l1, %o0
    5194:	82 02 20 07 	add  %o0, 7, %g1
    5198:	82 08 7f f8 	and  %g1, -8, %g1
    519c:	9c 23 80 01 	sub  %sp, %g1, %sp
    51a0:	94 10 00 08 	mov  %o0, %o2
    51a4:	a0 03 a0 68 	add  %sp, 0x68, %l0
    51a8:	92 04 60 01 	add  %l1, 1, %o1
    51ac:	40 00 4c 29 	call  18250 <memcpy@plt>
    51b0:	90 10 00 10 	mov  %l0, %o0
    51b4:	d0 05 00 00 	ld  [ %l4 ], %o0
    51b8:	92 10 00 14 	mov  %l4, %o1
    51bc:	94 10 00 19 	mov  %i1, %o2
    51c0:	96 10 00 1a 	mov  %i2, %o3
    51c4:	98 10 00 1b 	mov  %i3, %o4
    51c8:	9a 10 00 1c 	mov  %i4, %o5
    51cc:	7f ff fd 58 	call  472c <getspnam_plususer>
    51d0:	90 02 20 01 	inc  %o0
    51d4:	b0 10 00 08 	mov  %o0, %i0
    51d8:	90 10 00 10 	mov  %l0, %o0
    51dc:	7f ff fe 9d 	call  4c50 <blacklist_store_name>
    51e0:	92 10 00 19 	mov  %i1, %o1
    51e4:	80 a6 20 01 	cmp  %i0, 1
    51e8:	02 80 00 80 	be  53e8 <getspent_next_file+0x3b4>
    51ec:	82 1e 20 02 	xor  %i0, 2, %g1
    51f0:	80 a0 00 01 	cmp  %g0, %g1
    51f4:	84 60 3f ff 	subx  %g0, -1, %g2
    51f8:	80 a0 00 18 	cmp  %g0, %i0
    51fc:	82 60 3f ff 	subx  %g0, -1, %g1
    5200:	80 90 80 01 	orcc  %g2, %g1, %g0
    5204:	02 80 00 7c 	be  53f4 <getspent_next_file+0x3c0>
    5208:	80 a6 3f fe 	cmp  %i0, -2
    520c:	10 bf ff 90 	b  504c <getspent_next_file+0x18>
    5210:	9c 10 00 15 	mov  %l5, %sp
    5214:	c4 00 40 00 	ld  [ %g1 ], %g2
    5218:	80 88 a0 10 	btst  0x10, %g2
    521c:	12 80 00 7f 	bne  5418 <getspent_next_file+0x3e4>
    5220:	90 10 20 00 	clr  %o0
    5224:	d0 06 60 08 	ld  [ %i1 + 8 ], %o0
    5228:	40 00 4b d4 	call  18178 <fsetpos@plt>
    522c:	92 10 00 13 	mov  %l3, %o1
    5230:	82 10 20 22 	mov  0x22, %g1
    5234:	c2 27 00 00 	st  %g1, [ %i4 ]
    5238:	10 80 00 78 	b  5418 <getspent_next_file+0x3e4>
    523c:	90 10 3f fe 	mov  -2, %o0
    5240:	80 a0 60 40 	cmp  %g1, 0x40
    5244:	32 bf ff c0 	bne,a   5144 <getspent_next_file+0x110>
    5248:	c2 4c 40 00 	ldsb  [ %l1 ], %g1
    524c:	c2 4c 60 02 	ldsb  [ %l1 + 2 ], %g1
    5250:	80 a0 60 00 	cmp  %g1, 0
    5254:	22 bf ff bc 	be,a   5144 <getspent_next_file+0x110>
    5258:	c2 4c 40 00 	ldsb  [ %l1 ], %g1
    525c:	84 10 20 00 	clr  %g2
    5260:	86 10 20 00 	clr  %g3
    5264:	c4 3f bb d0 	std  %g2, [ %fp + -1072 ]
    5268:	c4 3f bb b0 	std  %g2, [ %fp + -1104 ]
    526c:	c4 3f bb b8 	std  %g2, [ %fp + -1096 ]
    5270:	c4 3f bb c0 	std  %g2, [ %fp + -1088 ]
    5274:	c4 3f bb c8 	std  %g2, [ %fp + -1080 ]
    5278:	c0 27 bb d8 	clr  [ %fp + -1064 ]
    527c:	90 04 60 02 	add  %l1, 2, %o0
    5280:	40 00 4b dc 	call  181f0 <__internal_setnetgrent@plt>
    5284:	92 10 00 16 	mov  %l6, %o1
    5288:	f8 23 a0 5c 	st  %i4, [ %sp + 0x5c ]
    528c:	92 07 bb a8 	add  %fp, -1112, %o1
    5290:	94 07 bb a4 	add  %fp, -1116, %o2
    5294:	96 10 00 16 	mov  %l6, %o3
    5298:	98 10 00 1d 	mov  %i5, %o4
    529c:	9a 10 24 00 	mov  0x400, %o5
    52a0:	40 00 4b b3 	call  1816c <__internal_getnetgrent_r@plt>
    52a4:	90 07 bb ac 	add  %fp, -1108, %o0
    52a8:	80 a2 20 00 	cmp  %o0, 0
    52ac:	02 80 00 4b 	be  53d8 <getspent_next_file+0x3a4>
    52b0:	c2 07 bb a8 	ld  [ %fp + -1112 ], %g1
    52b4:	80 a0 60 00 	cmp  %g1, 0
    52b8:	22 bf ff f5 	be,a   528c <getspent_next_file+0x258>
    52bc:	f8 23 a0 5c 	st  %i4, [ %sp + 0x5c ]
    52c0:	90 10 00 01 	mov  %g1, %o0
    52c4:	c2 48 40 00 	ldsb  [ %g1 ], %g1
    52c8:	80 a0 60 2d 	cmp  %g1, 0x2d
    52cc:	02 bf ff ef 	be  5288 <getspent_next_file+0x254>
    52d0:	92 10 00 19 	mov  %i1, %o1
    52d4:	7f ff fe 5f 	call  4c50 <blacklist_store_name>
    52d8:	01 00 00 00 	nop 
    52dc:	10 bf ff ec 	b  528c <getspent_next_file+0x258>
    52e0:	f8 23 a0 5c 	st  %i4, [ %sp + 0x5c ]
    52e4:	80 a0 60 00 	cmp  %g1, 0
    52e8:	22 bf ff 9f 	be,a   5164 <getspent_next_file+0x130>
    52ec:	c2 4c 40 00 	ldsb  [ %l1 ], %g1
    52f0:	80 a0 60 40 	cmp  %g1, 0x40
    52f4:	02 bf ff 9b 	be  5160 <getspent_next_file+0x12c>
    52f8:	90 04 60 01 	add  %l1, 1, %o0
    52fc:	7f ff fe 55 	call  4c50 <blacklist_store_name>
    5300:	92 10 00 19 	mov  %i1, %o1
    5304:	10 bf ff 53 	b  5050 <getspent_next_file+0x1c>
    5308:	80 a6 e0 02 	cmp  %i3, 2
    530c:	80 a0 60 40 	cmp  %g1, 0x40
    5310:	32 bf ff 91 	bne,a   5154 <getspent_next_file+0x120>
    5314:	c2 4c 40 00 	ldsb  [ %l1 ], %g1
    5318:	c2 4c 60 02 	ldsb  [ %l1 + 2 ], %g1
    531c:	80 a0 60 00 	cmp  %g1, 0
    5320:	22 bf ff 8d 	be,a   5154 <getspent_next_file+0x120>
    5324:	c2 4c 40 00 	ldsb  [ %l1 ], %g1
    5328:	82 10 20 01 	mov  1, %g1
    532c:	c2 2e 60 02 	stb  %g1, [ %i1 + 2 ]
    5330:	c2 2e 40 00 	stb  %g1, [ %i1 ]
    5334:	90 06 60 18 	add  %i1, 0x18, %o0
    5338:	92 10 00 14 	mov  %l4, %o1
    533c:	94 10 20 00 	clr  %o2
    5340:	7f ff fb c0 	call  4240 <copy_spwd_changes>
    5344:	96 10 20 00 	clr  %o3
    5348:	d6 05 00 00 	ld  [ %l4 ], %o3
    534c:	f8 23 a0 5c 	st  %i4, [ %sp + 0x5c ]
    5350:	96 02 e0 02 	add  %o3, 2, %o3
    5354:	90 10 20 00 	clr  %o0
    5358:	92 10 00 14 	mov  %l4, %o1
    535c:	94 10 00 19 	mov  %i1, %o2
    5360:	98 10 00 1a 	mov  %i2, %o4
    5364:	7f ff fe 7c 	call  4d54 <getspent_next_nss_netgr>
    5368:	9a 10 00 1b 	mov  %i3, %o5
    536c:	80 a2 20 02 	cmp  %o0, 2
    5370:	12 80 00 2a 	bne  5418 <getspent_next_file+0x3e4>
    5374:	80 a6 e0 02 	cmp  %i3, 2
    5378:	30 bf ff 36 	b,a   5050 <getspent_next_file+0x1c>
    537c:	c2 4c 40 00 	ldsb  [ %l1 ], %g1
    5380:	80 a0 60 2b 	cmp  %g1, 0x2b
    5384:	12 bf ff 33 	bne  5050 <getspent_next_file+0x1c>
    5388:	80 a6 e0 02 	cmp  %i3, 2
    538c:	c2 4c 60 01 	ldsb  [ %l1 + 1 ], %g1
    5390:	80 a0 60 00 	cmp  %g1, 0
    5394:	12 bf ff 2f 	bne  5050 <getspent_next_file+0x1c>
    5398:	80 a6 e0 02 	cmp  %i3, 2
    539c:	82 10 20 01 	mov  1, %g1
    53a0:	90 06 60 18 	add  %i1, 0x18, %o0
    53a4:	92 10 00 14 	mov  %l4, %o1
    53a8:	c2 2e 60 02 	stb  %g1, [ %i1 + 2 ]
    53ac:	c0 2e 60 01 	clrb  [ %i1 + 1 ]
    53b0:	94 10 20 00 	clr  %o2
    53b4:	7f ff fb a3 	call  4240 <copy_spwd_changes>
    53b8:	96 10 20 00 	clr  %o3
    53bc:	90 10 00 14 	mov  %l4, %o0
    53c0:	92 10 00 19 	mov  %i1, %o1
    53c4:	94 10 00 1a 	mov  %i2, %o2
    53c8:	96 10 00 1b 	mov  %i3, %o3
    53cc:	7f ff fe e8 	call  4f6c <getspent_next_nss>
    53d0:	98 10 00 1c 	mov  %i4, %o4
    53d4:	30 80 00 11 	b,a   5418 <getspent_next_file+0x3e4>
    53d8:	40 00 4b 6b 	call  18184 <__internal_endnetgrent@plt>
    53dc:	90 10 00 16 	mov  %l6, %o0
    53e0:	10 bf ff 1c 	b  5050 <getspent_next_file+0x1c>
    53e4:	80 a6 e0 02 	cmp  %i3, 2
    53e8:	9c 10 00 15 	mov  %l5, %sp
    53ec:	10 80 00 0b 	b  5418 <getspent_next_file+0x3e4>
    53f0:	90 10 20 01 	mov  1, %o0
    53f4:	12 80 00 08 	bne  5414 <getspent_next_file+0x3e0>
    53f8:	90 10 00 18 	mov  %i0, %o0
    53fc:	d0 06 60 08 	ld  [ %i1 + 8 ], %o0
    5400:	40 00 4b 5e 	call  18178 <fsetpos@plt>
    5404:	92 10 00 13 	mov  %l3, %o1
    5408:	82 10 20 22 	mov  0x22, %g1
    540c:	c2 27 00 00 	st  %g1, [ %i4 ]
    5410:	90 10 00 18 	mov  %i0, %o0
    5414:	9c 10 00 15 	mov  %l5, %sp
    5418:	81 c7 e0 08 	ret 
    541c:	91 e8 00 08 	restore  %g0, %o0, %o0

00005420 <_nss_compat_getspent_r>:
_nss_compat_getspent_r():
    5420:	9d e3 bf 88 	save  %sp, -120, %sp
    5424:	03 00 00 00 	sethi  %hi(0), %g1
    5428:	2f 00 00 4a 	sethi  %hi(0x12800), %l7
    542c:	7f ff fb 21 	call  40b0 <_nss_compat_getpwent_r+0x168>
    5430:	ae 05 e3 d4 	add  %l7, 0x3d4, %l7	! 12bd4 <__FRAME_END__+0xc8ac>
    5434:	82 10 61 1c 	or  %g1, 0x11c, %g1
    5438:	c4 05 c0 01 	ld  [ %l7 + %g1 ], %g2
    543c:	80 a0 a0 00 	cmp  %g2, 0
    5440:	02 80 00 06 	be  5458 <_nss_compat_getspent_r+0x38>
    5444:	a2 10 00 18 	mov  %i0, %l1
    5448:	03 00 00 00 	sethi  %hi(0), %g1
    544c:	82 10 60 b4 	or  %g1, 0xb4, %g1	! b4 <GLIBC_PRIVATE+0xb4>
    5450:	9f c0 80 00 	call  %g2
    5454:	d0 05 c0 01 	ld  [ %l7 + %g1 ], %o0
    5458:	03 00 00 00 	sethi  %hi(0), %g1
    545c:	82 10 60 a0 	or  %g1, 0xa0, %g1	! a0 <GLIBC_PRIVATE+0xa0>
    5460:	c4 05 c0 01 	ld  [ %l7 + %g1 ], %g2
    5464:	c6 00 80 00 	ld  [ %g2 ], %g3
    5468:	80 a0 e0 00 	cmp  %g3, 0
    546c:	02 80 00 27 	be  5508 <_nss_compat_getspent_r+0xe8>
    5470:	03 00 00 00 	sethi  %hi(0), %g1
    5474:	82 10 60 9c 	or  %g1, 0x9c, %g1	! 9c <GLIBC_PRIVATE+0x9c>
    5478:	e0 05 c0 01 	ld  [ %l7 + %g1 ], %l0
    547c:	c4 04 20 08 	ld  [ %l0 + 8 ], %g2
    5480:	80 a0 a0 00 	cmp  %g2, 0
    5484:	22 80 00 2b 	be,a   5530 <_nss_compat_getspent_r+0x110>
    5488:	90 10 00 10 	mov  %l0, %o0
    548c:	c2 0c 00 00 	ldub  [ %l0 ], %g1
    5490:	80 a0 60 00 	cmp  %g1, 0
    5494:	32 80 00 2e 	bne,a   554c <_nss_compat_getspent_r+0x12c>
    5498:	f6 23 a0 5c 	st  %i3, [ %sp + 0x5c ]
    549c:	c2 0c 20 01 	ldub  [ %l0 + 1 ], %g1
    54a0:	80 a0 60 00 	cmp  %g1, 0
    54a4:	02 80 00 12 	be  54ec <_nss_compat_getspent_r+0xcc>
    54a8:	90 10 00 11 	mov  %l1, %o0
    54ac:	92 10 00 10 	mov  %l0, %o1
    54b0:	94 10 00 19 	mov  %i1, %o2
    54b4:	96 10 00 1a 	mov  %i2, %o3
    54b8:	7f ff fe df 	call  5034 <getspent_next_file>
    54bc:	98 10 00 1b 	mov  %i3, %o4
    54c0:	b0 10 00 08 	mov  %o0, %i0
    54c4:	03 00 00 00 	sethi  %hi(0), %g1
    54c8:	82 10 61 24 	or  %g1, 0x124, %g1	! 124 <GLIBC_PRIVATE+0x124>
    54cc:	c4 05 c0 01 	ld  [ %l7 + %g1 ], %g2
    54d0:	80 a0 a0 00 	cmp  %g2, 0
    54d4:	02 80 00 2a 	be  557c <_nss_compat_getspent_r+0x15c>
    54d8:	03 00 00 00 	sethi  %hi(0), %g1
    54dc:	82 10 60 b4 	or  %g1, 0xb4, %g1	! b4 <GLIBC_PRIVATE+0xb4>
    54e0:	9f c0 80 00 	call  %g2
    54e4:	d0 05 c0 01 	ld  [ %l7 + %g1 ], %o0
    54e8:	30 80 00 25 	b,a   557c <_nss_compat_getspent_r+0x15c>
    54ec:	92 10 00 10 	mov  %l0, %o1
    54f0:	94 10 00 19 	mov  %i1, %o2
    54f4:	96 10 00 1a 	mov  %i2, %o3
    54f8:	7f ff fe 9d 	call  4f6c <getspent_next_nss>
    54fc:	98 10 00 1b 	mov  %i3, %o4
    5500:	10 bf ff f1 	b  54c4 <_nss_compat_getspent_r+0xa4>
    5504:	b0 10 00 08 	mov  %o0, %i0
    5508:	7f ff fa ec 	call  40b8 <init_nss_interface>
    550c:	01 00 00 00 	nop 
    5510:	03 00 00 00 	sethi  %hi(0), %g1
    5514:	82 10 60 9c 	or  %g1, 0x9c, %g1	! 9c <GLIBC_PRIVATE+0x9c>
    5518:	e0 05 c0 01 	ld  [ %l7 + %g1 ], %l0
    551c:	c4 04 20 08 	ld  [ %l0 + 8 ], %g2
    5520:	80 a0 a0 00 	cmp  %g2, 0
    5524:	32 bf ff db 	bne,a   5490 <_nss_compat_getspent_r+0x70>
    5528:	c2 0c 00 00 	ldub  [ %l0 ], %g1
    552c:	90 10 00 10 	mov  %l0, %o0
    5530:	7f ff fb 88 	call  4350 <internal_setspent>
    5534:	92 10 20 01 	mov  1, %o1
    5538:	80 a2 20 01 	cmp  %o0, 1
    553c:	12 bf ff e2 	bne  54c4 <_nss_compat_getspent_r+0xa4>
    5540:	b0 10 00 08 	mov  %o0, %i0
    5544:	10 bf ff d3 	b  5490 <_nss_compat_getspent_r+0x70>
    5548:	c2 0c 00 00 	ldub  [ %l0 ], %g1
    554c:	90 10 20 00 	clr  %o0
    5550:	92 10 00 11 	mov  %l1, %o1
    5554:	94 10 00 10 	mov  %l0, %o2
    5558:	96 10 20 00 	clr  %o3
    555c:	98 10 00 19 	mov  %i1, %o4
    5560:	7f ff fd fd 	call  4d54 <getspent_next_nss_netgr>
    5564:	9a 10 00 1a 	mov  %i2, %o5
    5568:	80 a2 20 02 	cmp  %o0, 2
    556c:	12 bf ff d6 	bne  54c4 <_nss_compat_getspent_r+0xa4>
    5570:	b0 10 00 08 	mov  %o0, %i0
    5574:	10 bf ff ce 	b  54ac <_nss_compat_getspent_r+0x8c>
    5578:	90 10 00 11 	mov  %l1, %o0
    557c:	81 c7 e0 08 	ret 
    5580:	81 e8 00 00 	restore 

00005584 <check_and_add_group>:
check_and_add_group():
    5584:	9d e3 bf 90 	save  %sp, -112, %sp
    5588:	e4 07 a0 5c 	ld  [ %fp + 0x5c ], %l2
    558c:	e0 04 a0 08 	ld  [ %l2 + 8 ], %l0
    5590:	80 a4 00 19 	cmp  %l0, %i1
    5594:	02 80 00 30 	be  5654 <check_and_add_group+0xd0>
    5598:	e2 07 00 00 	ld  [ %i4 ], %l1
    559c:	f2 04 a0 0c 	ld  [ %l2 + 0xc ], %i1
    55a0:	c2 06 40 00 	ld  [ %i1 ], %g1
    55a4:	80 a0 60 00 	cmp  %g1, 0
    55a8:	02 80 00 2b 	be  5654 <check_and_add_group+0xd0>
    55ac:	01 00 00 00 	nop 
    55b0:	d0 06 40 00 	ld  [ %i1 ], %o0
    55b4:	40 00 4a eb 	call  18160 <strcmp@plt>
    55b8:	92 10 00 18 	mov  %i0, %o1
    55bc:	80 a2 20 00 	cmp  %o0, 0
    55c0:	02 80 00 07 	be  55dc <check_and_add_group+0x58>
    55c4:	b2 06 60 04 	add  %i1, 4, %i1
    55c8:	c2 06 40 00 	ld  [ %i1 ], %g1
    55cc:	80 a0 60 00 	cmp  %g1, 0
    55d0:	32 bf ff f9 	bne,a   55b4 <check_and_add_group+0x30>
    55d4:	d0 06 40 00 	ld  [ %i1 ], %o0
    55d8:	30 80 00 1f 	b,a   5654 <check_and_add_group+0xd0>
    55dc:	d2 06 80 00 	ld  [ %i2 ], %o1
    55e0:	c2 06 c0 00 	ld  [ %i3 ], %g1
    55e4:	80 a2 40 01 	cmp  %o1, %g1
    55e8:	02 80 00 07 	be  5604 <check_and_add_group+0x80>
    55ec:	80 a7 60 00 	cmp  %i5, 0
    55f0:	84 02 60 01 	add  %o1, 1, %g2
    55f4:	83 2a 60 02 	sll  %o1, 2, %g1
    55f8:	e0 24 40 01 	st  %l0, [ %l1 + %g1 ]
    55fc:	10 80 00 16 	b  5654 <check_and_add_group+0xd0>
    5600:	c4 26 80 00 	st  %g2, [ %i2 ]
    5604:	04 80 00 12 	ble  564c <check_and_add_group+0xc8>
    5608:	80 a2 40 1d 	cmp  %o1, %i5
    560c:	02 80 00 12 	be  5654 <check_and_add_group+0xd0>
    5610:	a0 02 40 09 	add  %o1, %o1, %l0
    5614:	80 a4 00 1d 	cmp  %l0, %i5
    5618:	34 80 00 02 	bg,a   5620 <check_and_add_group+0x9c>
    561c:	a0 10 00 1d 	mov  %i5, %l0
    5620:	90 10 00 11 	mov  %l1, %o0
    5624:	40 00 4b 02 	call  1822c <realloc@plt>
    5628:	93 2c 20 02 	sll  %l0, 2, %o1
    562c:	80 a2 20 00 	cmp  %o0, 0
    5630:	02 80 00 09 	be  5654 <check_and_add_group+0xd0>
    5634:	a2 10 00 08 	mov  %o0, %l1
    5638:	e0 26 c0 00 	st  %l0, [ %i3 ]
    563c:	d0 27 00 00 	st  %o0, [ %i4 ]
    5640:	e0 04 a0 08 	ld  [ %l2 + 8 ], %l0
    5644:	10 bf ff eb 	b  55f0 <check_and_add_group+0x6c>
    5648:	d2 06 80 00 	ld  [ %i2 ], %o1
    564c:	10 bf ff f5 	b  5620 <check_and_add_group+0x9c>
    5650:	a0 02 40 09 	add  %o1, %o1, %l0
    5654:	81 c7 e0 08 	ret 
    5658:	81 e8 00 00 	restore 

0000565c <in_blacklist>:
in_blacklist():
    565c:	9d e3 bf 90 	save  %sp, -112, %sp
    5660:	b2 06 60 0a 	add  %i1, 0xa, %i1
    5664:	b2 0e 7f f8 	and  %i1, -8, %i1
    5668:	a0 10 00 0e 	mov  %sp, %l0
    566c:	9c 23 80 19 	sub  %sp, %i1, %sp
    5670:	c2 06 a0 08 	ld  [ %i2 + 8 ], %g1
    5674:	92 10 00 18 	mov  %i0, %o1
    5678:	b2 03 a0 60 	add  %sp, 0x60, %i1
    567c:	a2 10 20 7c 	mov  0x7c, %l1
    5680:	80 a0 60 00 	cmp  %g1, 0
    5684:	90 06 60 01 	add  %i1, 1, %o0
    5688:	12 80 00 04 	bne  5698 <in_blacklist+0x3c>
    568c:	b0 10 20 00 	clr  %i0
    5690:	10 80 00 0c 	b  56c0 <in_blacklist+0x64>
    5694:	9c 10 00 10 	mov  %l0, %sp
    5698:	40 00 4a dc 	call  18208 <stpcpy@plt>
    569c:	e2 2e 40 00 	stb  %l1, [ %i1 ]
    56a0:	e2 2a 00 00 	stb  %l1, [ %o0 ]
    56a4:	c0 2a 20 01 	clrb  [ %o0 + 1 ]
    56a8:	d0 06 a0 08 	ld  [ %i2 + 8 ], %o0
    56ac:	40 00 4a cb 	call  181d8 <strstr@plt>
    56b0:	92 10 00 19 	mov  %i1, %o1
    56b4:	80 a0 00 08 	cmp  %g0, %o0
    56b8:	b0 40 20 00 	addx  %g0, 0, %i0
    56bc:	9c 10 00 10 	mov  %l0, %sp
    56c0:	81 c7 e0 08 	ret 
    56c4:	81 e8 00 00 	restore 

000056c8 <blacklist_store_name>:
blacklist_store_name():
    56c8:	9d e3 bf 90 	save  %sp, -112, %sp
    56cc:	40 00 4a c6 	call  181e4 <strlen@plt>
    56d0:	90 10 00 18 	mov  %i0, %o0
    56d4:	c2 06 60 10 	ld  [ %i1 + 0x10 ], %g1
    56d8:	80 a0 60 00 	cmp  %g1, 0
    56dc:	12 80 00 1b 	bne  5748 <blacklist_store_name+0x80>
    56e0:	a0 10 00 08 	mov  %o0, %l0
    56e4:	90 02 00 08 	add  %o0, %o0, %o0
    56e8:	80 a2 22 00 	cmp  %o0, 0x200
    56ec:	26 80 00 02 	bl,a   56f4 <blacklist_store_name+0x2c>
    56f0:	90 10 22 00 	mov  0x200, %o0
    56f4:	40 00 4a ad 	call  181a8 <malloc@plt>
    56f8:	d0 26 60 10 	st  %o0, [ %i1 + 0x10 ]
    56fc:	80 a2 20 00 	cmp  %o0, 0
    5700:	02 80 00 31 	be  57c4 <blacklist_store_name+0xfc>
    5704:	d0 26 60 08 	st  %o0, [ %i1 + 8 ]
    5708:	82 10 20 7c 	mov  0x7c, %g1
    570c:	c2 2a 00 00 	stb  %g1, [ %o0 ]
    5710:	c0 2a 20 01 	clrb  [ %o0 + 1 ]
    5714:	84 10 20 01 	mov  1, %g2
    5718:	c4 26 60 0c 	st  %g2, [ %i1 + 0xc ]
    571c:	90 02 00 02 	add  %o0, %g2, %o0
    5720:	40 00 4a ba 	call  18208 <stpcpy@plt>
    5724:	92 10 00 18 	mov  %i0, %o1
    5728:	82 10 20 7c 	mov  0x7c, %g1
    572c:	c2 2a 00 00 	stb  %g1, [ %o0 ]
    5730:	c0 2a 20 01 	clrb  [ %o0 + 1 ]
    5734:	c2 06 60 0c 	ld  [ %i1 + 0xc ], %g1
    5738:	82 00 40 10 	add  %g1, %l0, %g1
    573c:	82 00 60 01 	inc  %g1
    5740:	10 80 00 21 	b  57c4 <blacklist_store_name+0xfc>
    5744:	c2 26 60 0c 	st  %g1, [ %i1 + 0xc ]
    5748:	90 10 00 18 	mov  %i0, %o0
    574c:	92 10 00 10 	mov  %l0, %o1
    5750:	7f ff ff c3 	call  565c <in_blacklist>
    5754:	94 10 00 19 	mov  %i1, %o2
    5758:	80 a2 20 00 	cmp  %o0, 0
    575c:	12 80 00 1a 	bne  57c4 <blacklist_store_name+0xfc>
    5760:	01 00 00 00 	nop 
    5764:	c4 06 60 0c 	ld  [ %i1 + 0xc ], %g2
    5768:	82 00 80 10 	add  %g2, %l0, %g1
    576c:	82 00 60 01 	inc  %g1
    5770:	c6 06 60 10 	ld  [ %i1 + 0x10 ], %g3
    5774:	80 a0 40 03 	cmp  %g1, %g3
    5778:	26 bf ff e9 	bl,a   571c <blacklist_store_name+0x54>
    577c:	d0 06 60 08 	ld  [ %i1 + 8 ], %o0
    5780:	92 04 00 10 	add  %l0, %l0, %o1
    5784:	80 a2 61 00 	cmp  %o1, 0x100
    5788:	26 80 00 02 	bl,a   5790 <blacklist_store_name+0xc8>
    578c:	92 10 21 00 	mov  0x100, %o1
    5790:	92 00 c0 09 	add  %g3, %o1, %o1
    5794:	d2 26 60 10 	st  %o1, [ %i1 + 0x10 ]
    5798:	40 00 4a a5 	call  1822c <realloc@plt>
    579c:	d0 06 60 08 	ld  [ %i1 + 8 ], %o0
    57a0:	80 a2 20 00 	cmp  %o0, 0
    57a4:	02 80 00 05 	be  57b8 <blacklist_store_name+0xf0>
    57a8:	01 00 00 00 	nop 
    57ac:	d0 26 60 08 	st  %o0, [ %i1 + 8 ]
    57b0:	10 bf ff db 	b  571c <blacklist_store_name+0x54>
    57b4:	c4 06 60 0c 	ld  [ %i1 + 0xc ], %g2
    57b8:	40 00 4a b5 	call  1828c <free@plt>
    57bc:	d0 06 60 08 	ld  [ %i1 + 8 ], %o0
    57c0:	c0 26 60 10 	clr  [ %i1 + 0x10 ]
    57c4:	81 c7 e0 08 	ret 
    57c8:	81 e8 00 00 	restore 
    57cc:	81 c3 e0 08 	retl 
    57d0:	ae 03 c0 17 	add  %o7, %l7, %l7

000057d4 <getgrent_next_nss>:
getgrent_next_nss():
    57d4:	9d e3 bf 68 	save  %sp, -152, %sp
    57d8:	03 00 00 00 	sethi  %hi(0), %g1
    57dc:	2f 00 00 4a 	sethi  %hi(0x12800), %l7
    57e0:	7f ff ff fb 	call  57cc <blacklist_store_name+0x104>
    57e4:	ae 05 e0 20 	add  %l7, 0x20, %l7	! 12820 <__FRAME_END__+0xc4f8>
    57e8:	82 10 60 e0 	or  %g1, 0xe0, %g1
    57ec:	c4 05 c0 01 	ld  [ %l7 + %g1 ], %g2
    57f0:	c6 00 80 00 	ld  [ %g2 ], %g3
    57f4:	fa 27 a0 58 	st  %i5, [ %fp + 0x58 ]
    57f8:	80 a0 e0 00 	cmp  %g3, 0
    57fc:	fa 07 a0 5c 	ld  [ %fp + 0x5c ], %i5
    5800:	ec 07 a0 64 	ld  [ %fp + 0x64 ], %l6
    5804:	e4 07 a0 68 	ld  [ %fp + 0x68 ], %l2
    5808:	12 80 00 08 	bne  5828 <getgrent_next_nss+0x54>
    580c:	09 00 00 00 	sethi  %hi(0), %g4
    5810:	82 11 20 e4 	or  %g4, 0xe4, %g1	! e4 <GLIBC_PRIVATE+0xe4>
    5814:	c4 05 c0 01 	ld  [ %l7 + %g1 ], %g2
    5818:	c6 00 80 00 	ld  [ %g2 ], %g3
    581c:	80 a0 e0 00 	cmp  %g3, 0
    5820:	02 80 00 9a 	be  5a88 <getgrent_next_nss+0x2b4>
    5824:	90 10 3f ff 	mov  -1, %o0
    5828:	82 11 20 e4 	or  %g4, 0xe4, %g1
    582c:	e0 05 c0 01 	ld  [ %l7 + %g1 ], %l0
    5830:	c4 04 00 00 	ld  [ %l0 ], %g2
    5834:	80 a0 a0 00 	cmp  %g2, 0
    5838:	12 80 00 22 	bne  58c0 <getgrent_next_nss+0xec>
    583c:	03 00 00 00 	sethi  %hi(0), %g1
    5840:	03 00 00 00 	sethi  %hi(0), %g1
    5844:	82 10 60 e0 	or  %g1, 0xe0, %g1	! e0 <GLIBC_PRIVATE+0xe0>
    5848:	e0 05 c0 01 	ld  [ %l7 + %g1 ], %l0
    584c:	a6 07 bf e0 	add  %fp, -32, %l3
    5850:	92 10 00 19 	mov  %i1, %o1
    5854:	94 10 00 1a 	mov  %i2, %o2
    5858:	96 10 00 12 	mov  %l2, %o3
    585c:	c2 04 00 00 	ld  [ %l0 ], %g1
    5860:	9f c0 40 00 	call  %g1
    5864:	90 10 00 13 	mov  %l3, %o0
    5868:	80 a2 20 01 	cmp  %o0, 1
    586c:	12 80 00 87 	bne  5a88 <getgrent_next_nss+0x2b4>
    5870:	01 00 00 00 	nop 
    5874:	40 00 4a 5c 	call  181e4 <strlen@plt>
    5878:	d0 07 bf e0 	ld  [ %fp + -32 ], %o0
    587c:	92 10 00 08 	mov  %o0, %o1
    5880:	d0 07 bf e0 	ld  [ %fp + -32 ], %o0
    5884:	7f ff ff 76 	call  565c <in_blacklist>
    5888:	94 10 00 18 	mov  %i0, %o2
    588c:	80 a2 20 00 	cmp  %o0, 0
    5890:	12 bf ff f1 	bne  5854 <getgrent_next_nss+0x80>
    5894:	92 10 00 19 	mov  %i1, %o1
    5898:	90 10 00 1b 	mov  %i3, %o0
    589c:	e6 23 a0 5c 	st  %l3, [ %sp + 0x5c ]
    58a0:	92 10 00 1c 	mov  %i4, %o1
    58a4:	d4 07 a0 58 	ld  [ %fp + 0x58 ], %o2
    58a8:	96 10 00 1d 	mov  %i5, %o3
    58ac:	d8 07 a0 60 	ld  [ %fp + 0x60 ], %o4
    58b0:	7f ff ff 35 	call  5584 <check_and_add_group>
    58b4:	9a 10 00 16 	mov  %l6, %o5
    58b8:	10 80 00 74 	b  5a88 <getgrent_next_nss+0x2b4>
    58bc:	90 10 20 01 	mov  1, %o0
    58c0:	82 10 60 e8 	or  %g1, 0xe8, %g1
    58c4:	e2 05 c0 01 	ld  [ %l7 + %g1 ], %l1
    58c8:	c4 04 40 00 	ld  [ %l1 ], %g2
    58cc:	80 a0 a0 00 	cmp  %g2, 0
    58d0:	02 bf ff dd 	be  5844 <getgrent_next_nss+0x70>
    58d4:	03 00 00 00 	sethi  %hi(0), %g1
    58d8:	c0 27 bf dc 	clr  [ %fp + -36 ]
    58dc:	80 a5 a0 00 	cmp  %l6, 0
    58e0:	04 80 00 56 	ble  5a38 <getgrent_next_nss+0x264>
    58e4:	90 10 00 16 	mov  %l6, %o0
    58e8:	d0 27 bf d8 	st  %o0, [ %fp + -40 ]
    58ec:	40 00 4a 2f 	call  181a8 <malloc@plt>
    58f0:	91 2a 20 02 	sll  %o0, 2, %o0
    58f4:	80 a2 20 00 	cmp  %o0, 0
    58f8:	d0 27 bf d4 	st  %o0, [ %fp + -44 ]
    58fc:	02 80 00 63 	be  5a88 <getgrent_next_nss+0x2b4>
    5900:	90 10 3f fe 	mov  -2, %o0
    5904:	e4 23 a0 5c 	st  %l2, [ %sp + 0x5c ]
    5908:	c2 04 00 00 	ld  [ %l0 ], %g1
    590c:	90 10 00 1b 	mov  %i3, %o0
    5910:	92 10 00 1c 	mov  %i4, %o1
    5914:	94 07 bf dc 	add  %fp, -36, %o2
    5918:	96 07 bf d8 	add  %fp, -40, %o3
    591c:	98 07 bf d4 	add  %fp, -44, %o4
    5920:	9f c0 40 00 	call  %g1
    5924:	9a 10 00 16 	mov  %l6, %o5
    5928:	80 a2 20 01 	cmp  %o0, 1
    592c:	12 80 00 4a 	bne  5a54 <getgrent_next_nss+0x280>
    5930:	aa 10 20 00 	clr  %l5
    5934:	c2 07 bf dc 	ld  [ %fp + -36 ], %g1
    5938:	80 a5 40 01 	cmp  %l5, %g1
    593c:	16 80 00 3b 	bge  5a28 <getgrent_next_nss+0x254>
    5940:	a0 10 00 19 	mov  %i1, %l0
    5944:	a8 10 00 11 	mov  %l1, %l4
    5948:	a6 07 bf e0 	add  %fp, -32, %l3
    594c:	a3 2d 60 02 	sll  %l5, 2, %l1
    5950:	c2 07 bf d4 	ld  [ %fp + -44 ], %g1
    5954:	d0 00 40 11 	ld  [ %g1 + %l1 ], %o0
    5958:	c2 05 00 00 	ld  [ %l4 ], %g1
    595c:	94 10 00 10 	mov  %l0, %o2
    5960:	96 10 00 1a 	mov  %i2, %o3
    5964:	92 10 00 13 	mov  %l3, %o1
    5968:	9f c0 40 00 	call  %g1
    596c:	98 10 00 12 	mov  %l2, %o4
    5970:	84 06 80 1a 	add  %i2, %i2, %g2
    5974:	82 00 a0 07 	add  %g2, 7, %g1
    5978:	80 a2 3f fe 	cmp  %o0, -2
    597c:	12 80 00 1d 	bne  59f0 <getgrent_next_nss+0x21c>
    5980:	86 08 7f f8 	and  %g1, -8, %g3
    5984:	c2 04 80 00 	ld  [ %l2 ], %g1
    5988:	80 a0 60 22 	cmp  %g1, 0x22
    598c:	12 80 00 19 	bne  59f0 <getgrent_next_nss+0x21c>
    5990:	80 a4 00 19 	cmp  %l0, %i1
    5994:	22 80 00 2b 	be,a   5a40 <getgrent_next_nss+0x26c>
    5998:	b4 06 80 1a 	add  %i2, %i2, %i2
    599c:	9c 23 80 03 	sub  %sp, %g3, %sp
    59a0:	86 03 a0 68 	add  %sp, 0x68, %g3
    59a4:	82 00 c0 02 	add  %g3, %g2, %g1
    59a8:	80 a0 40 10 	cmp  %g1, %l0
    59ac:	02 80 00 03 	be  59b8 <getgrent_next_nss+0x1e4>
    59b0:	b4 06 80 02 	add  %i2, %g2, %i2
    59b4:	b4 10 00 02 	mov  %g2, %i2
    59b8:	c2 07 bf d4 	ld  [ %fp + -44 ], %g1
    59bc:	a0 10 00 03 	mov  %g3, %l0
    59c0:	d0 00 40 11 	ld  [ %g1 + %l1 ], %o0
    59c4:	c2 05 00 00 	ld  [ %l4 ], %g1
    59c8:	94 10 00 10 	mov  %l0, %o2
    59cc:	96 10 00 1a 	mov  %i2, %o3
    59d0:	92 10 00 13 	mov  %l3, %o1
    59d4:	9f c0 40 00 	call  %g1
    59d8:	98 10 00 12 	mov  %l2, %o4
    59dc:	84 06 80 1a 	add  %i2, %i2, %g2
    59e0:	82 00 a0 07 	add  %g2, 7, %g1
    59e4:	80 a2 3f fe 	cmp  %o0, -2
    59e8:	02 bf ff e7 	be  5984 <getgrent_next_nss+0x1b0>
    59ec:	86 08 7f f8 	and  %g1, -8, %g3
    59f0:	40 00 49 fd 	call  181e4 <strlen@plt>
    59f4:	d0 07 bf e0 	ld  [ %fp + -32 ], %o0
    59f8:	92 10 00 08 	mov  %o0, %o1
    59fc:	d0 07 bf e0 	ld  [ %fp + -32 ], %o0
    5a00:	7f ff ff 17 	call  565c <in_blacklist>
    5a04:	94 10 00 18 	mov  %i0, %o2
    5a08:	80 a2 20 00 	cmp  %o0, 0
    5a0c:	22 80 00 16 	be,a   5a64 <getgrent_next_nss+0x290>
    5a10:	e6 23 a0 5c 	st  %l3, [ %sp + 0x5c ]
    5a14:	aa 05 60 01 	inc  %l5
    5a18:	c2 07 bf dc 	ld  [ %fp + -36 ], %g1
    5a1c:	80 a5 40 01 	cmp  %l5, %g1
    5a20:	26 bf ff cc 	bl,a   5950 <getgrent_next_nss+0x17c>
    5a24:	a3 2d 60 02 	sll  %l5, 2, %l1
    5a28:	40 00 4a 19 	call  1828c <free@plt>
    5a2c:	d0 07 bf d4 	ld  [ %fp + -44 ], %o0
    5a30:	10 80 00 16 	b  5a88 <getgrent_next_nss+0x2b4>
    5a34:	90 10 20 00 	clr  %o0
    5a38:	10 bf ff ac 	b  58e8 <getgrent_next_nss+0x114>
    5a3c:	d0 07 40 00 	ld  [ %i5 ], %o0
    5a40:	82 06 a0 07 	add  %i2, 7, %g1
    5a44:	82 08 7f f8 	and  %g1, -8, %g1
    5a48:	9c 23 80 01 	sub  %sp, %g1, %sp
    5a4c:	10 bf ff c1 	b  5950 <getgrent_next_nss+0x17c>
    5a50:	a0 03 a0 68 	add  %sp, 0x68, %l0
    5a54:	40 00 4a 0e 	call  1828c <free@plt>
    5a58:	d0 07 bf d4 	ld  [ %fp + -44 ], %o0
    5a5c:	10 bf ff 7a 	b  5844 <getgrent_next_nss+0x70>
    5a60:	03 00 00 00 	sethi  %hi(0), %g1
    5a64:	90 10 00 1b 	mov  %i3, %o0
    5a68:	92 10 00 1c 	mov  %i4, %o1
    5a6c:	d4 07 a0 58 	ld  [ %fp + 0x58 ], %o2
    5a70:	96 10 00 1d 	mov  %i5, %o3
    5a74:	d8 07 a0 60 	ld  [ %fp + 0x60 ], %o4
    5a78:	7f ff fe c3 	call  5584 <check_and_add_group>
    5a7c:	9a 10 00 16 	mov  %l6, %o5
    5a80:	10 bf ff e6 	b  5a18 <getgrent_next_nss+0x244>
    5a84:	aa 05 60 01 	inc  %l5
    5a88:	81 c7 e0 08 	ret 
    5a8c:	91 e8 00 08 	restore  %g0, %o0, %o0

00005a90 <_nss_compat_initgroups_dyn>:
_nss_compat_initgroups_dyn():
    5a90:	9d e3 bf 48 	save  %sp, -184, %sp
    5a94:	2f 00 00 49 	sethi  %hi(0x12400), %l7
    5a98:	7f ff ff 4d 	call  57cc <blacklist_store_name+0x104>
    5a9c:	ae 05 e1 68 	add  %l7, 0x168, %l7	! 12568 <__FRAME_END__+0xc240>
    5aa0:	40 00 49 cb 	call  181cc <sysconf@plt>
    5aa4:	90 10 20 46 	mov  0x46, %o0
    5aa8:	03 00 00 00 	sethi  %hi(0), %g1
    5aac:	82 10 60 ec 	or  %g1, 0xec, %g1	! ec <GLIBC_PRIVATE+0xec>
    5ab0:	e2 05 c0 01 	ld  [ %l7 + %g1 ], %l1
    5ab4:	88 10 20 01 	mov  1, %g4
    5ab8:	c2 04 40 00 	ld  [ %l1 ], %g1
    5abc:	84 10 20 00 	clr  %g2
    5ac0:	86 10 20 00 	clr  %g3
    5ac4:	a4 10 00 08 	mov  %o0, %l2
    5ac8:	80 a0 60 00 	cmp  %g1, 0
    5acc:	c4 3f bf e0 	std  %g2, [ %fp + -32 ]
    5ad0:	c8 27 bf d8 	st  %g4, [ %fp + -40 ]
    5ad4:	fa 27 a0 58 	st  %i5, [ %fp + 0x58 ]
    5ad8:	c0 27 bf dc 	clr  [ %fp + -36 ]
    5adc:	c0 27 bf e8 	clr  [ %fp + -24 ]
    5ae0:	ec 07 a0 5c 	ld  [ %fp + 0x5c ], %l6
    5ae4:	12 80 00 47 	bne  5c00 <_nss_compat_initgroups_dyn+0x170>
    5ae8:	a8 07 bf d8 	add  %fp, -40, %l4
    5aec:	03 00 00 00 	sethi  %hi(0), %g1
    5af0:	82 10 61 1c 	or  %g1, 0x11c, %g1	! 11c <GLIBC_PRIVATE+0x11c>
    5af4:	c4 05 c0 01 	ld  [ %l7 + %g1 ], %g2
    5af8:	80 a0 a0 00 	cmp  %g2, 0
    5afc:	02 80 00 09 	be  5b20 <_nss_compat_initgroups_dyn+0x90>
    5b00:	03 00 00 00 	sethi  %hi(0), %g1
    5b04:	82 10 60 f0 	or  %g1, 0xf0, %g1	! f0 <GLIBC_PRIVATE+0xf0>
    5b08:	9f c0 80 00 	call  %g2
    5b0c:	d0 05 c0 01 	ld  [ %l7 + %g1 ], %o0
    5b10:	c2 04 40 00 	ld  [ %l1 ], %g1
    5b14:	80 a0 60 00 	cmp  %g1, 0
    5b18:	12 80 00 32 	bne  5be0 <_nss_compat_initgroups_dyn+0x150>
    5b1c:	03 00 00 00 	sethi  %hi(0), %g1
    5b20:	03 00 00 00 	sethi  %hi(0), %g1
    5b24:	05 00 00 00 	sethi  %hi(0), %g2
    5b28:	82 10 60 f8 	or  %g1, 0xf8, %g1
    5b2c:	84 10 a0 fc 	or  %g2, 0xfc, %g2
    5b30:	d0 05 c0 01 	ld  [ %l7 + %g1 ], %o0
    5b34:	d4 05 c0 02 	ld  [ %l7 + %g2 ], %o2
    5b38:	92 10 20 00 	clr  %o1
    5b3c:	40 00 49 d7 	call  18298 <__nss_database_lookup@plt>
    5b40:	96 10 00 11 	mov  %l1, %o3
    5b44:	80 a2 20 00 	cmp  %o0, 0
    5b48:	06 80 00 25 	bl  5bdc <_nss_compat_initgroups_dyn+0x14c>
    5b4c:	03 00 00 00 	sethi  %hi(0), %g1
    5b50:	05 00 00 00 	sethi  %hi(0), %g2
    5b54:	82 10 60 e4 	or  %g1, 0xe4, %g1
    5b58:	84 10 a1 00 	or  %g2, 0x100, %g2
    5b5c:	e0 05 c0 01 	ld  [ %l7 + %g1 ], %l0
    5b60:	d2 05 c0 02 	ld  [ %l7 + %g2 ], %o1
    5b64:	40 00 49 a6 	call  181fc <__nss_lookup_function@plt>
    5b68:	d0 04 40 00 	ld  [ %l1 ], %o0
    5b6c:	03 00 00 00 	sethi  %hi(0), %g1
    5b70:	05 00 00 00 	sethi  %hi(0), %g2
    5b74:	d0 24 00 00 	st  %o0, [ %l0 ]
    5b78:	82 10 60 f4 	or  %g1, 0xf4, %g1
    5b7c:	84 10 a1 04 	or  %g2, 0x104, %g2
    5b80:	e0 05 c0 01 	ld  [ %l7 + %g1 ], %l0
    5b84:	d2 05 c0 02 	ld  [ %l7 + %g2 ], %o1
    5b88:	40 00 49 9d 	call  181fc <__nss_lookup_function@plt>
    5b8c:	d0 04 40 00 	ld  [ %l1 ], %o0
    5b90:	03 00 00 00 	sethi  %hi(0), %g1
    5b94:	05 00 00 00 	sethi  %hi(0), %g2
    5b98:	d0 24 00 00 	st  %o0, [ %l0 ]
    5b9c:	82 10 60 e8 	or  %g1, 0xe8, %g1
    5ba0:	84 10 a1 08 	or  %g2, 0x108, %g2
    5ba4:	e0 05 c0 01 	ld  [ %l7 + %g1 ], %l0
    5ba8:	d2 05 c0 02 	ld  [ %l7 + %g2 ], %o1
    5bac:	40 00 49 94 	call  181fc <__nss_lookup_function@plt>
    5bb0:	d0 04 40 00 	ld  [ %l1 ], %o0
    5bb4:	03 00 00 00 	sethi  %hi(0), %g1
    5bb8:	05 00 00 00 	sethi  %hi(0), %g2
    5bbc:	d0 24 00 00 	st  %o0, [ %l0 ]
    5bc0:	82 10 60 e0 	or  %g1, 0xe0, %g1
    5bc4:	84 10 a1 0c 	or  %g2, 0x10c, %g2
    5bc8:	e0 05 c0 01 	ld  [ %l7 + %g1 ], %l0
    5bcc:	d0 04 40 00 	ld  [ %l1 ], %o0
    5bd0:	40 00 49 8b 	call  181fc <__nss_lookup_function@plt>
    5bd4:	d2 05 c0 02 	ld  [ %l7 + %g2 ], %o1
    5bd8:	d0 24 00 00 	st  %o0, [ %l0 ]
    5bdc:	03 00 00 00 	sethi  %hi(0), %g1
    5be0:	82 10 61 24 	or  %g1, 0x124, %g1	! 124 <GLIBC_PRIVATE+0x124>
    5be4:	c4 05 c0 01 	ld  [ %l7 + %g1 ], %g2
    5be8:	80 a0 a0 00 	cmp  %g2, 0
    5bec:	02 80 00 05 	be  5c00 <_nss_compat_initgroups_dyn+0x170>
    5bf0:	03 00 00 00 	sethi  %hi(0), %g1
    5bf4:	82 10 60 f0 	or  %g1, 0xf0, %g1	! f0 <GLIBC_PRIVATE+0xf0>
    5bf8:	9f c0 80 00 	call  %g2
    5bfc:	d0 05 c0 01 	ld  [ %l7 + %g1 ], %o0
    5c00:	c6 05 20 08 	ld  [ %l4 + 8 ], %g3
    5c04:	80 a0 e0 00 	cmp  %g3, 0
    5c08:	02 80 00 1b 	be  5c74 <_nss_compat_initgroups_dyn+0x1e4>
    5c0c:	03 00 00 00 	sethi  %hi(0), %g1
    5c10:	82 10 20 01 	mov  1, %g1
    5c14:	c2 25 20 0c 	st  %g1, [ %l4 + 0xc ]
    5c18:	84 10 20 7c 	mov  0x7c, %g2
    5c1c:	c4 28 c0 00 	stb  %g2, [ %g3 ]
    5c20:	c2 05 20 08 	ld  [ %l4 + 8 ], %g1
    5c24:	c0 28 60 01 	clrb  [ %g1 + 1 ]
    5c28:	03 00 00 00 	sethi  %hi(0), %g1
    5c2c:	05 00 00 00 	sethi  %hi(0), %g2
    5c30:	82 10 61 10 	or  %g1, 0x110, %g1
    5c34:	84 10 a1 14 	or  %g2, 0x114, %g2
    5c38:	d0 05 c0 01 	ld  [ %l7 + %g1 ], %o0
    5c3c:	40 00 49 9d 	call  182b0 <fopen@plt>
    5c40:	d2 05 c0 02 	ld  [ %l7 + %g2 ], %o1
    5c44:	82 92 20 00 	orcc  %o0, 0, %g1
    5c48:	12 80 00 15 	bne  5c9c <_nss_compat_initgroups_dyn+0x20c>
    5c4c:	c2 25 20 04 	st  %g1, [ %l4 + 4 ]
    5c50:	40 00 49 50 	call  18190 <__errno_location@plt>
    5c54:	01 00 00 00 	nop 
    5c58:	c2 02 00 00 	ld  [ %o0 ], %g1
    5c5c:	82 18 60 0b 	xor  %g1, 0xb, %g1
    5c60:	80 a0 00 01 	cmp  %g0, %g1
    5c64:	84 40 20 00 	addx  %g0, 0, %g2
    5c68:	88 00 bf fe 	add  %g2, -2, %g4
    5c6c:	10 80 00 f3 	b  6038 <_nss_compat_initgroups_dyn+0x5a8>
    5c70:	b0 10 00 04 	mov  %g4, %i0
    5c74:	05 00 00 00 	sethi  %hi(0), %g2
    5c78:	82 10 61 10 	or  %g1, 0x110, %g1
    5c7c:	84 10 a1 14 	or  %g2, 0x114, %g2
    5c80:	d0 05 c0 01 	ld  [ %l7 + %g1 ], %o0
    5c84:	c0 25 20 0c 	clr  [ %l4 + 0xc ]
    5c88:	40 00 49 8a 	call  182b0 <fopen@plt>
    5c8c:	d2 05 c0 02 	ld  [ %l7 + %g2 ], %o1
    5c90:	82 92 20 00 	orcc  %o0, 0, %g1
    5c94:	02 bf ff ef 	be  5c50 <_nss_compat_initgroups_dyn+0x1c0>
    5c98:	c2 25 20 04 	st  %g1, [ %l4 + 4 ]
    5c9c:	40 00 49 61 	call  18220 <fileno_unlocked@plt>
    5ca0:	01 00 00 00 	nop 
    5ca4:	92 10 20 01 	mov  1, %o1	! 1 <GLIBC_PRIVATE+0x1>
    5ca8:	40 00 49 67 	call  18244 <fcntl@plt>
    5cac:	94 10 20 00 	clr  %o2
    5cb0:	a0 92 20 00 	orcc  %o0, 0, %l0
    5cb4:	06 80 00 87 	bl  5ed0 <_nss_compat_initgroups_dyn+0x440>
    5cb8:	01 00 00 00 	nop 
    5cbc:	40 00 49 59 	call  18220 <fileno_unlocked@plt>
    5cc0:	d0 05 20 04 	ld  [ %l4 + 4 ], %o0
    5cc4:	a0 14 20 01 	or  %l0, 1, %l0
    5cc8:	94 10 00 10 	mov  %l0, %o2
    5ccc:	40 00 49 5e 	call  18244 <fcntl@plt>
    5cd0:	92 10 20 02 	mov  2, %o1
    5cd4:	80 a2 20 00 	cmp  %o0, 0
    5cd8:	06 80 00 7e 	bl  5ed0 <_nss_compat_initgroups_dyn+0x440>
    5cdc:	01 00 00 00 	nop 
    5ce0:	d0 05 20 04 	ld  [ %l4 + 4 ], %o0
    5ce4:	40 00 49 67 	call  18280 <__fsetlocking@plt>
    5ce8:	92 10 20 02 	mov  2, %o1
    5cec:	82 04 a0 07 	add  %l2, 7, %g1
    5cf0:	82 08 7f f8 	and  %g1, -8, %g1
    5cf4:	9c 23 80 01 	sub  %sp, %g1, %sp
    5cf8:	a6 03 a0 70 	add  %sp, 0x70, %l3
    5cfc:	aa 07 bf b8 	add  %fp, -72, %l5
    5d00:	ba 07 bf c8 	add  %fp, -56, %i5
    5d04:	c2 07 bf d8 	ld  [ %fp + -40 ], %g1
    5d08:	80 a0 60 00 	cmp  %g1, 0
    5d0c:	02 80 00 53 	be  5e58 <_nss_compat_initgroups_dyn+0x3c8>
    5d10:	a2 04 c0 12 	add  %l3, %l2, %l1
    5d14:	80 a4 a0 02 	cmp  %l2, 2
    5d18:	08 80 00 76 	bleu  5ef0 <_nss_compat_initgroups_dyn+0x460>
    5d1c:	82 10 20 22 	mov  0x22, %g1
    5d20:	92 10 00 15 	mov  %l5, %o1
    5d24:	40 00 49 66 	call  182bc <fgetpos@plt>
    5d28:	d0 05 20 04 	ld  [ %l4 + 4 ], %o0
    5d2c:	82 10 3f ff 	mov  -1, %g1
    5d30:	c2 2c 7f ff 	stb  %g1, [ %l1 + -1 ]
    5d34:	90 10 00 13 	mov  %l3, %o0
    5d38:	92 10 00 12 	mov  %l2, %o1
    5d3c:	40 00 49 21 	call  181c0 <fgets_unlocked@plt>
    5d40:	d4 05 20 04 	ld  [ %l4 + 4 ], %o2
    5d44:	a0 92 20 00 	orcc  %o0, 0, %l0
    5d48:	22 80 00 6c 	be,a   5ef8 <_nss_compat_initgroups_dyn+0x468>
    5d4c:	c2 05 20 04 	ld  [ %l4 + 4 ], %g1
    5d50:	c2 4c 7f ff 	ldsb  [ %l1 + -1 ], %g1
    5d54:	80 a0 7f ff 	cmp  %g1, -1
    5d58:	32 80 00 63 	bne,a   5ee4 <_nss_compat_initgroups_dyn+0x454>
    5d5c:	d0 05 20 04 	ld  [ %l4 + 4 ], %o0
    5d60:	40 00 49 5d 	call  182d4 <__ctype_b_loc@plt>
    5d64:	c0 2c 7f ff 	clrb  [ %l1 + -1 ]
    5d68:	d0 02 00 00 	ld  [ %o0 ], %o0
    5d6c:	c6 4c 00 00 	ldsb  [ %l0 ], %g3
    5d70:	82 00 c0 03 	add  %g3, %g3, %g1
    5d74:	c4 12 00 01 	lduh  [ %o0 + %g1 ], %g2
    5d78:	80 88 a0 20 	btst  0x20, %g2
    5d7c:	32 bf ff fc 	bne,a   5d6c <_nss_compat_initgroups_dyn+0x2dc>
    5d80:	a0 04 20 01 	inc  %l0
    5d84:	80 a0 00 03 	cmp  %g0, %g3
    5d88:	82 60 3f ff 	subx  %g0, -1, %g1
    5d8c:	84 18 e0 23 	xor  %g3, 0x23, %g2
    5d90:	80 a0 00 02 	cmp  %g0, %g2
    5d94:	86 60 3f ff 	subx  %g0, -1, %g3
    5d98:	80 90 40 03 	orcc  %g1, %g3, %g0
    5d9c:	12 bf ff df 	bne  5d18 <_nss_compat_initgroups_dyn+0x288>
    5da0:	80 a4 a0 02 	cmp  %l2, 2
    5da4:	90 10 00 10 	mov  %l0, %o0
    5da8:	92 10 00 1d 	mov  %i5, %o1
    5dac:	94 10 00 13 	mov  %l3, %o2
    5db0:	96 10 00 12 	mov  %l2, %o3
    5db4:	40 00 49 00 	call  181b4 <_nss_files_parse_grent@plt>
    5db8:	98 10 00 16 	mov  %l6, %o4
    5dbc:	80 a2 20 00 	cmp  %o0, 0
    5dc0:	02 bf ff d6 	be  5d18 <_nss_compat_initgroups_dyn+0x288>
    5dc4:	80 a4 a0 02 	cmp  %l2, 2
    5dc8:	80 a2 3f ff 	cmp  %o0, -1
    5dcc:	22 80 00 46 	be,a   5ee4 <_nss_compat_initgroups_dyn+0x454>
    5dd0:	d0 05 20 04 	ld  [ %l4 + 4 ], %o0
    5dd4:	d0 07 bf c8 	ld  [ %fp + -56 ], %o0
    5dd8:	c8 4a 00 00 	ldsb  [ %o0 ], %g4
    5ddc:	82 19 20 2b 	xor  %g4, 0x2b, %g1
    5de0:	80 a0 00 01 	cmp  %g0, %g1
    5de4:	86 40 20 00 	addx  %g0, 0, %g3
    5de8:	82 19 20 2d 	xor  %g4, 0x2d, %g1
    5dec:	80 a0 00 01 	cmp  %g0, %g1
    5df0:	84 40 20 00 	addx  %g0, 0, %g2
    5df4:	80 88 c0 02 	btst  %g3, %g2
    5df8:	12 80 00 7e 	bne  5ff0 <_nss_compat_initgroups_dyn+0x560>
    5dfc:	80 a1 20 2d 	cmp  %g4, 0x2d
    5e00:	22 80 00 52 	be,a   5f48 <_nss_compat_initgroups_dyn+0x4b8>
    5e04:	c2 4a 20 01 	ldsb  [ %o0 + 1 ], %g1
    5e08:	c2 4a 00 00 	ldsb  [ %o0 ], %g1
    5e0c:	80 a0 60 2b 	cmp  %g1, 0x2b
    5e10:	12 bf ff c2 	bne  5d18 <_nss_compat_initgroups_dyn+0x288>
    5e14:	80 a4 a0 02 	cmp  %l2, 2
    5e18:	c2 4a 20 01 	ldsb  [ %o0 + 1 ], %g1
    5e1c:	80 a0 60 00 	cmp  %g1, 0
    5e20:	22 80 00 06 	be,a   5e38 <_nss_compat_initgroups_dyn+0x3a8>
    5e24:	c2 4a 00 00 	ldsb  [ %o0 ], %g1
    5e28:	80 a0 60 40 	cmp  %g1, 0x40
    5e2c:	12 80 00 54 	bne  5f7c <_nss_compat_initgroups_dyn+0x4ec>
    5e30:	a0 02 20 01 	add  %o0, 1, %l0
    5e34:	c2 4a 00 00 	ldsb  [ %o0 ], %g1
    5e38:	80 a0 60 2b 	cmp  %g1, 0x2b
    5e3c:	12 bf ff b7 	bne  5d18 <_nss_compat_initgroups_dyn+0x288>
    5e40:	80 a4 a0 02 	cmp  %l2, 2
    5e44:	c2 4a 20 01 	ldsb  [ %o0 + 1 ], %g1
    5e48:	80 a0 60 00 	cmp  %g1, 0
    5e4c:	12 bf ff b3 	bne  5d18 <_nss_compat_initgroups_dyn+0x288>
    5e50:	80 a4 a0 02 	cmp  %l2, 2
    5e54:	c0 25 00 00 	clr  [ %l4 ]
    5e58:	c2 07 a0 58 	ld  [ %fp + 0x58 ], %g1
    5e5c:	f6 23 a0 5c 	st  %i3, [ %sp + 0x5c ]
    5e60:	f8 23 a0 60 	st  %i4, [ %sp + 0x60 ]
    5e64:	c2 23 a0 64 	st  %g1, [ %sp + 0x64 ]
    5e68:	ec 23 a0 68 	st  %l6, [ %sp + 0x68 ]
    5e6c:	90 10 00 14 	mov  %l4, %o0
    5e70:	92 10 00 13 	mov  %l3, %o1
    5e74:	94 10 00 12 	mov  %l2, %o2
    5e78:	96 10 00 18 	mov  %i0, %o3
    5e7c:	98 10 00 19 	mov  %i1, %o4
    5e80:	7f ff fe 55 	call  57d4 <getgrent_next_nss>
    5e84:	9a 10 00 1a 	mov  %i2, %o5
    5e88:	80 a2 3f fe 	cmp  %o0, -2
    5e8c:	12 80 00 67 	bne  6028 <_nss_compat_initgroups_dyn+0x598>
    5e90:	80 a2 20 01 	cmp  %o0, 1
    5e94:	c2 05 80 00 	ld  [ %l6 ], %g1
    5e98:	80 a0 60 22 	cmp  %g1, 0x22
    5e9c:	12 80 00 1b 	bne  5f08 <_nss_compat_initgroups_dyn+0x478>
    5ea0:	84 04 80 12 	add  %l2, %l2, %g2
    5ea4:	82 00 a0 07 	add  %g2, 7, %g1
    5ea8:	82 08 7f f8 	and  %g1, -8, %g1
    5eac:	9c 23 80 01 	sub  %sp, %g1, %sp
    5eb0:	86 03 a0 70 	add  %sp, 0x70, %g3
    5eb4:	82 00 c0 02 	add  %g3, %g2, %g1
    5eb8:	80 a0 40 13 	cmp  %g1, %l3
    5ebc:	02 80 00 03 	be  5ec8 <_nss_compat_initgroups_dyn+0x438>
    5ec0:	a4 04 80 02 	add  %l2, %g2, %l2
    5ec4:	a4 10 00 02 	mov  %g2, %l2
    5ec8:	10 bf ff 8f 	b  5d04 <_nss_compat_initgroups_dyn+0x274>
    5ecc:	a6 10 00 03 	mov  %g3, %l3
    5ed0:	40 00 48 e3 	call  1825c <fclose@plt>
    5ed4:	d0 05 20 04 	ld  [ %l4 + 4 ], %o0
    5ed8:	c0 25 20 04 	clr  [ %l4 + 4 ]
    5edc:	10 bf ff 64 	b  5c6c <_nss_compat_initgroups_dyn+0x1dc>
    5ee0:	88 10 3f ff 	mov  -1, %g4
    5ee4:	40 00 48 a5 	call  18178 <fsetpos@plt>
    5ee8:	92 10 00 15 	mov  %l5, %o1
    5eec:	82 10 20 22 	mov  0x22, %g1
    5ef0:	10 bf ff e9 	b  5e94 <_nss_compat_initgroups_dyn+0x404>
    5ef4:	c2 25 80 00 	st  %g1, [ %l6 ]
    5ef8:	c4 00 40 00 	ld  [ %g1 ], %g2
    5efc:	80 88 a0 10 	btst  0x10, %g2
    5f00:	22 bf ff f9 	be,a   5ee4 <_nss_compat_initgroups_dyn+0x454>
    5f04:	d0 05 20 04 	ld  [ %l4 + 4 ], %o0
    5f08:	d0 07 bf dc 	ld  [ %fp + -36 ], %o0
    5f0c:	80 a2 20 00 	cmp  %o0, 0
    5f10:	12 80 00 42 	bne  6018 <_nss_compat_initgroups_dyn+0x588>
    5f14:	01 00 00 00 	nop 
    5f18:	c6 07 bf e0 	ld  [ %fp + -32 ], %g3
    5f1c:	80 a0 e0 00 	cmp  %g3, 0
    5f20:	22 80 00 15 	be,a   5f74 <_nss_compat_initgroups_dyn+0x4e4>
    5f24:	c0 27 bf e4 	clr  [ %fp + -28 ]
    5f28:	82 10 20 01 	mov  1, %g1
    5f2c:	c2 27 bf e4 	st  %g1, [ %fp + -28 ]
    5f30:	84 10 20 7c 	mov  0x7c, %g2
    5f34:	c4 28 c0 00 	stb  %g2, [ %g3 ]
    5f38:	c2 07 bf e0 	ld  [ %fp + -32 ], %g1
    5f3c:	c0 28 60 01 	clrb  [ %g1 + 1 ]
    5f40:	10 80 00 3e 	b  6038 <_nss_compat_initgroups_dyn+0x5a8>
    5f44:	b0 10 20 01 	mov  1, %i0
    5f48:	80 a0 60 00 	cmp  %g1, 0
    5f4c:	22 bf ff b0 	be,a   5e0c <_nss_compat_initgroups_dyn+0x37c>
    5f50:	c2 4a 00 00 	ldsb  [ %o0 ], %g1
    5f54:	80 a0 60 40 	cmp  %g1, 0x40
    5f58:	22 bf ff ad 	be,a   5e0c <_nss_compat_initgroups_dyn+0x37c>
    5f5c:	c2 4a 00 00 	ldsb  [ %o0 ], %g1
    5f60:	90 02 20 01 	inc  %o0
    5f64:	7f ff fd d9 	call  56c8 <blacklist_store_name>
    5f68:	92 10 00 14 	mov  %l4, %o1
    5f6c:	10 bf ff 6b 	b  5d18 <_nss_compat_initgroups_dyn+0x288>
    5f70:	80 a4 a0 02 	cmp  %l2, 2
    5f74:	10 80 00 31 	b  6038 <_nss_compat_initgroups_dyn+0x5a8>
    5f78:	b0 10 20 01 	mov  1, %i0
    5f7c:	40 00 48 9a 	call  181e4 <strlen@plt>
    5f80:	90 10 00 10 	mov  %l0, %o0
    5f84:	92 10 00 08 	mov  %o0, %o1
    5f88:	90 10 00 10 	mov  %l0, %o0
    5f8c:	7f ff fd b4 	call  565c <in_blacklist>
    5f90:	94 10 00 14 	mov  %l4, %o2
    5f94:	80 a2 20 00 	cmp  %o0, 0
    5f98:	12 bf ff 60 	bne  5d18 <_nss_compat_initgroups_dyn+0x288>
    5f9c:	80 a4 a0 02 	cmp  %l2, 2
    5fa0:	d0 07 bf c8 	ld  [ %fp + -56 ], %o0
    5fa4:	90 02 20 01 	inc  %o0
    5fa8:	7f ff fd c8 	call  56c8 <blacklist_store_name>
    5fac:	92 10 00 14 	mov  %l4, %o1
    5fb0:	03 00 00 00 	sethi  %hi(0), %g1
    5fb4:	82 10 60 f4 	or  %g1, 0xf4, %g1	! f4 <GLIBC_PRIVATE+0xf4>
    5fb8:	c4 05 c0 01 	ld  [ %l7 + %g1 ], %g2
    5fbc:	c4 00 80 00 	ld  [ %g2 ], %g2
    5fc0:	80 a0 a0 00 	cmp  %g2, 0
    5fc4:	02 bf ff d1 	be  5f08 <_nss_compat_initgroups_dyn+0x478>
    5fc8:	d0 07 bf c8 	ld  [ %fp + -56 ], %o0
    5fcc:	90 02 20 01 	inc  %o0
    5fd0:	92 10 00 1d 	mov  %i5, %o1
    5fd4:	94 10 00 13 	mov  %l3, %o2
    5fd8:	96 10 00 12 	mov  %l2, %o3
    5fdc:	9f c0 80 00 	call  %g2
    5fe0:	98 10 00 16 	mov  %l6, %o4
    5fe4:	80 a2 20 01 	cmp  %o0, 1
    5fe8:	12 bf ff 4c 	bne  5d18 <_nss_compat_initgroups_dyn+0x288>
    5fec:	80 a4 a0 02 	cmp  %l2, 2
    5ff0:	fa 23 a0 5c 	st  %i5, [ %sp + 0x5c ]
    5ff4:	90 10 00 18 	mov  %i0, %o0
    5ff8:	92 10 00 19 	mov  %i1, %o1
    5ffc:	94 10 00 1a 	mov  %i2, %o2
    6000:	96 10 00 1b 	mov  %i3, %o3
    6004:	98 10 00 1c 	mov  %i4, %o4
    6008:	7f ff fd 5f 	call  5584 <check_and_add_group>
    600c:	da 07 a0 58 	ld  [ %fp + 0x58 ], %o5
    6010:	10 bf ff 3c 	b  5d00 <_nss_compat_initgroups_dyn+0x270>
    6014:	aa 07 bf b8 	add  %fp, -72, %l5
    6018:	40 00 48 91 	call  1825c <fclose@plt>
    601c:	01 00 00 00 	nop 
    6020:	10 bf ff be 	b  5f18 <_nss_compat_initgroups_dyn+0x488>
    6024:	c0 27 bf dc 	clr  [ %fp + -36 ]
    6028:	22 bf ff 36 	be,a   5d00 <_nss_compat_initgroups_dyn+0x270>
    602c:	aa 07 bf b8 	add  %fp, -72, %l5
    6030:	10 bf ff b7 	b  5f0c <_nss_compat_initgroups_dyn+0x47c>
    6034:	d0 07 bf dc 	ld  [ %fp + -36 ], %o0
    6038:	81 c7 e0 08 	ret 
    603c:	81 e8 00 00 	restore 
    6040:	81 c3 e0 08 	retl 
    6044:	ae 03 c0 17 	add  %o7, %l7, %l7

00006048 <__do_global_ctors_aux>:
__do_global_ctors_aux():
    6048:	9d e3 bf 98 	save  %sp, -104, %sp
    604c:	03 00 00 00 	sethi  %hi(0), %g1
    6050:	2f 00 00 47 	sethi  %hi(0x11c00), %l7
    6054:	7f ff ff fb 	call  6040 <_nss_compat_initgroups_dyn+0x5b0>
    6058:	ae 05 e3 ac 	add  %l7, 0x3ac, %l7	! 11fac <__FRAME_END__+0xbc84>
    605c:	82 10 61 18 	or  %g1, 0x118, %g1
    6060:	c4 05 c0 01 	ld  [ %l7 + %g1 ], %g2
    6064:	c2 00 bf fc 	ld  [ %g2 + -4 ], %g1
    6068:	80 a0 7f ff 	cmp  %g1, -1
    606c:	02 80 00 08 	be  608c <__do_global_ctors_aux+0x44>
    6070:	a0 00 bf fc 	add  %g2, -4, %l0
    6074:	9f c0 40 00 	call  %g1
    6078:	a0 04 3f fc 	add  %l0, -4, %l0
    607c:	c2 04 00 00 	ld  [ %l0 ], %g1
    6080:	80 a0 7f ff 	cmp  %g1, -1
    6084:	12 bf ff fc 	bne  6074 <__do_global_ctors_aux+0x2c>
    6088:	01 00 00 00 	nop 
    608c:	81 c7 e0 08 	ret 
    6090:	81 e8 00 00 	restore 

00006094 <call___do_global_ctors_aux>:
call___do_global_ctors_aux():
    6094:	9d e3 bf 98 	save  %sp, -104, %sp
    6098:	81 c7 e0 08 	ret 
    609c:	81 e8 00 00 	restore 
セクション .fini の逆アセンブル:

000060a0 <_fini>:
_fini():
    60a0:	9d e3 bf a0 	save  %sp, -96, %sp
    60a4:	7f ff ec 6b 	call  1250 <__do_global_dtors_aux>
    60a8:	01 00 00 00 	nop 
    60ac:	81 c7 e0 08 	ret 
    60b0:	81 e8 00 00 	restore 
セクション .plt の逆アセンブル:

00018130 <strcmp@plt-0x30>:
	...

00018160 <strcmp@plt>:
   18160:	03 00 00 30 	sethi  %hi(0xc000), %g1
   18164:	30 bf ff f3 	b,a   18130 <_PROCEDURE_LINKAGE_TABLE_>
   18168:	01 00 00 00 	nop 

0001816c <__internal_getnetgrent_r@plt>:
   1816c:	03 00 00 3c 	sethi  %hi(0xf000), %g1
   18170:	30 bf ff f0 	b,a   18130 <_PROCEDURE_LINKAGE_TABLE_>
   18174:	01 00 00 00 	nop 

00018178 <fsetpos@plt>:
   18178:	03 00 00 48 	sethi  %hi(0x12000), %g1
   1817c:	30 bf ff ed 	b,a   18130 <_PROCEDURE_LINKAGE_TABLE_>
   18180:	01 00 00 00 	nop 

00018184 <__internal_endnetgrent@plt>:
   18184:	03 00 00 54 	sethi  %hi(0x15000), %g1
   18188:	30 bf ff ea 	b,a   18130 <_PROCEDURE_LINKAGE_TABLE_>
   1818c:	01 00 00 00 	nop 

00018190 <__errno_location@plt>:
   18190:	03 00 00 60 	sethi  %hi(0x18000), %g1
   18194:	30 bf ff e7 	b,a   18130 <_PROCEDURE_LINKAGE_TABLE_>
   18198:	01 00 00 00 	nop 

0001819c <rewind@plt>:
   1819c:	03 00 00 6c 	sethi  %hi(0x1b000), %g1
   181a0:	30 bf ff e4 	b,a   18130 <_PROCEDURE_LINKAGE_TABLE_>
   181a4:	01 00 00 00 	nop 

000181a8 <malloc@plt>:
   181a8:	03 00 00 78 	sethi  %hi(0x1e000), %g1
   181ac:	30 bf ff e1 	b,a   18130 <_PROCEDURE_LINKAGE_TABLE_>
   181b0:	01 00 00 00 	nop 

000181b4 <_nss_files_parse_grent@plt>:
   181b4:	03 00 00 84 	sethi  %hi(0x21000), %g1
   181b8:	30 bf ff de 	b,a   18130 <_PROCEDURE_LINKAGE_TABLE_>
   181bc:	01 00 00 00 	nop 

000181c0 <fgets_unlocked@plt>:
   181c0:	03 00 00 90 	sethi  %hi(0x24000), %g1
   181c4:	30 bf ff db 	b,a   18130 <_PROCEDURE_LINKAGE_TABLE_>
   181c8:	01 00 00 00 	nop 

000181cc <sysconf@plt>:
   181cc:	03 00 00 9c 	sethi  %hi(0x27000), %g1
   181d0:	30 bf ff d8 	b,a   18130 <_PROCEDURE_LINKAGE_TABLE_>
   181d4:	01 00 00 00 	nop 

000181d8 <strstr@plt>:
   181d8:	03 00 00 a8 	sethi  %hi(0x2a000), %g1
   181dc:	30 bf ff d5 	b,a   18130 <_PROCEDURE_LINKAGE_TABLE_>
   181e0:	01 00 00 00 	nop 

000181e4 <strlen@plt>:
   181e4:	03 00 00 b4 	sethi  %hi(0x2d000), %g1
   181e8:	30 bf ff d2 	b,a   18130 <_PROCEDURE_LINKAGE_TABLE_>
   181ec:	01 00 00 00 	nop 

000181f0 <__internal_setnetgrent@plt>:
   181f0:	03 00 00 c0 	sethi  %hi(0x30000), %g1
   181f4:	30 bf ff cf 	b,a   18130 <_PROCEDURE_LINKAGE_TABLE_>
   181f8:	01 00 00 00 	nop 

000181fc <__nss_lookup_function@plt>:
   181fc:	03 00 00 cc 	sethi  %hi(0x33000), %g1
   18200:	30 bf ff cc 	b,a   18130 <_PROCEDURE_LINKAGE_TABLE_>
   18204:	01 00 00 00 	nop 

00018208 <stpcpy@plt>:
   18208:	03 00 00 d8 	sethi  %hi(0x36000), %g1
   1820c:	30 bf ff c9 	b,a   18130 <_PROCEDURE_LINKAGE_TABLE_>
   18210:	01 00 00 00 	nop 

00018214 <_nss_files_parse_spent@plt>:
   18214:	03 00 00 e4 	sethi  %hi(0x39000), %g1
   18218:	30 bf ff c6 	b,a   18130 <_PROCEDURE_LINKAGE_TABLE_>
   1821c:	01 00 00 00 	nop 

00018220 <fileno_unlocked@plt>:
   18220:	03 00 00 f0 	sethi  %hi(0x3c000), %g1
   18224:	30 bf ff c3 	b,a   18130 <_PROCEDURE_LINKAGE_TABLE_>
   18228:	01 00 00 00 	nop 

0001822c <realloc@plt>:
   1822c:	03 00 00 fc 	sethi  %hi(0x3f000), %g1
   18230:	30 bf ff c0 	b,a   18130 <_PROCEDURE_LINKAGE_TABLE_>
   18234:	01 00 00 00 	nop 

00018238 <innetgr@plt>:
   18238:	03 00 01 08 	sethi  %hi(0x42000), %g1
   1823c:	30 bf ff bd 	b,a   18130 <_PROCEDURE_LINKAGE_TABLE_>
   18240:	01 00 00 00 	nop 

00018244 <fcntl@plt>:
   18244:	03 00 01 14 	sethi  %hi(0x45000), %g1
   18248:	30 bf ff ba 	b,a   18130 <_PROCEDURE_LINKAGE_TABLE_>
   1824c:	01 00 00 00 	nop 

00018250 <memcpy@plt>:
   18250:	03 00 01 20 	sethi  %hi(0x48000), %g1
   18254:	30 bf ff b7 	b,a   18130 <_PROCEDURE_LINKAGE_TABLE_>
   18258:	01 00 00 00 	nop 

0001825c <fclose@plt>:
   1825c:	03 00 01 2c 	sethi  %hi(0x4b000), %g1
   18260:	30 bf ff b4 	b,a   18130 <_PROCEDURE_LINKAGE_TABLE_>
   18264:	01 00 00 00 	nop 

00018268 <__strdup@plt>:
   18268:	03 00 01 38 	sethi  %hi(0x4e000), %g1
   1826c:	30 bf ff b1 	b,a   18130 <_PROCEDURE_LINKAGE_TABLE_>
   18270:	01 00 00 00 	nop 

00018274 <__cxa_finalize@plt>:
   18274:	03 00 01 44 	sethi  %hi(0x51000), %g1
   18278:	30 bf ff ae 	b,a   18130 <_PROCEDURE_LINKAGE_TABLE_>
   1827c:	01 00 00 00 	nop 

00018280 <__fsetlocking@plt>:
   18280:	03 00 01 50 	sethi  %hi(0x54000), %g1
   18284:	30 bf ff ab 	b,a   18130 <_PROCEDURE_LINKAGE_TABLE_>
   18288:	01 00 00 00 	nop 

0001828c <free@plt>:
   1828c:	03 00 01 5c 	sethi  %hi(0x57000), %g1
   18290:	30 bf ff a8 	b,a   18130 <_PROCEDURE_LINKAGE_TABLE_>
   18294:	01 00 00 00 	nop 

00018298 <__nss_database_lookup@plt>:
   18298:	03 00 01 68 	sethi  %hi(0x5a000), %g1
   1829c:	30 bf ff a5 	b,a   18130 <_PROCEDURE_LINKAGE_TABLE_>
   182a0:	01 00 00 00 	nop 

000182a4 <_nss_files_parse_pwent@plt>:
   182a4:	03 00 01 74 	sethi  %hi(0x5d000), %g1
   182a8:	30 bf ff a2 	b,a   18130 <_PROCEDURE_LINKAGE_TABLE_>
   182ac:	01 00 00 00 	nop 

000182b0 <fopen@plt>:
   182b0:	03 00 01 80 	sethi  %hi(0x60000), %g1
   182b4:	30 bf ff 9f 	b,a   18130 <_PROCEDURE_LINKAGE_TABLE_>
   182b8:	01 00 00 00 	nop 

000182bc <fgetpos@plt>:
   182bc:	03 00 01 8c 	sethi  %hi(0x63000), %g1
   182c0:	30 bf ff 9c 	b,a   18130 <_PROCEDURE_LINKAGE_TABLE_>
   182c4:	01 00 00 00 	nop 

000182c8 <_Jv_RegisterClasses@plt>:
   182c8:	03 00 01 98 	sethi  %hi(0x66000), %g1
   182cc:	30 bf ff 99 	b,a   18130 <_PROCEDURE_LINKAGE_TABLE_>
   182d0:	01 00 00 00 	nop 

000182d4 <__ctype_b_loc@plt>:
   182d4:	03 00 01 a4 	sethi  %hi(0x69000), %g1
   182d8:	30 bf ff 96 	b,a   18130 <_PROCEDURE_LINKAGE_TABLE_>
   182dc:	01 00 00 00 	nop 

000182e0 <yp_get_default_domain@plt>:
   182e0:	03 00 01 b0 	sethi  %hi(0x6c000), %g1
   182e4:	30 bf ff 93 	b,a   18130 <_PROCEDURE_LINKAGE_TABLE_>
   182e8:	01 00 00 00 	nop 

000182ec <strcpy@plt>:
   182ec:	03 00 01 bc 	sethi  %hi(0x6f000), %g1
   182f0:	30 bf ff 90 	b,a   18130 <_PROCEDURE_LINKAGE_TABLE_>
   182f4:	01 00 00 00 	nop 
   182f8:	01 00 00 00 	nop 
