
/home/inouema/work/LEON/linux/snapgear-2.6-p42/romfs/lib/libnss_files-2.5.so:     ファイル形式 elf32-sparc

セクション .init の逆アセンブル:

00001db8 <_init>:
_init():
    1db8:	9d e3 bf a0 	save  %sp, -96, %sp
    1dbc:	40 00 00 37 	call  1e98 <frame_dummy>
    1dc0:	01 00 00 00 	nop 
    1dc4:	40 00 1b 29 	call  8a68 <__do_global_ctors_aux>
    1dc8:	01 00 00 00 	nop 
    1dcc:	81 c7 e0 08 	ret 
    1dd0:	81 e8 00 00 	restore 
セクション .text の逆アセンブル:

00001dd4 <__do_global_dtors_aux-0x8>:
    1dd4:	81 c3 e0 08 	retl 
    1dd8:	ae 03 c0 17 	add  %o7, %l7, %l7

00001ddc <__do_global_dtors_aux>:
__do_global_dtors_aux():
    1ddc:	9d e3 bf 98 	save  %sp, -104, %sp
    1de0:	23 00 00 00 	sethi  %hi(0), %l1
    1de4:	2f 00 00 60 	sethi  %hi(0x18000), %l7
    1de8:	7f ff ff fb 	call  1dd4 <_init+0x1c>
    1dec:	ae 05 e2 18 	add  %l7, 0x218, %l7	! 18218 <__FRAME_END__+0xf568>
    1df0:	82 14 60 0c 	or  %l1, 0xc, %g1
    1df4:	c4 05 c0 01 	ld  [ %l7 + %g1 ], %g2
    1df8:	c6 08 80 00 	ldub  [ %g2 ], %g3
    1dfc:	80 a0 e0 00 	cmp  %g3, 0
    1e00:	12 80 00 21 	bne  1e84 <__do_global_dtors_aux+0xa8>
    1e04:	03 00 00 00 	sethi  %hi(0), %g1
    1e08:	82 10 61 68 	or  %g1, 0x168, %g1	! 168 <GLIBC_PRIVATE+0x168>
    1e0c:	c4 05 c0 01 	ld  [ %l7 + %g1 ], %g2
    1e10:	80 a0 a0 00 	cmp  %g2, 0
    1e14:	02 80 00 06 	be  1e2c <__do_global_dtors_aux+0x50>
    1e18:	03 00 00 00 	sethi  %hi(0), %g1
    1e1c:	82 10 61 5c 	or  %g1, 0x15c, %g1	! 15c <GLIBC_PRIVATE+0x15c>
    1e20:	c4 05 c0 01 	ld  [ %l7 + %g1 ], %g2
    1e24:	40 00 61 36 	call  1a2fc <__cxa_finalize@plt>
    1e28:	d0 00 80 00 	ld  [ %g2 ], %o0
    1e2c:	03 00 00 00 	sethi  %hi(0), %g1
    1e30:	82 10 60 08 	or  %g1, 8, %g1	! 8 <GLIBC_PRIVATE+0x8>
    1e34:	c2 05 c0 01 	ld  [ %l7 + %g1 ], %g1
    1e38:	c4 00 40 00 	ld  [ %g1 ], %g2
    1e3c:	c4 00 80 00 	ld  [ %g2 ], %g2
    1e40:	80 a0 a0 00 	cmp  %g2, 0
    1e44:	22 80 00 0d 	be,a   1e78 <__do_global_dtors_aux+0x9c>
    1e48:	82 14 60 0c 	or  %l1, 0xc, %g1
    1e4c:	a0 10 00 01 	mov  %g1, %l0
    1e50:	c2 04 00 00 	ld  [ %l0 ], %g1
    1e54:	82 00 60 04 	add  %g1, 4, %g1
    1e58:	9f c0 80 00 	call  %g2
    1e5c:	c2 24 00 00 	st  %g1, [ %l0 ]
    1e60:	c2 04 00 00 	ld  [ %l0 ], %g1
    1e64:	c4 00 40 00 	ld  [ %g1 ], %g2
    1e68:	80 a0 a0 00 	cmp  %g2, 0
    1e6c:	12 bf ff fb 	bne  1e58 <__do_global_dtors_aux+0x7c>
    1e70:	82 00 60 04 	add  %g1, 4, %g1
    1e74:	82 14 60 0c 	or  %l1, 0xc, %g1
    1e78:	c6 05 c0 01 	ld  [ %l7 + %g1 ], %g3
    1e7c:	84 10 20 01 	mov  1, %g2
    1e80:	c4 28 c0 00 	stb  %g2, [ %g3 ]
    1e84:	81 c7 e0 08 	ret 
    1e88:	81 e8 00 00 	restore 

00001e8c <call___do_global_dtors_aux>:
call___do_global_dtors_aux():
    1e8c:	9d e3 bf 98 	save  %sp, -104, %sp
    1e90:	81 c7 e0 08 	ret 
    1e94:	81 e8 00 00 	restore 

00001e98 <frame_dummy>:
frame_dummy():
    1e98:	9d e3 bf 98 	save  %sp, -104, %sp
    1e9c:	03 00 00 00 	sethi  %hi(0), %g1
    1ea0:	2f 00 00 60 	sethi  %hi(0x18000), %l7
    1ea4:	7f ff ff cc 	call  1dd4 <_init+0x1c>
    1ea8:	ae 05 e1 5c 	add  %l7, 0x15c, %l7	! 1815c <__FRAME_END__+0xf4ac>
    1eac:	82 10 60 04 	or  %g1, 4, %g1
    1eb0:	f0 05 c0 01 	ld  [ %l7 + %g1 ], %i0
    1eb4:	05 00 00 00 	sethi  %hi(0), %g2
    1eb8:	c2 06 00 00 	ld  [ %i0 ], %g1
    1ebc:	80 a0 60 00 	cmp  %g1, 0
    1ec0:	02 80 00 08 	be  1ee0 <frame_dummy+0x48>
    1ec4:	84 10 a1 6c 	or  %g2, 0x16c, %g2
    1ec8:	c2 05 c0 02 	ld  [ %l7 + %g2 ], %g1
    1ecc:	80 a0 60 00 	cmp  %g1, 0
    1ed0:	02 80 00 04 	be  1ee0 <frame_dummy+0x48>
    1ed4:	01 00 00 00 	nop 
    1ed8:	10 80 61 27 	b  1a374 <_Jv_RegisterClasses@plt>
    1edc:	81 e8 00 00 	restore 
    1ee0:	01 00 00 00 	nop 
    1ee4:	81 c7 e0 08 	ret 
    1ee8:	81 e8 00 00 	restore 

00001eec <call_frame_dummy>:
call_frame_dummy():
    1eec:	9d e3 bf 98 	save  %sp, -104, %sp
    1ef0:	81 c7 e0 08 	ret 
    1ef4:	81 e8 00 00 	restore 
    1ef8:	81 c3 e0 08 	retl 
    1efc:	ae 03 c0 17 	add  %o7, %l7, %l7

00001f00 <_nss_files_parse_protoent>:
_nss_files_parse_protoent():
    1f00:	9d e3 bf 88 	save  %sp, -120, %sp
    1f04:	c4 4e 00 00 	ldsb  [ %i0 ], %g2
    1f08:	2f 00 00 60 	sethi  %hi(0x18000), %l7
    1f0c:	7f ff ff fb 	call  1ef8 <call_frame_dummy+0xc>
    1f10:	ae 05 e0 f4 	add  %l7, 0xf4, %l7	! 180f4 <__FRAME_END__+0xf444>
    1f14:	80 a0 a0 00 	cmp  %g2, 0
    1f18:	86 10 00 18 	mov  %i0, %g3
    1f1c:	02 80 00 0c 	be  1f4c <_nss_files_parse_protoent+0x4c>
    1f20:	c2 0e 00 00 	ldub  [ %i0 ], %g1
    1f24:	80 a0 a0 23 	cmp  %g2, 0x23
    1f28:	02 80 00 70 	be  20e8 <_nss_files_parse_protoent+0x1e8>
    1f2c:	80 a0 a0 0a 	cmp  %g2, 0xa
    1f30:	02 80 00 6f 	be  20ec <_nss_files_parse_protoent+0x1ec>
    1f34:	83 28 60 18 	sll  %g1, 0x18, %g1
    1f38:	86 00 e0 01 	inc  %g3
    1f3c:	c4 48 c0 00 	ldsb  [ %g3 ], %g2
    1f40:	80 a0 a0 00 	cmp  %g2, 0
    1f44:	12 bf ff f8 	bne  1f24 <_nss_files_parse_protoent+0x24>
    1f48:	c2 08 c0 00 	ldub  [ %g3 ], %g1
    1f4c:	10 80 00 0b 	b  1f78 <_nss_files_parse_protoent+0x78>
    1f50:	f0 26 40 00 	st  %i0, [ %i1 ]
    1f54:	40 00 61 0b 	call  1a380 <__ctype_b_loc@plt>
    1f58:	01 00 00 00 	nop 
    1f5c:	82 04 00 10 	add  %l0, %l0, %g1
    1f60:	c4 02 00 00 	ld  [ %o0 ], %g2
    1f64:	c6 10 80 01 	lduh  [ %g2 + %g1 ], %g3
    1f68:	80 88 e0 20 	btst  0x20, %g3
    1f6c:	32 80 00 67 	bne,a   2108 <_nss_files_parse_protoent+0x208>
    1f70:	c0 2e 00 00 	clrb  [ %i0 ]
    1f74:	b0 06 20 01 	inc  %i0
    1f78:	e0 4e 00 00 	ldsb  [ %i0 ], %l0
    1f7c:	80 a4 20 00 	cmp  %l0, 0
    1f80:	12 bf ff f5 	bne  1f54 <_nss_files_parse_protoent+0x54>
    1f84:	90 10 00 18 	mov  %i0, %o0
    1f88:	92 07 bf ec 	add  %fp, -20, %o1
    1f8c:	94 10 20 0a 	mov  0xa, %o2
    1f90:	40 00 60 ed 	call  1a344 <__strtoul_internal@plt>
    1f94:	96 10 20 00 	clr  %o3
    1f98:	e0 07 bf ec 	ld  [ %fp + -20 ], %l0
    1f9c:	80 a4 00 18 	cmp  %l0, %i0
    1fa0:	d0 26 60 08 	st  %o0, [ %i1 + 8 ]
    1fa4:	02 80 00 73 	be  2170 <_nss_files_parse_protoent+0x270>
    1fa8:	b0 10 20 00 	clr  %i0
    1fac:	40 00 60 f5 	call  1a380 <__ctype_b_loc@plt>
    1fb0:	01 00 00 00 	nop 
    1fb4:	c8 4c 00 00 	ldsb  [ %l0 ], %g4
    1fb8:	c2 02 00 00 	ld  [ %o0 ], %g1
    1fbc:	84 01 00 04 	add  %g4, %g4, %g2
    1fc0:	c6 10 40 02 	lduh  [ %g1 + %g2 ], %g3
    1fc4:	80 88 e0 20 	btst  0x20, %g3
    1fc8:	12 80 00 5a 	bne  2130 <_nss_files_parse_protoent+0x230>
    1fcc:	80 a1 20 00 	cmp  %g4, 0
    1fd0:	12 80 00 68 	bne  2170 <_nss_files_parse_protoent+0x270>
    1fd4:	80 a4 00 1a 	cmp  %l0, %i2
    1fd8:	0a 80 00 0a 	bcs  2000 <_nss_files_parse_protoent+0x100>
    1fdc:	90 10 00 1a 	mov  %i2, %o0
    1fe0:	82 06 80 1b 	add  %i2, %i3, %g1
    1fe4:	80 a0 40 10 	cmp  %g1, %l0
    1fe8:	08 80 00 07 	bleu  2004 <_nss_files_parse_protoent+0x104>
    1fec:	90 02 20 03 	add  %o0, 3, %o0
    1ff0:	90 10 00 10 	mov  %l0, %o0
    1ff4:	40 00 60 6e 	call  1a1ac <strchr@plt>
    1ff8:	92 10 20 00 	clr  %o1
    1ffc:	90 02 20 01 	inc  %o0
    2000:	90 02 20 03 	add  %o0, 3, %o0
    2004:	aa 0a 3f fc 	and  %o0, -4, %l5
    2008:	a6 10 00 15 	mov  %l5, %l3
    200c:	a8 25 40 1a 	sub  %l5, %i2, %l4
    2010:	82 05 20 04 	add  %l4, 4, %g1
    2014:	80 a0 40 1b 	cmp  %g1, %i3
    2018:	18 80 00 31 	bgu  20dc <_nss_files_parse_protoent+0x1dc>
    201c:	82 10 20 22 	mov  0x22, %g1
    2020:	c2 4c 00 00 	ldsb  [ %l0 ], %g1
    2024:	80 a0 60 00 	cmp  %g1, 0
    2028:	02 80 00 4d 	be  215c <_nss_files_parse_protoent+0x25c>
    202c:	e2 0c 00 00 	ldub  [ %l0 ], %l1
    2030:	40 00 60 d4 	call  1a380 <__ctype_b_loc@plt>
    2034:	01 00 00 00 	nop 
    2038:	10 80 00 03 	b  2044 <_nss_files_parse_protoent+0x144>
    203c:	d0 02 00 00 	ld  [ %o0 ], %o0
    2040:	e2 0c 00 00 	ldub  [ %l0 ], %l1
    2044:	83 2c 60 18 	sll  %l1, 0x18, %g1
    2048:	83 38 60 17 	sra  %g1, 0x17, %g1
    204c:	c4 12 00 01 	lduh  [ %o0 + %g1 ], %g2
    2050:	80 88 a0 20 	btst  0x20, %g2
    2054:	32 bf ff fb 	bne,a   2040 <_nss_files_parse_protoent+0x140>
    2058:	a0 04 20 01 	inc  %l0
    205c:	10 80 00 0c 	b  208c <_nss_files_parse_protoent+0x18c>
    2060:	a4 10 00 10 	mov  %l0, %l2
    2064:	40 00 60 c7 	call  1a380 <__ctype_b_loc@plt>
    2068:	01 00 00 00 	nop 
    206c:	c2 02 00 00 	ld  [ %o0 ], %g1
    2070:	84 06 00 18 	add  %i0, %i0, %g2
    2074:	c6 10 40 02 	lduh  [ %g1 + %g2 ], %g3
    2078:	80 88 e0 20 	btst  0x20, %g3
    207c:	12 80 00 09 	bne  20a0 <_nss_files_parse_protoent+0x1a0>
    2080:	80 a4 00 12 	cmp  %l0, %l2
    2084:	a0 04 20 01 	inc  %l0
    2088:	e2 0c 00 00 	ldub  [ %l0 ], %l1
    208c:	83 2c 60 18 	sll  %l1, 0x18, %g1
    2090:	b1 38 60 18 	sra  %g1, 0x18, %i0
    2094:	80 a6 20 00 	cmp  %i0, 0
    2098:	12 bf ff f3 	bne  2064 <_nss_files_parse_protoent+0x164>
    209c:	80 a4 00 12 	cmp  %l0, %l2
    20a0:	08 80 00 07 	bleu  20bc <_nss_files_parse_protoent+0x1bc>
    20a4:	83 2c 60 18 	sll  %l1, 0x18, %g1
    20a8:	e4 24 c0 00 	st  %l2, [ %l3 ]
    20ac:	a6 04 e0 04 	add  %l3, 4, %l3
    20b0:	a8 24 c0 1a 	sub  %l3, %i2, %l4
    20b4:	e2 0c 00 00 	ldub  [ %l0 ], %l1
    20b8:	83 2c 60 18 	sll  %l1, 0x18, %g1
    20bc:	80 a0 60 00 	cmp  %g1, 0
    20c0:	02 bf ff d5 	be  2014 <_nss_files_parse_protoent+0x114>
    20c4:	82 05 20 04 	add  %l4, 4, %g1
    20c8:	c0 2c 00 00 	clrb  [ %l0 ]
    20cc:	80 a0 40 1b 	cmp  %g1, %i3
    20d0:	08 bf ff d4 	bleu  2020 <_nss_files_parse_protoent+0x120>
    20d4:	a0 04 20 01 	inc  %l0
    20d8:	82 10 20 22 	mov  0x22, %g1
    20dc:	c2 27 00 00 	st  %g1, [ %i4 ]
    20e0:	10 80 00 24 	b  2170 <_nss_files_parse_protoent+0x270>
    20e4:	b0 10 3f ff 	mov  -1, %i0
    20e8:	83 28 60 18 	sll  %g1, 0x18, %g1
    20ec:	80 a0 60 00 	cmp  %g1, 0
    20f0:	02 bf ff 97 	be  1f4c <_nss_files_parse_protoent+0x4c>
    20f4:	82 90 e0 00 	orcc  %g3, 0, %g1
    20f8:	32 bf ff 95 	bne,a   1f4c <_nss_files_parse_protoent+0x4c>
    20fc:	c0 28 40 00 	clrb  [ %g1 ]
    2100:	10 bf ff 9e 	b  1f78 <_nss_files_parse_protoent+0x78>
    2104:	f0 26 40 00 	st  %i0, [ %i1 ]
    2108:	d0 02 00 00 	ld  [ %o0 ], %o0
    210c:	b0 06 20 01 	inc  %i0
    2110:	c2 4e 00 00 	ldsb  [ %i0 ], %g1
    2114:	82 00 40 01 	add  %g1, %g1, %g1
    2118:	c4 12 00 01 	lduh  [ %o0 + %g1 ], %g2
    211c:	80 88 a0 20 	btst  0x20, %g2
    2120:	32 bf ff fc 	bne,a   2110 <_nss_files_parse_protoent+0x210>
    2124:	b0 06 20 01 	inc  %i0
    2128:	10 bf ff 98 	b  1f88 <_nss_files_parse_protoent+0x88>
    212c:	90 10 00 18 	mov  %i0, %o0
    2130:	90 10 00 01 	mov  %g1, %o0
    2134:	a0 04 20 01 	inc  %l0
    2138:	e0 27 bf ec 	st  %l0, [ %fp + -20 ]
    213c:	c2 4c 00 00 	ldsb  [ %l0 ], %g1
    2140:	82 00 40 01 	add  %g1, %g1, %g1
    2144:	c4 12 00 01 	lduh  [ %o0 + %g1 ], %g2
    2148:	80 88 a0 20 	btst  0x20, %g2
    214c:	32 bf ff fb 	bne,a   2138 <_nss_files_parse_protoent+0x238>
    2150:	a0 04 20 01 	inc  %l0
    2154:	10 bf ff a1 	b  1fd8 <_nss_files_parse_protoent+0xd8>
    2158:	80 a4 00 1a 	cmp  %l0, %i2
    215c:	80 a5 60 00 	cmp  %l5, 0
    2160:	02 bf ff e0 	be  20e0 <_nss_files_parse_protoent+0x1e0>
    2164:	c0 24 c0 00 	clr  [ %l3 ]
    2168:	ea 26 60 04 	st  %l5, [ %i1 + 4 ]
    216c:	b0 10 20 01 	mov  1, %i0
    2170:	81 c7 e0 08 	ret 
    2174:	81 e8 00 00 	restore 

00002178 <internal_setent>:
internal_setent():
    2178:	9d e3 bf 90 	save  %sp, -112, %sp
    217c:	25 00 00 00 	sethi  %hi(0), %l2
    2180:	2f 00 00 5f 	sethi  %hi(0x17c00), %l7
    2184:	7f ff ff 5d 	call  1ef8 <call_frame_dummy+0xc>
    2188:	ae 05 e2 7c 	add  %l7, 0x27c, %l7	! 17e7c <__FRAME_END__+0xf1cc>
    218c:	82 14 a0 10 	or  %l2, 0x10, %g1
    2190:	e2 05 c0 01 	ld  [ %l7 + %g1 ], %l1
    2194:	07 00 00 00 	sethi  %hi(0), %g3
    2198:	05 00 00 00 	sethi  %hi(0), %g2
    219c:	d0 04 40 00 	ld  [ %l1 ], %o0
    21a0:	a6 10 00 18 	mov  %i0, %l3
    21a4:	86 10 e0 24 	or  %g3, 0x24, %g3
    21a8:	84 10 a0 28 	or  %g2, 0x28, %g2
    21ac:	80 a2 20 00 	cmp  %o0, 0
    21b0:	12 80 00 10 	bne  21f0 <internal_setent+0x78>
    21b4:	b0 10 20 01 	mov  1, %i0
    21b8:	d2 05 c0 02 	ld  [ %l7 + %g2 ], %o1
    21bc:	40 00 60 5f 	call  1a338 <fopen@plt>
    21c0:	d0 05 c0 03 	ld  [ %l7 + %g3 ], %o0
    21c4:	82 92 20 00 	orcc  %o0, 0, %g1
    21c8:	12 80 00 18 	bne  2228 <internal_setent+0xb0>
    21cc:	c2 24 40 00 	st  %g1, [ %l1 ]
    21d0:	40 00 60 12 	call  1a218 <__errno_location@plt>
    21d4:	01 00 00 00 	nop 
    21d8:	c2 02 00 00 	ld  [ %o0 ], %g1
    21dc:	82 18 60 0b 	xor  %g1, 0xb, %g1
    21e0:	80 a0 00 01 	cmp  %g0, %g1
    21e4:	84 40 20 00 	addx  %g0, 0, %g2
    21e8:	10 80 00 04 	b  21f8 <internal_setent+0x80>
    21ec:	b0 00 bf fe 	add  %g2, -2, %i0
    21f0:	40 00 60 0d 	call  1a224 <rewind@plt>
    21f4:	01 00 00 00 	nop 
    21f8:	82 14 a0 10 	or  %l2, 0x10, %g1
    21fc:	c4 05 c0 01 	ld  [ %l7 + %g1 ], %g2
    2200:	09 00 00 00 	sethi  %hi(0), %g4
    2204:	c6 00 80 00 	ld  [ %g2 ], %g3
    2208:	80 a0 e0 00 	cmp  %g3, 0
    220c:	02 80 00 1c 	be  227c <internal_setent+0x104>
    2210:	88 11 20 14 	or  %g4, 0x14, %g4
    2214:	c4 05 c0 04 	ld  [ %l7 + %g4 ], %g2
    2218:	c2 00 80 00 	ld  [ %g2 ], %g1
    221c:	82 10 40 13 	or  %g1, %l3, %g1
    2220:	10 80 00 17 	b  227c <internal_setent+0x104>
    2224:	c2 20 80 00 	st  %g1, [ %g2 ]
    2228:	40 00 5f ed 	call  1a1dc <fileno@plt>
    222c:	01 00 00 00 	nop 
    2230:	92 10 20 01 	mov  1, %o1	! 1 <GLIBC_PRIVATE+0x1>
    2234:	40 00 60 26 	call  1a2cc <fcntl@plt>
    2238:	94 10 20 00 	clr  %o2
    223c:	a0 92 20 00 	orcc  %o0, 0, %l0
    2240:	06 80 00 0a 	bl  2268 <internal_setent+0xf0>
    2244:	a0 14 20 01 	or  %l0, 1, %l0
    2248:	40 00 5f e5 	call  1a1dc <fileno@plt>
    224c:	d0 04 40 00 	ld  [ %l1 ], %o0
    2250:	94 10 00 10 	mov  %l0, %o2
    2254:	40 00 60 1e 	call  1a2cc <fcntl@plt>
    2258:	92 10 20 02 	mov  2, %o1
    225c:	80 a2 20 00 	cmp  %o0, 0
    2260:	16 bf ff e7 	bge  21fc <internal_setent+0x84>
    2264:	82 14 a0 10 	or  %l2, 0x10, %g1
    2268:	40 00 60 1f 	call  1a2e4 <fclose@plt>
    226c:	d0 04 40 00 	ld  [ %l1 ], %o0
    2270:	c0 24 40 00 	clr  [ %l1 ]
    2274:	10 bf ff e1 	b  21f8 <internal_setent+0x80>
    2278:	b0 10 3f ff 	mov  -1, %i0
    227c:	81 c7 e0 08 	ret 
    2280:	81 e8 00 00 	restore 

00002284 <_nss_files_setprotoent>:
_nss_files_setprotoent():
    2284:	9d e3 bf 90 	save  %sp, -112, %sp
    2288:	03 00 00 00 	sethi  %hi(0), %g1
    228c:	2f 00 00 5f 	sethi  %hi(0x17c00), %l7
    2290:	7f ff ff 1a 	call  1ef8 <call_frame_dummy+0xc>
    2294:	ae 05 e1 70 	add  %l7, 0x170, %l7	! 17d70 <__FRAME_END__+0xf0c0>
    2298:	82 10 61 58 	or  %g1, 0x158, %g1
    229c:	05 00 00 00 	sethi  %hi(0), %g2
    22a0:	c2 05 c0 01 	ld  [ %l7 + %g1 ], %g1
    22a4:	80 a0 60 00 	cmp  %g1, 0
    22a8:	02 80 00 04 	be  22b8 <_nss_files_setprotoent+0x34>
    22ac:	84 10 a0 18 	or  %g2, 0x18, %g2
    22b0:	9f c0 40 00 	call  %g1
    22b4:	d0 05 c0 02 	ld  [ %l7 + %g2 ], %o0
    22b8:	7f ff ff b0 	call  2178 <internal_setent>
    22bc:	90 10 00 18 	mov  %i0, %o0
    22c0:	05 00 00 00 	sethi  %hi(0), %g2
    22c4:	b0 10 00 08 	mov  %o0, %i0
    22c8:	80 a2 20 01 	cmp  %o0, 1
    22cc:	02 80 00 11 	be  2310 <_nss_files_setprotoent+0x8c>
    22d0:	84 10 a0 1c 	or  %g2, 0x1c, %g2
    22d4:	03 00 00 00 	sethi  %hi(0), %g1
    22d8:	82 10 60 20 	or  %g1, 0x20, %g1	! 20 <GLIBC_PRIVATE+0x20>
    22dc:	05 00 00 00 	sethi  %hi(0), %g2
    22e0:	c6 05 c0 01 	ld  [ %l7 + %g1 ], %g3
    22e4:	84 10 a1 64 	or  %g2, 0x164, %g2
    22e8:	09 00 00 00 	sethi  %hi(0), %g4
    22ec:	c4 05 c0 02 	ld  [ %l7 + %g2 ], %g2
    22f0:	82 10 20 01 	mov  1, %g1
    22f4:	88 11 20 18 	or  %g4, 0x18, %g4
    22f8:	80 a0 a0 00 	cmp  %g2, 0
    22fc:	02 80 00 13 	be  2348 <_nss_files_setprotoent+0xc4>
    2300:	c2 20 c0 00 	st  %g1, [ %g3 ]
    2304:	9f c0 80 00 	call  %g2
    2308:	d0 05 c0 04 	ld  [ %l7 + %g4 ], %o0
    230c:	30 80 00 0f 	b,a   2348 <_nss_files_setprotoent+0xc4>
    2310:	03 00 00 00 	sethi  %hi(0), %g1
    2314:	82 10 60 10 	or  %g1, 0x10, %g1	! 10 <GLIBC_PRIVATE+0x10>
    2318:	e0 05 c0 01 	ld  [ %l7 + %g1 ], %l0
    231c:	d2 05 c0 02 	ld  [ %l7 + %g2 ], %o1
    2320:	40 00 60 0c 	call  1a350 <fgetpos@plt>
    2324:	d0 04 00 00 	ld  [ %l0 ], %o0
    2328:	80 a2 20 00 	cmp  %o0, 0
    232c:	16 bf ff eb 	bge  22d8 <_nss_files_setprotoent+0x54>
    2330:	03 00 00 00 	sethi  %hi(0), %g1
    2334:	40 00 5f ec 	call  1a2e4 <fclose@plt>
    2338:	d0 04 00 00 	ld  [ %l0 ], %o0
    233c:	c0 24 00 00 	clr  [ %l0 ]
    2340:	10 bf ff e5 	b  22d4 <_nss_files_setprotoent+0x50>
    2344:	b0 10 3f ff 	mov  -1, %i0
    2348:	81 c7 e0 08 	ret 
    234c:	81 e8 00 00 	restore 

00002350 <internal_endent>:
internal_endent():
    2350:	9d e3 bf 90 	save  %sp, -112, %sp
    2354:	03 00 00 00 	sethi  %hi(0), %g1
    2358:	2f 00 00 5f 	sethi  %hi(0x17c00), %l7
    235c:	7f ff fe e7 	call  1ef8 <call_frame_dummy+0xc>
    2360:	ae 05 e0 a4 	add  %l7, 0xa4, %l7	! 17ca4 <__FRAME_END__+0xeff4>
    2364:	82 10 60 10 	or  %g1, 0x10, %g1
    2368:	e0 05 c0 01 	ld  [ %l7 + %g1 ], %l0
    236c:	c4 04 00 00 	ld  [ %l0 ], %g2
    2370:	90 90 a0 00 	orcc  %g2, 0, %o0
    2374:	02 80 00 05 	be  2388 <internal_endent+0x38>
    2378:	01 00 00 00 	nop 
    237c:	40 00 5f da 	call  1a2e4 <fclose@plt>
    2380:	01 00 00 00 	nop 
    2384:	c0 24 00 00 	clr  [ %l0 ]
    2388:	81 c7 e0 08 	ret 
    238c:	81 e8 00 00 	restore 

00002390 <_nss_files_endprotoent>:
_nss_files_endprotoent():
    2390:	9d e3 bf 90 	save  %sp, -112, %sp
    2394:	03 00 00 00 	sethi  %hi(0), %g1
    2398:	2f 00 00 5f 	sethi  %hi(0x17c00), %l7
    239c:	7f ff fe d7 	call  1ef8 <call_frame_dummy+0xc>
    23a0:	ae 05 e0 64 	add  %l7, 0x64, %l7	! 17c64 <__FRAME_END__+0xefb4>
    23a4:	82 10 61 58 	or  %g1, 0x158, %g1
    23a8:	05 00 00 00 	sethi  %hi(0), %g2
    23ac:	c2 05 c0 01 	ld  [ %l7 + %g1 ], %g1
    23b0:	80 a0 60 00 	cmp  %g1, 0
    23b4:	02 80 00 04 	be  23c4 <_nss_files_endprotoent+0x34>
    23b8:	84 10 a0 18 	or  %g2, 0x18, %g2
    23bc:	9f c0 40 00 	call  %g1
    23c0:	d0 05 c0 02 	ld  [ %l7 + %g2 ], %o0
    23c4:	7f ff ff e3 	call  2350 <internal_endent>
    23c8:	01 00 00 00 	nop 
    23cc:	03 00 00 00 	sethi  %hi(0), %g1
    23d0:	82 10 60 14 	or  %g1, 0x14, %g1	! 14 <GLIBC_PRIVATE+0x14>
    23d4:	05 00 00 00 	sethi  %hi(0), %g2
    23d8:	c6 05 c0 01 	ld  [ %l7 + %g1 ], %g3
    23dc:	84 10 a1 64 	or  %g2, 0x164, %g2
    23e0:	09 00 00 00 	sethi  %hi(0), %g4
    23e4:	c2 05 c0 02 	ld  [ %l7 + %g2 ], %g1
    23e8:	88 11 20 18 	or  %g4, 0x18, %g4
    23ec:	80 a0 60 00 	cmp  %g1, 0
    23f0:	02 80 00 04 	be  2400 <_nss_files_endprotoent+0x70>
    23f4:	c0 20 c0 00 	clr  [ %g3 ]
    23f8:	9f c0 40 00 	call  %g1
    23fc:	d0 05 c0 04 	ld  [ %l7 + %g4 ], %o0
    2400:	81 c7 e0 08 	ret 
    2404:	91 e8 20 01 	restore  %g0, 1, %o0

00002408 <internal_getent>:
internal_getent():
    2408:	9d e3 bf 90 	save  %sp, -112, %sp
    240c:	2f 00 00 5e 	sethi  %hi(0x17800), %l7
    2410:	7f ff fe ba 	call  1ef8 <call_frame_dummy+0xc>
    2414:	ae 05 e3 f0 	add  %l7, 0x3f0, %l7	! 17bf0 <__FRAME_END__+0xef40>
    2418:	80 a6 a0 01 	cmp  %i2, 1
    241c:	08 80 00 32 	bleu  24e4 <internal_getent+0xdc>
    2420:	a4 10 00 1a 	mov  %i2, %l2
    2424:	03 00 00 00 	sethi  %hi(0), %g1
    2428:	82 10 60 10 	or  %g1, 0x10, %g1	! 10 <GLIBC_PRIVATE+0x10>
    242c:	e6 05 c0 01 	ld  [ %l7 + %g1 ], %l3
    2430:	a2 06 40 1a 	add  %i1, %i2, %l1
    2434:	82 10 3f ff 	mov  -1, %g1
    2438:	c2 2c 7f ff 	stb  %g1, [ %l1 + -1 ]
    243c:	90 10 00 19 	mov  %i1, %o0
    2440:	92 10 00 12 	mov  %l2, %o1
    2444:	40 00 5f 7e 	call  1a23c <fgets_unlocked@plt>
    2448:	d4 04 c0 00 	ld  [ %l3 ], %o2
    244c:	a0 92 20 00 	orcc  %o0, 0, %l0
    2450:	22 80 00 28 	be,a   24f0 <internal_getent+0xe8>
    2454:	b0 10 20 00 	clr  %i0
    2458:	c2 0c 7f ff 	ldub  [ %l1 + -1 ], %g1
    245c:	80 a0 60 ff 	cmp  %g1, 0xff
    2460:	12 80 00 22 	bne  24e8 <internal_getent+0xe0>
    2464:	82 10 20 22 	mov  0x22, %g1
    2468:	40 00 5f c6 	call  1a380 <__ctype_b_loc@plt>
    246c:	01 00 00 00 	nop 
    2470:	d0 02 00 00 	ld  [ %o0 ], %o0
    2474:	c6 4c 00 00 	ldsb  [ %l0 ], %g3
    2478:	82 00 c0 03 	add  %g3, %g3, %g1
    247c:	c4 12 00 01 	lduh  [ %o0 + %g1 ], %g2
    2480:	80 88 a0 20 	btst  0x20, %g2
    2484:	32 bf ff fc 	bne,a   2474 <internal_getent+0x6c>
    2488:	a0 04 20 01 	inc  %l0
    248c:	80 a0 00 03 	cmp  %g0, %g3
    2490:	82 60 3f ff 	subx  %g0, -1, %g1
    2494:	84 18 e0 23 	xor  %g3, 0x23, %g2
    2498:	80 a0 00 02 	cmp  %g0, %g2
    249c:	86 60 3f ff 	subx  %g0, -1, %g3
    24a0:	80 90 40 03 	orcc  %g1, %g3, %g0
    24a4:	12 bf ff e5 	bne  2438 <internal_getent+0x30>
    24a8:	82 10 3f ff 	mov  -1, %g1
    24ac:	90 10 00 10 	mov  %l0, %o0
    24b0:	92 10 00 18 	mov  %i0, %o1
    24b4:	94 10 00 19 	mov  %i1, %o2
    24b8:	96 10 00 1a 	mov  %i2, %o3
    24bc:	7f ff fe 91 	call  1f00 <_nss_files_parse_protoent>
    24c0:	98 10 00 1b 	mov  %i3, %o4
    24c4:	80 a2 20 00 	cmp  %o0, 0
    24c8:	02 bf ff dc 	be  2438 <internal_getent+0x30>
    24cc:	82 10 3f ff 	mov  -1, %g1
    24d0:	80 a2 3f ff 	cmp  %o0, -1
    24d4:	02 80 00 07 	be  24f0 <internal_getent+0xe8>
    24d8:	b0 10 3f fe 	mov  -2, %i0
    24dc:	10 80 00 05 	b  24f0 <internal_getent+0xe8>
    24e0:	b0 10 20 01 	mov  1, %i0
    24e4:	82 10 20 22 	mov  0x22, %g1
    24e8:	c2 26 c0 00 	st  %g1, [ %i3 ]
    24ec:	b0 10 3f fe 	mov  -2, %i0
    24f0:	81 c7 e0 08 	ret 
    24f4:	81 e8 00 00 	restore 

000024f8 <_nss_files_getprotoent_r>:
_nss_files_getprotoent_r():
    24f8:	9d e3 bf 90 	save  %sp, -112, %sp
    24fc:	03 00 00 00 	sethi  %hi(0), %g1
    2500:	2f 00 00 5e 	sethi  %hi(0x17800), %l7
    2504:	7f ff fe 7d 	call  1ef8 <call_frame_dummy+0xc>
    2508:	ae 05 e2 fc 	add  %l7, 0x2fc, %l7	! 17afc <__FRAME_END__+0xee4c>
    250c:	82 10 61 58 	or  %g1, 0x158, %g1
    2510:	c4 05 c0 01 	ld  [ %l7 + %g1 ], %g2
    2514:	a6 10 00 18 	mov  %i0, %l3
    2518:	80 a0 a0 00 	cmp  %g2, 0
    251c:	02 80 00 06 	be  2534 <_nss_files_getprotoent_r+0x3c>
    2520:	b0 10 20 01 	mov  1, %i0
    2524:	03 00 00 00 	sethi  %hi(0), %g1
    2528:	82 10 60 18 	or  %g1, 0x18, %g1	! 18 <GLIBC_PRIVATE+0x18>
    252c:	9f c0 80 00 	call  %g2
    2530:	d0 05 c0 01 	ld  [ %l7 + %g1 ], %o0
    2534:	23 00 00 00 	sethi  %hi(0), %l1
    2538:	82 14 60 10 	or  %l1, 0x10, %g1	! 10 <GLIBC_PRIVATE+0x10>
    253c:	e0 05 c0 01 	ld  [ %l7 + %g1 ], %l0
    2540:	c4 04 00 00 	ld  [ %l0 ], %g2
    2544:	80 a0 a0 00 	cmp  %g2, 0
    2548:	02 80 00 27 	be  25e4 <_nss_files_getprotoent_r+0xec>
    254c:	25 00 00 00 	sethi  %hi(0), %l2
    2550:	82 14 a0 20 	or  %l2, 0x20, %g1	! 20 <GLIBC_PRIVATE+0x20>
    2554:	e0 05 c0 01 	ld  [ %l7 + %g1 ], %l0
    2558:	c4 04 00 00 	ld  [ %l0 ], %g2
    255c:	80 a0 a0 01 	cmp  %g2, 1
    2560:	02 80 00 0c 	be  2590 <_nss_files_getprotoent_r+0x98>
    2564:	82 14 60 10 	or  %l1, 0x10, %g1
    2568:	05 00 00 00 	sethi  %hi(0), %g2
    256c:	c6 05 c0 01 	ld  [ %l7 + %g1 ], %g3
    2570:	84 10 a0 1c 	or  %g2, 0x1c, %g2
    2574:	d0 00 c0 00 	ld  [ %g3 ], %o0
    2578:	40 00 5f 22 	call  1a200 <fsetpos@plt>
    257c:	d2 05 c0 02 	ld  [ %l7 + %g2 ], %o1
    2580:	80 a2 20 00 	cmp  %o0, 0
    2584:	26 80 00 0e 	bl,a   25bc <_nss_files_getprotoent_r+0xc4>
    2588:	b0 10 3f ff 	mov  -1, %i0
    258c:	f0 24 00 00 	st  %i0, [ %l0 ]
    2590:	90 10 00 13 	mov  %l3, %o0
    2594:	92 10 00 19 	mov  %i1, %o1
    2598:	94 10 00 1a 	mov  %i2, %o2
    259c:	7f ff ff 9b 	call  2408 <internal_getent>
    25a0:	96 10 00 1b 	mov  %i3, %o3
    25a4:	80 a2 20 01 	cmp  %o0, 1
    25a8:	02 80 00 21 	be  262c <_nss_files_getprotoent_r+0x134>
    25ac:	b0 10 00 08 	mov  %o0, %i0
    25b0:	82 14 a0 20 	or  %l2, 0x20, %g1
    25b4:	c4 05 c0 01 	ld  [ %l7 + %g1 ], %g2
    25b8:	c0 20 80 00 	clr  [ %g2 ]
    25bc:	03 00 00 00 	sethi  %hi(0), %g1
    25c0:	82 10 61 64 	or  %g1, 0x164, %g1	! 164 <GLIBC_PRIVATE+0x164>
    25c4:	c4 05 c0 01 	ld  [ %l7 + %g1 ], %g2
    25c8:	80 a0 a0 00 	cmp  %g2, 0
    25cc:	02 80 00 21 	be  2650 <_nss_files_getprotoent_r+0x158>
    25d0:	03 00 00 00 	sethi  %hi(0), %g1
    25d4:	82 10 60 18 	or  %g1, 0x18, %g1	! 18 <GLIBC_PRIVATE+0x18>
    25d8:	9f c0 80 00 	call  %g2
    25dc:	d0 05 c0 01 	ld  [ %l7 + %g1 ], %o0
    25e0:	30 80 00 1c 	b,a   2650 <_nss_files_getprotoent_r+0x158>
    25e4:	7f ff fe e5 	call  2178 <internal_setent>
    25e8:	90 10 20 00 	clr  %o0
    25ec:	80 a2 20 01 	cmp  %o0, 1
    25f0:	12 bf ff f3 	bne  25bc <_nss_files_getprotoent_r+0xc4>
    25f4:	b0 10 00 08 	mov  %o0, %i0
    25f8:	03 00 00 00 	sethi  %hi(0), %g1
    25fc:	82 10 60 1c 	or  %g1, 0x1c, %g1	! 1c <GLIBC_PRIVATE+0x1c>
    2600:	d2 05 c0 01 	ld  [ %l7 + %g1 ], %o1
    2604:	40 00 5f 53 	call  1a350 <fgetpos@plt>
    2608:	d0 04 00 00 	ld  [ %l0 ], %o0
    260c:	80 a2 20 00 	cmp  %o0, 0
    2610:	16 bf ff d0 	bge  2550 <_nss_files_getprotoent_r+0x58>
    2614:	25 00 00 00 	sethi  %hi(0), %l2
    2618:	40 00 5f 33 	call  1a2e4 <fclose@plt>
    261c:	d0 04 00 00 	ld  [ %l0 ], %o0
    2620:	c0 24 00 00 	clr  [ %l0 ]
    2624:	10 bf ff e6 	b  25bc <_nss_files_getprotoent_r+0xc4>
    2628:	b0 10 3f ff 	mov  -1, %i0
    262c:	82 14 60 10 	or  %l1, 0x10, %g1
    2630:	05 00 00 00 	sethi  %hi(0), %g2
    2634:	c6 05 c0 01 	ld  [ %l7 + %g1 ], %g3
    2638:	84 10 a0 1c 	or  %g2, 0x1c, %g2
    263c:	d0 00 c0 00 	ld  [ %g3 ], %o0
    2640:	40 00 5f 44 	call  1a350 <fgetpos@plt>
    2644:	d2 05 c0 02 	ld  [ %l7 + %g2 ], %o1
    2648:	10 bf ff de 	b  25c0 <_nss_files_getprotoent_r+0xc8>
    264c:	03 00 00 00 	sethi  %hi(0), %g1
    2650:	81 c7 e0 08 	ret 
    2654:	81 e8 00 00 	restore 

00002658 <_nss_files_getprotobyname_r>:
_nss_files_getprotobyname_r():
    2658:	9d e3 bf 90 	save  %sp, -112, %sp
    265c:	03 00 00 00 	sethi  %hi(0), %g1
    2660:	2f 00 00 5e 	sethi  %hi(0x17800), %l7
    2664:	7f ff fe 25 	call  1ef8 <call_frame_dummy+0xc>
    2668:	ae 05 e1 9c 	add  %l7, 0x19c, %l7	! 1799c <__FRAME_END__+0xecec>
    266c:	82 10 61 58 	or  %g1, 0x158, %g1
    2670:	c4 05 c0 01 	ld  [ %l7 + %g1 ], %g2
    2674:	80 a0 a0 00 	cmp  %g2, 0
    2678:	02 80 00 06 	be  2690 <_nss_files_getprotobyname_r+0x38>
    267c:	a4 10 00 18 	mov  %i0, %l2
    2680:	03 00 00 00 	sethi  %hi(0), %g1
    2684:	82 10 60 18 	or  %g1, 0x18, %g1	! 18 <GLIBC_PRIVATE+0x18>
    2688:	9f c0 80 00 	call  %g2
    268c:	d0 05 c0 01 	ld  [ %l7 + %g1 ], %o0
    2690:	27 00 00 00 	sethi  %hi(0), %l3
    2694:	82 14 e0 14 	or  %l3, 0x14, %g1	! 14 <GLIBC_PRIVATE+0x14>
    2698:	c4 05 c0 01 	ld  [ %l7 + %g1 ], %g2
    269c:	7f ff fe b7 	call  2178 <internal_setent>
    26a0:	d0 00 80 00 	ld  [ %g2 ], %o0
    26a4:	80 a2 20 01 	cmp  %o0, 1
    26a8:	02 80 00 0c 	be  26d8 <_nss_files_getprotobyname_r+0x80>
    26ac:	b0 10 00 08 	mov  %o0, %i0
    26b0:	03 00 00 00 	sethi  %hi(0), %g1
    26b4:	82 10 61 64 	or  %g1, 0x164, %g1	! 164 <GLIBC_PRIVATE+0x164>
    26b8:	c4 05 c0 01 	ld  [ %l7 + %g1 ], %g2
    26bc:	80 a0 a0 00 	cmp  %g2, 0
    26c0:	02 80 00 31 	be  2784 <_nss_files_getprotobyname_r+0x12c>
    26c4:	03 00 00 00 	sethi  %hi(0), %g1
    26c8:	82 10 60 18 	or  %g1, 0x18, %g1	! 18 <GLIBC_PRIVATE+0x18>
    26cc:	9f c0 80 00 	call  %g2
    26d0:	d0 05 c0 01 	ld  [ %l7 + %g1 ], %o0
    26d4:	30 80 00 2c 	b,a   2784 <_nss_files_getprotobyname_r+0x12c>
    26d8:	03 00 00 00 	sethi  %hi(0), %g1
    26dc:	82 10 60 20 	or  %g1, 0x20, %g1	! 20 <GLIBC_PRIVATE+0x20>
    26e0:	c6 05 c0 01 	ld  [ %l7 + %g1 ], %g3
    26e4:	84 10 20 02 	mov  2, %g2
    26e8:	c4 20 c0 00 	st  %g2, [ %g3 ]
    26ec:	90 10 00 19 	mov  %i1, %o0
    26f0:	92 10 00 1a 	mov  %i2, %o1
    26f4:	94 10 00 1b 	mov  %i3, %o2
    26f8:	7f ff ff 44 	call  2408 <internal_getent>
    26fc:	96 10 00 1c 	mov  %i4, %o3
    2700:	80 a2 20 01 	cmp  %o0, 1
    2704:	12 80 00 16 	bne  275c <_nss_files_getprotobyname_r+0x104>
    2708:	b0 10 00 08 	mov  %o0, %i0
    270c:	90 10 00 12 	mov  %l2, %o0
    2710:	40 00 5e b6 	call  1a1e8 <strcmp@plt>
    2714:	d2 06 40 00 	ld  [ %i1 ], %o1
    2718:	80 a2 20 00 	cmp  %o0, 0
    271c:	02 80 00 11 	be  2760 <_nss_files_getprotobyname_r+0x108>
    2720:	82 14 e0 14 	or  %l3, 0x14, %g1
    2724:	e0 06 60 04 	ld  [ %i1 + 4 ], %l0
    2728:	e2 04 00 00 	ld  [ %l0 ], %l1
    272c:	80 a4 60 00 	cmp  %l1, 0
    2730:	02 bf ff f0 	be  26f0 <_nss_files_getprotobyname_r+0x98>
    2734:	90 10 00 19 	mov  %i1, %o0
    2738:	d2 04 00 00 	ld  [ %l0 ], %o1
    273c:	40 00 5e ab 	call  1a1e8 <strcmp@plt>
    2740:	90 10 00 12 	mov  %l2, %o0
    2744:	80 a2 20 00 	cmp  %o0, 0
    2748:	12 bf ff f8 	bne  2728 <_nss_files_getprotobyname_r+0xd0>
    274c:	a0 04 20 04 	add  %l0, 4, %l0
    2750:	80 a4 60 00 	cmp  %l1, 0
    2754:	02 bf ff e7 	be  26f0 <_nss_files_getprotobyname_r+0x98>
    2758:	90 10 00 19 	mov  %i1, %o0
    275c:	82 14 e0 14 	or  %l3, 0x14, %g1
    2760:	c4 05 c0 01 	ld  [ %l7 + %g1 ], %g2
    2764:	c6 00 80 00 	ld  [ %g2 ], %g3
    2768:	80 a0 e0 00 	cmp  %g3, 0
    276c:	32 bf ff d2 	bne,a   26b4 <_nss_files_getprotobyname_r+0x5c>
    2770:	03 00 00 00 	sethi  %hi(0), %g1
    2774:	7f ff fe f7 	call  2350 <internal_endent>
    2778:	01 00 00 00 	nop 
    277c:	10 bf ff ce 	b  26b4 <_nss_files_getprotobyname_r+0x5c>
    2780:	03 00 00 00 	sethi  %hi(0), %g1
    2784:	81 c7 e0 08 	ret 
    2788:	81 e8 00 00 	restore 

0000278c <_nss_files_getprotobynumber_r>:
_nss_files_getprotobynumber_r():
    278c:	9d e3 bf 90 	save  %sp, -112, %sp
    2790:	03 00 00 00 	sethi  %hi(0), %g1
    2794:	2f 00 00 5e 	sethi  %hi(0x17800), %l7
    2798:	7f ff fd d8 	call  1ef8 <call_frame_dummy+0xc>
    279c:	ae 05 e0 68 	add  %l7, 0x68, %l7	! 17868 <__FRAME_END__+0xebb8>
    27a0:	82 10 61 58 	or  %g1, 0x158, %g1
    27a4:	c4 05 c0 01 	ld  [ %l7 + %g1 ], %g2
    27a8:	80 a0 a0 00 	cmp  %g2, 0
    27ac:	02 80 00 06 	be  27c4 <_nss_files_getprotobynumber_r+0x38>
    27b0:	a2 10 00 18 	mov  %i0, %l1
    27b4:	03 00 00 00 	sethi  %hi(0), %g1
    27b8:	82 10 60 18 	or  %g1, 0x18, %g1	! 18 <GLIBC_PRIVATE+0x18>
    27bc:	9f c0 80 00 	call  %g2
    27c0:	d0 05 c0 01 	ld  [ %l7 + %g1 ], %o0
    27c4:	21 00 00 00 	sethi  %hi(0), %l0
    27c8:	82 14 20 14 	or  %l0, 0x14, %g1	! 14 <GLIBC_PRIVATE+0x14>
    27cc:	c4 05 c0 01 	ld  [ %l7 + %g1 ], %g2
    27d0:	7f ff fe 6a 	call  2178 <internal_setent>
    27d4:	d0 00 80 00 	ld  [ %g2 ], %o0
    27d8:	80 a2 20 01 	cmp  %o0, 1
    27dc:	02 80 00 0c 	be  280c <_nss_files_getprotobynumber_r+0x80>
    27e0:	b0 10 00 08 	mov  %o0, %i0
    27e4:	03 00 00 00 	sethi  %hi(0), %g1
    27e8:	82 10 61 64 	or  %g1, 0x164, %g1	! 164 <GLIBC_PRIVATE+0x164>
    27ec:	c4 05 c0 01 	ld  [ %l7 + %g1 ], %g2
    27f0:	80 a0 a0 00 	cmp  %g2, 0
    27f4:	02 80 00 21 	be  2878 <_nss_files_getprotobynumber_r+0xec>
    27f8:	03 00 00 00 	sethi  %hi(0), %g1
    27fc:	82 10 60 18 	or  %g1, 0x18, %g1	! 18 <GLIBC_PRIVATE+0x18>
    2800:	9f c0 80 00 	call  %g2
    2804:	d0 05 c0 01 	ld  [ %l7 + %g1 ], %o0
    2808:	30 80 00 1c 	b,a   2878 <_nss_files_getprotobynumber_r+0xec>
    280c:	03 00 00 00 	sethi  %hi(0), %g1
    2810:	82 10 60 20 	or  %g1, 0x20, %g1	! 20 <GLIBC_PRIVATE+0x20>
    2814:	c6 05 c0 01 	ld  [ %l7 + %g1 ], %g3
    2818:	84 10 20 02 	mov  2, %g2
    281c:	c4 20 c0 00 	st  %g2, [ %g3 ]
    2820:	90 10 00 19 	mov  %i1, %o0
    2824:	92 10 00 1a 	mov  %i2, %o1
    2828:	94 10 00 1b 	mov  %i3, %o2
    282c:	7f ff fe f7 	call  2408 <internal_getent>
    2830:	96 10 00 1c 	mov  %i4, %o3
    2834:	80 a2 20 01 	cmp  %o0, 1
    2838:	12 80 00 06 	bne  2850 <_nss_files_getprotobynumber_r+0xc4>
    283c:	b0 10 00 08 	mov  %o0, %i0
    2840:	c2 06 60 08 	ld  [ %i1 + 8 ], %g1
    2844:	80 a0 40 11 	cmp  %g1, %l1
    2848:	32 bf ff f7 	bne,a   2824 <_nss_files_getprotobynumber_r+0x98>
    284c:	90 10 00 19 	mov  %i1, %o0
    2850:	82 14 20 14 	or  %l0, 0x14, %g1
    2854:	c4 05 c0 01 	ld  [ %l7 + %g1 ], %g2
    2858:	c6 00 80 00 	ld  [ %g2 ], %g3
    285c:	80 a0 e0 00 	cmp  %g3, 0
    2860:	32 bf ff e2 	bne,a   27e8 <_nss_files_getprotobynumber_r+0x5c>
    2864:	03 00 00 00 	sethi  %hi(0), %g1
    2868:	7f ff fe ba 	call  2350 <internal_endent>
    286c:	01 00 00 00 	nop 
    2870:	10 bf ff de 	b  27e8 <_nss_files_getprotobynumber_r+0x5c>
    2874:	03 00 00 00 	sethi  %hi(0), %g1
    2878:	81 c7 e0 08 	ret 
    287c:	81 e8 00 00 	restore 
    2880:	81 c3 e0 08 	retl 
    2884:	ae 03 c0 17 	add  %o7, %l7, %l7

00002888 <_nss_files_parse_servent>:
_nss_files_parse_servent():
    2888:	9d e3 bf 88 	save  %sp, -120, %sp
    288c:	c4 4e 00 00 	ldsb  [ %i0 ], %g2
    2890:	2f 00 00 5d 	sethi  %hi(0x17400), %l7
    2894:	7f ff ff fb 	call  2880 <_nss_files_getprotobynumber_r+0xf4>
    2898:	ae 05 e3 6c 	add  %l7, 0x36c, %l7	! 1776c <__FRAME_END__+0xeabc>
    289c:	80 a0 a0 00 	cmp  %g2, 0
    28a0:	86 10 00 18 	mov  %i0, %g3
    28a4:	02 80 00 0c 	be  28d4 <_nss_files_parse_servent+0x4c>
    28a8:	c2 0e 00 00 	ldub  [ %i0 ], %g1
    28ac:	80 a0 a0 23 	cmp  %g2, 0x23
    28b0:	02 80 00 7b 	be  2a9c <_nss_files_parse_servent+0x214>
    28b4:	80 a0 a0 0a 	cmp  %g2, 0xa
    28b8:	02 80 00 7a 	be  2aa0 <_nss_files_parse_servent+0x218>
    28bc:	83 28 60 18 	sll  %g1, 0x18, %g1
    28c0:	86 00 e0 01 	inc  %g3
    28c4:	c4 48 c0 00 	ldsb  [ %g3 ], %g2
    28c8:	80 a0 a0 00 	cmp  %g2, 0
    28cc:	12 bf ff f8 	bne  28ac <_nss_files_parse_servent+0x24>
    28d0:	c2 08 c0 00 	ldub  [ %g3 ], %g1
    28d4:	10 80 00 0b 	b  2900 <_nss_files_parse_servent+0x78>
    28d8:	f0 26 40 00 	st  %i0, [ %i1 ]
    28dc:	40 00 5e a9 	call  1a380 <__ctype_b_loc@plt>
    28e0:	01 00 00 00 	nop 
    28e4:	82 04 00 10 	add  %l0, %l0, %g1
    28e8:	c4 02 00 00 	ld  [ %o0 ], %g2
    28ec:	c6 10 80 01 	lduh  [ %g2 + %g1 ], %g3
    28f0:	80 88 e0 20 	btst  0x20, %g3
    28f4:	32 80 00 80 	bne,a   2af4 <_nss_files_parse_servent+0x26c>
    28f8:	c0 2e 00 00 	clrb  [ %i0 ]
    28fc:	b0 06 20 01 	inc  %i0
    2900:	e0 4e 00 00 	ldsb  [ %i0 ], %l0
    2904:	80 a4 20 00 	cmp  %l0, 0
    2908:	12 bf ff f5 	bne  28dc <_nss_files_parse_servent+0x54>
    290c:	90 10 00 18 	mov  %i0, %o0
    2910:	92 07 bf ec 	add  %fp, -20, %o1
    2914:	94 10 20 00 	clr  %o2
    2918:	40 00 5e 8b 	call  1a344 <__strtoul_internal@plt>
    291c:	96 10 20 00 	clr  %o3
    2920:	c4 07 bf ec 	ld  [ %fp + -20 ], %g2
    2924:	80 a0 80 18 	cmp  %g2, %i0
    2928:	d0 26 60 08 	st  %o0, [ %i1 + 8 ]
    292c:	02 80 00 8b 	be  2b58 <_nss_files_parse_servent+0x2d0>
    2930:	b0 10 20 00 	clr  %i0
    2934:	c2 48 80 00 	ldsb  [ %g2 ], %g1
    2938:	80 a0 60 2f 	cmp  %g1, 0x2f
    293c:	02 80 00 60 	be  2abc <_nss_files_parse_servent+0x234>
    2940:	80 a0 60 00 	cmp  %g1, 0
    2944:	12 80 00 85 	bne  2b58 <_nss_files_parse_servent+0x2d0>
    2948:	01 00 00 00 	nop 
    294c:	b0 10 00 02 	mov  %g2, %i0
    2950:	10 80 00 0b 	b  297c <_nss_files_parse_servent+0xf4>
    2954:	c4 26 60 0c 	st  %g2, [ %i1 + 0xc ]
    2958:	40 00 5e 8a 	call  1a380 <__ctype_b_loc@plt>
    295c:	01 00 00 00 	nop 
    2960:	82 04 00 10 	add  %l0, %l0, %g1
    2964:	c4 02 00 00 	ld  [ %o0 ], %g2
    2968:	c6 10 80 01 	lduh  [ %g2 + %g1 ], %g3
    296c:	80 88 e0 20 	btst  0x20, %g3
    2970:	32 80 00 6b 	bne,a   2b1c <_nss_files_parse_servent+0x294>
    2974:	c0 2e 00 00 	clrb  [ %i0 ]
    2978:	b0 06 20 01 	inc  %i0
    297c:	e0 4e 00 00 	ldsb  [ %i0 ], %l0
    2980:	80 a4 20 00 	cmp  %l0, 0
    2984:	12 bf ff f5 	bne  2958 <_nss_files_parse_servent+0xd0>
    2988:	80 a6 00 1a 	cmp  %i0, %i2
    298c:	0a 80 00 0a 	bcs  29b4 <_nss_files_parse_servent+0x12c>
    2990:	90 10 00 1a 	mov  %i2, %o0
    2994:	82 06 80 1b 	add  %i2, %i3, %g1
    2998:	80 a0 40 18 	cmp  %g1, %i0
    299c:	08 80 00 07 	bleu  29b8 <_nss_files_parse_servent+0x130>
    29a0:	90 02 20 03 	add  %o0, 3, %o0
    29a4:	90 10 00 18 	mov  %i0, %o0
    29a8:	40 00 5e 01 	call  1a1ac <strchr@plt>
    29ac:	92 10 20 00 	clr  %o1
    29b0:	90 02 20 01 	inc  %o0
    29b4:	90 02 20 03 	add  %o0, 3, %o0
    29b8:	aa 0a 3f fc 	and  %o0, -4, %l5
    29bc:	a6 10 00 15 	mov  %l5, %l3
    29c0:	a8 25 40 1a 	sub  %l5, %i2, %l4
    29c4:	82 05 20 04 	add  %l4, 4, %g1
    29c8:	80 a0 40 1b 	cmp  %g1, %i3
    29cc:	18 80 00 31 	bgu  2a90 <_nss_files_parse_servent+0x208>
    29d0:	82 10 20 22 	mov  0x22, %g1
    29d4:	c2 4e 00 00 	ldsb  [ %i0 ], %g1
    29d8:	80 a0 60 00 	cmp  %g1, 0
    29dc:	02 80 00 5a 	be  2b44 <_nss_files_parse_servent+0x2bc>
    29e0:	e2 0e 00 00 	ldub  [ %i0 ], %l1
    29e4:	40 00 5e 67 	call  1a380 <__ctype_b_loc@plt>
    29e8:	01 00 00 00 	nop 
    29ec:	10 80 00 03 	b  29f8 <_nss_files_parse_servent+0x170>
    29f0:	d0 02 00 00 	ld  [ %o0 ], %o0
    29f4:	e2 0e 00 00 	ldub  [ %i0 ], %l1
    29f8:	83 2c 60 18 	sll  %l1, 0x18, %g1
    29fc:	83 38 60 17 	sra  %g1, 0x17, %g1
    2a00:	c4 12 00 01 	lduh  [ %o0 + %g1 ], %g2
    2a04:	80 88 a0 20 	btst  0x20, %g2
    2a08:	32 bf ff fb 	bne,a   29f4 <_nss_files_parse_servent+0x16c>
    2a0c:	b0 06 20 01 	inc  %i0
    2a10:	10 80 00 0c 	b  2a40 <_nss_files_parse_servent+0x1b8>
    2a14:	a4 10 00 18 	mov  %i0, %l2
    2a18:	40 00 5e 5a 	call  1a380 <__ctype_b_loc@plt>
    2a1c:	01 00 00 00 	nop 
    2a20:	c2 02 00 00 	ld  [ %o0 ], %g1
    2a24:	84 04 00 10 	add  %l0, %l0, %g2
    2a28:	c6 10 40 02 	lduh  [ %g1 + %g2 ], %g3
    2a2c:	80 88 e0 20 	btst  0x20, %g3
    2a30:	12 80 00 09 	bne  2a54 <_nss_files_parse_servent+0x1cc>
    2a34:	80 a6 00 12 	cmp  %i0, %l2
    2a38:	b0 06 20 01 	inc  %i0
    2a3c:	e2 0e 00 00 	ldub  [ %i0 ], %l1
    2a40:	83 2c 60 18 	sll  %l1, 0x18, %g1
    2a44:	a1 38 60 18 	sra  %g1, 0x18, %l0
    2a48:	80 a4 20 00 	cmp  %l0, 0
    2a4c:	12 bf ff f3 	bne  2a18 <_nss_files_parse_servent+0x190>
    2a50:	80 a6 00 12 	cmp  %i0, %l2
    2a54:	08 80 00 07 	bleu  2a70 <_nss_files_parse_servent+0x1e8>
    2a58:	83 2c 60 18 	sll  %l1, 0x18, %g1
    2a5c:	e4 24 c0 00 	st  %l2, [ %l3 ]
    2a60:	a6 04 e0 04 	add  %l3, 4, %l3
    2a64:	a8 24 c0 1a 	sub  %l3, %i2, %l4
    2a68:	e2 0e 00 00 	ldub  [ %i0 ], %l1
    2a6c:	83 2c 60 18 	sll  %l1, 0x18, %g1
    2a70:	80 a0 60 00 	cmp  %g1, 0
    2a74:	02 bf ff d5 	be  29c8 <_nss_files_parse_servent+0x140>
    2a78:	82 05 20 04 	add  %l4, 4, %g1
    2a7c:	c0 2e 00 00 	clrb  [ %i0 ]
    2a80:	80 a0 40 1b 	cmp  %g1, %i3
    2a84:	08 bf ff d4 	bleu  29d4 <_nss_files_parse_servent+0x14c>
    2a88:	b0 06 20 01 	inc  %i0
    2a8c:	82 10 20 22 	mov  0x22, %g1
    2a90:	c2 27 00 00 	st  %g1, [ %i4 ]
    2a94:	10 80 00 31 	b  2b58 <_nss_files_parse_servent+0x2d0>
    2a98:	b0 10 3f ff 	mov  -1, %i0
    2a9c:	83 28 60 18 	sll  %g1, 0x18, %g1
    2aa0:	80 a0 60 00 	cmp  %g1, 0
    2aa4:	02 bf ff 8c 	be  28d4 <_nss_files_parse_servent+0x4c>
    2aa8:	82 90 e0 00 	orcc  %g3, 0, %g1
    2aac:	32 bf ff 8a 	bne,a   28d4 <_nss_files_parse_servent+0x4c>
    2ab0:	c0 28 40 00 	clrb  [ %g1 ]
    2ab4:	10 bf ff 93 	b  2900 <_nss_files_parse_servent+0x78>
    2ab8:	f0 26 40 00 	st  %i0, [ %i1 ]
    2abc:	84 00 a0 01 	inc  %g2
    2ac0:	c4 27 bf ec 	st  %g2, [ %fp + -20 ]
    2ac4:	c2 48 80 00 	ldsb  [ %g2 ], %g1
    2ac8:	80 a0 60 2f 	cmp  %g1, 0x2f
    2acc:	12 bf ff a1 	bne  2950 <_nss_files_parse_servent+0xc8>
    2ad0:	b0 10 00 02 	mov  %g2, %i0
    2ad4:	84 00 a0 01 	inc  %g2
    2ad8:	c4 27 bf ec 	st  %g2, [ %fp + -20 ]
    2adc:	c2 48 80 00 	ldsb  [ %g2 ], %g1
    2ae0:	80 a0 60 2f 	cmp  %g1, 0x2f
    2ae4:	22 bf ff f7 	be,a   2ac0 <_nss_files_parse_servent+0x238>
    2ae8:	84 00 a0 01 	inc  %g2
    2aec:	10 bf ff 99 	b  2950 <_nss_files_parse_servent+0xc8>
    2af0:	b0 10 00 02 	mov  %g2, %i0
    2af4:	d0 02 00 00 	ld  [ %o0 ], %o0
    2af8:	b0 06 20 01 	inc  %i0
    2afc:	c2 4e 00 00 	ldsb  [ %i0 ], %g1
    2b00:	82 00 40 01 	add  %g1, %g1, %g1
    2b04:	c4 12 00 01 	lduh  [ %o0 + %g1 ], %g2
    2b08:	80 88 a0 20 	btst  0x20, %g2
    2b0c:	32 bf ff fc 	bne,a   2afc <_nss_files_parse_servent+0x274>
    2b10:	b0 06 20 01 	inc  %i0
    2b14:	10 bf ff 7f 	b  2910 <_nss_files_parse_servent+0x88>
    2b18:	90 10 00 18 	mov  %i0, %o0
    2b1c:	d0 02 00 00 	ld  [ %o0 ], %o0
    2b20:	b0 06 20 01 	inc  %i0
    2b24:	c2 4e 00 00 	ldsb  [ %i0 ], %g1
    2b28:	82 00 40 01 	add  %g1, %g1, %g1
    2b2c:	c4 12 00 01 	lduh  [ %o0 + %g1 ], %g2
    2b30:	80 88 a0 20 	btst  0x20, %g2
    2b34:	32 bf ff fc 	bne,a   2b24 <_nss_files_parse_servent+0x29c>
    2b38:	b0 06 20 01 	inc  %i0
    2b3c:	10 bf ff 94 	b  298c <_nss_files_parse_servent+0x104>
    2b40:	80 a6 00 1a 	cmp  %i0, %i2
    2b44:	80 a5 60 00 	cmp  %l5, 0
    2b48:	02 bf ff d3 	be  2a94 <_nss_files_parse_servent+0x20c>
    2b4c:	c0 24 c0 00 	clr  [ %l3 ]
    2b50:	ea 26 60 04 	st  %l5, [ %i1 + 4 ]
    2b54:	b0 10 20 01 	mov  1, %i0
    2b58:	81 c7 e0 08 	ret 
    2b5c:	81 e8 00 00 	restore 

00002b60 <internal_setent>:
internal_setent():
    2b60:	9d e3 bf 90 	save  %sp, -112, %sp
    2b64:	25 00 00 00 	sethi  %hi(0), %l2
    2b68:	2f 00 00 5d 	sethi  %hi(0x17400), %l7
    2b6c:	7f ff ff 45 	call  2880 <_nss_files_getprotobynumber_r+0xf4>
    2b70:	ae 05 e0 94 	add  %l7, 0x94, %l7	! 17494 <__FRAME_END__+0xe7e4>
    2b74:	82 14 a0 2c 	or  %l2, 0x2c, %g1
    2b78:	e2 05 c0 01 	ld  [ %l7 + %g1 ], %l1
    2b7c:	07 00 00 00 	sethi  %hi(0), %g3
    2b80:	05 00 00 00 	sethi  %hi(0), %g2
    2b84:	d0 04 40 00 	ld  [ %l1 ], %o0
    2b88:	a6 10 00 18 	mov  %i0, %l3
    2b8c:	86 10 e0 40 	or  %g3, 0x40, %g3
    2b90:	84 10 a0 44 	or  %g2, 0x44, %g2
    2b94:	80 a2 20 00 	cmp  %o0, 0
    2b98:	12 80 00 10 	bne  2bd8 <internal_setent+0x78>
    2b9c:	b0 10 20 01 	mov  1, %i0
    2ba0:	d2 05 c0 02 	ld  [ %l7 + %g2 ], %o1
    2ba4:	40 00 5d e5 	call  1a338 <fopen@plt>
    2ba8:	d0 05 c0 03 	ld  [ %l7 + %g3 ], %o0
    2bac:	82 92 20 00 	orcc  %o0, 0, %g1
    2bb0:	12 80 00 18 	bne  2c10 <internal_setent+0xb0>
    2bb4:	c2 24 40 00 	st  %g1, [ %l1 ]
    2bb8:	40 00 5d 98 	call  1a218 <__errno_location@plt>
    2bbc:	01 00 00 00 	nop 
    2bc0:	c2 02 00 00 	ld  [ %o0 ], %g1
    2bc4:	82 18 60 0b 	xor  %g1, 0xb, %g1
    2bc8:	80 a0 00 01 	cmp  %g0, %g1
    2bcc:	84 40 20 00 	addx  %g0, 0, %g2
    2bd0:	10 80 00 04 	b  2be0 <internal_setent+0x80>
    2bd4:	b0 00 bf fe 	add  %g2, -2, %i0
    2bd8:	40 00 5d 93 	call  1a224 <rewind@plt>
    2bdc:	01 00 00 00 	nop 
    2be0:	82 14 a0 2c 	or  %l2, 0x2c, %g1
    2be4:	c4 05 c0 01 	ld  [ %l7 + %g1 ], %g2
    2be8:	09 00 00 00 	sethi  %hi(0), %g4
    2bec:	c6 00 80 00 	ld  [ %g2 ], %g3
    2bf0:	80 a0 e0 00 	cmp  %g3, 0
    2bf4:	02 80 00 1c 	be  2c64 <internal_setent+0x104>
    2bf8:	88 11 20 30 	or  %g4, 0x30, %g4
    2bfc:	c4 05 c0 04 	ld  [ %l7 + %g4 ], %g2
    2c00:	c2 00 80 00 	ld  [ %g2 ], %g1
    2c04:	82 10 40 13 	or  %g1, %l3, %g1
    2c08:	10 80 00 17 	b  2c64 <internal_setent+0x104>
    2c0c:	c2 20 80 00 	st  %g1, [ %g2 ]
    2c10:	40 00 5d 73 	call  1a1dc <fileno@plt>
    2c14:	01 00 00 00 	nop 
    2c18:	92 10 20 01 	mov  1, %o1	! 1 <GLIBC_PRIVATE+0x1>
    2c1c:	40 00 5d ac 	call  1a2cc <fcntl@plt>
    2c20:	94 10 20 00 	clr  %o2
    2c24:	a0 92 20 00 	orcc  %o0, 0, %l0
    2c28:	06 80 00 0a 	bl  2c50 <internal_setent+0xf0>
    2c2c:	a0 14 20 01 	or  %l0, 1, %l0
    2c30:	40 00 5d 6b 	call  1a1dc <fileno@plt>
    2c34:	d0 04 40 00 	ld  [ %l1 ], %o0
    2c38:	94 10 00 10 	mov  %l0, %o2
    2c3c:	40 00 5d a4 	call  1a2cc <fcntl@plt>
    2c40:	92 10 20 02 	mov  2, %o1
    2c44:	80 a2 20 00 	cmp  %o0, 0
    2c48:	16 bf ff e7 	bge  2be4 <internal_setent+0x84>
    2c4c:	82 14 a0 2c 	or  %l2, 0x2c, %g1
    2c50:	40 00 5d a5 	call  1a2e4 <fclose@plt>
    2c54:	d0 04 40 00 	ld  [ %l1 ], %o0
    2c58:	c0 24 40 00 	clr  [ %l1 ]
    2c5c:	10 bf ff e1 	b  2be0 <internal_setent+0x80>
    2c60:	b0 10 3f ff 	mov  -1, %i0
    2c64:	81 c7 e0 08 	ret 
    2c68:	81 e8 00 00 	restore 

00002c6c <_nss_files_setservent>:
_nss_files_setservent():
    2c6c:	9d e3 bf 90 	save  %sp, -112, %sp
    2c70:	03 00 00 00 	sethi  %hi(0), %g1
    2c74:	2f 00 00 5c 	sethi  %hi(0x17000), %l7
    2c78:	7f ff ff 02 	call  2880 <_nss_files_getprotobynumber_r+0xf4>
    2c7c:	ae 05 e3 88 	add  %l7, 0x388, %l7	! 17388 <__FRAME_END__+0xe6d8>
    2c80:	82 10 61 58 	or  %g1, 0x158, %g1
    2c84:	05 00 00 00 	sethi  %hi(0), %g2
    2c88:	c2 05 c0 01 	ld  [ %l7 + %g1 ], %g1
    2c8c:	80 a0 60 00 	cmp  %g1, 0
    2c90:	02 80 00 04 	be  2ca0 <_nss_files_setservent+0x34>
    2c94:	84 10 a0 34 	or  %g2, 0x34, %g2
    2c98:	9f c0 40 00 	call  %g1
    2c9c:	d0 05 c0 02 	ld  [ %l7 + %g2 ], %o0
    2ca0:	7f ff ff b0 	call  2b60 <internal_setent>
    2ca4:	90 10 00 18 	mov  %i0, %o0
    2ca8:	05 00 00 00 	sethi  %hi(0), %g2
    2cac:	b0 10 00 08 	mov  %o0, %i0
    2cb0:	80 a2 20 01 	cmp  %o0, 1
    2cb4:	02 80 00 11 	be  2cf8 <_nss_files_setservent+0x8c>
    2cb8:	84 10 a0 38 	or  %g2, 0x38, %g2
    2cbc:	03 00 00 00 	sethi  %hi(0), %g1
    2cc0:	82 10 60 3c 	or  %g1, 0x3c, %g1	! 3c <GLIBC_PRIVATE+0x3c>
    2cc4:	05 00 00 00 	sethi  %hi(0), %g2
    2cc8:	c6 05 c0 01 	ld  [ %l7 + %g1 ], %g3
    2ccc:	84 10 a1 64 	or  %g2, 0x164, %g2
    2cd0:	09 00 00 00 	sethi  %hi(0), %g4
    2cd4:	c4 05 c0 02 	ld  [ %l7 + %g2 ], %g2
    2cd8:	82 10 20 01 	mov  1, %g1
    2cdc:	88 11 20 34 	or  %g4, 0x34, %g4
    2ce0:	80 a0 a0 00 	cmp  %g2, 0
    2ce4:	02 80 00 13 	be  2d30 <_nss_files_setservent+0xc4>
    2ce8:	c2 20 c0 00 	st  %g1, [ %g3 ]
    2cec:	9f c0 80 00 	call  %g2
    2cf0:	d0 05 c0 04 	ld  [ %l7 + %g4 ], %o0
    2cf4:	30 80 00 0f 	b,a   2d30 <_nss_files_setservent+0xc4>
    2cf8:	03 00 00 00 	sethi  %hi(0), %g1
    2cfc:	82 10 60 2c 	or  %g1, 0x2c, %g1	! 2c <GLIBC_PRIVATE+0x2c>
    2d00:	e0 05 c0 01 	ld  [ %l7 + %g1 ], %l0
    2d04:	d2 05 c0 02 	ld  [ %l7 + %g2 ], %o1
    2d08:	40 00 5d 92 	call  1a350 <fgetpos@plt>
    2d0c:	d0 04 00 00 	ld  [ %l0 ], %o0
    2d10:	80 a2 20 00 	cmp  %o0, 0
    2d14:	16 bf ff eb 	bge  2cc0 <_nss_files_setservent+0x54>
    2d18:	03 00 00 00 	sethi  %hi(0), %g1
    2d1c:	40 00 5d 72 	call  1a2e4 <fclose@plt>
    2d20:	d0 04 00 00 	ld  [ %l0 ], %o0
    2d24:	c0 24 00 00 	clr  [ %l0 ]
    2d28:	10 bf ff e5 	b  2cbc <_nss_files_setservent+0x50>
    2d2c:	b0 10 3f ff 	mov  -1, %i0
    2d30:	81 c7 e0 08 	ret 
    2d34:	81 e8 00 00 	restore 

00002d38 <internal_endent>:
internal_endent():
    2d38:	9d e3 bf 90 	save  %sp, -112, %sp
    2d3c:	03 00 00 00 	sethi  %hi(0), %g1
    2d40:	2f 00 00 5c 	sethi  %hi(0x17000), %l7
    2d44:	7f ff fe cf 	call  2880 <_nss_files_getprotobynumber_r+0xf4>
    2d48:	ae 05 e2 bc 	add  %l7, 0x2bc, %l7	! 172bc <__FRAME_END__+0xe60c>
    2d4c:	82 10 60 2c 	or  %g1, 0x2c, %g1
    2d50:	e0 05 c0 01 	ld  [ %l7 + %g1 ], %l0
    2d54:	c4 04 00 00 	ld  [ %l0 ], %g2
    2d58:	90 90 a0 00 	orcc  %g2, 0, %o0
    2d5c:	02 80 00 05 	be  2d70 <internal_endent+0x38>
    2d60:	01 00 00 00 	nop 
    2d64:	40 00 5d 60 	call  1a2e4 <fclose@plt>
    2d68:	01 00 00 00 	nop 
    2d6c:	c0 24 00 00 	clr  [ %l0 ]
    2d70:	81 c7 e0 08 	ret 
    2d74:	81 e8 00 00 	restore 

00002d78 <_nss_files_endservent>:
_nss_files_endservent():
    2d78:	9d e3 bf 90 	save  %sp, -112, %sp
    2d7c:	03 00 00 00 	sethi  %hi(0), %g1
    2d80:	2f 00 00 5c 	sethi  %hi(0x17000), %l7
    2d84:	7f ff fe bf 	call  2880 <_nss_files_getprotobynumber_r+0xf4>
    2d88:	ae 05 e2 7c 	add  %l7, 0x27c, %l7	! 1727c <__FRAME_END__+0xe5cc>
    2d8c:	82 10 61 58 	or  %g1, 0x158, %g1
    2d90:	05 00 00 00 	sethi  %hi(0), %g2
    2d94:	c2 05 c0 01 	ld  [ %l7 + %g1 ], %g1
    2d98:	80 a0 60 00 	cmp  %g1, 0
    2d9c:	02 80 00 04 	be  2dac <_nss_files_endservent+0x34>
    2da0:	84 10 a0 34 	or  %g2, 0x34, %g2
    2da4:	9f c0 40 00 	call  %g1
    2da8:	d0 05 c0 02 	ld  [ %l7 + %g2 ], %o0
    2dac:	7f ff ff e3 	call  2d38 <internal_endent>
    2db0:	01 00 00 00 	nop 
    2db4:	03 00 00 00 	sethi  %hi(0), %g1
    2db8:	82 10 60 30 	or  %g1, 0x30, %g1	! 30 <GLIBC_PRIVATE+0x30>
    2dbc:	05 00 00 00 	sethi  %hi(0), %g2
    2dc0:	c6 05 c0 01 	ld  [ %l7 + %g1 ], %g3
    2dc4:	84 10 a1 64 	or  %g2, 0x164, %g2
    2dc8:	09 00 00 00 	sethi  %hi(0), %g4
    2dcc:	c2 05 c0 02 	ld  [ %l7 + %g2 ], %g1
    2dd0:	88 11 20 34 	or  %g4, 0x34, %g4
    2dd4:	80 a0 60 00 	cmp  %g1, 0
    2dd8:	02 80 00 04 	be  2de8 <_nss_files_endservent+0x70>
    2ddc:	c0 20 c0 00 	clr  [ %g3 ]
    2de0:	9f c0 40 00 	call  %g1
    2de4:	d0 05 c0 04 	ld  [ %l7 + %g4 ], %o0
    2de8:	81 c7 e0 08 	ret 
    2dec:	91 e8 20 01 	restore  %g0, 1, %o0

00002df0 <internal_getent>:
internal_getent():
    2df0:	9d e3 bf 90 	save  %sp, -112, %sp
    2df4:	2f 00 00 5c 	sethi  %hi(0x17000), %l7
    2df8:	7f ff fe a2 	call  2880 <_nss_files_getprotobynumber_r+0xf4>
    2dfc:	ae 05 e2 08 	add  %l7, 0x208, %l7	! 17208 <__FRAME_END__+0xe558>
    2e00:	80 a6 a0 01 	cmp  %i2, 1
    2e04:	08 80 00 32 	bleu  2ecc <internal_getent+0xdc>
    2e08:	a4 10 00 1a 	mov  %i2, %l2
    2e0c:	03 00 00 00 	sethi  %hi(0), %g1
    2e10:	82 10 60 2c 	or  %g1, 0x2c, %g1	! 2c <GLIBC_PRIVATE+0x2c>
    2e14:	e6 05 c0 01 	ld  [ %l7 + %g1 ], %l3
    2e18:	a2 06 40 1a 	add  %i1, %i2, %l1
    2e1c:	82 10 3f ff 	mov  -1, %g1
    2e20:	c2 2c 7f ff 	stb  %g1, [ %l1 + -1 ]
    2e24:	90 10 00 19 	mov  %i1, %o0
    2e28:	92 10 00 12 	mov  %l2, %o1
    2e2c:	40 00 5d 04 	call  1a23c <fgets_unlocked@plt>
    2e30:	d4 04 c0 00 	ld  [ %l3 ], %o2
    2e34:	a0 92 20 00 	orcc  %o0, 0, %l0
    2e38:	22 80 00 28 	be,a   2ed8 <internal_getent+0xe8>
    2e3c:	b0 10 20 00 	clr  %i0
    2e40:	c2 0c 7f ff 	ldub  [ %l1 + -1 ], %g1
    2e44:	80 a0 60 ff 	cmp  %g1, 0xff
    2e48:	12 80 00 22 	bne  2ed0 <internal_getent+0xe0>
    2e4c:	82 10 20 22 	mov  0x22, %g1
    2e50:	40 00 5d 4c 	call  1a380 <__ctype_b_loc@plt>
    2e54:	01 00 00 00 	nop 
    2e58:	d0 02 00 00 	ld  [ %o0 ], %o0
    2e5c:	c6 4c 00 00 	ldsb  [ %l0 ], %g3
    2e60:	82 00 c0 03 	add  %g3, %g3, %g1
    2e64:	c4 12 00 01 	lduh  [ %o0 + %g1 ], %g2
    2e68:	80 88 a0 20 	btst  0x20, %g2
    2e6c:	32 bf ff fc 	bne,a   2e5c <internal_getent+0x6c>
    2e70:	a0 04 20 01 	inc  %l0
    2e74:	80 a0 00 03 	cmp  %g0, %g3
    2e78:	82 60 3f ff 	subx  %g0, -1, %g1
    2e7c:	84 18 e0 23 	xor  %g3, 0x23, %g2
    2e80:	80 a0 00 02 	cmp  %g0, %g2
    2e84:	86 60 3f ff 	subx  %g0, -1, %g3
    2e88:	80 90 40 03 	orcc  %g1, %g3, %g0
    2e8c:	12 bf ff e5 	bne  2e20 <internal_getent+0x30>
    2e90:	82 10 3f ff 	mov  -1, %g1
    2e94:	90 10 00 10 	mov  %l0, %o0
    2e98:	92 10 00 18 	mov  %i0, %o1
    2e9c:	94 10 00 19 	mov  %i1, %o2
    2ea0:	96 10 00 1a 	mov  %i2, %o3
    2ea4:	7f ff fe 79 	call  2888 <_nss_files_parse_servent>
    2ea8:	98 10 00 1b 	mov  %i3, %o4
    2eac:	80 a2 20 00 	cmp  %o0, 0
    2eb0:	02 bf ff dc 	be  2e20 <internal_getent+0x30>
    2eb4:	82 10 3f ff 	mov  -1, %g1
    2eb8:	80 a2 3f ff 	cmp  %o0, -1
    2ebc:	02 80 00 07 	be  2ed8 <internal_getent+0xe8>
    2ec0:	b0 10 3f fe 	mov  -2, %i0
    2ec4:	10 80 00 05 	b  2ed8 <internal_getent+0xe8>
    2ec8:	b0 10 20 01 	mov  1, %i0
    2ecc:	82 10 20 22 	mov  0x22, %g1
    2ed0:	c2 26 c0 00 	st  %g1, [ %i3 ]
    2ed4:	b0 10 3f fe 	mov  -2, %i0
    2ed8:	81 c7 e0 08 	ret 
    2edc:	81 e8 00 00 	restore 

00002ee0 <_nss_files_getservent_r>:
_nss_files_getservent_r():
    2ee0:	9d e3 bf 90 	save  %sp, -112, %sp
    2ee4:	03 00 00 00 	sethi  %hi(0), %g1
    2ee8:	2f 00 00 5c 	sethi  %hi(0x17000), %l7
    2eec:	7f ff fe 65 	call  2880 <_nss_files_getprotobynumber_r+0xf4>
    2ef0:	ae 05 e1 14 	add  %l7, 0x114, %l7	! 17114 <__FRAME_END__+0xe464>
    2ef4:	82 10 61 58 	or  %g1, 0x158, %g1
    2ef8:	c4 05 c0 01 	ld  [ %l7 + %g1 ], %g2
    2efc:	a6 10 00 18 	mov  %i0, %l3
    2f00:	80 a0 a0 00 	cmp  %g2, 0
    2f04:	02 80 00 06 	be  2f1c <_nss_files_getservent_r+0x3c>
    2f08:	b0 10 20 01 	mov  1, %i0
    2f0c:	03 00 00 00 	sethi  %hi(0), %g1
    2f10:	82 10 60 34 	or  %g1, 0x34, %g1	! 34 <GLIBC_PRIVATE+0x34>
    2f14:	9f c0 80 00 	call  %g2
    2f18:	d0 05 c0 01 	ld  [ %l7 + %g1 ], %o0
    2f1c:	23 00 00 00 	sethi  %hi(0), %l1
    2f20:	82 14 60 2c 	or  %l1, 0x2c, %g1	! 2c <GLIBC_PRIVATE+0x2c>
    2f24:	e0 05 c0 01 	ld  [ %l7 + %g1 ], %l0
    2f28:	c4 04 00 00 	ld  [ %l0 ], %g2
    2f2c:	80 a0 a0 00 	cmp  %g2, 0
    2f30:	02 80 00 27 	be  2fcc <_nss_files_getservent_r+0xec>
    2f34:	25 00 00 00 	sethi  %hi(0), %l2
    2f38:	82 14 a0 3c 	or  %l2, 0x3c, %g1	! 3c <GLIBC_PRIVATE+0x3c>
    2f3c:	e0 05 c0 01 	ld  [ %l7 + %g1 ], %l0
    2f40:	c4 04 00 00 	ld  [ %l0 ], %g2
    2f44:	80 a0 a0 01 	cmp  %g2, 1
    2f48:	02 80 00 0c 	be  2f78 <_nss_files_getservent_r+0x98>
    2f4c:	82 14 60 2c 	or  %l1, 0x2c, %g1
    2f50:	05 00 00 00 	sethi  %hi(0), %g2
    2f54:	c6 05 c0 01 	ld  [ %l7 + %g1 ], %g3
    2f58:	84 10 a0 38 	or  %g2, 0x38, %g2
    2f5c:	d0 00 c0 00 	ld  [ %g3 ], %o0
    2f60:	40 00 5c a8 	call  1a200 <fsetpos@plt>
    2f64:	d2 05 c0 02 	ld  [ %l7 + %g2 ], %o1
    2f68:	80 a2 20 00 	cmp  %o0, 0
    2f6c:	26 80 00 0e 	bl,a   2fa4 <_nss_files_getservent_r+0xc4>
    2f70:	b0 10 3f ff 	mov  -1, %i0
    2f74:	f0 24 00 00 	st  %i0, [ %l0 ]
    2f78:	90 10 00 13 	mov  %l3, %o0
    2f7c:	92 10 00 19 	mov  %i1, %o1
    2f80:	94 10 00 1a 	mov  %i2, %o2
    2f84:	7f ff ff 9b 	call  2df0 <internal_getent>
    2f88:	96 10 00 1b 	mov  %i3, %o3
    2f8c:	80 a2 20 01 	cmp  %o0, 1
    2f90:	02 80 00 21 	be  3014 <_nss_files_getservent_r+0x134>
    2f94:	b0 10 00 08 	mov  %o0, %i0
    2f98:	82 14 a0 3c 	or  %l2, 0x3c, %g1
    2f9c:	c4 05 c0 01 	ld  [ %l7 + %g1 ], %g2
    2fa0:	c0 20 80 00 	clr  [ %g2 ]
    2fa4:	03 00 00 00 	sethi  %hi(0), %g1
    2fa8:	82 10 61 64 	or  %g1, 0x164, %g1	! 164 <GLIBC_PRIVATE+0x164>
    2fac:	c4 05 c0 01 	ld  [ %l7 + %g1 ], %g2
    2fb0:	80 a0 a0 00 	cmp  %g2, 0
    2fb4:	02 80 00 21 	be  3038 <_nss_files_getservent_r+0x158>
    2fb8:	03 00 00 00 	sethi  %hi(0), %g1
    2fbc:	82 10 60 34 	or  %g1, 0x34, %g1	! 34 <GLIBC_PRIVATE+0x34>
    2fc0:	9f c0 80 00 	call  %g2
    2fc4:	d0 05 c0 01 	ld  [ %l7 + %g1 ], %o0
    2fc8:	30 80 00 1c 	b,a   3038 <_nss_files_getservent_r+0x158>
    2fcc:	7f ff fe e5 	call  2b60 <internal_setent>
    2fd0:	90 10 20 00 	clr  %o0
    2fd4:	80 a2 20 01 	cmp  %o0, 1
    2fd8:	12 bf ff f3 	bne  2fa4 <_nss_files_getservent_r+0xc4>
    2fdc:	b0 10 00 08 	mov  %o0, %i0
    2fe0:	03 00 00 00 	sethi  %hi(0), %g1
    2fe4:	82 10 60 38 	or  %g1, 0x38, %g1	! 38 <GLIBC_PRIVATE+0x38>
    2fe8:	d2 05 c0 01 	ld  [ %l7 + %g1 ], %o1
    2fec:	40 00 5c d9 	call  1a350 <fgetpos@plt>
    2ff0:	d0 04 00 00 	ld  [ %l0 ], %o0
    2ff4:	80 a2 20 00 	cmp  %o0, 0
    2ff8:	16 bf ff d0 	bge  2f38 <_nss_files_getservent_r+0x58>
    2ffc:	25 00 00 00 	sethi  %hi(0), %l2
    3000:	40 00 5c b9 	call  1a2e4 <fclose@plt>
    3004:	d0 04 00 00 	ld  [ %l0 ], %o0
    3008:	c0 24 00 00 	clr  [ %l0 ]
    300c:	10 bf ff e6 	b  2fa4 <_nss_files_getservent_r+0xc4>
    3010:	b0 10 3f ff 	mov  -1, %i0
    3014:	82 14 60 2c 	or  %l1, 0x2c, %g1
    3018:	05 00 00 00 	sethi  %hi(0), %g2
    301c:	c6 05 c0 01 	ld  [ %l7 + %g1 ], %g3
    3020:	84 10 a0 38 	or  %g2, 0x38, %g2
    3024:	d0 00 c0 00 	ld  [ %g3 ], %o0
    3028:	40 00 5c ca 	call  1a350 <fgetpos@plt>
    302c:	d2 05 c0 02 	ld  [ %l7 + %g2 ], %o1
    3030:	10 bf ff de 	b  2fa8 <_nss_files_getservent_r+0xc8>
    3034:	03 00 00 00 	sethi  %hi(0), %g1
    3038:	81 c7 e0 08 	ret 
    303c:	81 e8 00 00 	restore 

00003040 <_nss_files_getservbyname_r>:
_nss_files_getservbyname_r():
    3040:	9d e3 bf 90 	save  %sp, -112, %sp
    3044:	03 00 00 00 	sethi  %hi(0), %g1
    3048:	2f 00 00 5b 	sethi  %hi(0x16c00), %l7
    304c:	7f ff fe 0d 	call  2880 <_nss_files_getprotobynumber_r+0xf4>
    3050:	ae 05 e3 b4 	add  %l7, 0x3b4, %l7	! 16fb4 <__FRAME_END__+0xe304>
    3054:	82 10 61 58 	or  %g1, 0x158, %g1
    3058:	c4 05 c0 01 	ld  [ %l7 + %g1 ], %g2
    305c:	80 a0 a0 00 	cmp  %g2, 0
    3060:	02 80 00 06 	be  3078 <_nss_files_getservbyname_r+0x38>
    3064:	a4 10 00 18 	mov  %i0, %l2
    3068:	03 00 00 00 	sethi  %hi(0), %g1
    306c:	82 10 60 34 	or  %g1, 0x34, %g1	! 34 <GLIBC_PRIVATE+0x34>
    3070:	9f c0 80 00 	call  %g2
    3074:	d0 05 c0 01 	ld  [ %l7 + %g1 ], %o0
    3078:	27 00 00 00 	sethi  %hi(0), %l3
    307c:	82 14 e0 30 	or  %l3, 0x30, %g1	! 30 <GLIBC_PRIVATE+0x30>
    3080:	c4 05 c0 01 	ld  [ %l7 + %g1 ], %g2
    3084:	7f ff fe b7 	call  2b60 <internal_setent>
    3088:	d0 00 80 00 	ld  [ %g2 ], %o0
    308c:	80 a2 20 01 	cmp  %o0, 1
    3090:	02 80 00 0c 	be  30c0 <_nss_files_getservbyname_r+0x80>
    3094:	b0 10 00 08 	mov  %o0, %i0
    3098:	03 00 00 00 	sethi  %hi(0), %g1
    309c:	82 10 61 64 	or  %g1, 0x164, %g1	! 164 <GLIBC_PRIVATE+0x164>
    30a0:	c4 05 c0 01 	ld  [ %l7 + %g1 ], %g2
    30a4:	80 a0 a0 00 	cmp  %g2, 0
    30a8:	02 80 00 3a 	be  3190 <_nss_files_getservbyname_r+0x150>
    30ac:	03 00 00 00 	sethi  %hi(0), %g1
    30b0:	82 10 60 34 	or  %g1, 0x34, %g1	! 34 <GLIBC_PRIVATE+0x34>
    30b4:	9f c0 80 00 	call  %g2
    30b8:	d0 05 c0 01 	ld  [ %l7 + %g1 ], %o0
    30bc:	30 80 00 35 	b,a   3190 <_nss_files_getservbyname_r+0x150>
    30c0:	03 00 00 00 	sethi  %hi(0), %g1
    30c4:	82 10 60 3c 	or  %g1, 0x3c, %g1	! 3c <GLIBC_PRIVATE+0x3c>
    30c8:	c6 05 c0 01 	ld  [ %l7 + %g1 ], %g3
    30cc:	84 10 20 02 	mov  2, %g2
    30d0:	c4 20 c0 00 	st  %g2, [ %g3 ]
    30d4:	90 10 00 1a 	mov  %i2, %o0
    30d8:	92 10 00 1b 	mov  %i3, %o1
    30dc:	94 10 00 1c 	mov  %i4, %o2
    30e0:	7f ff ff 44 	call  2df0 <internal_getent>
    30e4:	96 10 00 1d 	mov  %i5, %o3
    30e8:	80 a2 20 01 	cmp  %o0, 1
    30ec:	12 80 00 1f 	bne  3168 <_nss_files_getservbyname_r+0x128>
    30f0:	b0 10 00 08 	mov  %o0, %i0
    30f4:	80 a6 60 00 	cmp  %i1, 0
    30f8:	02 80 00 09 	be  311c <_nss_files_getservbyname_r+0xdc>
    30fc:	90 10 00 12 	mov  %l2, %o0
    3100:	d0 06 a0 0c 	ld  [ %i2 + 0xc ], %o0
    3104:	40 00 5c 39 	call  1a1e8 <strcmp@plt>
    3108:	92 10 00 19 	mov  %i1, %o1
    310c:	80 a2 20 00 	cmp  %o0, 0
    3110:	12 bf ff f2 	bne  30d8 <_nss_files_getservbyname_r+0x98>
    3114:	90 10 00 1a 	mov  %i2, %o0
    3118:	90 10 00 12 	mov  %l2, %o0
    311c:	40 00 5c 33 	call  1a1e8 <strcmp@plt>
    3120:	d2 06 80 00 	ld  [ %i2 ], %o1
    3124:	80 a2 20 00 	cmp  %o0, 0
    3128:	02 80 00 11 	be  316c <_nss_files_getservbyname_r+0x12c>
    312c:	82 14 e0 30 	or  %l3, 0x30, %g1
    3130:	e0 06 a0 04 	ld  [ %i2 + 4 ], %l0
    3134:	e2 04 00 00 	ld  [ %l0 ], %l1
    3138:	80 a4 60 00 	cmp  %l1, 0
    313c:	02 bf ff e7 	be  30d8 <_nss_files_getservbyname_r+0x98>
    3140:	90 10 00 1a 	mov  %i2, %o0
    3144:	d2 04 00 00 	ld  [ %l0 ], %o1
    3148:	40 00 5c 28 	call  1a1e8 <strcmp@plt>
    314c:	90 10 00 12 	mov  %l2, %o0
    3150:	80 a2 20 00 	cmp  %o0, 0
    3154:	12 bf ff f8 	bne  3134 <_nss_files_getservbyname_r+0xf4>
    3158:	a0 04 20 04 	add  %l0, 4, %l0
    315c:	80 a4 60 00 	cmp  %l1, 0
    3160:	02 bf ff de 	be  30d8 <_nss_files_getservbyname_r+0x98>
    3164:	90 10 00 1a 	mov  %i2, %o0
    3168:	82 14 e0 30 	or  %l3, 0x30, %g1
    316c:	c4 05 c0 01 	ld  [ %l7 + %g1 ], %g2
    3170:	c6 00 80 00 	ld  [ %g2 ], %g3
    3174:	80 a0 e0 00 	cmp  %g3, 0
    3178:	32 bf ff c9 	bne,a   309c <_nss_files_getservbyname_r+0x5c>
    317c:	03 00 00 00 	sethi  %hi(0), %g1
    3180:	7f ff fe ee 	call  2d38 <internal_endent>
    3184:	01 00 00 00 	nop 
    3188:	10 bf ff c5 	b  309c <_nss_files_getservbyname_r+0x5c>
    318c:	03 00 00 00 	sethi  %hi(0), %g1
    3190:	81 c7 e0 08 	ret 
    3194:	81 e8 00 00 	restore 

00003198 <_nss_files_getservbyport_r>:
_nss_files_getservbyport_r():
    3198:	9d e3 bf 90 	save  %sp, -112, %sp
    319c:	03 00 00 00 	sethi  %hi(0), %g1
    31a0:	2f 00 00 5b 	sethi  %hi(0x16c00), %l7
    31a4:	7f ff fd b7 	call  2880 <_nss_files_getprotobynumber_r+0xf4>
    31a8:	ae 05 e2 5c 	add  %l7, 0x25c, %l7	! 16e5c <__FRAME_END__+0xe1ac>
    31ac:	82 10 61 58 	or  %g1, 0x158, %g1
    31b0:	c4 05 c0 01 	ld  [ %l7 + %g1 ], %g2
    31b4:	80 a0 a0 00 	cmp  %g2, 0
    31b8:	02 80 00 06 	be  31d0 <_nss_files_getservbyport_r+0x38>
    31bc:	a0 10 00 18 	mov  %i0, %l0
    31c0:	03 00 00 00 	sethi  %hi(0), %g1
    31c4:	82 10 60 34 	or  %g1, 0x34, %g1	! 34 <GLIBC_PRIVATE+0x34>
    31c8:	9f c0 80 00 	call  %g2
    31cc:	d0 05 c0 01 	ld  [ %l7 + %g1 ], %o0
    31d0:	23 00 00 00 	sethi  %hi(0), %l1
    31d4:	82 14 60 30 	or  %l1, 0x30, %g1	! 30 <GLIBC_PRIVATE+0x30>
    31d8:	c4 05 c0 01 	ld  [ %l7 + %g1 ], %g2
    31dc:	7f ff fe 61 	call  2b60 <internal_setent>
    31e0:	d0 00 80 00 	ld  [ %g2 ], %o0
    31e4:	80 a2 20 01 	cmp  %o0, 1
    31e8:	02 80 00 0c 	be  3218 <_nss_files_getservbyport_r+0x80>
    31ec:	b0 10 00 08 	mov  %o0, %i0
    31f0:	03 00 00 00 	sethi  %hi(0), %g1
    31f4:	82 10 61 64 	or  %g1, 0x164, %g1	! 164 <GLIBC_PRIVATE+0x164>
    31f8:	c4 05 c0 01 	ld  [ %l7 + %g1 ], %g2
    31fc:	80 a0 a0 00 	cmp  %g2, 0
    3200:	02 80 00 2a 	be  32a8 <_nss_files_getservbyport_r+0x110>
    3204:	03 00 00 00 	sethi  %hi(0), %g1
    3208:	82 10 60 34 	or  %g1, 0x34, %g1	! 34 <GLIBC_PRIVATE+0x34>
    320c:	9f c0 80 00 	call  %g2
    3210:	d0 05 c0 01 	ld  [ %l7 + %g1 ], %o0
    3214:	30 80 00 25 	b,a   32a8 <_nss_files_getservbyport_r+0x110>
    3218:	03 00 00 00 	sethi  %hi(0), %g1
    321c:	82 10 60 3c 	or  %g1, 0x3c, %g1	! 3c <GLIBC_PRIVATE+0x3c>
    3220:	c6 05 c0 01 	ld  [ %l7 + %g1 ], %g3
    3224:	84 10 20 02 	mov  2, %g2
    3228:	c4 20 c0 00 	st  %g2, [ %g3 ]
    322c:	92 10 00 1b 	mov  %i3, %o1
    3230:	94 10 00 1c 	mov  %i4, %o2
    3234:	96 10 00 1d 	mov  %i5, %o3
    3238:	7f ff fe ee 	call  2df0 <internal_getent>
    323c:	90 10 00 1a 	mov  %i2, %o0
    3240:	b0 10 00 08 	mov  %o0, %i0
    3244:	80 a2 20 01 	cmp  %o0, 1
    3248:	12 80 00 0e 	bne  3280 <_nss_files_getservbyport_r+0xe8>
    324c:	92 10 00 19 	mov  %i1, %o1
    3250:	c2 06 a0 08 	ld  [ %i2 + 8 ], %g1
    3254:	80 a0 40 10 	cmp  %g1, %l0
    3258:	32 bf ff f6 	bne,a   3230 <_nss_files_getservbyport_r+0x98>
    325c:	92 10 00 1b 	mov  %i3, %o1
    3260:	80 a6 60 00 	cmp  %i1, 0
    3264:	02 80 00 08 	be  3284 <_nss_files_getservbyport_r+0xec>
    3268:	82 14 60 30 	or  %l1, 0x30, %g1
    326c:	40 00 5b df 	call  1a1e8 <strcmp@plt>
    3270:	d0 06 a0 0c 	ld  [ %i2 + 0xc ], %o0
    3274:	80 a2 20 00 	cmp  %o0, 0
    3278:	12 bf ff ee 	bne  3230 <_nss_files_getservbyport_r+0x98>
    327c:	92 10 00 1b 	mov  %i3, %o1
    3280:	82 14 60 30 	or  %l1, 0x30, %g1
    3284:	c4 05 c0 01 	ld  [ %l7 + %g1 ], %g2
    3288:	c6 00 80 00 	ld  [ %g2 ], %g3
    328c:	80 a0 e0 00 	cmp  %g3, 0
    3290:	32 bf ff d9 	bne,a   31f4 <_nss_files_getservbyport_r+0x5c>
    3294:	03 00 00 00 	sethi  %hi(0), %g1
    3298:	7f ff fe a8 	call  2d38 <internal_endent>
    329c:	01 00 00 00 	nop 
    32a0:	10 bf ff d5 	b  31f4 <_nss_files_getservbyport_r+0x5c>
    32a4:	03 00 00 00 	sethi  %hi(0), %g1
    32a8:	81 c7 e0 08 	ret 
    32ac:	81 e8 00 00 	restore 
    32b0:	81 c3 e0 08 	retl 
    32b4:	ae 03 c0 17 	add  %o7, %l7, %l7

000032b8 <internal_setent>:
internal_setent():
    32b8:	9d e3 bf 90 	save  %sp, -112, %sp
    32bc:	25 00 00 00 	sethi  %hi(0), %l2
    32c0:	2f 00 00 5b 	sethi  %hi(0x16c00), %l7
    32c4:	7f ff ff fb 	call  32b0 <_nss_files_getservbyport_r+0x118>
    32c8:	ae 05 e1 3c 	add  %l7, 0x13c, %l7	! 16d3c <__FRAME_END__+0xe08c>
    32cc:	82 14 a0 48 	or  %l2, 0x48, %g1
    32d0:	e2 05 c0 01 	ld  [ %l7 + %g1 ], %l1
    32d4:	07 00 00 00 	sethi  %hi(0), %g3
    32d8:	05 00 00 00 	sethi  %hi(0), %g2
    32dc:	d0 04 40 00 	ld  [ %l1 ], %o0
    32e0:	a6 10 00 18 	mov  %i0, %l3
    32e4:	86 10 e0 64 	or  %g3, 0x64, %g3
    32e8:	84 10 a0 68 	or  %g2, 0x68, %g2
    32ec:	80 a2 20 00 	cmp  %o0, 0
    32f0:	12 80 00 10 	bne  3330 <internal_setent+0x78>
    32f4:	b0 10 20 01 	mov  1, %i0
    32f8:	d2 05 c0 02 	ld  [ %l7 + %g2 ], %o1
    32fc:	40 00 5c 0f 	call  1a338 <fopen@plt>
    3300:	d0 05 c0 03 	ld  [ %l7 + %g3 ], %o0
    3304:	82 92 20 00 	orcc  %o0, 0, %g1
    3308:	12 80 00 18 	bne  3368 <internal_setent+0xb0>
    330c:	c2 24 40 00 	st  %g1, [ %l1 ]
    3310:	40 00 5b c2 	call  1a218 <__errno_location@plt>
    3314:	01 00 00 00 	nop 
    3318:	c2 02 00 00 	ld  [ %o0 ], %g1
    331c:	82 18 60 0b 	xor  %g1, 0xb, %g1
    3320:	80 a0 00 01 	cmp  %g0, %g1
    3324:	84 40 20 00 	addx  %g0, 0, %g2
    3328:	10 80 00 04 	b  3338 <internal_setent+0x80>
    332c:	b0 00 bf fe 	add  %g2, -2, %i0
    3330:	40 00 5b bd 	call  1a224 <rewind@plt>
    3334:	01 00 00 00 	nop 
    3338:	82 14 a0 48 	or  %l2, 0x48, %g1
    333c:	c4 05 c0 01 	ld  [ %l7 + %g1 ], %g2
    3340:	09 00 00 00 	sethi  %hi(0), %g4
    3344:	c6 00 80 00 	ld  [ %g2 ], %g3
    3348:	80 a0 e0 00 	cmp  %g3, 0
    334c:	02 80 00 1c 	be  33bc <internal_setent+0x104>
    3350:	88 11 20 4c 	or  %g4, 0x4c, %g4
    3354:	c4 05 c0 04 	ld  [ %l7 + %g4 ], %g2
    3358:	c2 00 80 00 	ld  [ %g2 ], %g1
    335c:	82 10 40 13 	or  %g1, %l3, %g1
    3360:	10 80 00 17 	b  33bc <internal_setent+0x104>
    3364:	c2 20 80 00 	st  %g1, [ %g2 ]
    3368:	40 00 5b 9d 	call  1a1dc <fileno@plt>
    336c:	01 00 00 00 	nop 
    3370:	92 10 20 01 	mov  1, %o1	! 1 <GLIBC_PRIVATE+0x1>
    3374:	40 00 5b d6 	call  1a2cc <fcntl@plt>
    3378:	94 10 20 00 	clr  %o2
    337c:	a0 92 20 00 	orcc  %o0, 0, %l0
    3380:	06 80 00 0a 	bl  33a8 <internal_setent+0xf0>
    3384:	a0 14 20 01 	or  %l0, 1, %l0
    3388:	40 00 5b 95 	call  1a1dc <fileno@plt>
    338c:	d0 04 40 00 	ld  [ %l1 ], %o0
    3390:	94 10 00 10 	mov  %l0, %o2
    3394:	40 00 5b ce 	call  1a2cc <fcntl@plt>
    3398:	92 10 20 02 	mov  2, %o1
    339c:	80 a2 20 00 	cmp  %o0, 0
    33a0:	16 bf ff e7 	bge  333c <internal_setent+0x84>
    33a4:	82 14 a0 48 	or  %l2, 0x48, %g1
    33a8:	40 00 5b cf 	call  1a2e4 <fclose@plt>
    33ac:	d0 04 40 00 	ld  [ %l1 ], %o0
    33b0:	c0 24 40 00 	clr  [ %l1 ]
    33b4:	10 bf ff e1 	b  3338 <internal_setent+0x80>
    33b8:	b0 10 3f ff 	mov  -1, %i0
    33bc:	81 c7 e0 08 	ret 
    33c0:	81 e8 00 00 	restore 

000033c4 <_nss_files_sethostent>:
_nss_files_sethostent():
    33c4:	9d e3 bf 90 	save  %sp, -112, %sp
    33c8:	03 00 00 00 	sethi  %hi(0), %g1
    33cc:	2f 00 00 5b 	sethi  %hi(0x16c00), %l7
    33d0:	7f ff ff b8 	call  32b0 <_nss_files_getservbyport_r+0x118>
    33d4:	ae 05 e0 30 	add  %l7, 0x30, %l7	! 16c30 <__FRAME_END__+0xdf80>
    33d8:	82 10 61 58 	or  %g1, 0x158, %g1
    33dc:	05 00 00 00 	sethi  %hi(0), %g2
    33e0:	c2 05 c0 01 	ld  [ %l7 + %g1 ], %g1
    33e4:	80 a0 60 00 	cmp  %g1, 0
    33e8:	02 80 00 04 	be  33f8 <_nss_files_sethostent+0x34>
    33ec:	84 10 a0 50 	or  %g2, 0x50, %g2
    33f0:	9f c0 40 00 	call  %g1
    33f4:	d0 05 c0 02 	ld  [ %l7 + %g2 ], %o0
    33f8:	7f ff ff b0 	call  32b8 <internal_setent>
    33fc:	90 10 00 18 	mov  %i0, %o0
    3400:	05 00 00 00 	sethi  %hi(0), %g2
    3404:	b0 10 00 08 	mov  %o0, %i0
    3408:	80 a2 20 01 	cmp  %o0, 1
    340c:	02 80 00 11 	be  3450 <_nss_files_sethostent+0x8c>
    3410:	84 10 a0 54 	or  %g2, 0x54, %g2
    3414:	03 00 00 00 	sethi  %hi(0), %g1
    3418:	82 10 60 58 	or  %g1, 0x58, %g1	! 58 <GLIBC_PRIVATE+0x58>
    341c:	05 00 00 00 	sethi  %hi(0), %g2
    3420:	c6 05 c0 01 	ld  [ %l7 + %g1 ], %g3
    3424:	84 10 a1 64 	or  %g2, 0x164, %g2
    3428:	09 00 00 00 	sethi  %hi(0), %g4
    342c:	c4 05 c0 02 	ld  [ %l7 + %g2 ], %g2
    3430:	82 10 20 01 	mov  1, %g1
    3434:	88 11 20 50 	or  %g4, 0x50, %g4
    3438:	80 a0 a0 00 	cmp  %g2, 0
    343c:	02 80 00 13 	be  3488 <_nss_files_sethostent+0xc4>
    3440:	c2 20 c0 00 	st  %g1, [ %g3 ]
    3444:	9f c0 80 00 	call  %g2
    3448:	d0 05 c0 04 	ld  [ %l7 + %g4 ], %o0
    344c:	30 80 00 0f 	b,a   3488 <_nss_files_sethostent+0xc4>
    3450:	03 00 00 00 	sethi  %hi(0), %g1
    3454:	82 10 60 48 	or  %g1, 0x48, %g1	! 48 <GLIBC_PRIVATE+0x48>
    3458:	e0 05 c0 01 	ld  [ %l7 + %g1 ], %l0
    345c:	d2 05 c0 02 	ld  [ %l7 + %g2 ], %o1
    3460:	40 00 5b bc 	call  1a350 <fgetpos@plt>
    3464:	d0 04 00 00 	ld  [ %l0 ], %o0
    3468:	80 a2 20 00 	cmp  %o0, 0
    346c:	16 bf ff eb 	bge  3418 <_nss_files_sethostent+0x54>
    3470:	03 00 00 00 	sethi  %hi(0), %g1
    3474:	40 00 5b 9c 	call  1a2e4 <fclose@plt>
    3478:	d0 04 00 00 	ld  [ %l0 ], %o0
    347c:	c0 24 00 00 	clr  [ %l0 ]
    3480:	10 bf ff e5 	b  3414 <_nss_files_sethostent+0x50>
    3484:	b0 10 3f ff 	mov  -1, %i0
    3488:	81 c7 e0 08 	ret 
    348c:	81 e8 00 00 	restore 

00003490 <internal_endent>:
internal_endent():
    3490:	9d e3 bf 90 	save  %sp, -112, %sp
    3494:	03 00 00 00 	sethi  %hi(0), %g1
    3498:	2f 00 00 5a 	sethi  %hi(0x16800), %l7
    349c:	7f ff ff 85 	call  32b0 <_nss_files_getservbyport_r+0x118>
    34a0:	ae 05 e3 64 	add  %l7, 0x364, %l7	! 16b64 <__FRAME_END__+0xdeb4>
    34a4:	82 10 60 48 	or  %g1, 0x48, %g1
    34a8:	e0 05 c0 01 	ld  [ %l7 + %g1 ], %l0
    34ac:	c4 04 00 00 	ld  [ %l0 ], %g2
    34b0:	90 90 a0 00 	orcc  %g2, 0, %o0
    34b4:	02 80 00 05 	be  34c8 <internal_endent+0x38>
    34b8:	01 00 00 00 	nop 
    34bc:	40 00 5b 8a 	call  1a2e4 <fclose@plt>
    34c0:	01 00 00 00 	nop 
    34c4:	c0 24 00 00 	clr  [ %l0 ]
    34c8:	81 c7 e0 08 	ret 
    34cc:	81 e8 00 00 	restore 

000034d0 <_nss_files_endhostent>:
_nss_files_endhostent():
    34d0:	9d e3 bf 90 	save  %sp, -112, %sp
    34d4:	03 00 00 00 	sethi  %hi(0), %g1
    34d8:	2f 00 00 5a 	sethi  %hi(0x16800), %l7
    34dc:	7f ff ff 75 	call  32b0 <_nss_files_getservbyport_r+0x118>
    34e0:	ae 05 e3 24 	add  %l7, 0x324, %l7	! 16b24 <__FRAME_END__+0xde74>
    34e4:	82 10 61 58 	or  %g1, 0x158, %g1
    34e8:	05 00 00 00 	sethi  %hi(0), %g2
    34ec:	c2 05 c0 01 	ld  [ %l7 + %g1 ], %g1
    34f0:	80 a0 60 00 	cmp  %g1, 0
    34f4:	02 80 00 04 	be  3504 <_nss_files_endhostent+0x34>
    34f8:	84 10 a0 50 	or  %g2, 0x50, %g2
    34fc:	9f c0 40 00 	call  %g1
    3500:	d0 05 c0 02 	ld  [ %l7 + %g2 ], %o0
    3504:	7f ff ff e3 	call  3490 <internal_endent>
    3508:	01 00 00 00 	nop 
    350c:	03 00 00 00 	sethi  %hi(0), %g1
    3510:	82 10 60 4c 	or  %g1, 0x4c, %g1	! 4c <GLIBC_PRIVATE+0x4c>
    3514:	05 00 00 00 	sethi  %hi(0), %g2
    3518:	c6 05 c0 01 	ld  [ %l7 + %g1 ], %g3
    351c:	84 10 a1 64 	or  %g2, 0x164, %g2
    3520:	09 00 00 00 	sethi  %hi(0), %g4
    3524:	c2 05 c0 02 	ld  [ %l7 + %g2 ], %g1
    3528:	88 11 20 50 	or  %g4, 0x50, %g4
    352c:	80 a0 60 00 	cmp  %g1, 0
    3530:	02 80 00 04 	be  3540 <_nss_files_endhostent+0x70>
    3534:	c0 20 c0 00 	clr  [ %g3 ]
    3538:	9f c0 40 00 	call  %g1
    353c:	d0 05 c0 04 	ld  [ %l7 + %g4 ], %o0
    3540:	81 c7 e0 08 	ret 
    3544:	91 e8 20 01 	restore  %g0, 1, %o0

00003548 <internal_getent>:
internal_getent():
    3548:	9d e3 bf 88 	save  %sp, -120, %sp
    354c:	2f 00 00 5a 	sethi  %hi(0x16800), %l7
    3550:	7f ff ff 58 	call  32b0 <_nss_files_getservbyport_r+0x118>
    3554:	ae 05 e2 b0 	add  %l7, 0x2b0, %l7	! 16ab0 <__FRAME_END__+0xde00>
    3558:	80 a6 a0 19 	cmp  %i2, 0x19
    355c:	08 80 00 db 	bleu  38c8 <internal_getent+0x380>
    3560:	ac 06 bf e8 	add  %i2, -24, %l6
    3564:	2b 00 00 00 	sethi  %hi(0), %l5
    3568:	aa 15 60 48 	or  %l5, 0x48, %l5	! 48 <GLIBC_PRIVATE+0x48>
    356c:	a6 06 40 16 	add  %i1, %l6, %l3
    3570:	a8 06 60 18 	add  %i1, 0x18, %l4
    3574:	82 10 3f ff 	mov  -1, %g1
    3578:	c2 2c e0 17 	stb  %g1, [ %l3 + 0x17 ]
    357c:	c4 05 c0 15 	ld  [ %l7 + %l5 ], %g2
    3580:	d4 00 80 00 	ld  [ %g2 ], %o2
    3584:	90 10 00 14 	mov  %l4, %o0
    3588:	40 00 5b 2d 	call  1a23c <fgets_unlocked@plt>
    358c:	92 10 00 16 	mov  %l6, %o1
    3590:	a2 92 20 00 	orcc  %o0, 0, %l1
    3594:	02 80 00 d2 	be  38dc <internal_getent+0x394>
    3598:	82 10 20 01 	mov  1, %g1
    359c:	c2 0c e0 17 	ldub  [ %l3 + 0x17 ], %g1
    35a0:	80 a0 60 ff 	cmp  %g1, 0xff
    35a4:	12 80 00 ca 	bne  38cc <internal_getent+0x384>
    35a8:	82 10 20 22 	mov  0x22, %g1
    35ac:	40 00 5b 75 	call  1a380 <__ctype_b_loc@plt>
    35b0:	01 00 00 00 	nop 
    35b4:	10 80 00 03 	b  35c0 <internal_getent+0x78>
    35b8:	d0 02 00 00 	ld  [ %o0 ], %o0
    35bc:	a2 04 60 01 	inc  %l1
    35c0:	c8 4c 40 00 	ldsb  [ %l1 ], %g4
    35c4:	82 01 00 04 	add  %g4, %g4, %g1
    35c8:	c4 12 00 01 	lduh  [ %o0 + %g1 ], %g2
    35cc:	80 88 a0 20 	btst  0x20, %g2
    35d0:	12 bf ff fb 	bne  35bc <internal_getent+0x74>
    35d4:	da 0c 40 00 	ldub  [ %l1 ], %o5
    35d8:	80 a0 00 04 	cmp  %g0, %g4
    35dc:	82 60 3f ff 	subx  %g0, -1, %g1
    35e0:	84 19 20 23 	xor  %g4, 0x23, %g2
    35e4:	80 a0 00 02 	cmp  %g0, %g2
    35e8:	86 60 3f ff 	subx  %g0, -1, %g3
    35ec:	80 90 40 03 	orcc  %g1, %g3, %g0
    35f0:	32 bf ff e2 	bne,a   3578 <internal_getent+0x30>
    35f4:	82 10 3f ff 	mov  -1, %g1
    35f8:	a4 10 00 11 	mov  %l1, %l2
    35fc:	80 a1 20 00 	cmp  %g4, 0
    3600:	02 80 00 13 	be  364c <internal_getent+0x104>
    3604:	86 10 00 11 	mov  %l1, %g3
    3608:	80 a1 20 23 	cmp  %g4, 0x23
    360c:	02 80 00 c1 	be  3910 <internal_getent+0x3c8>
    3610:	80 a1 20 0a 	cmp  %g4, 0xa
    3614:	02 80 00 0f 	be  3650 <internal_getent+0x108>
    3618:	82 10 00 0d 	mov  %o5, %g1
    361c:	86 00 e0 01 	inc  %g3
    3620:	c4 48 c0 00 	ldsb  [ %g3 ], %g2
    3624:	80 a0 a0 00 	cmp  %g2, 0
    3628:	02 80 00 1b 	be  3694 <internal_getent+0x14c>
    362c:	c2 08 c0 00 	ldub  [ %g3 ], %g1
    3630:	80 a0 a0 23 	cmp  %g2, 0x23
    3634:	02 80 00 07 	be  3650 <internal_getent+0x108>
    3638:	80 a0 a0 0a 	cmp  %g2, 0xa
    363c:	32 bf ff f9 	bne,a   3620 <internal_getent+0xd8>
    3640:	86 00 e0 01 	inc  %g3
    3644:	10 80 00 04 	b  3654 <internal_getent+0x10c>
    3648:	83 28 60 18 	sll  %g1, 0x18, %g1
    364c:	c2 0c 40 00 	ldub  [ %l1 ], %g1
    3650:	83 28 60 18 	sll  %g1, 0x18, %g1
    3654:	80 a0 60 00 	cmp  %g1, 0
    3658:	02 80 00 0f 	be  3694 <internal_getent+0x14c>
    365c:	82 90 e0 00 	orcc  %g3, 0, %g1
    3660:	32 80 00 0d 	bne,a   3694 <internal_getent+0x14c>
    3664:	c0 28 40 00 	clrb  [ %g1 ]
    3668:	10 80 00 0c 	b  3698 <internal_getent+0x150>
    366c:	e0 4c 80 00 	ldsb  [ %l2 ], %l0
    3670:	40 00 5b 44 	call  1a380 <__ctype_b_loc@plt>
    3674:	01 00 00 00 	nop 
    3678:	82 04 00 10 	add  %l0, %l0, %g1
    367c:	c4 02 00 00 	ld  [ %o0 ], %g2
    3680:	c6 10 80 01 	lduh  [ %g2 + %g1 ], %g3
    3684:	80 88 e0 20 	btst  0x20, %g3
    3688:	32 80 00 98 	bne,a   38e8 <internal_getent+0x3a0>
    368c:	c0 2c 80 00 	clrb  [ %l2 ]
    3690:	a4 04 a0 01 	inc  %l2
    3694:	e0 4c 80 00 	ldsb  [ %l2 ], %l0
    3698:	80 a4 20 00 	cmp  %l0, 0
    369c:	12 bf ff f5 	bne  3670 <internal_getent+0x128>
    36a0:	90 10 00 1d 	mov  %i5, %o0
    36a4:	92 10 00 11 	mov  %l1, %o1
    36a8:	40 00 5a d3 	call  1a1f4 <inet_pton@plt>
    36ac:	94 10 00 19 	mov  %i1, %o2
    36b0:	80 a2 20 00 	cmp  %o0, 0
    36b4:	14 80 00 25 	bg  3748 <internal_getent+0x200>
    36b8:	80 a7 60 0a 	cmp  %i5, 0xa
    36bc:	12 bf ff af 	bne  3578 <internal_getent+0x30>
    36c0:	82 10 3f ff 	mov  -1, %g1
    36c4:	c2 07 a0 5c 	ld  [ %fp + 0x5c ], %g1
    36c8:	80 88 60 08 	btst  8, %g1
    36cc:	02 bf ff ab 	be  3578 <internal_getent+0x30>
    36d0:	82 10 3f ff 	mov  -1, %g1
    36d4:	92 10 00 11 	mov  %l1, %o1
    36d8:	90 10 20 02 	mov  2, %o0
    36dc:	40 00 5a c6 	call  1a1f4 <inet_pton@plt>
    36e0:	94 10 00 19 	mov  %i1, %o2
    36e4:	80 a2 20 00 	cmp  %o0, 0
    36e8:	24 bf ff a4 	ble,a   3578 <internal_getent+0x30>
    36ec:	82 10 3f ff 	mov  -1, %g1
    36f0:	c6 0e 40 00 	ldub  [ %i1 ], %g3
    36f4:	c8 0e 60 01 	ldub  [ %i1 + 1 ], %g4
    36f8:	da 0e 60 02 	ldub  [ %i1 + 2 ], %o5
    36fc:	d8 0e 60 03 	ldub  [ %i1 + 3 ], %o4
    3700:	c6 2f bf e8 	stb  %g3, [ %fp + -24 ]
    3704:	c8 2f bf e9 	stb  %g4, [ %fp + -23 ]
    3708:	da 2f bf ea 	stb  %o5, [ %fp + -22 ]
    370c:	d8 2f bf eb 	stb  %o4, [ %fp + -21 ]
    3710:	82 10 00 19 	mov  %i1, %g1
    3714:	84 10 20 09 	mov  9, %g2
    3718:	c0 28 40 00 	clrb  [ %g1 ]
    371c:	84 80 bf ff 	addcc  %g2, -1, %g2
    3720:	1c bf ff fe 	bpos  3718 <internal_getent+0x1d0>
    3724:	82 00 60 01 	inc  %g1
    3728:	82 10 3f ff 	mov  -1, %g1
    372c:	c2 2e 60 0b 	stb  %g1, [ %i1 + 0xb ]
    3730:	c2 2e 60 0a 	stb  %g1, [ %i1 + 0xa ]
    3734:	c6 2e 60 0c 	stb  %g3, [ %i1 + 0xc ]
    3738:	82 06 60 0c 	add  %i1, 0xc, %g1
    373c:	d8 28 60 03 	stb  %o4, [ %g1 + 3 ]
    3740:	c8 28 60 01 	stb  %g4, [ %g1 + 1 ]
    3744:	da 28 60 02 	stb  %o5, [ %g1 + 2 ]
    3748:	82 1f 60 02 	xor  %i5, 2, %g1
    374c:	80 a0 00 01 	cmp  %g0, %g1
    3750:	84 60 20 00 	subx  %g0, 0, %g2
    3754:	84 08 a0 0c 	and  %g2, 0xc, %g2
    3758:	84 00 a0 04 	add  %g2, 4, %g2
    375c:	f2 26 60 10 	st  %i1, [ %i1 + 0x10 ]
    3760:	c0 26 60 14 	clr  [ %i1 + 0x14 ]
    3764:	82 06 60 10 	add  %i1, 0x10, %g1
    3768:	c4 26 20 0c 	st  %g2, [ %i0 + 0xc ]
    376c:	c2 26 20 10 	st  %g1, [ %i0 + 0x10 ]
    3770:	fa 26 20 08 	st  %i5, [ %i0 + 8 ]
    3774:	10 80 00 0b 	b  37a0 <internal_getent+0x258>
    3778:	e4 26 00 00 	st  %l2, [ %i0 ]
    377c:	40 00 5b 01 	call  1a380 <__ctype_b_loc@plt>
    3780:	01 00 00 00 	nop 
    3784:	82 04 00 10 	add  %l0, %l0, %g1
    3788:	c4 02 00 00 	ld  [ %o0 ], %g2
    378c:	c6 10 80 01 	lduh  [ %g2 + %g1 ], %g3
    3790:	80 88 e0 20 	btst  0x20, %g3
    3794:	32 80 00 63 	bne,a   3920 <internal_getent+0x3d8>
    3798:	c0 2c 80 00 	clrb  [ %l2 ]
    379c:	a4 04 a0 01 	inc  %l2
    37a0:	e0 4c 80 00 	ldsb  [ %l2 ], %l0
    37a4:	80 a4 20 00 	cmp  %l0, 0
    37a8:	12 bf ff f5 	bne  377c <internal_getent+0x234>
    37ac:	80 a5 00 12 	cmp  %l4, %l2
    37b0:	18 80 00 5a 	bgu  3918 <internal_getent+0x3d0>
    37b4:	a2 10 00 12 	mov  %l2, %l1
    37b8:	82 06 40 1a 	add  %i1, %i2, %g1
    37bc:	80 a0 40 12 	cmp  %g1, %l2
    37c0:	08 80 00 06 	bleu  37d8 <internal_getent+0x290>
    37c4:	90 10 00 14 	mov  %l4, %o0
    37c8:	90 10 00 12 	mov  %l2, %o0
    37cc:	40 00 5a 78 	call  1a1ac <strchr@plt>
    37d0:	92 10 20 00 	clr  %o1
    37d4:	90 02 20 01 	inc  %o0
    37d8:	90 02 20 03 	add  %o0, 3, %o0
    37dc:	ac 0a 3f fc 	and  %o0, -4, %l6
    37e0:	a8 10 00 16 	mov  %l6, %l4
    37e4:	aa 25 80 19 	sub  %l6, %i1, %l5
    37e8:	82 05 60 04 	add  %l5, 4, %g1
    37ec:	80 a0 40 1a 	cmp  %g1, %i2
    37f0:	18 80 00 31 	bgu  38b4 <internal_getent+0x36c>
    37f4:	82 10 20 22 	mov  0x22, %g1
    37f8:	c2 4c 40 00 	ldsb  [ %l1 ], %g1
    37fc:	80 a0 60 00 	cmp  %g1, 0
    3800:	02 80 00 52 	be  3948 <internal_getent+0x400>
    3804:	e4 0c 40 00 	ldub  [ %l1 ], %l2
    3808:	40 00 5a de 	call  1a380 <__ctype_b_loc@plt>
    380c:	01 00 00 00 	nop 
    3810:	10 80 00 03 	b  381c <internal_getent+0x2d4>
    3814:	d0 02 00 00 	ld  [ %o0 ], %o0
    3818:	e4 0c 40 00 	ldub  [ %l1 ], %l2
    381c:	83 2c a0 18 	sll  %l2, 0x18, %g1
    3820:	83 38 60 17 	sra  %g1, 0x17, %g1
    3824:	c4 12 00 01 	lduh  [ %o0 + %g1 ], %g2
    3828:	80 88 a0 20 	btst  0x20, %g2
    382c:	32 bf ff fb 	bne,a   3818 <internal_getent+0x2d0>
    3830:	a2 04 60 01 	inc  %l1
    3834:	10 80 00 0c 	b  3864 <internal_getent+0x31c>
    3838:	a6 10 00 11 	mov  %l1, %l3
    383c:	40 00 5a d1 	call  1a380 <__ctype_b_loc@plt>
    3840:	01 00 00 00 	nop 
    3844:	c2 02 00 00 	ld  [ %o0 ], %g1
    3848:	84 04 00 10 	add  %l0, %l0, %g2
    384c:	c6 10 40 02 	lduh  [ %g1 + %g2 ], %g3
    3850:	80 88 e0 20 	btst  0x20, %g3
    3854:	12 80 00 09 	bne  3878 <internal_getent+0x330>
    3858:	80 a4 40 13 	cmp  %l1, %l3
    385c:	a2 04 60 01 	inc  %l1
    3860:	e4 0c 40 00 	ldub  [ %l1 ], %l2
    3864:	83 2c a0 18 	sll  %l2, 0x18, %g1
    3868:	a1 38 60 18 	sra  %g1, 0x18, %l0
    386c:	80 a4 20 00 	cmp  %l0, 0
    3870:	12 bf ff f3 	bne  383c <internal_getent+0x2f4>
    3874:	80 a4 40 13 	cmp  %l1, %l3
    3878:	08 80 00 07 	bleu  3894 <internal_getent+0x34c>
    387c:	83 2c a0 18 	sll  %l2, 0x18, %g1
    3880:	e6 25 00 00 	st  %l3, [ %l4 ]
    3884:	a8 05 20 04 	add  %l4, 4, %l4
    3888:	aa 25 00 19 	sub  %l4, %i1, %l5
    388c:	e4 0c 40 00 	ldub  [ %l1 ], %l2
    3890:	83 2c a0 18 	sll  %l2, 0x18, %g1
    3894:	80 a0 60 00 	cmp  %g1, 0
    3898:	02 bf ff d5 	be  37ec <internal_getent+0x2a4>
    389c:	82 05 60 04 	add  %l5, 4, %g1
    38a0:	c0 2c 40 00 	clrb  [ %l1 ]
    38a4:	80 a0 40 1a 	cmp  %g1, %i2
    38a8:	08 bf ff d4 	bleu  37f8 <internal_getent+0x2b0>
    38ac:	a2 04 60 01 	inc  %l1
    38b0:	82 10 20 22 	mov  0x22, %g1
    38b4:	c2 26 c0 00 	st  %g1, [ %i3 ]
    38b8:	82 10 3f ff 	mov  -1, %g1
    38bc:	c2 27 00 00 	st  %g1, [ %i4 ]
    38c0:	10 80 00 27 	b  395c <internal_getent+0x414>
    38c4:	b0 10 3f fe 	mov  -2, %i0
    38c8:	82 10 20 22 	mov  0x22, %g1
    38cc:	c2 26 c0 00 	st  %g1, [ %i3 ]
    38d0:	84 10 3f ff 	mov  -1, %g2
    38d4:	10 bf ff fb 	b  38c0 <internal_getent+0x378>
    38d8:	c4 27 00 00 	st  %g2, [ %i4 ]
    38dc:	c2 27 00 00 	st  %g1, [ %i4 ]
    38e0:	10 80 00 1f 	b  395c <internal_getent+0x414>
    38e4:	b0 10 20 00 	clr  %i0
    38e8:	d0 02 00 00 	ld  [ %o0 ], %o0
    38ec:	a4 04 a0 01 	inc  %l2
    38f0:	c2 4c 80 00 	ldsb  [ %l2 ], %g1
    38f4:	82 00 40 01 	add  %g1, %g1, %g1
    38f8:	c4 12 00 01 	lduh  [ %o0 + %g1 ], %g2
    38fc:	80 88 a0 20 	btst  0x20, %g2
    3900:	32 bf ff fc 	bne,a   38f0 <internal_getent+0x3a8>
    3904:	a4 04 a0 01 	inc  %l2
    3908:	10 bf ff 67 	b  36a4 <internal_getent+0x15c>
    390c:	90 10 00 1d 	mov  %i5, %o0
    3910:	10 bf ff 50 	b  3650 <internal_getent+0x108>
    3914:	82 10 00 0d 	mov  %o5, %g1
    3918:	10 bf ff b0 	b  37d8 <internal_getent+0x290>
    391c:	90 10 00 14 	mov  %l4, %o0
    3920:	d0 02 00 00 	ld  [ %o0 ], %o0
    3924:	a4 04 a0 01 	inc  %l2
    3928:	c2 4c 80 00 	ldsb  [ %l2 ], %g1
    392c:	82 00 40 01 	add  %g1, %g1, %g1
    3930:	c4 12 00 01 	lduh  [ %o0 + %g1 ], %g2
    3934:	80 88 a0 20 	btst  0x20, %g2
    3938:	32 bf ff fc 	bne,a   3928 <internal_getent+0x3e0>
    393c:	a4 04 a0 01 	inc  %l2
    3940:	10 bf ff 9c 	b  37b0 <internal_getent+0x268>
    3944:	80 a5 00 12 	cmp  %l4, %l2
    3948:	80 a5 a0 00 	cmp  %l6, 0
    394c:	02 bf ff db 	be  38b8 <internal_getent+0x370>
    3950:	c0 25 00 00 	clr  [ %l4 ]
    3954:	ec 26 20 04 	st  %l6, [ %i0 + 4 ]
    3958:	b0 10 20 01 	mov  1, %i0
    395c:	81 c7 e0 08 	ret 
    3960:	81 e8 00 00 	restore 

00003964 <_nss_files_gethostent_r>:
_nss_files_gethostent_r():
    3964:	9d e3 bf 88 	save  %sp, -120, %sp
    3968:	03 00 00 00 	sethi  %hi(0), %g1
    396c:	2f 00 00 59 	sethi  %hi(0x16400), %l7
    3970:	7f ff fe 50 	call  32b0 <_nss_files_getservbyport_r+0x118>
    3974:	ae 05 e2 90 	add  %l7, 0x290, %l7	! 16690 <__FRAME_END__+0xd9e0>
    3978:	82 10 61 58 	or  %g1, 0x158, %g1
    397c:	c4 05 c0 01 	ld  [ %l7 + %g1 ], %g2
    3980:	a6 10 00 18 	mov  %i0, %l3
    3984:	80 a0 a0 00 	cmp  %g2, 0
    3988:	02 80 00 06 	be  39a0 <_nss_files_gethostent_r+0x3c>
    398c:	b0 10 20 01 	mov  1, %i0
    3990:	03 00 00 00 	sethi  %hi(0), %g1
    3994:	82 10 60 50 	or  %g1, 0x50, %g1	! 50 <GLIBC_PRIVATE+0x50>
    3998:	9f c0 80 00 	call  %g2
    399c:	d0 05 c0 01 	ld  [ %l7 + %g1 ], %o0
    39a0:	23 00 00 00 	sethi  %hi(0), %l1
    39a4:	82 14 60 48 	or  %l1, 0x48, %g1	! 48 <GLIBC_PRIVATE+0x48>
    39a8:	e0 05 c0 01 	ld  [ %l7 + %g1 ], %l0
    39ac:	c4 04 00 00 	ld  [ %l0 ], %g2
    39b0:	80 a0 a0 00 	cmp  %g2, 0
    39b4:	02 80 00 35 	be  3a88 <_nss_files_gethostent_r+0x124>
    39b8:	25 00 00 00 	sethi  %hi(0), %l2
    39bc:	82 14 a0 58 	or  %l2, 0x58, %g1	! 58 <GLIBC_PRIVATE+0x58>
    39c0:	e0 05 c0 01 	ld  [ %l7 + %g1 ], %l0
    39c4:	c4 04 00 00 	ld  [ %l0 ], %g2
    39c8:	80 a0 a0 01 	cmp  %g2, 1
    39cc:	02 80 00 0c 	be  39fc <_nss_files_gethostent_r+0x98>
    39d0:	82 14 60 48 	or  %l1, 0x48, %g1
    39d4:	05 00 00 00 	sethi  %hi(0), %g2
    39d8:	c6 05 c0 01 	ld  [ %l7 + %g1 ], %g3
    39dc:	84 10 a0 54 	or  %g2, 0x54, %g2
    39e0:	d0 00 c0 00 	ld  [ %g3 ], %o0
    39e4:	40 00 5a 07 	call  1a200 <fsetpos@plt>
    39e8:	d2 05 c0 02 	ld  [ %l7 + %g2 ], %o1
    39ec:	80 a2 20 00 	cmp  %o0, 0
    39f0:	26 80 00 1c 	bl,a   3a60 <_nss_files_gethostent_r+0xfc>
    39f4:	b0 10 3f ff 	mov  -1, %i0
    39f8:	f0 24 00 00 	st  %i0, [ %l0 ]
    39fc:	40 00 5a 16 	call  1a254 <__res_state@plt>
    3a00:	01 00 00 00 	nop 
    3a04:	c4 02 20 08 	ld  [ %o0 + 8 ], %g2
    3a08:	03 00 00 08 	sethi  %hi(0x2000), %g1
    3a0c:	84 08 80 01 	and  %g2, %g1, %g2
    3a10:	80 a0 00 02 	cmp  %g0, %g2
    3a14:	9a 40 3f ff 	addx  %g0, -1, %o5
    3a18:	80 a0 00 02 	cmp  %g0, %g2
    3a1c:	82 40 20 00 	addx  %g0, 0, %g1
    3a20:	83 28 60 03 	sll  %g1, 3, %g1
    3a24:	9a 0b 7f f8 	and  %o5, -8, %o5
    3a28:	c2 23 a0 5c 	st  %g1, [ %sp + 0x5c ]
    3a2c:	90 10 00 13 	mov  %l3, %o0
    3a30:	92 10 00 19 	mov  %i1, %o1
    3a34:	94 10 00 1a 	mov  %i2, %o2
    3a38:	96 10 00 1b 	mov  %i3, %o3
    3a3c:	98 10 00 1c 	mov  %i4, %o4
    3a40:	7f ff fe c2 	call  3548 <internal_getent>
    3a44:	9a 03 60 0a 	add  %o5, 0xa, %o5
    3a48:	80 a2 20 01 	cmp  %o0, 1
    3a4c:	02 80 00 21 	be  3ad0 <_nss_files_gethostent_r+0x16c>
    3a50:	b0 10 00 08 	mov  %o0, %i0
    3a54:	82 14 a0 58 	or  %l2, 0x58, %g1
    3a58:	c4 05 c0 01 	ld  [ %l7 + %g1 ], %g2
    3a5c:	c0 20 80 00 	clr  [ %g2 ]
    3a60:	03 00 00 00 	sethi  %hi(0), %g1
    3a64:	82 10 61 64 	or  %g1, 0x164, %g1	! 164 <GLIBC_PRIVATE+0x164>
    3a68:	c4 05 c0 01 	ld  [ %l7 + %g1 ], %g2
    3a6c:	80 a0 a0 00 	cmp  %g2, 0
    3a70:	02 80 00 21 	be  3af4 <_nss_files_gethostent_r+0x190>
    3a74:	03 00 00 00 	sethi  %hi(0), %g1
    3a78:	82 10 60 50 	or  %g1, 0x50, %g1	! 50 <GLIBC_PRIVATE+0x50>
    3a7c:	9f c0 80 00 	call  %g2
    3a80:	d0 05 c0 01 	ld  [ %l7 + %g1 ], %o0
    3a84:	30 80 00 1c 	b,a   3af4 <_nss_files_gethostent_r+0x190>
    3a88:	7f ff fe 0c 	call  32b8 <internal_setent>
    3a8c:	90 10 20 00 	clr  %o0
    3a90:	80 a2 20 01 	cmp  %o0, 1
    3a94:	12 bf ff f3 	bne  3a60 <_nss_files_gethostent_r+0xfc>
    3a98:	b0 10 00 08 	mov  %o0, %i0
    3a9c:	03 00 00 00 	sethi  %hi(0), %g1
    3aa0:	82 10 60 54 	or  %g1, 0x54, %g1	! 54 <GLIBC_PRIVATE+0x54>
    3aa4:	d2 05 c0 01 	ld  [ %l7 + %g1 ], %o1
    3aa8:	40 00 5a 2a 	call  1a350 <fgetpos@plt>
    3aac:	d0 04 00 00 	ld  [ %l0 ], %o0
    3ab0:	80 a2 20 00 	cmp  %o0, 0
    3ab4:	16 bf ff c2 	bge  39bc <_nss_files_gethostent_r+0x58>
    3ab8:	25 00 00 00 	sethi  %hi(0), %l2
    3abc:	40 00 5a 0a 	call  1a2e4 <fclose@plt>
    3ac0:	d0 04 00 00 	ld  [ %l0 ], %o0
    3ac4:	c0 24 00 00 	clr  [ %l0 ]
    3ac8:	10 bf ff e6 	b  3a60 <_nss_files_gethostent_r+0xfc>
    3acc:	b0 10 3f ff 	mov  -1, %i0
    3ad0:	82 14 60 48 	or  %l1, 0x48, %g1
    3ad4:	05 00 00 00 	sethi  %hi(0), %g2
    3ad8:	c6 05 c0 01 	ld  [ %l7 + %g1 ], %g3
    3adc:	84 10 a0 54 	or  %g2, 0x54, %g2
    3ae0:	d0 00 c0 00 	ld  [ %g3 ], %o0
    3ae4:	40 00 5a 1b 	call  1a350 <fgetpos@plt>
    3ae8:	d2 05 c0 02 	ld  [ %l7 + %g2 ], %o1
    3aec:	10 bf ff de 	b  3a64 <_nss_files_gethostent_r+0x100>
    3af0:	03 00 00 00 	sethi  %hi(0), %g1
    3af4:	81 c7 e0 08 	ret 
    3af8:	81 e8 00 00 	restore 

00003afc <_nss_files_gethostbyname_r>:
_nss_files_gethostbyname_r():
    3afc:	9d e3 bf 58 	save  %sp, -168, %sp
    3b00:	03 00 00 00 	sethi  %hi(0), %g1
    3b04:	2f 00 00 59 	sethi  %hi(0x16400), %l7
    3b08:	7f ff fd ea 	call  32b0 <_nss_files_getservbyport_r+0x118>
    3b0c:	ae 05 e0 f8 	add  %l7, 0xf8, %l7	! 164f8 <__FRAME_END__+0xd848>
    3b10:	82 10 61 58 	or  %g1, 0x158, %g1
    3b14:	c4 05 c0 01 	ld  [ %l7 + %g1 ], %g2
    3b18:	f0 27 a0 44 	st  %i0, [ %fp + 0x44 ]
    3b1c:	f8 27 a0 54 	st  %i4, [ %fp + 0x54 ]
    3b20:	80 a0 a0 00 	cmp  %g2, 0
    3b24:	02 80 00 06 	be  3b3c <_nss_files_gethostbyname_r+0x40>
    3b28:	fa 27 a0 58 	st  %i5, [ %fp + 0x58 ]
    3b2c:	03 00 00 00 	sethi  %hi(0), %g1
    3b30:	82 10 60 50 	or  %g1, 0x50, %g1	! 50 <GLIBC_PRIVATE+0x50>
    3b34:	9f c0 80 00 	call  %g2
    3b38:	d0 05 c0 01 	ld  [ %l7 + %g1 ], %o0
    3b3c:	05 00 00 00 	sethi  %hi(0), %g2
    3b40:	82 10 a0 4c 	or  %g2, 0x4c, %g1	! 4c <GLIBC_PRIVATE+0x4c>
    3b44:	c4 05 c0 01 	ld  [ %l7 + %g1 ], %g2
    3b48:	7f ff fd dc 	call  32b8 <internal_setent>
    3b4c:	d0 00 80 00 	ld  [ %g2 ], %o0
    3b50:	80 a2 20 01 	cmp  %o0, 1
    3b54:	02 80 00 0c 	be  3b84 <_nss_files_gethostbyname_r+0x88>
    3b58:	b0 10 00 08 	mov  %o0, %i0
    3b5c:	03 00 00 00 	sethi  %hi(0), %g1
    3b60:	82 10 61 64 	or  %g1, 0x164, %g1	! 164 <GLIBC_PRIVATE+0x164>
    3b64:	c4 05 c0 01 	ld  [ %l7 + %g1 ], %g2
    3b68:	80 a0 a0 00 	cmp  %g2, 0
    3b6c:	02 80 01 29 	be  4010 <_nss_files_gethostbyname_r+0x514>
    3b70:	03 00 00 00 	sethi  %hi(0), %g1
    3b74:	82 10 60 50 	or  %g1, 0x50, %g1	! 50 <GLIBC_PRIVATE+0x50>
    3b78:	9f c0 80 00 	call  %g2
    3b7c:	d0 05 c0 01 	ld  [ %l7 + %g1 ], %o0
    3b80:	30 80 01 24 	b,a   4010 <_nss_files_gethostbyname_r+0x514>
    3b84:	03 00 00 00 	sethi  %hi(0), %g1
    3b88:	82 10 60 58 	or  %g1, 0x58, %g1	! 58 <GLIBC_PRIVATE+0x58>
    3b8c:	c6 05 c0 01 	ld  [ %l7 + %g1 ], %g3
    3b90:	84 10 20 02 	mov  2, %g2
    3b94:	40 00 59 b0 	call  1a254 <__res_state@plt>
    3b98:	c4 20 c0 00 	st  %g2, [ %g3 ]
    3b9c:	a4 10 00 08 	mov  %o0, %l2
    3ba0:	27 00 00 08 	sethi  %hi(0x2000), %l3
    3ba4:	c2 04 a0 08 	ld  [ %l2 + 8 ], %g1
    3ba8:	82 08 40 13 	and  %g1, %l3, %g1
    3bac:	80 a0 00 01 	cmp  %g0, %g1
    3bb0:	40 00 59 a9 	call  1a254 <__res_state@plt>
    3bb4:	a0 40 3f ff 	addx  %g0, -1, %l0
    3bb8:	c2 02 20 08 	ld  [ %o0 + 8 ], %g1
    3bbc:	82 08 40 13 	and  %g1, %l3, %g1
    3bc0:	80 a0 00 01 	cmp  %g0, %g1
    3bc4:	84 40 20 00 	addx  %g0, 0, %g2
    3bc8:	85 28 a0 03 	sll  %g2, 3, %g2
    3bcc:	a0 0c 3f f8 	and  %l0, -8, %l0
    3bd0:	c4 23 a0 5c 	st  %g2, [ %sp + 0x5c ]
    3bd4:	a0 04 20 0a 	add  %l0, 0xa, %l0
    3bd8:	9a 10 00 10 	mov  %l0, %o5
    3bdc:	90 10 00 19 	mov  %i1, %o0
    3be0:	92 10 00 1a 	mov  %i2, %o1
    3be4:	94 10 00 1b 	mov  %i3, %o2
    3be8:	d6 07 a0 54 	ld  [ %fp + 0x54 ], %o3
    3bec:	7f ff fe 57 	call  3548 <internal_getent>
    3bf0:	d8 07 a0 58 	ld  [ %fp + 0x58 ], %o4
    3bf4:	80 a2 20 01 	cmp  %o0, 1
    3bf8:	12 80 00 3a 	bne  3ce0 <_nss_files_gethostbyname_r+0x1e4>
    3bfc:	b0 10 00 08 	mov  %o0, %i0
    3c00:	d0 07 a0 44 	ld  [ %fp + 0x44 ], %o0
    3c04:	40 00 59 d6 	call  1a35c <__strcasecmp@plt>
    3c08:	d2 06 40 00 	ld  [ %i1 ], %o1
    3c0c:	80 a2 20 00 	cmp  %o0, 0
    3c10:	02 80 00 11 	be  3c54 <_nss_files_gethostbyname_r+0x158>
    3c14:	03 00 00 00 	sethi  %hi(0), %g1
    3c18:	e0 06 60 04 	ld  [ %i1 + 4 ], %l0
    3c1c:	e2 04 00 00 	ld  [ %l0 ], %l1
    3c20:	80 a4 60 00 	cmp  %l1, 0
    3c24:	22 bf ff e1 	be,a   3ba8 <_nss_files_gethostbyname_r+0xac>
    3c28:	c2 04 a0 08 	ld  [ %l2 + 8 ], %g1
    3c2c:	d2 04 00 00 	ld  [ %l0 ], %o1
    3c30:	40 00 59 cb 	call  1a35c <__strcasecmp@plt>
    3c34:	d0 07 a0 44 	ld  [ %fp + 0x44 ], %o0
    3c38:	80 a2 20 00 	cmp  %o0, 0
    3c3c:	12 bf ff f8 	bne  3c1c <_nss_files_gethostbyname_r+0x120>
    3c40:	a0 04 20 04 	add  %l0, 4, %l0
    3c44:	80 a4 60 00 	cmp  %l1, 0
    3c48:	22 bf ff d8 	be,a   3ba8 <_nss_files_gethostbyname_r+0xac>
    3c4c:	c2 04 a0 08 	ld  [ %l2 + 8 ], %g1
    3c50:	03 00 00 00 	sethi  %hi(0), %g1
    3c54:	82 10 61 60 	or  %g1, 0x160, %g1	! 160 <GLIBC_PRIVATE+0x160>
    3c58:	c4 05 c0 01 	ld  [ %l7 + %g1 ], %g2
    3c5c:	c6 00 a0 2c 	ld  [ %g2 + 0x2c ], %g3
    3c60:	80 88 e0 10 	btst  0x10, %g3
    3c64:	02 80 00 20 	be  3ce4 <_nss_files_gethostbyname_r+0x1e8>
    3c68:	05 00 00 00 	sethi  %hi(0), %g2
    3c6c:	03 00 00 04 	sethi  %hi(0x1000), %g1
    3c70:	f6 27 bf d4 	st  %i3, [ %fp + -44 ]
    3c74:	80 a6 c0 01 	cmp  %i3, %g1
    3c78:	08 80 00 03 	bleu  3c84 <_nss_files_gethostbyname_r+0x188>
    3c7c:	dc 27 bf d0 	st  %sp, [ %fp + -48 ]
    3c80:	c2 27 bf d4 	st  %g1, [ %fp + -44 ]
    3c84:	c4 07 bf d4 	ld  [ %fp + -44 ], %g2
    3c88:	82 00 a0 07 	add  %g2, 7, %g1
    3c8c:	82 08 7f f8 	and  %g1, -8, %g1
    3c90:	c6 06 60 04 	ld  [ %i1 + 4 ], %g3
    3c94:	9c 23 80 01 	sub  %sp, %g1, %sp
    3c98:	c4 00 c0 00 	ld  [ %g3 ], %g2
    3c9c:	82 03 a0 68 	add  %sp, 0x68, %g1
    3ca0:	80 a0 a0 00 	cmp  %g2, 0
    3ca4:	c2 27 bf cc 	st  %g1, [ %fp + -52 ]
    3ca8:	b8 10 20 01 	mov  1, %i4
    3cac:	ac 10 20 00 	clr  %l6
    3cb0:	ba 10 20 00 	clr  %i5
    3cb4:	02 80 00 16 	be  3d0c <_nss_files_gethostbyname_r+0x210>
    3cb8:	82 00 c0 1d 	add  %g3, %i5, %g1
    3cbc:	ac 05 a0 01 	inc  %l6
    3cc0:	bb 2d a0 02 	sll  %l6, 2, %i5
    3cc4:	c2 00 c0 1d 	ld  [ %g3 + %i5 ], %g1
    3cc8:	10 bf ff fb 	b  3cb4 <_nss_files_gethostbyname_r+0x1b8>
    3ccc:	80 a0 60 00 	cmp  %g1, 0
    3cd0:	80 a2 3f fe 	cmp  %o0, -2
    3cd4:	32 80 00 02 	bne,a   3cdc <_nss_files_gethostbyname_r+0x1e0>
    3cd8:	b0 10 20 01 	mov  1, %i0
    3cdc:	dc 07 bf d0 	ld  [ %fp + -48 ], %sp
    3ce0:	05 00 00 00 	sethi  %hi(0), %g2
    3ce4:	82 10 a0 4c 	or  %g2, 0x4c, %g1	! 4c <GLIBC_PRIVATE+0x4c>
    3ce8:	c4 05 c0 01 	ld  [ %l7 + %g1 ], %g2
    3cec:	c6 00 80 00 	ld  [ %g2 ], %g3
    3cf0:	80 a0 e0 00 	cmp  %g3, 0
    3cf4:	32 bf ff 9b 	bne,a   3b60 <_nss_files_gethostbyname_r+0x64>
    3cf8:	03 00 00 00 	sethi  %hi(0), %g1
    3cfc:	7f ff fd e5 	call  3490 <internal_endent>
    3d00:	01 00 00 00 	nop 
    3d04:	10 bf ff 97 	b  3b60 <_nss_files_gethostbyname_r+0x64>
    3d08:	03 00 00 00 	sethi  %hi(0), %g1
    3d0c:	40 00 59 52 	call  1a254 <__res_state@plt>
    3d10:	a4 00 60 04 	add  %g1, 4, %l2	! 4 <GLIBC_PRIVATE+0x4>
    3d14:	b4 06 80 1b 	add  %i2, %i3, %i2
    3d18:	84 07 bf d8 	add  %fp, -40, %g2
    3d1c:	d0 27 bf c8 	st  %o0, [ %fp + -56 ]
    3d20:	c4 27 bf c4 	st  %g2, [ %fp + -60 ]
    3d24:	b6 10 20 04 	mov  4, %i3
    3d28:	c4 07 bf c8 	ld  [ %fp + -56 ], %g2
    3d2c:	c2 00 a0 08 	ld  [ %g2 + 8 ], %g1
    3d30:	23 00 00 08 	sethi  %hi(0x2000), %l1
    3d34:	82 08 40 11 	and  %g1, %l1, %g1
    3d38:	80 a0 00 01 	cmp  %g0, %g1
    3d3c:	40 00 59 46 	call  1a254 <__res_state@plt>
    3d40:	a0 40 3f ff 	addx  %g0, -1, %l0
    3d44:	c2 02 20 08 	ld  [ %o0 + 8 ], %g1
    3d48:	82 08 40 11 	and  %g1, %l1, %g1
    3d4c:	80 a0 00 01 	cmp  %g0, %g1
    3d50:	84 40 20 00 	addx  %g0, 0, %g2
    3d54:	85 28 a0 03 	sll  %g2, 3, %g2
    3d58:	a0 0c 3f f8 	and  %l0, -8, %l0
    3d5c:	c4 23 a0 5c 	st  %g2, [ %sp + 0x5c ]
    3d60:	a0 04 20 0a 	add  %l0, 0xa, %l0
    3d64:	9a 10 00 10 	mov  %l0, %o5
    3d68:	d0 07 bf c4 	ld  [ %fp + -60 ], %o0
    3d6c:	d2 07 bf cc 	ld  [ %fp + -52 ], %o1
    3d70:	d4 07 bf d4 	ld  [ %fp + -44 ], %o2
    3d74:	d6 07 a0 54 	ld  [ %fp + 0x54 ], %o3
    3d78:	7f ff fd f4 	call  3548 <internal_getent>
    3d7c:	d8 07 a0 58 	ld  [ %fp + 0x58 ], %o4
    3d80:	80 a2 20 01 	cmp  %o0, 1
    3d84:	12 bf ff d3 	bne  3cd0 <_nss_files_gethostbyname_r+0x1d4>
    3d88:	b0 10 00 08 	mov  %o0, %i0
    3d8c:	d0 07 a0 44 	ld  [ %fp + 0x44 ], %o0
    3d90:	40 00 59 73 	call  1a35c <__strcasecmp@plt>
    3d94:	d2 07 bf d8 	ld  [ %fp + -40 ], %o1
    3d98:	80 a2 20 00 	cmp  %o0, 0
    3d9c:	02 80 00 11 	be  3de0 <_nss_files_gethostbyname_r+0x2e4>
    3da0:	e6 07 bf dc 	ld  [ %fp + -36 ], %l3
    3da4:	e0 07 bf dc 	ld  [ %fp + -36 ], %l0
    3da8:	e2 04 00 00 	ld  [ %l0 ], %l1
    3dac:	80 a4 60 00 	cmp  %l1, 0
    3db0:	02 bf ff df 	be  3d2c <_nss_files_gethostbyname_r+0x230>
    3db4:	c4 07 bf c8 	ld  [ %fp + -56 ], %g2
    3db8:	d2 04 00 00 	ld  [ %l0 ], %o1
    3dbc:	40 00 59 68 	call  1a35c <__strcasecmp@plt>
    3dc0:	d0 07 a0 44 	ld  [ %fp + 0x44 ], %o0
    3dc4:	80 a2 20 00 	cmp  %o0, 0
    3dc8:	12 bf ff f8 	bne  3da8 <_nss_files_gethostbyname_r+0x2ac>
    3dcc:	a0 04 20 04 	add  %l0, 4, %l0
    3dd0:	80 a4 60 00 	cmp  %l1, 0
    3dd4:	02 bf ff d6 	be  3d2c <_nss_files_gethostbyname_r+0x230>
    3dd8:	c4 07 bf c8 	ld  [ %fp + -56 ], %g2
    3ddc:	e6 07 bf dc 	ld  [ %fp + -36 ], %l3
    3de0:	c2 04 c0 00 	ld  [ %l3 ], %g1
    3de4:	80 a0 60 00 	cmp  %g1, 0
    3de8:	a8 10 20 00 	clr  %l4
    3dec:	02 80 00 0c 	be  3e1c <_nss_files_gethostbyname_r+0x320>
    3df0:	a0 10 20 00 	clr  %l0
    3df4:	84 10 20 00 	clr  %g2
    3df8:	40 00 59 1d 	call  1a26c <strlen@plt>
    3dfc:	d0 04 c0 02 	ld  [ %l3 + %g2 ], %o0
    3e00:	a8 05 20 01 	inc  %l4
    3e04:	85 2d 20 02 	sll  %l4, 2, %g2
    3e08:	90 02 00 10 	add  %o0, %l0, %o0
    3e0c:	c2 04 c0 02 	ld  [ %l3 + %g2 ], %g1
    3e10:	80 a0 60 00 	cmp  %g1, 0
    3e14:	12 bf ff f9 	bne  3df8 <_nss_files_gethostbyname_r+0x2fc>
    3e18:	a0 02 20 01 	add  %o0, 1, %l0
    3e1c:	d0 06 40 00 	ld  [ %i1 ], %o0
    3e20:	40 00 58 f2 	call  1a1e8 <strcmp@plt>
    3e24:	d2 07 bf d8 	ld  [ %fp + -40 ], %o1
    3e28:	80 a2 20 00 	cmp  %o0, 0
    3e2c:	02 80 00 08 	be  3e4c <_nss_files_gethostbyname_r+0x350>
    3e30:	80 8c a0 03 	btst  3, %l2
    3e34:	40 00 59 0e 	call  1a26c <strlen@plt>
    3e38:	d0 07 bf d8 	ld  [ %fp + -40 ], %o0
    3e3c:	90 02 00 10 	add  %o0, %l0, %o0
    3e40:	a8 05 20 01 	inc  %l4
    3e44:	a0 02 20 01 	add  %o0, 1, %l0
    3e48:	80 8c a0 03 	btst  3, %l2
    3e4c:	12 80 00 6d 	bne  4000 <_nss_files_gethostbyname_r+0x504>
    3e50:	03 00 00 00 	sethi  %hi(0), %g1
    3e54:	82 04 20 03 	add  %l0, 3, %g1
    3e58:	90 08 7f fc 	and  %g1, -4, %o0
    3e5c:	84 06 c0 12 	add  %i3, %l2, %g2
    3e60:	82 05 80 14 	add  %l6, %l4, %g1
    3e64:	84 00 80 08 	add  %g2, %o0, %g2
    3e68:	83 28 60 02 	sll  %g1, 2, %g1
    3e6c:	84 00 80 01 	add  %g2, %g1, %g2
    3e70:	84 00 a0 1c 	add  %g2, 0x1c, %g2
    3e74:	80 a0 80 1a 	cmp  %g2, %i2
    3e78:	1a 80 00 59 	bcc  3fdc <_nss_files_gethostbyname_r+0x4e0>
    3e7c:	b0 10 00 1b 	mov  %i3, %i0
    3e80:	82 02 00 12 	add  %o0, %l2, %g1
    3e84:	aa 00 60 10 	add  %g1, 0x10, %l5
    3e88:	84 06 c0 15 	add  %i3, %l5, %g2
    3e8c:	a0 10 20 00 	clr  %l0
    3e90:	80 a4 00 1c 	cmp  %l0, %i4
    3e94:	16 80 00 0a 	bge  3ebc <_nss_files_gethostbyname_r+0x3c0>
    3e98:	a2 00 a0 08 	add  %g2, 8, %l1
    3e9c:	c6 06 60 10 	ld  [ %i1 + 0x10 ], %g3
    3ea0:	85 2c 20 02 	sll  %l0, 2, %g2
    3ea4:	a0 04 20 01 	inc  %l0
    3ea8:	c2 00 c0 02 	ld  [ %g3 + %g2 ], %g1
    3eac:	80 a4 00 1c 	cmp  %l0, %i4
    3eb0:	06 bf ff fc 	bl  3ea0 <_nss_files_gethostbyname_r+0x3a4>
    3eb4:	c2 25 40 02 	st  %g1, [ %l5 + %g2 ]
    3eb8:	a0 10 20 00 	clr  %l0
    3ebc:	80 a4 00 16 	cmp  %l0, %l6
    3ec0:	36 80 00 0a 	bge,a   3ee8 <_nss_files_gethostbyname_r+0x3ec>
    3ec4:	c2 04 c0 00 	ld  [ %l3 ], %g1
    3ec8:	c6 06 60 04 	ld  [ %i1 + 4 ], %g3
    3ecc:	85 2c 20 02 	sll  %l0, 2, %g2
    3ed0:	a0 04 20 01 	inc  %l0
    3ed4:	c2 00 c0 02 	ld  [ %g3 + %g2 ], %g1
    3ed8:	80 a4 00 16 	cmp  %l0, %l6
    3edc:	06 bf ff fc 	bl  3ecc <_nss_files_gethostbyname_r+0x3d0>
    3ee0:	c2 24 40 02 	st  %g1, [ %l1 + %g2 ]
    3ee4:	c2 04 c0 00 	ld  [ %l3 ], %g1
    3ee8:	84 10 00 13 	mov  %l3, %g2
    3eec:	80 a0 60 00 	cmp  %g1, 0
    3ef0:	a0 10 20 00 	clr  %l0
    3ef4:	12 80 00 05 	bne  3f08 <_nss_files_gethostbyname_r+0x40c>
    3ef8:	86 10 20 00 	clr  %g3
    3efc:	10 80 00 11 	b  3f40 <_nss_files_gethostbyname_r+0x444>
    3f00:	80 a4 00 14 	cmp  %l0, %l4
    3f04:	bb 2d a0 02 	sll  %l6, 2, %i5
    3f08:	e4 24 40 1d 	st  %l2, [ %l1 + %i5 ]
    3f0c:	d2 00 80 03 	ld  [ %g2 + %g3 ], %o1
    3f10:	40 00 58 da 	call  1a278 <stpcpy@plt>
    3f14:	90 10 00 12 	mov  %l2, %o0
    3f18:	a0 04 20 01 	inc  %l0
    3f1c:	c4 07 bf dc 	ld  [ %fp + -36 ], %g2
    3f20:	87 2c 20 02 	sll  %l0, 2, %g3
    3f24:	c2 00 80 03 	ld  [ %g2 + %g3 ], %g1
    3f28:	80 a0 60 00 	cmp  %g1, 0
    3f2c:	ac 05 a0 01 	inc  %l6
    3f30:	12 bf ff f5 	bne  3f04 <_nss_files_gethostbyname_r+0x408>
    3f34:	a4 02 20 01 	add  %o0, 1, %l2
    3f38:	bb 2d a0 02 	sll  %l6, 2, %i5
    3f3c:	80 a4 00 14 	cmp  %l0, %l4
    3f40:	26 80 00 20 	bl,a   3fc0 <_nss_files_gethostbyname_r+0x4c4>
    3f44:	e4 24 40 1d 	st  %l2, [ %l1 + %i5 ]
    3f48:	90 0c a0 03 	and  %l2, 3, %o0
    3f4c:	90 20 00 08 	neg  %o0
    3f50:	c2 07 bf e8 	ld  [ %fp + -24 ], %g1
    3f54:	c0 24 40 1d 	clr  [ %l1 + %i5 ]
    3f58:	90 0a 20 03 	and  %o0, 3, %o0
    3f5c:	90 04 80 08 	add  %l2, %o0, %o0
    3f60:	d2 00 40 00 	ld  [ %g1 ], %o1
    3f64:	40 00 58 dd 	call  1a2d8 <memcpy@plt>
    3f68:	d4 07 bf e4 	ld  [ %fp + -28 ], %o2
    3f6c:	82 07 40 11 	add  %i5, %l1, %g1
    3f70:	d0 25 40 18 	st  %o0, [ %l5 + %i0 ]
    3f74:	b6 06 e0 04 	add  %i3, 4, %i3
    3f78:	a4 00 60 04 	add  %g1, 4, %l2
    3f7c:	ea 26 60 10 	st  %l5, [ %i1 + 0x10 ]
    3f80:	b8 07 20 01 	inc  %i4
    3f84:	c0 25 40 1b 	clr  [ %l5 + %i3 ]
    3f88:	80 a6 80 12 	cmp  %i2, %l2
    3f8c:	1a bf ff 67 	bcc  3d28 <_nss_files_gethostbyname_r+0x22c>
    3f90:	e2 26 60 04 	st  %l1, [ %i1 + 4 ]
    3f94:	03 00 00 00 	sethi  %hi(0), %g1
    3f98:	05 00 00 00 	sethi  %hi(0), %g2
    3f9c:	07 00 00 00 	sethi  %hi(0), %g3
    3fa0:	82 10 60 70 	or  %g1, 0x70, %g1
    3fa4:	84 10 a0 74 	or  %g2, 0x74, %g2
    3fa8:	86 10 e0 5c 	or  %g3, 0x5c, %g3
    3fac:	d0 05 c0 01 	ld  [ %l7 + %g1 ], %o0
    3fb0:	d2 05 c0 02 	ld  [ %l7 + %g2 ], %o1
    3fb4:	d6 05 c0 03 	ld  [ %l7 + %g3 ], %o3
    3fb8:	40 00 58 95 	call  1a20c <__assert_fail@plt>
    3fbc:	94 10 21 0c 	mov  0x10c, %o2
    3fc0:	90 10 00 12 	mov  %l2, %o0
    3fc4:	d2 07 bf d8 	ld  [ %fp + -40 ], %o1
    3fc8:	40 00 58 ac 	call  1a278 <stpcpy@plt>
    3fcc:	ac 05 a0 01 	inc  %l6
    3fd0:	a4 02 20 01 	add  %o0, 1, %l2
    3fd4:	10 bf ff dd 	b  3f48 <_nss_files_gethostbyname_r+0x44c>
    3fd8:	bb 2d a0 02 	sll  %l6, 2, %i5
    3fdc:	c4 07 a0 54 	ld  [ %fp + 0x54 ], %g2
    3fe0:	82 10 20 22 	mov  0x22, %g1
    3fe4:	c2 20 80 00 	st  %g1, [ %g2 ]
    3fe8:	c2 07 a0 58 	ld  [ %fp + 0x58 ], %g1
    3fec:	84 10 3f ff 	mov  -1, %g2
    3ff0:	c4 20 40 00 	st  %g2, [ %g1 ]
    3ff4:	b0 10 3f fe 	mov  -2, %i0
    3ff8:	10 bf ff 3a 	b  3ce0 <_nss_files_gethostbyname_r+0x1e4>
    3ffc:	dc 07 bf d0 	ld  [ %fp + -48 ], %sp
    4000:	05 00 00 00 	sethi  %hi(0), %g2
    4004:	07 00 00 00 	sethi  %hi(0), %g3
    4008:	10 bf ff e7 	b  3fa4 <_nss_files_gethostbyname_r+0x4a8>
    400c:	82 10 60 6c 	or  %g1, 0x6c, %g1
    4010:	81 c7 e0 08 	ret 
    4014:	81 e8 00 00 	restore 

00004018 <_nss_files_gethostbyname2_r>:
_nss_files_gethostbyname2_r():
    4018:	9d e3 bf 58 	save  %sp, -168, %sp
    401c:	03 00 00 00 	sethi  %hi(0), %g1
    4020:	2f 00 00 57 	sethi  %hi(0x15c00), %l7
    4024:	7f ff fc a3 	call  32b0 <_nss_files_getservbyport_r+0x118>
    4028:	ae 05 e3 dc 	add  %l7, 0x3dc, %l7	! 15fdc <__FRAME_END__+0xd32c>
    402c:	82 10 61 58 	or  %g1, 0x158, %g1
    4030:	c4 05 c0 01 	ld  [ %l7 + %g1 ], %g2
    4034:	f2 27 a0 48 	st  %i1, [ %fp + 0x48 ]
    4038:	f0 27 a0 44 	st  %i0, [ %fp + 0x44 ]
    403c:	a6 10 00 1b 	mov  %i3, %l3
    4040:	80 a0 a0 00 	cmp  %g2, 0
    4044:	02 80 00 06 	be  405c <_nss_files_gethostbyname2_r+0x44>
    4048:	b2 10 00 1d 	mov  %i5, %i1
    404c:	03 00 00 00 	sethi  %hi(0), %g1
    4050:	82 10 60 50 	or  %g1, 0x50, %g1	! 50 <GLIBC_PRIVATE+0x50>
    4054:	9f c0 80 00 	call  %g2
    4058:	d0 05 c0 01 	ld  [ %l7 + %g1 ], %o0
    405c:	05 00 00 00 	sethi  %hi(0), %g2
    4060:	82 10 a0 4c 	or  %g2, 0x4c, %g1	! 4c <GLIBC_PRIVATE+0x4c>
    4064:	c4 05 c0 01 	ld  [ %l7 + %g1 ], %g2
    4068:	7f ff fc 94 	call  32b8 <internal_setent>
    406c:	d0 00 80 00 	ld  [ %g2 ], %o0
    4070:	80 a2 20 01 	cmp  %o0, 1
    4074:	02 80 00 0c 	be  40a4 <_nss_files_gethostbyname2_r+0x8c>
    4078:	b0 10 00 08 	mov  %o0, %i0
    407c:	03 00 00 00 	sethi  %hi(0), %g1
    4080:	82 10 61 64 	or  %g1, 0x164, %g1	! 164 <GLIBC_PRIVATE+0x164>
    4084:	c4 05 c0 01 	ld  [ %l7 + %g1 ], %g2
    4088:	80 a0 a0 00 	cmp  %g2, 0
    408c:	02 80 01 17 	be  44e8 <_nss_files_gethostbyname2_r+0x4d0>
    4090:	03 00 00 00 	sethi  %hi(0), %g1
    4094:	82 10 60 50 	or  %g1, 0x50, %g1	! 50 <GLIBC_PRIVATE+0x50>
    4098:	9f c0 80 00 	call  %g2
    409c:	d0 05 c0 01 	ld  [ %l7 + %g1 ], %o0
    40a0:	30 80 01 12 	b,a   44e8 <_nss_files_gethostbyname2_r+0x4d0>
    40a4:	03 00 00 00 	sethi  %hi(0), %g1
    40a8:	82 10 60 58 	or  %g1, 0x58, %g1	! 58 <GLIBC_PRIVATE+0x58>
    40ac:	c6 05 c0 01 	ld  [ %l7 + %g1 ], %g3
    40b0:	84 10 20 02 	mov  2, %g2
    40b4:	40 00 58 68 	call  1a254 <__res_state@plt>
    40b8:	c4 20 c0 00 	st  %g2, [ %g3 ]
    40bc:	a4 10 00 08 	mov  %o0, %l2
    40c0:	c2 04 a0 08 	ld  [ %l2 + 8 ], %g1
    40c4:	83 30 60 0a 	srl  %g1, 0xa, %g1
    40c8:	82 08 60 08 	and  %g1, 8, %g1
    40cc:	c2 23 a0 5c 	st  %g1, [ %sp + 0x5c ]
    40d0:	90 10 00 1a 	mov  %i2, %o0
    40d4:	92 10 00 13 	mov  %l3, %o1
    40d8:	94 10 00 1c 	mov  %i4, %o2
    40dc:	96 10 00 19 	mov  %i1, %o3
    40e0:	d8 07 a0 5c 	ld  [ %fp + 0x5c ], %o4
    40e4:	7f ff fd 19 	call  3548 <internal_getent>
    40e8:	da 07 a0 48 	ld  [ %fp + 0x48 ], %o5
    40ec:	80 a2 20 01 	cmp  %o0, 1
    40f0:	12 80 00 3a 	bne  41d8 <_nss_files_gethostbyname2_r+0x1c0>
    40f4:	b0 10 00 08 	mov  %o0, %i0
    40f8:	d0 07 a0 44 	ld  [ %fp + 0x44 ], %o0
    40fc:	40 00 58 98 	call  1a35c <__strcasecmp@plt>
    4100:	d2 06 80 00 	ld  [ %i2 ], %o1
    4104:	80 a2 20 00 	cmp  %o0, 0
    4108:	02 80 00 11 	be  414c <_nss_files_gethostbyname2_r+0x134>
    410c:	03 00 00 00 	sethi  %hi(0), %g1
    4110:	e0 06 a0 04 	ld  [ %i2 + 4 ], %l0
    4114:	e2 04 00 00 	ld  [ %l0 ], %l1
    4118:	80 a4 60 00 	cmp  %l1, 0
    411c:	22 bf ff ea 	be,a   40c4 <_nss_files_gethostbyname2_r+0xac>
    4120:	c2 04 a0 08 	ld  [ %l2 + 8 ], %g1
    4124:	d2 04 00 00 	ld  [ %l0 ], %o1
    4128:	40 00 58 8d 	call  1a35c <__strcasecmp@plt>
    412c:	d0 07 a0 44 	ld  [ %fp + 0x44 ], %o0
    4130:	80 a2 20 00 	cmp  %o0, 0
    4134:	12 bf ff f8 	bne  4114 <_nss_files_gethostbyname2_r+0xfc>
    4138:	a0 04 20 04 	add  %l0, 4, %l0
    413c:	80 a4 60 00 	cmp  %l1, 0
    4140:	22 bf ff e1 	be,a   40c4 <_nss_files_gethostbyname2_r+0xac>
    4144:	c2 04 a0 08 	ld  [ %l2 + 8 ], %g1
    4148:	03 00 00 00 	sethi  %hi(0), %g1
    414c:	82 10 61 60 	or  %g1, 0x160, %g1	! 160 <GLIBC_PRIVATE+0x160>
    4150:	c4 05 c0 01 	ld  [ %l7 + %g1 ], %g2
    4154:	c6 00 a0 2c 	ld  [ %g2 + 0x2c ], %g3
    4158:	80 88 e0 10 	btst  0x10, %g3
    415c:	02 80 00 20 	be  41dc <_nss_files_gethostbyname2_r+0x1c4>
    4160:	05 00 00 00 	sethi  %hi(0), %g2
    4164:	03 00 00 04 	sethi  %hi(0x1000), %g1
    4168:	f8 27 bf d4 	st  %i4, [ %fp + -44 ]
    416c:	80 a7 00 01 	cmp  %i4, %g1
    4170:	08 80 00 03 	bleu  417c <_nss_files_gethostbyname2_r+0x164>
    4174:	dc 27 bf d0 	st  %sp, [ %fp + -48 ]
    4178:	c2 27 bf d4 	st  %g1, [ %fp + -44 ]
    417c:	c4 07 bf d4 	ld  [ %fp + -44 ], %g2
    4180:	82 00 a0 07 	add  %g2, 7, %g1
    4184:	82 08 7f f8 	and  %g1, -8, %g1
    4188:	c6 06 a0 04 	ld  [ %i2 + 4 ], %g3
    418c:	9c 23 80 01 	sub  %sp, %g1, %sp
    4190:	c4 00 c0 00 	ld  [ %g3 ], %g2
    4194:	82 03 a0 68 	add  %sp, 0x68, %g1
    4198:	80 a0 a0 00 	cmp  %g2, 0
    419c:	c2 27 bf cc 	st  %g1, [ %fp + -52 ]
    41a0:	b6 10 20 01 	mov  1, %i3
    41a4:	ac 10 20 00 	clr  %l6
    41a8:	ba 10 20 00 	clr  %i5
    41ac:	02 80 00 16 	be  4204 <_nss_files_gethostbyname2_r+0x1ec>
    41b0:	82 00 c0 1d 	add  %g3, %i5, %g1
    41b4:	ac 05 a0 01 	inc  %l6
    41b8:	bb 2d a0 02 	sll  %l6, 2, %i5
    41bc:	c2 00 c0 1d 	ld  [ %g3 + %i5 ], %g1
    41c0:	10 bf ff fb 	b  41ac <_nss_files_gethostbyname2_r+0x194>
    41c4:	80 a0 60 00 	cmp  %g1, 0
    41c8:	80 a2 3f fe 	cmp  %o0, -2
    41cc:	32 80 00 02 	bne,a   41d4 <_nss_files_gethostbyname2_r+0x1bc>
    41d0:	b0 10 20 01 	mov  1, %i0
    41d4:	dc 07 bf d0 	ld  [ %fp + -48 ], %sp
    41d8:	05 00 00 00 	sethi  %hi(0), %g2
    41dc:	82 10 a0 4c 	or  %g2, 0x4c, %g1	! 4c <GLIBC_PRIVATE+0x4c>
    41e0:	c4 05 c0 01 	ld  [ %l7 + %g1 ], %g2
    41e4:	c6 00 80 00 	ld  [ %g2 ], %g3
    41e8:	80 a0 e0 00 	cmp  %g3, 0
    41ec:	32 bf ff a5 	bne,a   4080 <_nss_files_gethostbyname2_r+0x68>
    41f0:	03 00 00 00 	sethi  %hi(0), %g1
    41f4:	7f ff fc a7 	call  3490 <internal_endent>
    41f8:	01 00 00 00 	nop 
    41fc:	10 bf ff a1 	b  4080 <_nss_files_gethostbyname2_r+0x68>
    4200:	03 00 00 00 	sethi  %hi(0), %g1
    4204:	40 00 58 14 	call  1a254 <__res_state@plt>
    4208:	a4 00 60 04 	add  %g1, 4, %l2	! 4 <GLIBC_PRIVATE+0x4>
    420c:	a6 04 c0 1c 	add  %l3, %i4, %l3
    4210:	84 07 bf d8 	add  %fp, -40, %g2
    4214:	d0 27 bf c8 	st  %o0, [ %fp + -56 ]
    4218:	e6 27 bf c0 	st  %l3, [ %fp + -64 ]
    421c:	c4 27 bf c4 	st  %g2, [ %fp + -60 ]
    4220:	b8 10 20 04 	mov  4, %i4
    4224:	c4 07 bf c8 	ld  [ %fp + -56 ], %g2
    4228:	c2 00 a0 08 	ld  [ %g2 + 8 ], %g1
    422c:	83 30 60 0a 	srl  %g1, 0xa, %g1
    4230:	82 08 60 08 	and  %g1, 8, %g1
    4234:	c2 23 a0 5c 	st  %g1, [ %sp + 0x5c ]
    4238:	d0 07 bf c4 	ld  [ %fp + -60 ], %o0
    423c:	d2 07 bf cc 	ld  [ %fp + -52 ], %o1
    4240:	d4 07 bf d4 	ld  [ %fp + -44 ], %o2
    4244:	96 10 00 19 	mov  %i1, %o3
    4248:	d8 07 a0 5c 	ld  [ %fp + 0x5c ], %o4
    424c:	7f ff fc bf 	call  3548 <internal_getent>
    4250:	da 07 a0 48 	ld  [ %fp + 0x48 ], %o5
    4254:	80 a2 20 01 	cmp  %o0, 1
    4258:	12 bf ff dc 	bne  41c8 <_nss_files_gethostbyname2_r+0x1b0>
    425c:	b0 10 00 08 	mov  %o0, %i0
    4260:	d0 07 a0 44 	ld  [ %fp + 0x44 ], %o0
    4264:	40 00 58 3e 	call  1a35c <__strcasecmp@plt>
    4268:	d2 07 bf d8 	ld  [ %fp + -40 ], %o1
    426c:	80 a2 20 00 	cmp  %o0, 0
    4270:	02 80 00 11 	be  42b4 <_nss_files_gethostbyname2_r+0x29c>
    4274:	e6 07 bf dc 	ld  [ %fp + -36 ], %l3
    4278:	e0 07 bf dc 	ld  [ %fp + -36 ], %l0
    427c:	e2 04 00 00 	ld  [ %l0 ], %l1
    4280:	80 a4 60 00 	cmp  %l1, 0
    4284:	02 bf ff e9 	be  4228 <_nss_files_gethostbyname2_r+0x210>
    4288:	c4 07 bf c8 	ld  [ %fp + -56 ], %g2
    428c:	d2 04 00 00 	ld  [ %l0 ], %o1
    4290:	40 00 58 33 	call  1a35c <__strcasecmp@plt>
    4294:	d0 07 a0 44 	ld  [ %fp + 0x44 ], %o0
    4298:	80 a2 20 00 	cmp  %o0, 0
    429c:	12 bf ff f8 	bne  427c <_nss_files_gethostbyname2_r+0x264>
    42a0:	a0 04 20 04 	add  %l0, 4, %l0
    42a4:	80 a4 60 00 	cmp  %l1, 0
    42a8:	02 bf ff e0 	be  4228 <_nss_files_gethostbyname2_r+0x210>
    42ac:	c4 07 bf c8 	ld  [ %fp + -56 ], %g2
    42b0:	e6 07 bf dc 	ld  [ %fp + -36 ], %l3
    42b4:	c2 04 c0 00 	ld  [ %l3 ], %g1
    42b8:	80 a0 60 00 	cmp  %g1, 0
    42bc:	a8 10 20 00 	clr  %l4
    42c0:	02 80 00 0c 	be  42f0 <_nss_files_gethostbyname2_r+0x2d8>
    42c4:	a0 10 20 00 	clr  %l0
    42c8:	84 10 20 00 	clr  %g2
    42cc:	40 00 57 e8 	call  1a26c <strlen@plt>
    42d0:	d0 04 c0 02 	ld  [ %l3 + %g2 ], %o0
    42d4:	a8 05 20 01 	inc  %l4
    42d8:	85 2d 20 02 	sll  %l4, 2, %g2
    42dc:	90 02 00 10 	add  %o0, %l0, %o0
    42e0:	c2 04 c0 02 	ld  [ %l3 + %g2 ], %g1
    42e4:	80 a0 60 00 	cmp  %g1, 0
    42e8:	12 bf ff f9 	bne  42cc <_nss_files_gethostbyname2_r+0x2b4>
    42ec:	a0 02 20 01 	add  %o0, 1, %l0
    42f0:	d0 06 80 00 	ld  [ %i2 ], %o0
    42f4:	40 00 57 bd 	call  1a1e8 <strcmp@plt>
    42f8:	d2 07 bf d8 	ld  [ %fp + -40 ], %o1
    42fc:	80 a2 20 00 	cmp  %o0, 0
    4300:	02 80 00 08 	be  4320 <_nss_files_gethostbyname2_r+0x308>
    4304:	80 8c a0 03 	btst  3, %l2
    4308:	40 00 57 d9 	call  1a26c <strlen@plt>
    430c:	d0 07 bf d8 	ld  [ %fp + -40 ], %o0
    4310:	90 02 00 10 	add  %o0, %l0, %o0
    4314:	a8 05 20 01 	inc  %l4
    4318:	a0 02 20 01 	add  %o0, 1, %l0
    431c:	80 8c a0 03 	btst  3, %l2
    4320:	12 80 00 6e 	bne  44d8 <_nss_files_gethostbyname2_r+0x4c0>
    4324:	03 00 00 00 	sethi  %hi(0), %g1
    4328:	82 04 20 03 	add  %l0, 3, %g1
    432c:	90 08 7f fc 	and  %g1, -4, %o0
    4330:	84 07 00 12 	add  %i4, %l2, %g2
    4334:	82 05 80 14 	add  %l6, %l4, %g1
    4338:	83 28 60 02 	sll  %g1, 2, %g1
    433c:	84 00 80 08 	add  %g2, %o0, %g2
    4340:	84 00 80 01 	add  %g2, %g1, %g2
    4344:	84 00 a0 1c 	add  %g2, 0x1c, %g2
    4348:	c2 07 bf c0 	ld  [ %fp + -64 ], %g1
    434c:	80 a0 80 01 	cmp  %g2, %g1
    4350:	1a 80 00 5a 	bcc  44b8 <_nss_files_gethostbyname2_r+0x4a0>
    4354:	b0 10 00 1c 	mov  %i4, %i0
    4358:	82 02 00 12 	add  %o0, %l2, %g1
    435c:	aa 00 60 10 	add  %g1, 0x10, %l5
    4360:	84 07 00 15 	add  %i4, %l5, %g2
    4364:	a0 10 20 00 	clr  %l0
    4368:	80 a4 00 1b 	cmp  %l0, %i3
    436c:	16 80 00 0a 	bge  4394 <_nss_files_gethostbyname2_r+0x37c>
    4370:	a2 00 a0 08 	add  %g2, 8, %l1
    4374:	c6 06 a0 10 	ld  [ %i2 + 0x10 ], %g3
    4378:	85 2c 20 02 	sll  %l0, 2, %g2
    437c:	a0 04 20 01 	inc  %l0
    4380:	c2 00 c0 02 	ld  [ %g3 + %g2 ], %g1
    4384:	80 a4 00 1b 	cmp  %l0, %i3
    4388:	06 bf ff fc 	bl  4378 <_nss_files_gethostbyname2_r+0x360>
    438c:	c2 25 40 02 	st  %g1, [ %l5 + %g2 ]
    4390:	a0 10 20 00 	clr  %l0
    4394:	80 a4 00 16 	cmp  %l0, %l6
    4398:	36 80 00 0a 	bge,a   43c0 <_nss_files_gethostbyname2_r+0x3a8>
    439c:	c2 04 c0 00 	ld  [ %l3 ], %g1
    43a0:	c6 06 a0 04 	ld  [ %i2 + 4 ], %g3
    43a4:	85 2c 20 02 	sll  %l0, 2, %g2
    43a8:	a0 04 20 01 	inc  %l0
    43ac:	c2 00 c0 02 	ld  [ %g3 + %g2 ], %g1
    43b0:	80 a4 00 16 	cmp  %l0, %l6
    43b4:	06 bf ff fc 	bl  43a4 <_nss_files_gethostbyname2_r+0x38c>
    43b8:	c2 24 40 02 	st  %g1, [ %l1 + %g2 ]
    43bc:	c2 04 c0 00 	ld  [ %l3 ], %g1
    43c0:	84 10 00 13 	mov  %l3, %g2
    43c4:	80 a0 60 00 	cmp  %g1, 0
    43c8:	a0 10 20 00 	clr  %l0
    43cc:	12 80 00 05 	bne  43e0 <_nss_files_gethostbyname2_r+0x3c8>
    43d0:	86 10 20 00 	clr  %g3
    43d4:	10 80 00 11 	b  4418 <_nss_files_gethostbyname2_r+0x400>
    43d8:	80 a4 00 14 	cmp  %l0, %l4
    43dc:	bb 2d a0 02 	sll  %l6, 2, %i5
    43e0:	e4 24 40 1d 	st  %l2, [ %l1 + %i5 ]
    43e4:	d2 00 80 03 	ld  [ %g2 + %g3 ], %o1
    43e8:	40 00 57 a4 	call  1a278 <stpcpy@plt>
    43ec:	90 10 00 12 	mov  %l2, %o0
    43f0:	a0 04 20 01 	inc  %l0
    43f4:	c4 07 bf dc 	ld  [ %fp + -36 ], %g2
    43f8:	87 2c 20 02 	sll  %l0, 2, %g3
    43fc:	c2 00 80 03 	ld  [ %g2 + %g3 ], %g1
    4400:	80 a0 60 00 	cmp  %g1, 0
    4404:	ac 05 a0 01 	inc  %l6
    4408:	12 bf ff f5 	bne  43dc <_nss_files_gethostbyname2_r+0x3c4>
    440c:	a4 02 20 01 	add  %o0, 1, %l2
    4410:	bb 2d a0 02 	sll  %l6, 2, %i5
    4414:	80 a4 00 14 	cmp  %l0, %l4
    4418:	26 80 00 21 	bl,a   449c <_nss_files_gethostbyname2_r+0x484>
    441c:	e4 24 40 1d 	st  %l2, [ %l1 + %i5 ]
    4420:	90 0c a0 03 	and  %l2, 3, %o0
    4424:	90 20 00 08 	neg  %o0
    4428:	c2 07 bf e8 	ld  [ %fp + -24 ], %g1
    442c:	c0 24 40 1d 	clr  [ %l1 + %i5 ]
    4430:	90 0a 20 03 	and  %o0, 3, %o0
    4434:	90 04 80 08 	add  %l2, %o0, %o0
    4438:	d2 00 40 00 	ld  [ %g1 ], %o1
    443c:	40 00 57 a7 	call  1a2d8 <memcpy@plt>
    4440:	d4 07 bf e4 	ld  [ %fp + -28 ], %o2
    4444:	82 07 40 11 	add  %i5, %l1, %g1
    4448:	d0 25 40 18 	st  %o0, [ %l5 + %i0 ]
    444c:	b8 07 20 04 	add  %i4, 4, %i4
    4450:	a4 00 60 04 	add  %g1, 4, %l2
    4454:	c4 07 bf c0 	ld  [ %fp + -64 ], %g2
    4458:	ea 26 a0 10 	st  %l5, [ %i2 + 0x10 ]
    445c:	b6 06 e0 01 	inc  %i3
    4460:	c0 25 40 1c 	clr  [ %l5 + %i4 ]
    4464:	80 a0 80 12 	cmp  %g2, %l2
    4468:	1a bf ff 6f 	bcc  4224 <_nss_files_gethostbyname2_r+0x20c>
    446c:	e2 26 a0 04 	st  %l1, [ %i2 + 4 ]
    4470:	03 00 00 00 	sethi  %hi(0), %g1
    4474:	05 00 00 00 	sethi  %hi(0), %g2
    4478:	07 00 00 00 	sethi  %hi(0), %g3
    447c:	82 10 60 70 	or  %g1, 0x70, %g1
    4480:	84 10 a0 74 	or  %g2, 0x74, %g2
    4484:	86 10 e0 60 	or  %g3, 0x60, %g3
    4488:	d0 05 c0 01 	ld  [ %l7 + %g1 ], %o0
    448c:	d2 05 c0 02 	ld  [ %l7 + %g2 ], %o1
    4490:	d6 05 c0 03 	ld  [ %l7 + %g3 ], %o3
    4494:	40 00 57 5e 	call  1a20c <__assert_fail@plt>
    4498:	94 10 21 17 	mov  0x117, %o2
    449c:	90 10 00 12 	mov  %l2, %o0
    44a0:	d2 07 bf d8 	ld  [ %fp + -40 ], %o1
    44a4:	40 00 57 75 	call  1a278 <stpcpy@plt>
    44a8:	ac 05 a0 01 	inc  %l6
    44ac:	a4 02 20 01 	add  %o0, 1, %l2
    44b0:	10 bf ff dc 	b  4420 <_nss_files_gethostbyname2_r+0x408>
    44b4:	bb 2d a0 02 	sll  %l6, 2, %i5
    44b8:	82 10 20 22 	mov  0x22, %g1
    44bc:	c2 26 40 00 	st  %g1, [ %i1 ]
    44c0:	c2 07 a0 5c 	ld  [ %fp + 0x5c ], %g1
    44c4:	84 10 3f ff 	mov  -1, %g2
    44c8:	c4 20 40 00 	st  %g2, [ %g1 ]
    44cc:	b0 10 3f fe 	mov  -2, %i0
    44d0:	10 bf ff 42 	b  41d8 <_nss_files_gethostbyname2_r+0x1c0>
    44d4:	dc 07 bf d0 	ld  [ %fp + -48 ], %sp
    44d8:	05 00 00 00 	sethi  %hi(0), %g2
    44dc:	07 00 00 00 	sethi  %hi(0), %g3
    44e0:	10 bf ff e8 	b  4480 <_nss_files_gethostbyname2_r+0x468>
    44e4:	82 10 60 6c 	or  %g1, 0x6c, %g1
    44e8:	81 c7 e0 08 	ret 
    44ec:	81 e8 00 00 	restore 

000044f0 <_nss_files_gethostbyaddr_r>:
_nss_files_gethostbyaddr_r():
    44f0:	9d e3 bf 88 	save  %sp, -120, %sp
    44f4:	03 00 00 00 	sethi  %hi(0), %g1
    44f8:	2f 00 00 56 	sethi  %hi(0x15800), %l7
    44fc:	7f ff fb 6d 	call  32b0 <_nss_files_getservbyport_r+0x118>
    4500:	ae 05 e3 04 	add  %l7, 0x304, %l7	! 15b04 <__FRAME_END__+0xce54>
    4504:	82 10 61 58 	or  %g1, 0x158, %g1
    4508:	c4 05 c0 01 	ld  [ %l7 + %g1 ], %g2
    450c:	a4 10 00 18 	mov  %i0, %l2
    4510:	80 a0 a0 00 	cmp  %g2, 0
    4514:	e2 07 a0 5c 	ld  [ %fp + 0x5c ], %l1
    4518:	02 80 00 06 	be  4530 <_nss_files_gethostbyaddr_r+0x40>
    451c:	e0 07 a0 60 	ld  [ %fp + 0x60 ], %l0
    4520:	03 00 00 00 	sethi  %hi(0), %g1
    4524:	82 10 60 50 	or  %g1, 0x50, %g1	! 50 <GLIBC_PRIVATE+0x50>
    4528:	9f c0 80 00 	call  %g2
    452c:	d0 05 c0 01 	ld  [ %l7 + %g1 ], %o0
    4530:	27 00 00 00 	sethi  %hi(0), %l3
    4534:	82 14 e0 4c 	or  %l3, 0x4c, %g1	! 4c <GLIBC_PRIVATE+0x4c>
    4538:	c4 05 c0 01 	ld  [ %l7 + %g1 ], %g2
    453c:	7f ff fb 5f 	call  32b8 <internal_setent>
    4540:	d0 00 80 00 	ld  [ %g2 ], %o0
    4544:	80 a2 20 01 	cmp  %o0, 1
    4548:	02 80 00 0c 	be  4578 <_nss_files_gethostbyaddr_r+0x88>
    454c:	b0 10 00 08 	mov  %o0, %i0
    4550:	03 00 00 00 	sethi  %hi(0), %g1
    4554:	82 10 61 64 	or  %g1, 0x164, %g1	! 164 <GLIBC_PRIVATE+0x164>
    4558:	c4 05 c0 01 	ld  [ %l7 + %g1 ], %g2
    455c:	80 a0 a0 00 	cmp  %g2, 0
    4560:	02 80 00 30 	be  4620 <_nss_files_gethostbyaddr_r+0x130>
    4564:	03 00 00 00 	sethi  %hi(0), %g1
    4568:	82 10 60 50 	or  %g1, 0x50, %g1	! 50 <GLIBC_PRIVATE+0x50>
    456c:	9f c0 80 00 	call  %g2
    4570:	d0 05 c0 01 	ld  [ %l7 + %g1 ], %o0
    4574:	30 80 00 2b 	b,a   4620 <_nss_files_gethostbyaddr_r+0x130>
    4578:	03 00 00 00 	sethi  %hi(0), %g1
    457c:	82 10 60 58 	or  %g1, 0x58, %g1	! 58 <GLIBC_PRIVATE+0x58>
    4580:	c6 05 c0 01 	ld  [ %l7 + %g1 ], %g3
    4584:	84 10 20 02 	mov  2, %g2
    4588:	c4 20 c0 00 	st  %g2, [ %g3 ]
    458c:	84 1e 60 10 	xor  %i1, 0x10, %g2
    4590:	80 a0 00 02 	cmp  %g0, %g2
    4594:	82 60 3f ff 	subx  %g0, -1, %g1
    4598:	83 28 60 03 	sll  %g1, 3, %g1
    459c:	94 10 00 1d 	mov  %i5, %o2
    45a0:	c2 23 a0 5c 	st  %g1, [ %sp + 0x5c ]
    45a4:	92 10 00 1c 	mov  %i4, %o1
    45a8:	96 10 00 11 	mov  %l1, %o3
    45ac:	98 10 00 10 	mov  %l0, %o4
    45b0:	9a 10 00 1a 	mov  %i2, %o5
    45b4:	7f ff fb e5 	call  3548 <internal_getent>
    45b8:	90 10 00 1b 	mov  %i3, %o0
    45bc:	b0 10 00 08 	mov  %o0, %i0
    45c0:	90 10 00 12 	mov  %l2, %o0
    45c4:	80 a6 20 01 	cmp  %i0, 1
    45c8:	12 80 00 0c 	bne  45f8 <_nss_files_gethostbyaddr_r+0x108>
    45cc:	94 10 00 19 	mov  %i1, %o2
    45d0:	c2 06 e0 0c 	ld  [ %i3 + 0xc ], %g1
    45d4:	80 a0 40 19 	cmp  %g1, %i1
    45d8:	12 bf ff ee 	bne  4590 <_nss_files_gethostbyaddr_r+0xa0>
    45dc:	84 1e 60 10 	xor  %i1, 0x10, %g2
    45e0:	c2 06 e0 10 	ld  [ %i3 + 0x10 ], %g1
    45e4:	40 00 57 2b 	call  1a290 <memcmp@plt>
    45e8:	d2 00 40 00 	ld  [ %g1 ], %o1
    45ec:	80 a2 20 00 	cmp  %o0, 0
    45f0:	12 bf ff e8 	bne  4590 <_nss_files_gethostbyaddr_r+0xa0>
    45f4:	84 1e 60 10 	xor  %i1, 0x10, %g2
    45f8:	82 14 e0 4c 	or  %l3, 0x4c, %g1
    45fc:	c4 05 c0 01 	ld  [ %l7 + %g1 ], %g2
    4600:	c6 00 80 00 	ld  [ %g2 ], %g3
    4604:	80 a0 e0 00 	cmp  %g3, 0
    4608:	32 bf ff d3 	bne,a   4554 <_nss_files_gethostbyaddr_r+0x64>
    460c:	03 00 00 00 	sethi  %hi(0), %g1
    4610:	7f ff fb a0 	call  3490 <internal_endent>
    4614:	01 00 00 00 	nop 
    4618:	10 bf ff cf 	b  4554 <_nss_files_gethostbyaddr_r+0x64>
    461c:	03 00 00 00 	sethi  %hi(0), %g1
    4620:	81 c7 e0 08 	ret 
    4624:	81 e8 00 00 	restore 
    4628:	81 c3 e0 08 	retl 
    462c:	ae 03 c0 17 	add  %o7, %l7, %l7

00004630 <_nss_files_parse_netent>:
_nss_files_parse_netent():
    4630:	9d e3 bf 90 	save  %sp, -112, %sp
    4634:	c4 4e 00 00 	ldsb  [ %i0 ], %g2
    4638:	2f 00 00 56 	sethi  %hi(0x15800), %l7
    463c:	7f ff ff fb 	call  4628 <_nss_files_gethostbyaddr_r+0x138>
    4640:	ae 05 e1 c4 	add  %l7, 0x1c4, %l7	! 159c4 <__FRAME_END__+0xcd14>
    4644:	80 a0 a0 00 	cmp  %g2, 0
    4648:	86 10 00 18 	mov  %i0, %g3
    464c:	02 80 00 0c 	be  467c <_nss_files_parse_netent+0x4c>
    4650:	c2 0e 00 00 	ldub  [ %i0 ], %g1
    4654:	80 a0 a0 23 	cmp  %g2, 0x23
    4658:	02 80 00 84 	be  4868 <_nss_files_parse_netent+0x238>
    465c:	80 a0 a0 0a 	cmp  %g2, 0xa
    4660:	22 80 00 83 	be,a   486c <_nss_files_parse_netent+0x23c>
    4664:	83 28 60 18 	sll  %g1, 0x18, %g1
    4668:	86 00 e0 01 	inc  %g3
    466c:	c4 48 c0 00 	ldsb  [ %g3 ], %g2
    4670:	80 a0 a0 00 	cmp  %g2, 0
    4674:	12 bf ff f8 	bne  4654 <_nss_files_parse_netent+0x24>
    4678:	c2 08 c0 00 	ldub  [ %g3 ], %g1
    467c:	f0 26 40 00 	st  %i0, [ %i1 ]
    4680:	10 80 00 0b 	b  46ac <_nss_files_parse_netent+0x7c>
    4684:	a2 10 20 01 	mov  1, %l1
    4688:	40 00 57 3e 	call  1a380 <__ctype_b_loc@plt>
    468c:	01 00 00 00 	nop 
    4690:	82 04 00 10 	add  %l0, %l0, %g1
    4694:	c4 02 00 00 	ld  [ %o0 ], %g2
    4698:	c6 10 80 01 	lduh  [ %g2 + %g1 ], %g3
    469c:	80 88 e0 20 	btst  0x20, %g3
    46a0:	32 80 00 7a 	bne,a   4888 <_nss_files_parse_netent+0x258>
    46a4:	c0 2e 00 00 	clrb  [ %i0 ]
    46a8:	b0 06 20 01 	inc  %i0
    46ac:	e0 4e 00 00 	ldsb  [ %i0 ], %l0
    46b0:	80 a4 20 00 	cmp  %l0, 0
    46b4:	12 bf ff f5 	bne  4688 <_nss_files_parse_netent+0x58>
    46b8:	c2 0e 00 00 	ldub  [ %i0 ], %g1
    46bc:	10 80 00 0c 	b  46ec <_nss_files_parse_netent+0xbc>
    46c0:	a4 10 00 18 	mov  %i0, %l2
    46c4:	40 00 57 2f 	call  1a380 <__ctype_b_loc@plt>
    46c8:	01 00 00 00 	nop 
    46cc:	82 04 00 10 	add  %l0, %l0, %g1
    46d0:	c4 02 00 00 	ld  [ %o0 ], %g2
    46d4:	c6 10 80 01 	lduh  [ %g2 + %g1 ], %g3
    46d8:	80 88 e0 20 	btst  0x20, %g3
    46dc:	32 80 00 7d 	bne,a   48d0 <_nss_files_parse_netent+0x2a0>
    46e0:	c0 2e 00 00 	clrb  [ %i0 ]
    46e4:	b0 06 20 01 	inc  %i0
    46e8:	c2 0e 00 00 	ldub  [ %i0 ], %g1
    46ec:	83 28 60 18 	sll  %g1, 0x18, %g1
    46f0:	a1 38 60 18 	sra  %g1, 0x18, %l0
    46f4:	80 a4 20 00 	cmp  %l0, 0
    46f8:	12 bf ff f3 	bne  46c4 <_nss_files_parse_netent+0x94>
    46fc:	90 10 00 12 	mov  %l2, %o0
    4700:	40 00 56 ab 	call  1a1ac <strchr@plt>
    4704:	92 10 20 2e 	mov  0x2e, %o1
    4708:	80 a2 20 00 	cmp  %o0, 0
    470c:	02 80 00 7f 	be  4908 <_nss_files_parse_netent+0x2d8>
    4710:	01 00 00 00 	nop 
    4714:	90 02 20 01 	inc  %o0
    4718:	40 00 56 a5 	call  1a1ac <strchr@plt>
    471c:	92 10 20 2e 	mov  0x2e, %o1
    4720:	80 a2 20 00 	cmp  %o0, 0
    4724:	02 80 00 79 	be  4908 <_nss_files_parse_netent+0x2d8>
    4728:	a2 10 20 02 	mov  2, %l1
    472c:	90 02 20 01 	inc  %o0
    4730:	40 00 56 9f 	call  1a1ac <strchr@plt>
    4734:	92 10 20 2e 	mov  0x2e, %o1
    4738:	80 a2 20 00 	cmp  %o0, 0
    473c:	02 80 00 73 	be  4908 <_nss_files_parse_netent+0x2d8>
    4740:	a2 10 20 03 	mov  3, %l1
    4744:	40 00 56 d9 	call  1a2a8 <inet_network@plt>
    4748:	90 10 00 12 	mov  %l2, %o0
    474c:	82 10 20 02 	mov  2, %g1
    4750:	d0 26 60 0c 	st  %o0, [ %i1 + 0xc ]
    4754:	80 a6 00 1a 	cmp  %i0, %i2
    4758:	0a 80 00 56 	bcs  48b0 <_nss_files_parse_netent+0x280>
    475c:	c2 26 60 08 	st  %g1, [ %i1 + 8 ]
    4760:	82 06 80 1b 	add  %i2, %i3, %g1
    4764:	80 a0 40 18 	cmp  %g1, %i0
    4768:	08 80 00 06 	bleu  4780 <_nss_files_parse_netent+0x150>
    476c:	90 10 00 1a 	mov  %i2, %o0
    4770:	90 10 00 18 	mov  %i0, %o0
    4774:	40 00 56 8e 	call  1a1ac <strchr@plt>
    4778:	92 10 20 00 	clr  %o1
    477c:	90 02 20 01 	inc  %o0
    4780:	90 02 20 03 	add  %o0, 3, %o0
    4784:	aa 0a 3f fc 	and  %o0, -4, %l5
    4788:	a6 10 00 15 	mov  %l5, %l3
    478c:	a8 25 40 1a 	sub  %l5, %i2, %l4
    4790:	82 05 20 04 	add  %l4, 4, %g1
    4794:	80 a0 40 1b 	cmp  %g1, %i3
    4798:	18 80 00 31 	bgu  485c <_nss_files_parse_netent+0x22c>
    479c:	82 10 20 22 	mov  0x22, %g1
    47a0:	c2 4e 00 00 	ldsb  [ %i0 ], %g1
    47a4:	80 a0 60 00 	cmp  %g1, 0
    47a8:	02 80 00 44 	be  48b8 <_nss_files_parse_netent+0x288>
    47ac:	e2 0e 00 00 	ldub  [ %i0 ], %l1
    47b0:	40 00 56 f4 	call  1a380 <__ctype_b_loc@plt>
    47b4:	01 00 00 00 	nop 
    47b8:	10 80 00 03 	b  47c4 <_nss_files_parse_netent+0x194>
    47bc:	d0 02 00 00 	ld  [ %o0 ], %o0
    47c0:	e2 0e 00 00 	ldub  [ %i0 ], %l1
    47c4:	83 2c 60 18 	sll  %l1, 0x18, %g1
    47c8:	83 38 60 17 	sra  %g1, 0x17, %g1
    47cc:	c4 12 00 01 	lduh  [ %o0 + %g1 ], %g2
    47d0:	80 88 a0 20 	btst  0x20, %g2
    47d4:	32 bf ff fb 	bne,a   47c0 <_nss_files_parse_netent+0x190>
    47d8:	b0 06 20 01 	inc  %i0
    47dc:	10 80 00 0c 	b  480c <_nss_files_parse_netent+0x1dc>
    47e0:	a4 10 00 18 	mov  %i0, %l2
    47e4:	40 00 56 e7 	call  1a380 <__ctype_b_loc@plt>
    47e8:	01 00 00 00 	nop 
    47ec:	c2 02 00 00 	ld  [ %o0 ], %g1
    47f0:	84 04 00 10 	add  %l0, %l0, %g2
    47f4:	c6 10 40 02 	lduh  [ %g1 + %g2 ], %g3
    47f8:	80 88 e0 20 	btst  0x20, %g3
    47fc:	12 80 00 09 	bne  4820 <_nss_files_parse_netent+0x1f0>
    4800:	80 a6 00 12 	cmp  %i0, %l2
    4804:	b0 06 20 01 	inc  %i0
    4808:	e2 0e 00 00 	ldub  [ %i0 ], %l1
    480c:	83 2c 60 18 	sll  %l1, 0x18, %g1
    4810:	a1 38 60 18 	sra  %g1, 0x18, %l0
    4814:	80 a4 20 00 	cmp  %l0, 0
    4818:	12 bf ff f3 	bne  47e4 <_nss_files_parse_netent+0x1b4>
    481c:	80 a6 00 12 	cmp  %i0, %l2
    4820:	08 80 00 07 	bleu  483c <_nss_files_parse_netent+0x20c>
    4824:	83 2c 60 18 	sll  %l1, 0x18, %g1
    4828:	e4 24 c0 00 	st  %l2, [ %l3 ]
    482c:	a6 04 e0 04 	add  %l3, 4, %l3
    4830:	a8 24 c0 1a 	sub  %l3, %i2, %l4
    4834:	e2 0e 00 00 	ldub  [ %i0 ], %l1
    4838:	83 2c 60 18 	sll  %l1, 0x18, %g1
    483c:	80 a0 60 00 	cmp  %g1, 0
    4840:	02 bf ff d5 	be  4794 <_nss_files_parse_netent+0x164>
    4844:	82 05 20 04 	add  %l4, 4, %g1
    4848:	c0 2e 00 00 	clrb  [ %i0 ]
    484c:	80 a0 40 1b 	cmp  %g1, %i3
    4850:	08 bf ff d4 	bleu  47a0 <_nss_files_parse_netent+0x170>
    4854:	b0 06 20 01 	inc  %i0
    4858:	82 10 20 22 	mov  0x22, %g1
    485c:	c2 27 00 00 	st  %g1, [ %i4 ]
    4860:	10 80 00 43 	b  496c <_nss_files_parse_netent+0x33c>
    4864:	b0 10 3f ff 	mov  -1, %i0
    4868:	83 28 60 18 	sll  %g1, 0x18, %g1
    486c:	80 a0 60 00 	cmp  %g1, 0
    4870:	02 bf ff 83 	be  467c <_nss_files_parse_netent+0x4c>
    4874:	82 90 e0 00 	orcc  %g3, 0, %g1
    4878:	32 bf ff 81 	bne,a   467c <_nss_files_parse_netent+0x4c>
    487c:	c0 28 40 00 	clrb  [ %g1 ]
    4880:	10 bf ff 80 	b  4680 <_nss_files_parse_netent+0x50>
    4884:	f0 26 40 00 	st  %i0, [ %i1 ]
    4888:	d0 02 00 00 	ld  [ %o0 ], %o0
    488c:	b0 06 20 01 	inc  %i0
    4890:	c2 4e 00 00 	ldsb  [ %i0 ], %g1
    4894:	82 00 40 01 	add  %g1, %g1, %g1
    4898:	c4 12 00 01 	lduh  [ %o0 + %g1 ], %g2
    489c:	80 88 a0 20 	btst  0x20, %g2
    48a0:	12 bf ff fb 	bne  488c <_nss_files_parse_netent+0x25c>
    48a4:	c2 0e 00 00 	ldub  [ %i0 ], %g1
    48a8:	10 bf ff 91 	b  46ec <_nss_files_parse_netent+0xbc>
    48ac:	a4 10 00 18 	mov  %i0, %l2
    48b0:	10 bf ff b4 	b  4780 <_nss_files_parse_netent+0x150>
    48b4:	90 10 00 1a 	mov  %i2, %o0
    48b8:	80 a5 60 00 	cmp  %l5, 0
    48bc:	02 bf ff e9 	be  4860 <_nss_files_parse_netent+0x230>
    48c0:	c0 24 c0 00 	clr  [ %l3 ]
    48c4:	ea 26 60 04 	st  %l5, [ %i1 + 4 ]
    48c8:	10 80 00 29 	b  496c <_nss_files_parse_netent+0x33c>
    48cc:	b0 10 20 01 	mov  1, %i0
    48d0:	d0 02 00 00 	ld  [ %o0 ], %o0
    48d4:	b0 06 20 01 	inc  %i0
    48d8:	c2 4e 00 00 	ldsb  [ %i0 ], %g1
    48dc:	82 00 40 01 	add  %g1, %g1, %g1
    48e0:	c4 12 00 01 	lduh  [ %o0 + %g1 ], %g2
    48e4:	80 88 a0 20 	btst  0x20, %g2
    48e8:	32 bf ff fc 	bne,a   48d8 <_nss_files_parse_netent+0x2a8>
    48ec:	b0 06 20 01 	inc  %i0
    48f0:	90 10 00 12 	mov  %l2, %o0
    48f4:	40 00 56 2e 	call  1a1ac <strchr@plt>
    48f8:	92 10 20 2e 	mov  0x2e, %o1
    48fc:	80 a2 20 00 	cmp  %o0, 0
    4900:	32 bf ff 86 	bne,a   4718 <_nss_files_parse_netent+0xe8>
    4904:	90 02 20 01 	inc  %o0
    4908:	40 00 56 59 	call  1a26c <strlen@plt>
    490c:	90 10 00 12 	mov  %l2, %o0
    4910:	82 10 20 04 	mov  4, %g1
    4914:	82 20 40 11 	sub  %g1, %l1, %g1
    4918:	82 00 40 01 	add  %g1, %g1, %g1
    491c:	90 02 00 01 	add  %o0, %g1, %o0
    4920:	90 02 20 08 	add  %o0, 8, %o0
    4924:	90 0a 3f f8 	and  %o0, -8, %o0
    4928:	9c 23 80 08 	sub  %sp, %o0, %sp
    492c:	a0 03 a0 60 	add  %sp, 0x60, %l0
    4930:	92 10 00 12 	mov  %l2, %o1
    4934:	40 00 56 51 	call  1a278 <stpcpy@plt>
    4938:	90 10 00 10 	mov  %l0, %o0
    493c:	84 10 20 2e 	mov  0x2e, %g2
    4940:	82 10 20 30 	mov  0x30, %g1
    4944:	c4 2a 00 00 	stb  %g2, [ %o0 ]
    4948:	90 02 20 01 	inc  %o0
    494c:	c2 2a 00 00 	stb  %g1, [ %o0 ]
    4950:	a2 04 60 01 	inc  %l1
    4954:	80 a4 60 03 	cmp  %l1, 3
    4958:	04 bf ff fb 	ble  4944 <_nss_files_parse_netent+0x314>
    495c:	90 02 20 01 	inc  %o0
    4960:	c0 2a 00 00 	clrb  [ %o0 ]
    4964:	10 bf ff 78 	b  4744 <_nss_files_parse_netent+0x114>
    4968:	a4 10 00 10 	mov  %l0, %l2
    496c:	81 c7 e0 08 	ret 
    4970:	81 e8 00 00 	restore 

00004974 <internal_setent>:
internal_setent():
    4974:	9d e3 bf 90 	save  %sp, -112, %sp
    4978:	25 00 00 00 	sethi  %hi(0), %l2
    497c:	2f 00 00 55 	sethi  %hi(0x15400), %l7
    4980:	7f ff ff 2a 	call  4628 <_nss_files_gethostbyaddr_r+0x138>
    4984:	ae 05 e2 80 	add  %l7, 0x280, %l7	! 15680 <__FRAME_END__+0xc9d0>
    4988:	82 14 a0 78 	or  %l2, 0x78, %g1
    498c:	e2 05 c0 01 	ld  [ %l7 + %g1 ], %l1
    4990:	07 00 00 00 	sethi  %hi(0), %g3
    4994:	05 00 00 00 	sethi  %hi(0), %g2
    4998:	d0 04 40 00 	ld  [ %l1 ], %o0
    499c:	a6 10 00 18 	mov  %i0, %l3
    49a0:	86 10 e0 8c 	or  %g3, 0x8c, %g3
    49a4:	84 10 a0 90 	or  %g2, 0x90, %g2
    49a8:	80 a2 20 00 	cmp  %o0, 0
    49ac:	12 80 00 10 	bne  49ec <internal_setent+0x78>
    49b0:	b0 10 20 01 	mov  1, %i0
    49b4:	d2 05 c0 02 	ld  [ %l7 + %g2 ], %o1
    49b8:	40 00 56 60 	call  1a338 <fopen@plt>
    49bc:	d0 05 c0 03 	ld  [ %l7 + %g3 ], %o0
    49c0:	82 92 20 00 	orcc  %o0, 0, %g1
    49c4:	12 80 00 18 	bne  4a24 <internal_setent+0xb0>
    49c8:	c2 24 40 00 	st  %g1, [ %l1 ]
    49cc:	40 00 56 13 	call  1a218 <__errno_location@plt>
    49d0:	01 00 00 00 	nop 
    49d4:	c2 02 00 00 	ld  [ %o0 ], %g1
    49d8:	82 18 60 0b 	xor  %g1, 0xb, %g1
    49dc:	80 a0 00 01 	cmp  %g0, %g1
    49e0:	84 40 20 00 	addx  %g0, 0, %g2
    49e4:	10 80 00 04 	b  49f4 <internal_setent+0x80>
    49e8:	b0 00 bf fe 	add  %g2, -2, %i0
    49ec:	40 00 56 0e 	call  1a224 <rewind@plt>
    49f0:	01 00 00 00 	nop 
    49f4:	82 14 a0 78 	or  %l2, 0x78, %g1
    49f8:	c4 05 c0 01 	ld  [ %l7 + %g1 ], %g2
    49fc:	09 00 00 00 	sethi  %hi(0), %g4
    4a00:	c6 00 80 00 	ld  [ %g2 ], %g3
    4a04:	80 a0 e0 00 	cmp  %g3, 0
    4a08:	02 80 00 1c 	be  4a78 <internal_setent+0x104>
    4a0c:	88 11 20 7c 	or  %g4, 0x7c, %g4
    4a10:	c4 05 c0 04 	ld  [ %l7 + %g4 ], %g2
    4a14:	c2 00 80 00 	ld  [ %g2 ], %g1
    4a18:	82 10 40 13 	or  %g1, %l3, %g1
    4a1c:	10 80 00 17 	b  4a78 <internal_setent+0x104>
    4a20:	c2 20 80 00 	st  %g1, [ %g2 ]
    4a24:	40 00 55 ee 	call  1a1dc <fileno@plt>
    4a28:	01 00 00 00 	nop 
    4a2c:	92 10 20 01 	mov  1, %o1	! 1 <GLIBC_PRIVATE+0x1>
    4a30:	40 00 56 27 	call  1a2cc <fcntl@plt>
    4a34:	94 10 20 00 	clr  %o2
    4a38:	a0 92 20 00 	orcc  %o0, 0, %l0
    4a3c:	06 80 00 0a 	bl  4a64 <internal_setent+0xf0>
    4a40:	a0 14 20 01 	or  %l0, 1, %l0
    4a44:	40 00 55 e6 	call  1a1dc <fileno@plt>
    4a48:	d0 04 40 00 	ld  [ %l1 ], %o0
    4a4c:	94 10 00 10 	mov  %l0, %o2
    4a50:	40 00 56 1f 	call  1a2cc <fcntl@plt>
    4a54:	92 10 20 02 	mov  2, %o1
    4a58:	80 a2 20 00 	cmp  %o0, 0
    4a5c:	16 bf ff e7 	bge  49f8 <internal_setent+0x84>
    4a60:	82 14 a0 78 	or  %l2, 0x78, %g1
    4a64:	40 00 56 20 	call  1a2e4 <fclose@plt>
    4a68:	d0 04 40 00 	ld  [ %l1 ], %o0
    4a6c:	c0 24 40 00 	clr  [ %l1 ]
    4a70:	10 bf ff e1 	b  49f4 <internal_setent+0x80>
    4a74:	b0 10 3f ff 	mov  -1, %i0
    4a78:	81 c7 e0 08 	ret 
    4a7c:	81 e8 00 00 	restore 

00004a80 <_nss_files_setnetent>:
_nss_files_setnetent():
    4a80:	9d e3 bf 90 	save  %sp, -112, %sp
    4a84:	03 00 00 00 	sethi  %hi(0), %g1
    4a88:	2f 00 00 55 	sethi  %hi(0x15400), %l7
    4a8c:	7f ff fe e7 	call  4628 <_nss_files_gethostbyaddr_r+0x138>
    4a90:	ae 05 e1 74 	add  %l7, 0x174, %l7	! 15574 <__FRAME_END__+0xc8c4>
    4a94:	82 10 61 58 	or  %g1, 0x158, %g1
    4a98:	05 00 00 00 	sethi  %hi(0), %g2
    4a9c:	c2 05 c0 01 	ld  [ %l7 + %g1 ], %g1
    4aa0:	80 a0 60 00 	cmp  %g1, 0
    4aa4:	02 80 00 04 	be  4ab4 <_nss_files_setnetent+0x34>
    4aa8:	84 10 a0 80 	or  %g2, 0x80, %g2
    4aac:	9f c0 40 00 	call  %g1
    4ab0:	d0 05 c0 02 	ld  [ %l7 + %g2 ], %o0
    4ab4:	7f ff ff b0 	call  4974 <internal_setent>
    4ab8:	90 10 00 18 	mov  %i0, %o0
    4abc:	05 00 00 00 	sethi  %hi(0), %g2
    4ac0:	b0 10 00 08 	mov  %o0, %i0
    4ac4:	80 a2 20 01 	cmp  %o0, 1
    4ac8:	02 80 00 11 	be  4b0c <_nss_files_setnetent+0x8c>
    4acc:	84 10 a0 84 	or  %g2, 0x84, %g2
    4ad0:	03 00 00 00 	sethi  %hi(0), %g1
    4ad4:	82 10 60 88 	or  %g1, 0x88, %g1	! 88 <GLIBC_PRIVATE+0x88>
    4ad8:	05 00 00 00 	sethi  %hi(0), %g2
    4adc:	c6 05 c0 01 	ld  [ %l7 + %g1 ], %g3
    4ae0:	84 10 a1 64 	or  %g2, 0x164, %g2
    4ae4:	09 00 00 00 	sethi  %hi(0), %g4
    4ae8:	c4 05 c0 02 	ld  [ %l7 + %g2 ], %g2
    4aec:	82 10 20 01 	mov  1, %g1
    4af0:	88 11 20 80 	or  %g4, 0x80, %g4
    4af4:	80 a0 a0 00 	cmp  %g2, 0
    4af8:	02 80 00 13 	be  4b44 <_nss_files_setnetent+0xc4>
    4afc:	c2 20 c0 00 	st  %g1, [ %g3 ]
    4b00:	9f c0 80 00 	call  %g2
    4b04:	d0 05 c0 04 	ld  [ %l7 + %g4 ], %o0
    4b08:	30 80 00 0f 	b,a   4b44 <_nss_files_setnetent+0xc4>
    4b0c:	03 00 00 00 	sethi  %hi(0), %g1
    4b10:	82 10 60 78 	or  %g1, 0x78, %g1	! 78 <GLIBC_PRIVATE+0x78>
    4b14:	e0 05 c0 01 	ld  [ %l7 + %g1 ], %l0
    4b18:	d2 05 c0 02 	ld  [ %l7 + %g2 ], %o1
    4b1c:	40 00 56 0d 	call  1a350 <fgetpos@plt>
    4b20:	d0 04 00 00 	ld  [ %l0 ], %o0
    4b24:	80 a2 20 00 	cmp  %o0, 0
    4b28:	16 bf ff eb 	bge  4ad4 <_nss_files_setnetent+0x54>
    4b2c:	03 00 00 00 	sethi  %hi(0), %g1
    4b30:	40 00 55 ed 	call  1a2e4 <fclose@plt>
    4b34:	d0 04 00 00 	ld  [ %l0 ], %o0
    4b38:	c0 24 00 00 	clr  [ %l0 ]
    4b3c:	10 bf ff e5 	b  4ad0 <_nss_files_setnetent+0x50>
    4b40:	b0 10 3f ff 	mov  -1, %i0
    4b44:	81 c7 e0 08 	ret 
    4b48:	81 e8 00 00 	restore 

00004b4c <internal_endent>:
internal_endent():
    4b4c:	9d e3 bf 90 	save  %sp, -112, %sp
    4b50:	03 00 00 00 	sethi  %hi(0), %g1
    4b54:	2f 00 00 55 	sethi  %hi(0x15400), %l7
    4b58:	7f ff fe b4 	call  4628 <_nss_files_gethostbyaddr_r+0x138>
    4b5c:	ae 05 e0 a8 	add  %l7, 0xa8, %l7	! 154a8 <__FRAME_END__+0xc7f8>
    4b60:	82 10 60 78 	or  %g1, 0x78, %g1
    4b64:	e0 05 c0 01 	ld  [ %l7 + %g1 ], %l0
    4b68:	c4 04 00 00 	ld  [ %l0 ], %g2
    4b6c:	90 90 a0 00 	orcc  %g2, 0, %o0
    4b70:	02 80 00 05 	be  4b84 <internal_endent+0x38>
    4b74:	01 00 00 00 	nop 
    4b78:	40 00 55 db 	call  1a2e4 <fclose@plt>
    4b7c:	01 00 00 00 	nop 
    4b80:	c0 24 00 00 	clr  [ %l0 ]
    4b84:	81 c7 e0 08 	ret 
    4b88:	81 e8 00 00 	restore 

00004b8c <_nss_files_endnetent>:
_nss_files_endnetent():
    4b8c:	9d e3 bf 90 	save  %sp, -112, %sp
    4b90:	03 00 00 00 	sethi  %hi(0), %g1
    4b94:	2f 00 00 55 	sethi  %hi(0x15400), %l7
    4b98:	7f ff fe a4 	call  4628 <_nss_files_gethostbyaddr_r+0x138>
    4b9c:	ae 05 e0 68 	add  %l7, 0x68, %l7	! 15468 <__FRAME_END__+0xc7b8>
    4ba0:	82 10 61 58 	or  %g1, 0x158, %g1
    4ba4:	05 00 00 00 	sethi  %hi(0), %g2
    4ba8:	c2 05 c0 01 	ld  [ %l7 + %g1 ], %g1
    4bac:	80 a0 60 00 	cmp  %g1, 0
    4bb0:	02 80 00 04 	be  4bc0 <_nss_files_endnetent+0x34>
    4bb4:	84 10 a0 80 	or  %g2, 0x80, %g2
    4bb8:	9f c0 40 00 	call  %g1
    4bbc:	d0 05 c0 02 	ld  [ %l7 + %g2 ], %o0
    4bc0:	7f ff ff e3 	call  4b4c <internal_endent>
    4bc4:	01 00 00 00 	nop 
    4bc8:	03 00 00 00 	sethi  %hi(0), %g1
    4bcc:	82 10 60 7c 	or  %g1, 0x7c, %g1	! 7c <GLIBC_PRIVATE+0x7c>
    4bd0:	05 00 00 00 	sethi  %hi(0), %g2
    4bd4:	c6 05 c0 01 	ld  [ %l7 + %g1 ], %g3
    4bd8:	84 10 a1 64 	or  %g2, 0x164, %g2
    4bdc:	09 00 00 00 	sethi  %hi(0), %g4
    4be0:	c2 05 c0 02 	ld  [ %l7 + %g2 ], %g1
    4be4:	88 11 20 80 	or  %g4, 0x80, %g4
    4be8:	80 a0 60 00 	cmp  %g1, 0
    4bec:	02 80 00 04 	be  4bfc <_nss_files_endnetent+0x70>
    4bf0:	c0 20 c0 00 	clr  [ %g3 ]
    4bf4:	9f c0 40 00 	call  %g1
    4bf8:	d0 05 c0 04 	ld  [ %l7 + %g4 ], %o0
    4bfc:	81 c7 e0 08 	ret 
    4c00:	91 e8 20 01 	restore  %g0, 1, %o0

00004c04 <internal_getent>:
internal_getent():
    4c04:	9d e3 bf 90 	save  %sp, -112, %sp
    4c08:	2f 00 00 54 	sethi  %hi(0x15000), %l7
    4c0c:	7f ff fe 87 	call  4628 <_nss_files_gethostbyaddr_r+0x138>
    4c10:	ae 05 e3 f4 	add  %l7, 0x3f4, %l7	! 153f4 <__FRAME_END__+0xc744>
    4c14:	80 a6 a0 01 	cmp  %i2, 1
    4c18:	08 80 00 33 	bleu  4ce4 <internal_getent+0xe0>
    4c1c:	a4 10 00 1a 	mov  %i2, %l2
    4c20:	03 00 00 00 	sethi  %hi(0), %g1
    4c24:	82 10 60 78 	or  %g1, 0x78, %g1	! 78 <GLIBC_PRIVATE+0x78>
    4c28:	e6 05 c0 01 	ld  [ %l7 + %g1 ], %l3
    4c2c:	a2 06 40 1a 	add  %i1, %i2, %l1
    4c30:	82 10 3f ff 	mov  -1, %g1
    4c34:	c2 2c 7f ff 	stb  %g1, [ %l1 + -1 ]
    4c38:	90 10 00 19 	mov  %i1, %o0
    4c3c:	92 10 00 12 	mov  %l2, %o1
    4c40:	40 00 55 7f 	call  1a23c <fgets_unlocked@plt>
    4c44:	d4 04 c0 00 	ld  [ %l3 ], %o2
    4c48:	a0 92 20 00 	orcc  %o0, 0, %l0
    4c4c:	02 80 00 2b 	be  4cf8 <internal_getent+0xf4>
    4c50:	82 10 20 01 	mov  1, %g1
    4c54:	c2 0c 7f ff 	ldub  [ %l1 + -1 ], %g1
    4c58:	80 a0 60 ff 	cmp  %g1, 0xff
    4c5c:	12 80 00 23 	bne  4ce8 <internal_getent+0xe4>
    4c60:	82 10 20 22 	mov  0x22, %g1
    4c64:	40 00 55 c7 	call  1a380 <__ctype_b_loc@plt>
    4c68:	01 00 00 00 	nop 
    4c6c:	d0 02 00 00 	ld  [ %o0 ], %o0
    4c70:	c6 4c 00 00 	ldsb  [ %l0 ], %g3
    4c74:	82 00 c0 03 	add  %g3, %g3, %g1
    4c78:	c4 12 00 01 	lduh  [ %o0 + %g1 ], %g2
    4c7c:	80 88 a0 20 	btst  0x20, %g2
    4c80:	32 bf ff fc 	bne,a   4c70 <internal_getent+0x6c>
    4c84:	a0 04 20 01 	inc  %l0
    4c88:	80 a0 00 03 	cmp  %g0, %g3
    4c8c:	82 60 3f ff 	subx  %g0, -1, %g1
    4c90:	84 18 e0 23 	xor  %g3, 0x23, %g2
    4c94:	80 a0 00 02 	cmp  %g0, %g2
    4c98:	86 60 3f ff 	subx  %g0, -1, %g3
    4c9c:	80 90 40 03 	orcc  %g1, %g3, %g0
    4ca0:	12 bf ff e5 	bne  4c34 <internal_getent+0x30>
    4ca4:	82 10 3f ff 	mov  -1, %g1
    4ca8:	90 10 00 10 	mov  %l0, %o0
    4cac:	92 10 00 18 	mov  %i0, %o1
    4cb0:	94 10 00 19 	mov  %i1, %o2
    4cb4:	96 10 00 1a 	mov  %i2, %o3
    4cb8:	7f ff fe 5e 	call  4630 <_nss_files_parse_netent>
    4cbc:	98 10 00 1b 	mov  %i3, %o4
    4cc0:	80 a2 20 00 	cmp  %o0, 0
    4cc4:	02 bf ff dc 	be  4c34 <internal_getent+0x30>
    4cc8:	82 10 3f ff 	mov  -1, %g1
    4ccc:	80 a2 3f ff 	cmp  %o0, -1
    4cd0:	12 80 00 0c 	bne  4d00 <internal_getent+0xfc>
    4cd4:	b0 10 20 01 	mov  1, %i0
    4cd8:	d0 27 00 00 	st  %o0, [ %i4 ]
    4cdc:	10 80 00 09 	b  4d00 <internal_getent+0xfc>
    4ce0:	b0 10 3f fe 	mov  -2, %i0
    4ce4:	82 10 20 22 	mov  0x22, %g1
    4ce8:	c2 26 c0 00 	st  %g1, [ %i3 ]
    4cec:	84 10 3f ff 	mov  -1, %g2
    4cf0:	10 bf ff fb 	b  4cdc <internal_getent+0xd8>
    4cf4:	c4 27 00 00 	st  %g2, [ %i4 ]
    4cf8:	c2 27 00 00 	st  %g1, [ %i4 ]
    4cfc:	b0 10 20 00 	clr  %i0
    4d00:	81 c7 e0 08 	ret 
    4d04:	81 e8 00 00 	restore 

00004d08 <_nss_files_getnetent_r>:
_nss_files_getnetent_r():
    4d08:	9d e3 bf 90 	save  %sp, -112, %sp
    4d0c:	03 00 00 00 	sethi  %hi(0), %g1
    4d10:	2f 00 00 54 	sethi  %hi(0x15000), %l7
    4d14:	7f ff fe 45 	call  4628 <_nss_files_gethostbyaddr_r+0x138>
    4d18:	ae 05 e2 ec 	add  %l7, 0x2ec, %l7	! 152ec <__FRAME_END__+0xc63c>
    4d1c:	82 10 61 58 	or  %g1, 0x158, %g1
    4d20:	c4 05 c0 01 	ld  [ %l7 + %g1 ], %g2
    4d24:	a6 10 00 18 	mov  %i0, %l3
    4d28:	80 a0 a0 00 	cmp  %g2, 0
    4d2c:	02 80 00 06 	be  4d44 <_nss_files_getnetent_r+0x3c>
    4d30:	b0 10 20 01 	mov  1, %i0
    4d34:	03 00 00 00 	sethi  %hi(0), %g1
    4d38:	82 10 60 80 	or  %g1, 0x80, %g1	! 80 <GLIBC_PRIVATE+0x80>
    4d3c:	9f c0 80 00 	call  %g2
    4d40:	d0 05 c0 01 	ld  [ %l7 + %g1 ], %o0
    4d44:	23 00 00 00 	sethi  %hi(0), %l1
    4d48:	82 14 60 78 	or  %l1, 0x78, %g1	! 78 <GLIBC_PRIVATE+0x78>
    4d4c:	e0 05 c0 01 	ld  [ %l7 + %g1 ], %l0
    4d50:	c4 04 00 00 	ld  [ %l0 ], %g2
    4d54:	80 a0 a0 00 	cmp  %g2, 0
    4d58:	02 80 00 28 	be  4df8 <_nss_files_getnetent_r+0xf0>
    4d5c:	25 00 00 00 	sethi  %hi(0), %l2
    4d60:	82 14 a0 88 	or  %l2, 0x88, %g1	! 88 <GLIBC_PRIVATE+0x88>
    4d64:	e0 05 c0 01 	ld  [ %l7 + %g1 ], %l0
    4d68:	c4 04 00 00 	ld  [ %l0 ], %g2
    4d6c:	80 a0 a0 01 	cmp  %g2, 1
    4d70:	02 80 00 0c 	be  4da0 <_nss_files_getnetent_r+0x98>
    4d74:	82 14 60 78 	or  %l1, 0x78, %g1
    4d78:	05 00 00 00 	sethi  %hi(0), %g2
    4d7c:	c6 05 c0 01 	ld  [ %l7 + %g1 ], %g3
    4d80:	84 10 a0 84 	or  %g2, 0x84, %g2
    4d84:	d0 00 c0 00 	ld  [ %g3 ], %o0
    4d88:	40 00 55 1e 	call  1a200 <fsetpos@plt>
    4d8c:	d2 05 c0 02 	ld  [ %l7 + %g2 ], %o1
    4d90:	80 a2 20 00 	cmp  %o0, 0
    4d94:	26 80 00 0f 	bl,a   4dd0 <_nss_files_getnetent_r+0xc8>
    4d98:	b0 10 3f ff 	mov  -1, %i0
    4d9c:	f0 24 00 00 	st  %i0, [ %l0 ]
    4da0:	90 10 00 13 	mov  %l3, %o0
    4da4:	92 10 00 19 	mov  %i1, %o1
    4da8:	94 10 00 1a 	mov  %i2, %o2
    4dac:	96 10 00 1b 	mov  %i3, %o3
    4db0:	7f ff ff 95 	call  4c04 <internal_getent>
    4db4:	98 10 00 1c 	mov  %i4, %o4
    4db8:	80 a2 20 01 	cmp  %o0, 1
    4dbc:	02 80 00 21 	be  4e40 <_nss_files_getnetent_r+0x138>
    4dc0:	b0 10 00 08 	mov  %o0, %i0
    4dc4:	82 14 a0 88 	or  %l2, 0x88, %g1
    4dc8:	c4 05 c0 01 	ld  [ %l7 + %g1 ], %g2
    4dcc:	c0 20 80 00 	clr  [ %g2 ]
    4dd0:	03 00 00 00 	sethi  %hi(0), %g1
    4dd4:	82 10 61 64 	or  %g1, 0x164, %g1	! 164 <GLIBC_PRIVATE+0x164>
    4dd8:	c4 05 c0 01 	ld  [ %l7 + %g1 ], %g2
    4ddc:	80 a0 a0 00 	cmp  %g2, 0
    4de0:	02 80 00 21 	be  4e64 <_nss_files_getnetent_r+0x15c>
    4de4:	03 00 00 00 	sethi  %hi(0), %g1
    4de8:	82 10 60 80 	or  %g1, 0x80, %g1	! 80 <GLIBC_PRIVATE+0x80>
    4dec:	9f c0 80 00 	call  %g2
    4df0:	d0 05 c0 01 	ld  [ %l7 + %g1 ], %o0
    4df4:	30 80 00 1c 	b,a   4e64 <_nss_files_getnetent_r+0x15c>
    4df8:	7f ff fe df 	call  4974 <internal_setent>
    4dfc:	90 10 20 00 	clr  %o0
    4e00:	80 a2 20 01 	cmp  %o0, 1
    4e04:	12 bf ff f3 	bne  4dd0 <_nss_files_getnetent_r+0xc8>
    4e08:	b0 10 00 08 	mov  %o0, %i0
    4e0c:	03 00 00 00 	sethi  %hi(0), %g1
    4e10:	82 10 60 84 	or  %g1, 0x84, %g1	! 84 <GLIBC_PRIVATE+0x84>
    4e14:	d2 05 c0 01 	ld  [ %l7 + %g1 ], %o1
    4e18:	40 00 55 4e 	call  1a350 <fgetpos@plt>
    4e1c:	d0 04 00 00 	ld  [ %l0 ], %o0
    4e20:	80 a2 20 00 	cmp  %o0, 0
    4e24:	16 bf ff cf 	bge  4d60 <_nss_files_getnetent_r+0x58>
    4e28:	25 00 00 00 	sethi  %hi(0), %l2
    4e2c:	40 00 55 2e 	call  1a2e4 <fclose@plt>
    4e30:	d0 04 00 00 	ld  [ %l0 ], %o0
    4e34:	c0 24 00 00 	clr  [ %l0 ]
    4e38:	10 bf ff e6 	b  4dd0 <_nss_files_getnetent_r+0xc8>
    4e3c:	b0 10 3f ff 	mov  -1, %i0
    4e40:	82 14 60 78 	or  %l1, 0x78, %g1
    4e44:	05 00 00 00 	sethi  %hi(0), %g2
    4e48:	c6 05 c0 01 	ld  [ %l7 + %g1 ], %g3
    4e4c:	84 10 a0 84 	or  %g2, 0x84, %g2
    4e50:	d0 00 c0 00 	ld  [ %g3 ], %o0
    4e54:	40 00 55 3f 	call  1a350 <fgetpos@plt>
    4e58:	d2 05 c0 02 	ld  [ %l7 + %g2 ], %o1
    4e5c:	10 bf ff de 	b  4dd4 <_nss_files_getnetent_r+0xcc>
    4e60:	03 00 00 00 	sethi  %hi(0), %g1
    4e64:	81 c7 e0 08 	ret 
    4e68:	81 e8 00 00 	restore 

00004e6c <_nss_files_getnetbyname_r>:
_nss_files_getnetbyname_r():
    4e6c:	9d e3 bf 90 	save  %sp, -112, %sp
    4e70:	03 00 00 00 	sethi  %hi(0), %g1
    4e74:	2f 00 00 54 	sethi  %hi(0x15000), %l7
    4e78:	7f ff fd ec 	call  4628 <_nss_files_gethostbyaddr_r+0x138>
    4e7c:	ae 05 e1 88 	add  %l7, 0x188, %l7	! 15188 <__FRAME_END__+0xc4d8>
    4e80:	82 10 61 58 	or  %g1, 0x158, %g1
    4e84:	c4 05 c0 01 	ld  [ %l7 + %g1 ], %g2
    4e88:	80 a0 a0 00 	cmp  %g2, 0
    4e8c:	02 80 00 06 	be  4ea4 <_nss_files_getnetbyname_r+0x38>
    4e90:	a4 10 00 18 	mov  %i0, %l2
    4e94:	03 00 00 00 	sethi  %hi(0), %g1
    4e98:	82 10 60 80 	or  %g1, 0x80, %g1	! 80 <GLIBC_PRIVATE+0x80>
    4e9c:	9f c0 80 00 	call  %g2
    4ea0:	d0 05 c0 01 	ld  [ %l7 + %g1 ], %o0
    4ea4:	27 00 00 00 	sethi  %hi(0), %l3
    4ea8:	82 14 e0 7c 	or  %l3, 0x7c, %g1	! 7c <GLIBC_PRIVATE+0x7c>
    4eac:	c4 05 c0 01 	ld  [ %l7 + %g1 ], %g2
    4eb0:	7f ff fe b1 	call  4974 <internal_setent>
    4eb4:	d0 00 80 00 	ld  [ %g2 ], %o0
    4eb8:	80 a2 20 01 	cmp  %o0, 1
    4ebc:	02 80 00 0c 	be  4eec <_nss_files_getnetbyname_r+0x80>
    4ec0:	b0 10 00 08 	mov  %o0, %i0
    4ec4:	03 00 00 00 	sethi  %hi(0), %g1
    4ec8:	82 10 61 64 	or  %g1, 0x164, %g1	! 164 <GLIBC_PRIVATE+0x164>
    4ecc:	c4 05 c0 01 	ld  [ %l7 + %g1 ], %g2
    4ed0:	80 a0 a0 00 	cmp  %g2, 0
    4ed4:	02 80 00 32 	be  4f9c <_nss_files_getnetbyname_r+0x130>
    4ed8:	03 00 00 00 	sethi  %hi(0), %g1
    4edc:	82 10 60 80 	or  %g1, 0x80, %g1	! 80 <GLIBC_PRIVATE+0x80>
    4ee0:	9f c0 80 00 	call  %g2
    4ee4:	d0 05 c0 01 	ld  [ %l7 + %g1 ], %o0
    4ee8:	30 80 00 2d 	b,a   4f9c <_nss_files_getnetbyname_r+0x130>
    4eec:	03 00 00 00 	sethi  %hi(0), %g1
    4ef0:	82 10 60 88 	or  %g1, 0x88, %g1	! 88 <GLIBC_PRIVATE+0x88>
    4ef4:	c6 05 c0 01 	ld  [ %l7 + %g1 ], %g3
    4ef8:	84 10 20 02 	mov  2, %g2
    4efc:	c4 20 c0 00 	st  %g2, [ %g3 ]
    4f00:	90 10 00 19 	mov  %i1, %o0
    4f04:	92 10 00 1a 	mov  %i2, %o1
    4f08:	94 10 00 1b 	mov  %i3, %o2
    4f0c:	96 10 00 1c 	mov  %i4, %o3
    4f10:	7f ff ff 3d 	call  4c04 <internal_getent>
    4f14:	98 10 00 1d 	mov  %i5, %o4
    4f18:	80 a2 20 01 	cmp  %o0, 1
    4f1c:	12 80 00 16 	bne  4f74 <_nss_files_getnetbyname_r+0x108>
    4f20:	b0 10 00 08 	mov  %o0, %i0
    4f24:	90 10 00 12 	mov  %l2, %o0
    4f28:	40 00 55 0d 	call  1a35c <__strcasecmp@plt>
    4f2c:	d2 06 40 00 	ld  [ %i1 ], %o1
    4f30:	80 a2 20 00 	cmp  %o0, 0
    4f34:	02 80 00 11 	be  4f78 <_nss_files_getnetbyname_r+0x10c>
    4f38:	82 14 e0 7c 	or  %l3, 0x7c, %g1
    4f3c:	e0 06 60 04 	ld  [ %i1 + 4 ], %l0
    4f40:	e2 04 00 00 	ld  [ %l0 ], %l1
    4f44:	80 a4 60 00 	cmp  %l1, 0
    4f48:	02 bf ff ef 	be  4f04 <_nss_files_getnetbyname_r+0x98>
    4f4c:	90 10 00 19 	mov  %i1, %o0
    4f50:	d2 04 00 00 	ld  [ %l0 ], %o1
    4f54:	40 00 55 02 	call  1a35c <__strcasecmp@plt>
    4f58:	90 10 00 12 	mov  %l2, %o0
    4f5c:	80 a2 20 00 	cmp  %o0, 0
    4f60:	12 bf ff f8 	bne  4f40 <_nss_files_getnetbyname_r+0xd4>
    4f64:	a0 04 20 04 	add  %l0, 4, %l0
    4f68:	80 a4 60 00 	cmp  %l1, 0
    4f6c:	02 bf ff e6 	be  4f04 <_nss_files_getnetbyname_r+0x98>
    4f70:	90 10 00 19 	mov  %i1, %o0
    4f74:	82 14 e0 7c 	or  %l3, 0x7c, %g1
    4f78:	c4 05 c0 01 	ld  [ %l7 + %g1 ], %g2
    4f7c:	c6 00 80 00 	ld  [ %g2 ], %g3
    4f80:	80 a0 e0 00 	cmp  %g3, 0
    4f84:	32 bf ff d1 	bne,a   4ec8 <_nss_files_getnetbyname_r+0x5c>
    4f88:	03 00 00 00 	sethi  %hi(0), %g1
    4f8c:	7f ff fe f0 	call  4b4c <internal_endent>
    4f90:	01 00 00 00 	nop 
    4f94:	10 bf ff cd 	b  4ec8 <_nss_files_getnetbyname_r+0x5c>
    4f98:	03 00 00 00 	sethi  %hi(0), %g1
    4f9c:	81 c7 e0 08 	ret 
    4fa0:	81 e8 00 00 	restore 

00004fa4 <_nss_files_getnetbyaddr_r>:
_nss_files_getnetbyaddr_r():
    4fa4:	9d e3 bf 90 	save  %sp, -112, %sp
    4fa8:	03 00 00 00 	sethi  %hi(0), %g1
    4fac:	2f 00 00 54 	sethi  %hi(0x15000), %l7
    4fb0:	7f ff fd 9e 	call  4628 <_nss_files_gethostbyaddr_r+0x138>
    4fb4:	ae 05 e0 50 	add  %l7, 0x50, %l7	! 15050 <__FRAME_END__+0xc3a0>
    4fb8:	82 10 61 58 	or  %g1, 0x158, %g1
    4fbc:	c4 05 c0 01 	ld  [ %l7 + %g1 ], %g2
    4fc0:	a4 10 00 18 	mov  %i0, %l2
    4fc4:	80 a0 a0 00 	cmp  %g2, 0
    4fc8:	02 80 00 06 	be  4fe0 <_nss_files_getnetbyaddr_r+0x3c>
    4fcc:	e0 07 a0 5c 	ld  [ %fp + 0x5c ], %l0
    4fd0:	03 00 00 00 	sethi  %hi(0), %g1
    4fd4:	82 10 60 80 	or  %g1, 0x80, %g1	! 80 <GLIBC_PRIVATE+0x80>
    4fd8:	9f c0 80 00 	call  %g2
    4fdc:	d0 05 c0 01 	ld  [ %l7 + %g1 ], %o0
    4fe0:	23 00 00 00 	sethi  %hi(0), %l1
    4fe4:	82 14 60 7c 	or  %l1, 0x7c, %g1	! 7c <GLIBC_PRIVATE+0x7c>
    4fe8:	c4 05 c0 01 	ld  [ %l7 + %g1 ], %g2
    4fec:	7f ff fe 62 	call  4974 <internal_setent>
    4ff0:	d0 00 80 00 	ld  [ %g2 ], %o0
    4ff4:	80 a2 20 01 	cmp  %o0, 1
    4ff8:	02 80 00 0c 	be  5028 <_nss_files_getnetbyaddr_r+0x84>
    4ffc:	b0 10 00 08 	mov  %o0, %i0
    5000:	03 00 00 00 	sethi  %hi(0), %g1
    5004:	82 10 61 64 	or  %g1, 0x164, %g1	! 164 <GLIBC_PRIVATE+0x164>
    5008:	c4 05 c0 01 	ld  [ %l7 + %g1 ], %g2
    500c:	80 a0 a0 00 	cmp  %g2, 0
    5010:	02 80 00 26 	be  50a8 <_nss_files_getnetbyaddr_r+0x104>
    5014:	03 00 00 00 	sethi  %hi(0), %g1
    5018:	82 10 60 80 	or  %g1, 0x80, %g1	! 80 <GLIBC_PRIVATE+0x80>
    501c:	9f c0 80 00 	call  %g2
    5020:	d0 05 c0 01 	ld  [ %l7 + %g1 ], %o0
    5024:	30 80 00 21 	b,a   50a8 <_nss_files_getnetbyaddr_r+0x104>
    5028:	03 00 00 00 	sethi  %hi(0), %g1
    502c:	82 10 60 88 	or  %g1, 0x88, %g1	! 88 <GLIBC_PRIVATE+0x88>
    5030:	c6 05 c0 01 	ld  [ %l7 + %g1 ], %g3
    5034:	84 10 20 02 	mov  2, %g2
    5038:	c4 20 c0 00 	st  %g2, [ %g3 ]
    503c:	90 10 00 1a 	mov  %i2, %o0
    5040:	92 10 00 1b 	mov  %i3, %o1
    5044:	94 10 00 1c 	mov  %i4, %o2
    5048:	96 10 00 1d 	mov  %i5, %o3
    504c:	7f ff fe ee 	call  4c04 <internal_getent>
    5050:	98 10 00 10 	mov  %l0, %o4
    5054:	80 a2 20 01 	cmp  %o0, 1
    5058:	12 80 00 0a 	bne  5080 <_nss_files_getnetbyaddr_r+0xdc>
    505c:	b0 10 00 08 	mov  %o0, %i0
    5060:	c2 06 a0 08 	ld  [ %i2 + 8 ], %g1
    5064:	80 a0 40 19 	cmp  %g1, %i1
    5068:	32 bf ff f6 	bne,a   5040 <_nss_files_getnetbyaddr_r+0x9c>
    506c:	90 10 00 1a 	mov  %i2, %o0
    5070:	c2 06 a0 0c 	ld  [ %i2 + 0xc ], %g1
    5074:	80 a0 40 12 	cmp  %g1, %l2
    5078:	32 bf ff f2 	bne,a   5040 <_nss_files_getnetbyaddr_r+0x9c>
    507c:	90 10 00 1a 	mov  %i2, %o0
    5080:	82 14 60 7c 	or  %l1, 0x7c, %g1
    5084:	c4 05 c0 01 	ld  [ %l7 + %g1 ], %g2
    5088:	c6 00 80 00 	ld  [ %g2 ], %g3
    508c:	80 a0 e0 00 	cmp  %g3, 0
    5090:	32 bf ff dd 	bne,a   5004 <_nss_files_getnetbyaddr_r+0x60>
    5094:	03 00 00 00 	sethi  %hi(0), %g1
    5098:	7f ff fe ad 	call  4b4c <internal_endent>
    509c:	01 00 00 00 	nop 
    50a0:	10 bf ff d9 	b  5004 <_nss_files_getnetbyaddr_r+0x60>
    50a4:	03 00 00 00 	sethi  %hi(0), %g1
    50a8:	81 c7 e0 08 	ret 
    50ac:	81 e8 00 00 	restore 
    50b0:	81 c3 e0 08 	retl 
    50b4:	ae 03 c0 17 	add  %o7, %l7, %l7

000050b8 <internal_setent>:
internal_setent():
    50b8:	9d e3 bf 90 	save  %sp, -112, %sp
    50bc:	25 00 00 00 	sethi  %hi(0), %l2
    50c0:	2f 00 00 53 	sethi  %hi(0x14c00), %l7
    50c4:	7f ff ff fb 	call  50b0 <_nss_files_getnetbyaddr_r+0x10c>
    50c8:	ae 05 e3 3c 	add  %l7, 0x33c, %l7	! 14f3c <__FRAME_END__+0xc28c>
    50cc:	82 14 a0 94 	or  %l2, 0x94, %g1
    50d0:	e2 05 c0 01 	ld  [ %l7 + %g1 ], %l1
    50d4:	07 00 00 00 	sethi  %hi(0), %g3
    50d8:	05 00 00 00 	sethi  %hi(0), %g2
    50dc:	d0 04 40 00 	ld  [ %l1 ], %o0
    50e0:	a6 10 00 18 	mov  %i0, %l3
    50e4:	86 10 e0 a8 	or  %g3, 0xa8, %g3
    50e8:	84 10 a0 ac 	or  %g2, 0xac, %g2
    50ec:	80 a2 20 00 	cmp  %o0, 0
    50f0:	12 80 00 10 	bne  5130 <internal_setent+0x78>
    50f4:	b0 10 20 01 	mov  1, %i0
    50f8:	d2 05 c0 02 	ld  [ %l7 + %g2 ], %o1
    50fc:	40 00 54 8f 	call  1a338 <fopen@plt>
    5100:	d0 05 c0 03 	ld  [ %l7 + %g3 ], %o0
    5104:	82 92 20 00 	orcc  %o0, 0, %g1
    5108:	12 80 00 18 	bne  5168 <internal_setent+0xb0>
    510c:	c2 24 40 00 	st  %g1, [ %l1 ]
    5110:	40 00 54 42 	call  1a218 <__errno_location@plt>
    5114:	01 00 00 00 	nop 
    5118:	c2 02 00 00 	ld  [ %o0 ], %g1
    511c:	82 18 60 0b 	xor  %g1, 0xb, %g1
    5120:	80 a0 00 01 	cmp  %g0, %g1
    5124:	84 40 20 00 	addx  %g0, 0, %g2
    5128:	10 80 00 04 	b  5138 <internal_setent+0x80>
    512c:	b0 00 bf fe 	add  %g2, -2, %i0
    5130:	40 00 54 3d 	call  1a224 <rewind@plt>
    5134:	01 00 00 00 	nop 
    5138:	82 14 a0 94 	or  %l2, 0x94, %g1
    513c:	c4 05 c0 01 	ld  [ %l7 + %g1 ], %g2
    5140:	09 00 00 00 	sethi  %hi(0), %g4
    5144:	c6 00 80 00 	ld  [ %g2 ], %g3
    5148:	80 a0 e0 00 	cmp  %g3, 0
    514c:	02 80 00 1c 	be  51bc <internal_setent+0x104>
    5150:	88 11 20 98 	or  %g4, 0x98, %g4
    5154:	c4 05 c0 04 	ld  [ %l7 + %g4 ], %g2
    5158:	c2 00 80 00 	ld  [ %g2 ], %g1
    515c:	82 10 40 13 	or  %g1, %l3, %g1
    5160:	10 80 00 17 	b  51bc <internal_setent+0x104>
    5164:	c2 20 80 00 	st  %g1, [ %g2 ]
    5168:	40 00 54 1d 	call  1a1dc <fileno@plt>
    516c:	01 00 00 00 	nop 
    5170:	92 10 20 01 	mov  1, %o1	! 1 <GLIBC_PRIVATE+0x1>
    5174:	40 00 54 56 	call  1a2cc <fcntl@plt>
    5178:	94 10 20 00 	clr  %o2
    517c:	a0 92 20 00 	orcc  %o0, 0, %l0
    5180:	06 80 00 0a 	bl  51a8 <internal_setent+0xf0>
    5184:	a0 14 20 01 	or  %l0, 1, %l0
    5188:	40 00 54 15 	call  1a1dc <fileno@plt>
    518c:	d0 04 40 00 	ld  [ %l1 ], %o0
    5190:	94 10 00 10 	mov  %l0, %o2
    5194:	40 00 54 4e 	call  1a2cc <fcntl@plt>
    5198:	92 10 20 02 	mov  2, %o1
    519c:	80 a2 20 00 	cmp  %o0, 0
    51a0:	16 bf ff e7 	bge  513c <internal_setent+0x84>
    51a4:	82 14 a0 94 	or  %l2, 0x94, %g1
    51a8:	40 00 54 4f 	call  1a2e4 <fclose@plt>
    51ac:	d0 04 40 00 	ld  [ %l1 ], %o0
    51b0:	c0 24 40 00 	clr  [ %l1 ]
    51b4:	10 bf ff e1 	b  5138 <internal_setent+0x80>
    51b8:	b0 10 3f ff 	mov  -1, %i0
    51bc:	81 c7 e0 08 	ret 
    51c0:	81 e8 00 00 	restore 

000051c4 <_nss_files_setgrent>:
_nss_files_setgrent():
    51c4:	9d e3 bf 90 	save  %sp, -112, %sp
    51c8:	03 00 00 00 	sethi  %hi(0), %g1
    51cc:	2f 00 00 53 	sethi  %hi(0x14c00), %l7
    51d0:	7f ff ff b8 	call  50b0 <_nss_files_getnetbyaddr_r+0x10c>
    51d4:	ae 05 e2 30 	add  %l7, 0x230, %l7	! 14e30 <__FRAME_END__+0xc180>
    51d8:	82 10 61 58 	or  %g1, 0x158, %g1
    51dc:	05 00 00 00 	sethi  %hi(0), %g2
    51e0:	c2 05 c0 01 	ld  [ %l7 + %g1 ], %g1
    51e4:	80 a0 60 00 	cmp  %g1, 0
    51e8:	02 80 00 04 	be  51f8 <_nss_files_setgrent+0x34>
    51ec:	84 10 a0 9c 	or  %g2, 0x9c, %g2
    51f0:	9f c0 40 00 	call  %g1
    51f4:	d0 05 c0 02 	ld  [ %l7 + %g2 ], %o0
    51f8:	7f ff ff b0 	call  50b8 <internal_setent>
    51fc:	90 10 00 18 	mov  %i0, %o0
    5200:	05 00 00 00 	sethi  %hi(0), %g2
    5204:	b0 10 00 08 	mov  %o0, %i0
    5208:	80 a2 20 01 	cmp  %o0, 1
    520c:	02 80 00 11 	be  5250 <_nss_files_setgrent+0x8c>
    5210:	84 10 a0 a0 	or  %g2, 0xa0, %g2
    5214:	03 00 00 00 	sethi  %hi(0), %g1
    5218:	82 10 60 a4 	or  %g1, 0xa4, %g1	! a4 <GLIBC_PRIVATE+0xa4>
    521c:	05 00 00 00 	sethi  %hi(0), %g2
    5220:	c6 05 c0 01 	ld  [ %l7 + %g1 ], %g3
    5224:	84 10 a1 64 	or  %g2, 0x164, %g2
    5228:	09 00 00 00 	sethi  %hi(0), %g4
    522c:	c4 05 c0 02 	ld  [ %l7 + %g2 ], %g2
    5230:	82 10 20 01 	mov  1, %g1
    5234:	88 11 20 9c 	or  %g4, 0x9c, %g4
    5238:	80 a0 a0 00 	cmp  %g2, 0
    523c:	02 80 00 13 	be  5288 <_nss_files_setgrent+0xc4>
    5240:	c2 20 c0 00 	st  %g1, [ %g3 ]
    5244:	9f c0 80 00 	call  %g2
    5248:	d0 05 c0 04 	ld  [ %l7 + %g4 ], %o0
    524c:	30 80 00 0f 	b,a   5288 <_nss_files_setgrent+0xc4>
    5250:	03 00 00 00 	sethi  %hi(0), %g1
    5254:	82 10 60 94 	or  %g1, 0x94, %g1	! 94 <GLIBC_PRIVATE+0x94>
    5258:	e0 05 c0 01 	ld  [ %l7 + %g1 ], %l0
    525c:	d2 05 c0 02 	ld  [ %l7 + %g2 ], %o1
    5260:	40 00 54 3c 	call  1a350 <fgetpos@plt>
    5264:	d0 04 00 00 	ld  [ %l0 ], %o0
    5268:	80 a2 20 00 	cmp  %o0, 0
    526c:	16 bf ff eb 	bge  5218 <_nss_files_setgrent+0x54>
    5270:	03 00 00 00 	sethi  %hi(0), %g1
    5274:	40 00 54 1c 	call  1a2e4 <fclose@plt>
    5278:	d0 04 00 00 	ld  [ %l0 ], %o0
    527c:	c0 24 00 00 	clr  [ %l0 ]
    5280:	10 bf ff e5 	b  5214 <_nss_files_setgrent+0x50>
    5284:	b0 10 3f ff 	mov  -1, %i0
    5288:	81 c7 e0 08 	ret 
    528c:	81 e8 00 00 	restore 

00005290 <internal_endent>:
internal_endent():
    5290:	9d e3 bf 90 	save  %sp, -112, %sp
    5294:	03 00 00 00 	sethi  %hi(0), %g1
    5298:	2f 00 00 53 	sethi  %hi(0x14c00), %l7
    529c:	7f ff ff 85 	call  50b0 <_nss_files_getnetbyaddr_r+0x10c>
    52a0:	ae 05 e1 64 	add  %l7, 0x164, %l7	! 14d64 <__FRAME_END__+0xc0b4>
    52a4:	82 10 60 94 	or  %g1, 0x94, %g1
    52a8:	e0 05 c0 01 	ld  [ %l7 + %g1 ], %l0
    52ac:	c4 04 00 00 	ld  [ %l0 ], %g2
    52b0:	90 90 a0 00 	orcc  %g2, 0, %o0
    52b4:	02 80 00 05 	be  52c8 <internal_endent+0x38>
    52b8:	01 00 00 00 	nop 
    52bc:	40 00 54 0a 	call  1a2e4 <fclose@plt>
    52c0:	01 00 00 00 	nop 
    52c4:	c0 24 00 00 	clr  [ %l0 ]
    52c8:	81 c7 e0 08 	ret 
    52cc:	81 e8 00 00 	restore 

000052d0 <_nss_files_endgrent>:
_nss_files_endgrent():
    52d0:	9d e3 bf 90 	save  %sp, -112, %sp
    52d4:	03 00 00 00 	sethi  %hi(0), %g1
    52d8:	2f 00 00 53 	sethi  %hi(0x14c00), %l7
    52dc:	7f ff ff 75 	call  50b0 <_nss_files_getnetbyaddr_r+0x10c>
    52e0:	ae 05 e1 24 	add  %l7, 0x124, %l7	! 14d24 <__FRAME_END__+0xc074>
    52e4:	82 10 61 58 	or  %g1, 0x158, %g1
    52e8:	05 00 00 00 	sethi  %hi(0), %g2
    52ec:	c2 05 c0 01 	ld  [ %l7 + %g1 ], %g1
    52f0:	80 a0 60 00 	cmp  %g1, 0
    52f4:	02 80 00 04 	be  5304 <_nss_files_endgrent+0x34>
    52f8:	84 10 a0 9c 	or  %g2, 0x9c, %g2
    52fc:	9f c0 40 00 	call  %g1
    5300:	d0 05 c0 02 	ld  [ %l7 + %g2 ], %o0
    5304:	7f ff ff e3 	call  5290 <internal_endent>
    5308:	01 00 00 00 	nop 
    530c:	03 00 00 00 	sethi  %hi(0), %g1
    5310:	82 10 60 98 	or  %g1, 0x98, %g1	! 98 <GLIBC_PRIVATE+0x98>
    5314:	05 00 00 00 	sethi  %hi(0), %g2
    5318:	c6 05 c0 01 	ld  [ %l7 + %g1 ], %g3
    531c:	84 10 a1 64 	or  %g2, 0x164, %g2
    5320:	09 00 00 00 	sethi  %hi(0), %g4
    5324:	c2 05 c0 02 	ld  [ %l7 + %g2 ], %g1
    5328:	88 11 20 9c 	or  %g4, 0x9c, %g4
    532c:	80 a0 60 00 	cmp  %g1, 0
    5330:	02 80 00 04 	be  5340 <_nss_files_endgrent+0x70>
    5334:	c0 20 c0 00 	clr  [ %g3 ]
    5338:	9f c0 40 00 	call  %g1
    533c:	d0 05 c0 04 	ld  [ %l7 + %g4 ], %o0
    5340:	81 c7 e0 08 	ret 
    5344:	91 e8 20 01 	restore  %g0, 1, %o0

00005348 <internal_getent>:
internal_getent():
    5348:	9d e3 bf 90 	save  %sp, -112, %sp
    534c:	2f 00 00 53 	sethi  %hi(0x14c00), %l7
    5350:	7f ff ff 58 	call  50b0 <_nss_files_getnetbyaddr_r+0x10c>
    5354:	ae 05 e0 b0 	add  %l7, 0xb0, %l7	! 14cb0 <__FRAME_END__+0xc000>
    5358:	80 a6 a0 01 	cmp  %i2, 1
    535c:	08 80 00 32 	bleu  5424 <internal_getent+0xdc>
    5360:	a4 10 00 1a 	mov  %i2, %l2
    5364:	03 00 00 00 	sethi  %hi(0), %g1
    5368:	82 10 60 94 	or  %g1, 0x94, %g1	! 94 <GLIBC_PRIVATE+0x94>
    536c:	e6 05 c0 01 	ld  [ %l7 + %g1 ], %l3
    5370:	a2 06 40 1a 	add  %i1, %i2, %l1
    5374:	82 10 3f ff 	mov  -1, %g1
    5378:	c2 2c 7f ff 	stb  %g1, [ %l1 + -1 ]
    537c:	90 10 00 19 	mov  %i1, %o0
    5380:	92 10 00 12 	mov  %l2, %o1
    5384:	40 00 53 ae 	call  1a23c <fgets_unlocked@plt>
    5388:	d4 04 c0 00 	ld  [ %l3 ], %o2
    538c:	a0 92 20 00 	orcc  %o0, 0, %l0
    5390:	22 80 00 28 	be,a   5430 <internal_getent+0xe8>
    5394:	b0 10 20 00 	clr  %i0
    5398:	c2 0c 7f ff 	ldub  [ %l1 + -1 ], %g1
    539c:	80 a0 60 ff 	cmp  %g1, 0xff
    53a0:	12 80 00 22 	bne  5428 <internal_getent+0xe0>
    53a4:	82 10 20 22 	mov  0x22, %g1
    53a8:	40 00 53 f6 	call  1a380 <__ctype_b_loc@plt>
    53ac:	01 00 00 00 	nop 
    53b0:	d0 02 00 00 	ld  [ %o0 ], %o0
    53b4:	c6 4c 00 00 	ldsb  [ %l0 ], %g3
    53b8:	82 00 c0 03 	add  %g3, %g3, %g1
    53bc:	c4 12 00 01 	lduh  [ %o0 + %g1 ], %g2
    53c0:	80 88 a0 20 	btst  0x20, %g2
    53c4:	32 bf ff fc 	bne,a   53b4 <internal_getent+0x6c>
    53c8:	a0 04 20 01 	inc  %l0
    53cc:	80 a0 00 03 	cmp  %g0, %g3
    53d0:	82 60 3f ff 	subx  %g0, -1, %g1
    53d4:	84 18 e0 23 	xor  %g3, 0x23, %g2
    53d8:	80 a0 00 02 	cmp  %g0, %g2
    53dc:	86 60 3f ff 	subx  %g0, -1, %g3
    53e0:	80 90 40 03 	orcc  %g1, %g3, %g0
    53e4:	12 bf ff e5 	bne  5378 <internal_getent+0x30>
    53e8:	82 10 3f ff 	mov  -1, %g1
    53ec:	90 10 00 10 	mov  %l0, %o0
    53f0:	92 10 00 18 	mov  %i0, %o1
    53f4:	94 10 00 19 	mov  %i1, %o2
    53f8:	96 10 00 1a 	mov  %i2, %o3
    53fc:	40 00 53 8d 	call  1a230 <_nss_files_parse_grent@plt>
    5400:	98 10 00 1b 	mov  %i3, %o4
    5404:	80 a2 20 00 	cmp  %o0, 0
    5408:	02 bf ff dc 	be  5378 <internal_getent+0x30>
    540c:	82 10 3f ff 	mov  -1, %g1
    5410:	80 a2 3f ff 	cmp  %o0, -1
    5414:	02 80 00 07 	be  5430 <internal_getent+0xe8>
    5418:	b0 10 3f fe 	mov  -2, %i0
    541c:	10 80 00 05 	b  5430 <internal_getent+0xe8>
    5420:	b0 10 20 01 	mov  1, %i0
    5424:	82 10 20 22 	mov  0x22, %g1
    5428:	c2 26 c0 00 	st  %g1, [ %i3 ]
    542c:	b0 10 3f fe 	mov  -2, %i0
    5430:	81 c7 e0 08 	ret 
    5434:	81 e8 00 00 	restore 

00005438 <_nss_files_getgrent_r>:
_nss_files_getgrent_r():
    5438:	9d e3 bf 90 	save  %sp, -112, %sp
    543c:	03 00 00 00 	sethi  %hi(0), %g1
    5440:	2f 00 00 52 	sethi  %hi(0x14800), %l7
    5444:	7f ff ff 1b 	call  50b0 <_nss_files_getnetbyaddr_r+0x10c>
    5448:	ae 05 e3 bc 	add  %l7, 0x3bc, %l7	! 14bbc <__FRAME_END__+0xbf0c>
    544c:	82 10 61 58 	or  %g1, 0x158, %g1
    5450:	c4 05 c0 01 	ld  [ %l7 + %g1 ], %g2
    5454:	a6 10 00 18 	mov  %i0, %l3
    5458:	80 a0 a0 00 	cmp  %g2, 0
    545c:	02 80 00 06 	be  5474 <_nss_files_getgrent_r+0x3c>
    5460:	b0 10 20 01 	mov  1, %i0
    5464:	03 00 00 00 	sethi  %hi(0), %g1
    5468:	82 10 60 9c 	or  %g1, 0x9c, %g1	! 9c <GLIBC_PRIVATE+0x9c>
    546c:	9f c0 80 00 	call  %g2
    5470:	d0 05 c0 01 	ld  [ %l7 + %g1 ], %o0
    5474:	23 00 00 00 	sethi  %hi(0), %l1
    5478:	82 14 60 94 	or  %l1, 0x94, %g1	! 94 <GLIBC_PRIVATE+0x94>
    547c:	e0 05 c0 01 	ld  [ %l7 + %g1 ], %l0
    5480:	c4 04 00 00 	ld  [ %l0 ], %g2
    5484:	80 a0 a0 00 	cmp  %g2, 0
    5488:	02 80 00 27 	be  5524 <_nss_files_getgrent_r+0xec>
    548c:	25 00 00 00 	sethi  %hi(0), %l2
    5490:	82 14 a0 a4 	or  %l2, 0xa4, %g1	! a4 <GLIBC_PRIVATE+0xa4>
    5494:	e0 05 c0 01 	ld  [ %l7 + %g1 ], %l0
    5498:	c4 04 00 00 	ld  [ %l0 ], %g2
    549c:	80 a0 a0 01 	cmp  %g2, 1
    54a0:	02 80 00 0c 	be  54d0 <_nss_files_getgrent_r+0x98>
    54a4:	82 14 60 94 	or  %l1, 0x94, %g1
    54a8:	05 00 00 00 	sethi  %hi(0), %g2
    54ac:	c6 05 c0 01 	ld  [ %l7 + %g1 ], %g3
    54b0:	84 10 a0 a0 	or  %g2, 0xa0, %g2
    54b4:	d0 00 c0 00 	ld  [ %g3 ], %o0
    54b8:	40 00 53 52 	call  1a200 <fsetpos@plt>
    54bc:	d2 05 c0 02 	ld  [ %l7 + %g2 ], %o1
    54c0:	80 a2 20 00 	cmp  %o0, 0
    54c4:	26 80 00 0e 	bl,a   54fc <_nss_files_getgrent_r+0xc4>
    54c8:	b0 10 3f ff 	mov  -1, %i0
    54cc:	f0 24 00 00 	st  %i0, [ %l0 ]
    54d0:	90 10 00 13 	mov  %l3, %o0
    54d4:	92 10 00 19 	mov  %i1, %o1
    54d8:	94 10 00 1a 	mov  %i2, %o2
    54dc:	7f ff ff 9b 	call  5348 <internal_getent>
    54e0:	96 10 00 1b 	mov  %i3, %o3
    54e4:	80 a2 20 01 	cmp  %o0, 1
    54e8:	02 80 00 21 	be  556c <_nss_files_getgrent_r+0x134>
    54ec:	b0 10 00 08 	mov  %o0, %i0
    54f0:	82 14 a0 a4 	or  %l2, 0xa4, %g1
    54f4:	c4 05 c0 01 	ld  [ %l7 + %g1 ], %g2
    54f8:	c0 20 80 00 	clr  [ %g2 ]
    54fc:	03 00 00 00 	sethi  %hi(0), %g1
    5500:	82 10 61 64 	or  %g1, 0x164, %g1	! 164 <GLIBC_PRIVATE+0x164>
    5504:	c4 05 c0 01 	ld  [ %l7 + %g1 ], %g2
    5508:	80 a0 a0 00 	cmp  %g2, 0
    550c:	02 80 00 21 	be  5590 <_nss_files_getgrent_r+0x158>
    5510:	03 00 00 00 	sethi  %hi(0), %g1
    5514:	82 10 60 9c 	or  %g1, 0x9c, %g1	! 9c <GLIBC_PRIVATE+0x9c>
    5518:	9f c0 80 00 	call  %g2
    551c:	d0 05 c0 01 	ld  [ %l7 + %g1 ], %o0
    5520:	30 80 00 1c 	b,a   5590 <_nss_files_getgrent_r+0x158>
    5524:	7f ff fe e5 	call  50b8 <internal_setent>
    5528:	90 10 20 00 	clr  %o0
    552c:	80 a2 20 01 	cmp  %o0, 1
    5530:	12 bf ff f3 	bne  54fc <_nss_files_getgrent_r+0xc4>
    5534:	b0 10 00 08 	mov  %o0, %i0
    5538:	03 00 00 00 	sethi  %hi(0), %g1
    553c:	82 10 60 a0 	or  %g1, 0xa0, %g1	! a0 <GLIBC_PRIVATE+0xa0>
    5540:	d2 05 c0 01 	ld  [ %l7 + %g1 ], %o1
    5544:	40 00 53 83 	call  1a350 <fgetpos@plt>
    5548:	d0 04 00 00 	ld  [ %l0 ], %o0
    554c:	80 a2 20 00 	cmp  %o0, 0
    5550:	16 bf ff d0 	bge  5490 <_nss_files_getgrent_r+0x58>
    5554:	25 00 00 00 	sethi  %hi(0), %l2
    5558:	40 00 53 63 	call  1a2e4 <fclose@plt>
    555c:	d0 04 00 00 	ld  [ %l0 ], %o0
    5560:	c0 24 00 00 	clr  [ %l0 ]
    5564:	10 bf ff e6 	b  54fc <_nss_files_getgrent_r+0xc4>
    5568:	b0 10 3f ff 	mov  -1, %i0
    556c:	82 14 60 94 	or  %l1, 0x94, %g1
    5570:	05 00 00 00 	sethi  %hi(0), %g2
    5574:	c6 05 c0 01 	ld  [ %l7 + %g1 ], %g3
    5578:	84 10 a0 a0 	or  %g2, 0xa0, %g2
    557c:	d0 00 c0 00 	ld  [ %g3 ], %o0
    5580:	40 00 53 74 	call  1a350 <fgetpos@plt>
    5584:	d2 05 c0 02 	ld  [ %l7 + %g2 ], %o1
    5588:	10 bf ff de 	b  5500 <_nss_files_getgrent_r+0xc8>
    558c:	03 00 00 00 	sethi  %hi(0), %g1
    5590:	81 c7 e0 08 	ret 
    5594:	81 e8 00 00 	restore 

00005598 <_nss_files_getgrnam_r>:
_nss_files_getgrnam_r():
    5598:	9d e3 bf 90 	save  %sp, -112, %sp
    559c:	03 00 00 00 	sethi  %hi(0), %g1
    55a0:	2f 00 00 52 	sethi  %hi(0x14800), %l7
    55a4:	7f ff fe c3 	call  50b0 <_nss_files_getnetbyaddr_r+0x10c>
    55a8:	ae 05 e2 5c 	add  %l7, 0x25c, %l7	! 14a5c <__FRAME_END__+0xbdac>
    55ac:	82 10 61 58 	or  %g1, 0x158, %g1
    55b0:	c4 05 c0 01 	ld  [ %l7 + %g1 ], %g2
    55b4:	80 a0 a0 00 	cmp  %g2, 0
    55b8:	02 80 00 06 	be  55d0 <_nss_files_getgrnam_r+0x38>
    55bc:	a0 10 00 18 	mov  %i0, %l0
    55c0:	03 00 00 00 	sethi  %hi(0), %g1
    55c4:	82 10 60 9c 	or  %g1, 0x9c, %g1	! 9c <GLIBC_PRIVATE+0x9c>
    55c8:	9f c0 80 00 	call  %g2
    55cc:	d0 05 c0 01 	ld  [ %l7 + %g1 ], %o0
    55d0:	23 00 00 00 	sethi  %hi(0), %l1
    55d4:	82 14 60 98 	or  %l1, 0x98, %g1	! 98 <GLIBC_PRIVATE+0x98>
    55d8:	c4 05 c0 01 	ld  [ %l7 + %g1 ], %g2
    55dc:	7f ff fe b7 	call  50b8 <internal_setent>
    55e0:	d0 00 80 00 	ld  [ %g2 ], %o0
    55e4:	80 a2 20 01 	cmp  %o0, 1
    55e8:	02 80 00 0c 	be  5618 <_nss_files_getgrnam_r+0x80>
    55ec:	b0 10 00 08 	mov  %o0, %i0
    55f0:	03 00 00 00 	sethi  %hi(0), %g1
    55f4:	82 10 61 64 	or  %g1, 0x164, %g1	! 164 <GLIBC_PRIVATE+0x164>
    55f8:	c4 05 c0 01 	ld  [ %l7 + %g1 ], %g2
    55fc:	80 a0 a0 00 	cmp  %g2, 0
    5600:	02 80 00 2d 	be  56b4 <_nss_files_getgrnam_r+0x11c>
    5604:	03 00 00 00 	sethi  %hi(0), %g1
    5608:	82 10 60 9c 	or  %g1, 0x9c, %g1	! 9c <GLIBC_PRIVATE+0x9c>
    560c:	9f c0 80 00 	call  %g2
    5610:	d0 05 c0 01 	ld  [ %l7 + %g1 ], %o0
    5614:	30 80 00 28 	b,a   56b4 <_nss_files_getgrnam_r+0x11c>
    5618:	03 00 00 00 	sethi  %hi(0), %g1
    561c:	82 10 60 a4 	or  %g1, 0xa4, %g1	! a4 <GLIBC_PRIVATE+0xa4>
    5620:	c6 05 c0 01 	ld  [ %l7 + %g1 ], %g3
    5624:	84 10 20 02 	mov  2, %g2
    5628:	c4 20 c0 00 	st  %g2, [ %g3 ]
    562c:	92 10 00 1a 	mov  %i2, %o1
    5630:	94 10 00 1b 	mov  %i3, %o2
    5634:	96 10 00 1c 	mov  %i4, %o3
    5638:	7f ff ff 44 	call  5348 <internal_getent>
    563c:	90 10 00 19 	mov  %i1, %o0
    5640:	b0 10 00 08 	mov  %o0, %i0
    5644:	80 a6 20 01 	cmp  %i0, 1
    5648:	12 80 00 11 	bne  568c <_nss_files_getgrnam_r+0xf4>
    564c:	90 10 00 10 	mov  %l0, %o0
    5650:	c2 4c 00 00 	ldsb  [ %l0 ], %g1
    5654:	84 18 60 2d 	xor  %g1, 0x2d, %g2
    5658:	80 a0 00 02 	cmp  %g0, %g2
    565c:	86 40 20 00 	addx  %g0, 0, %g3
    5660:	82 18 60 2b 	xor  %g1, 0x2b, %g1
    5664:	80 a0 00 01 	cmp  %g0, %g1
    5668:	84 40 20 00 	addx  %g0, 0, %g2
    566c:	80 88 c0 02 	btst  %g3, %g2
    5670:	02 bf ff f0 	be  5630 <_nss_files_getgrnam_r+0x98>
    5674:	92 10 00 1a 	mov  %i2, %o1
    5678:	40 00 52 dc 	call  1a1e8 <strcmp@plt>
    567c:	d2 06 40 00 	ld  [ %i1 ], %o1
    5680:	80 a2 20 00 	cmp  %o0, 0
    5684:	32 bf ff eb 	bne,a   5630 <_nss_files_getgrnam_r+0x98>
    5688:	92 10 00 1a 	mov  %i2, %o1
    568c:	82 14 60 98 	or  %l1, 0x98, %g1
    5690:	c4 05 c0 01 	ld  [ %l7 + %g1 ], %g2
    5694:	c6 00 80 00 	ld  [ %g2 ], %g3
    5698:	80 a0 e0 00 	cmp  %g3, 0
    569c:	32 bf ff d6 	bne,a   55f4 <_nss_files_getgrnam_r+0x5c>
    56a0:	03 00 00 00 	sethi  %hi(0), %g1
    56a4:	7f ff fe fb 	call  5290 <internal_endent>
    56a8:	01 00 00 00 	nop 
    56ac:	10 bf ff d2 	b  55f4 <_nss_files_getgrnam_r+0x5c>
    56b0:	03 00 00 00 	sethi  %hi(0), %g1
    56b4:	81 c7 e0 08 	ret 
    56b8:	81 e8 00 00 	restore 

000056bc <_nss_files_getgrgid_r>:
_nss_files_getgrgid_r():
    56bc:	9d e3 bf 90 	save  %sp, -112, %sp
    56c0:	03 00 00 00 	sethi  %hi(0), %g1
    56c4:	2f 00 00 52 	sethi  %hi(0x14800), %l7
    56c8:	7f ff fe 7a 	call  50b0 <_nss_files_getnetbyaddr_r+0x10c>
    56cc:	ae 05 e1 38 	add  %l7, 0x138, %l7	! 14938 <__FRAME_END__+0xbc88>
    56d0:	82 10 61 58 	or  %g1, 0x158, %g1
    56d4:	c4 05 c0 01 	ld  [ %l7 + %g1 ], %g2
    56d8:	80 a0 a0 00 	cmp  %g2, 0
    56dc:	02 80 00 06 	be  56f4 <_nss_files_getgrgid_r+0x38>
    56e0:	a0 10 00 18 	mov  %i0, %l0
    56e4:	03 00 00 00 	sethi  %hi(0), %g1
    56e8:	82 10 60 9c 	or  %g1, 0x9c, %g1	! 9c <GLIBC_PRIVATE+0x9c>
    56ec:	9f c0 80 00 	call  %g2
    56f0:	d0 05 c0 01 	ld  [ %l7 + %g1 ], %o0
    56f4:	23 00 00 00 	sethi  %hi(0), %l1
    56f8:	82 14 60 98 	or  %l1, 0x98, %g1	! 98 <GLIBC_PRIVATE+0x98>
    56fc:	c4 05 c0 01 	ld  [ %l7 + %g1 ], %g2
    5700:	7f ff fe 6e 	call  50b8 <internal_setent>
    5704:	d0 00 80 00 	ld  [ %g2 ], %o0
    5708:	80 a2 20 01 	cmp  %o0, 1
    570c:	02 80 00 0c 	be  573c <_nss_files_getgrgid_r+0x80>
    5710:	b0 10 00 08 	mov  %o0, %i0
    5714:	03 00 00 00 	sethi  %hi(0), %g1
    5718:	82 10 61 64 	or  %g1, 0x164, %g1	! 164 <GLIBC_PRIVATE+0x164>
    571c:	c4 05 c0 01 	ld  [ %l7 + %g1 ], %g2
    5720:	80 a0 a0 00 	cmp  %g2, 0
    5724:	02 80 00 28 	be  57c4 <_nss_files_getgrgid_r+0x108>
    5728:	03 00 00 00 	sethi  %hi(0), %g1
    572c:	82 10 60 9c 	or  %g1, 0x9c, %g1	! 9c <GLIBC_PRIVATE+0x9c>
    5730:	9f c0 80 00 	call  %g2
    5734:	d0 05 c0 01 	ld  [ %l7 + %g1 ], %o0
    5738:	30 80 00 23 	b,a   57c4 <_nss_files_getgrgid_r+0x108>
    573c:	03 00 00 00 	sethi  %hi(0), %g1
    5740:	82 10 60 a4 	or  %g1, 0xa4, %g1	! a4 <GLIBC_PRIVATE+0xa4>
    5744:	c6 05 c0 01 	ld  [ %l7 + %g1 ], %g3
    5748:	84 10 20 02 	mov  2, %g2
    574c:	c4 20 c0 00 	st  %g2, [ %g3 ]
    5750:	90 10 00 19 	mov  %i1, %o0
    5754:	92 10 00 1a 	mov  %i2, %o1
    5758:	94 10 00 1b 	mov  %i3, %o2
    575c:	7f ff fe fb 	call  5348 <internal_getent>
    5760:	96 10 00 1c 	mov  %i4, %o3
    5764:	80 a2 20 01 	cmp  %o0, 1
    5768:	12 80 00 0d 	bne  579c <_nss_files_getgrgid_r+0xe0>
    576c:	b0 10 00 08 	mov  %o0, %i0
    5770:	c2 06 60 08 	ld  [ %i1 + 8 ], %g1
    5774:	80 a0 40 10 	cmp  %g1, %l0
    5778:	32 bf ff f7 	bne,a   5754 <_nss_files_getgrgid_r+0x98>
    577c:	90 10 00 19 	mov  %i1, %o0
    5780:	c2 06 40 00 	ld  [ %i1 ], %g1
    5784:	c2 48 40 00 	ldsb  [ %g1 ], %g1
    5788:	80 a0 60 2b 	cmp  %g1, 0x2b
    578c:	02 bf ff f1 	be  5750 <_nss_files_getgrgid_r+0x94>
    5790:	80 a0 60 2d 	cmp  %g1, 0x2d
    5794:	22 bf ff f0 	be,a   5754 <_nss_files_getgrgid_r+0x98>
    5798:	90 10 00 19 	mov  %i1, %o0
    579c:	82 14 60 98 	or  %l1, 0x98, %g1
    57a0:	c4 05 c0 01 	ld  [ %l7 + %g1 ], %g2
    57a4:	c6 00 80 00 	ld  [ %g2 ], %g3
    57a8:	80 a0 e0 00 	cmp  %g3, 0
    57ac:	32 bf ff db 	bne,a   5718 <_nss_files_getgrgid_r+0x5c>
    57b0:	03 00 00 00 	sethi  %hi(0), %g1
    57b4:	7f ff fe b7 	call  5290 <internal_endent>
    57b8:	01 00 00 00 	nop 
    57bc:	10 bf ff d7 	b  5718 <_nss_files_getgrgid_r+0x5c>
    57c0:	03 00 00 00 	sethi  %hi(0), %g1
    57c4:	81 c7 e0 08 	ret 
    57c8:	81 e8 00 00 	restore 
    57cc:	81 c3 e0 08 	retl 
    57d0:	ae 03 c0 17 	add  %o7, %l7, %l7

000057d4 <internal_setent>:
internal_setent():
    57d4:	9d e3 bf 90 	save  %sp, -112, %sp
    57d8:	25 00 00 00 	sethi  %hi(0), %l2
    57dc:	2f 00 00 52 	sethi  %hi(0x14800), %l7
    57e0:	7f ff ff fb 	call  57cc <_nss_files_getgrgid_r+0x110>
    57e4:	ae 05 e0 20 	add  %l7, 0x20, %l7	! 14820 <__FRAME_END__+0xbb70>
    57e8:	82 14 a0 b0 	or  %l2, 0xb0, %g1
    57ec:	e2 05 c0 01 	ld  [ %l7 + %g1 ], %l1
    57f0:	07 00 00 00 	sethi  %hi(0), %g3
    57f4:	05 00 00 00 	sethi  %hi(0), %g2
    57f8:	d0 04 40 00 	ld  [ %l1 ], %o0
    57fc:	a6 10 00 18 	mov  %i0, %l3
    5800:	86 10 e0 c4 	or  %g3, 0xc4, %g3
    5804:	84 10 a0 c8 	or  %g2, 0xc8, %g2
    5808:	80 a2 20 00 	cmp  %o0, 0
    580c:	12 80 00 10 	bne  584c <internal_setent+0x78>
    5810:	b0 10 20 01 	mov  1, %i0
    5814:	d2 05 c0 02 	ld  [ %l7 + %g2 ], %o1
    5818:	40 00 52 c8 	call  1a338 <fopen@plt>
    581c:	d0 05 c0 03 	ld  [ %l7 + %g3 ], %o0
    5820:	82 92 20 00 	orcc  %o0, 0, %g1
    5824:	12 80 00 18 	bne  5884 <internal_setent+0xb0>
    5828:	c2 24 40 00 	st  %g1, [ %l1 ]
    582c:	40 00 52 7b 	call  1a218 <__errno_location@plt>
    5830:	01 00 00 00 	nop 
    5834:	c2 02 00 00 	ld  [ %o0 ], %g1
    5838:	82 18 60 0b 	xor  %g1, 0xb, %g1
    583c:	80 a0 00 01 	cmp  %g0, %g1
    5840:	84 40 20 00 	addx  %g0, 0, %g2
    5844:	10 80 00 04 	b  5854 <internal_setent+0x80>
    5848:	b0 00 bf fe 	add  %g2, -2, %i0
    584c:	40 00 52 76 	call  1a224 <rewind@plt>
    5850:	01 00 00 00 	nop 
    5854:	82 14 a0 b0 	or  %l2, 0xb0, %g1
    5858:	c4 05 c0 01 	ld  [ %l7 + %g1 ], %g2
    585c:	09 00 00 00 	sethi  %hi(0), %g4
    5860:	c6 00 80 00 	ld  [ %g2 ], %g3
    5864:	80 a0 e0 00 	cmp  %g3, 0
    5868:	02 80 00 1c 	be  58d8 <internal_setent+0x104>
    586c:	88 11 20 b4 	or  %g4, 0xb4, %g4
    5870:	c4 05 c0 04 	ld  [ %l7 + %g4 ], %g2
    5874:	c2 00 80 00 	ld  [ %g2 ], %g1
    5878:	82 10 40 13 	or  %g1, %l3, %g1
    587c:	10 80 00 17 	b  58d8 <internal_setent+0x104>
    5880:	c2 20 80 00 	st  %g1, [ %g2 ]
    5884:	40 00 52 56 	call  1a1dc <fileno@plt>
    5888:	01 00 00 00 	nop 
    588c:	92 10 20 01 	mov  1, %o1	! 1 <GLIBC_PRIVATE+0x1>
    5890:	40 00 52 8f 	call  1a2cc <fcntl@plt>
    5894:	94 10 20 00 	clr  %o2
    5898:	a0 92 20 00 	orcc  %o0, 0, %l0
    589c:	06 80 00 0a 	bl  58c4 <internal_setent+0xf0>
    58a0:	a0 14 20 01 	or  %l0, 1, %l0
    58a4:	40 00 52 4e 	call  1a1dc <fileno@plt>
    58a8:	d0 04 40 00 	ld  [ %l1 ], %o0
    58ac:	94 10 00 10 	mov  %l0, %o2
    58b0:	40 00 52 87 	call  1a2cc <fcntl@plt>
    58b4:	92 10 20 02 	mov  2, %o1
    58b8:	80 a2 20 00 	cmp  %o0, 0
    58bc:	16 bf ff e7 	bge  5858 <internal_setent+0x84>
    58c0:	82 14 a0 b0 	or  %l2, 0xb0, %g1
    58c4:	40 00 52 88 	call  1a2e4 <fclose@plt>
    58c8:	d0 04 40 00 	ld  [ %l1 ], %o0
    58cc:	c0 24 40 00 	clr  [ %l1 ]
    58d0:	10 bf ff e1 	b  5854 <internal_setent+0x80>
    58d4:	b0 10 3f ff 	mov  -1, %i0
    58d8:	81 c7 e0 08 	ret 
    58dc:	81 e8 00 00 	restore 

000058e0 <_nss_files_setpwent>:
_nss_files_setpwent():
    58e0:	9d e3 bf 90 	save  %sp, -112, %sp
    58e4:	03 00 00 00 	sethi  %hi(0), %g1
    58e8:	2f 00 00 51 	sethi  %hi(0x14400), %l7
    58ec:	7f ff ff b8 	call  57cc <_nss_files_getgrgid_r+0x110>
    58f0:	ae 05 e3 14 	add  %l7, 0x314, %l7	! 14714 <__FRAME_END__+0xba64>
    58f4:	82 10 61 58 	or  %g1, 0x158, %g1
    58f8:	05 00 00 00 	sethi  %hi(0), %g2
    58fc:	c2 05 c0 01 	ld  [ %l7 + %g1 ], %g1
    5900:	80 a0 60 00 	cmp  %g1, 0
    5904:	02 80 00 04 	be  5914 <_nss_files_setpwent+0x34>
    5908:	84 10 a0 b8 	or  %g2, 0xb8, %g2
    590c:	9f c0 40 00 	call  %g1
    5910:	d0 05 c0 02 	ld  [ %l7 + %g2 ], %o0
    5914:	7f ff ff b0 	call  57d4 <internal_setent>
    5918:	90 10 00 18 	mov  %i0, %o0
    591c:	05 00 00 00 	sethi  %hi(0), %g2
    5920:	b0 10 00 08 	mov  %o0, %i0
    5924:	80 a2 20 01 	cmp  %o0, 1
    5928:	02 80 00 11 	be  596c <_nss_files_setpwent+0x8c>
    592c:	84 10 a0 bc 	or  %g2, 0xbc, %g2
    5930:	03 00 00 00 	sethi  %hi(0), %g1
    5934:	82 10 60 c0 	or  %g1, 0xc0, %g1	! c0 <GLIBC_PRIVATE+0xc0>
    5938:	05 00 00 00 	sethi  %hi(0), %g2
    593c:	c6 05 c0 01 	ld  [ %l7 + %g1 ], %g3
    5940:	84 10 a1 64 	or  %g2, 0x164, %g2
    5944:	09 00 00 00 	sethi  %hi(0), %g4
    5948:	c4 05 c0 02 	ld  [ %l7 + %g2 ], %g2
    594c:	82 10 20 01 	mov  1, %g1
    5950:	88 11 20 b8 	or  %g4, 0xb8, %g4
    5954:	80 a0 a0 00 	cmp  %g2, 0
    5958:	02 80 00 13 	be  59a4 <_nss_files_setpwent+0xc4>
    595c:	c2 20 c0 00 	st  %g1, [ %g3 ]
    5960:	9f c0 80 00 	call  %g2
    5964:	d0 05 c0 04 	ld  [ %l7 + %g4 ], %o0
    5968:	30 80 00 0f 	b,a   59a4 <_nss_files_setpwent+0xc4>
    596c:	03 00 00 00 	sethi  %hi(0), %g1
    5970:	82 10 60 b0 	or  %g1, 0xb0, %g1	! b0 <GLIBC_PRIVATE+0xb0>
    5974:	e0 05 c0 01 	ld  [ %l7 + %g1 ], %l0
    5978:	d2 05 c0 02 	ld  [ %l7 + %g2 ], %o1
    597c:	40 00 52 75 	call  1a350 <fgetpos@plt>
    5980:	d0 04 00 00 	ld  [ %l0 ], %o0
    5984:	80 a2 20 00 	cmp  %o0, 0
    5988:	16 bf ff eb 	bge  5934 <_nss_files_setpwent+0x54>
    598c:	03 00 00 00 	sethi  %hi(0), %g1
    5990:	40 00 52 55 	call  1a2e4 <fclose@plt>
    5994:	d0 04 00 00 	ld  [ %l0 ], %o0
    5998:	c0 24 00 00 	clr  [ %l0 ]
    599c:	10 bf ff e5 	b  5930 <_nss_files_setpwent+0x50>
    59a0:	b0 10 3f ff 	mov  -1, %i0
    59a4:	81 c7 e0 08 	ret 
    59a8:	81 e8 00 00 	restore 

000059ac <internal_endent>:
internal_endent():
    59ac:	9d e3 bf 90 	save  %sp, -112, %sp
    59b0:	03 00 00 00 	sethi  %hi(0), %g1
    59b4:	2f 00 00 51 	sethi  %hi(0x14400), %l7
    59b8:	7f ff ff 85 	call  57cc <_nss_files_getgrgid_r+0x110>
    59bc:	ae 05 e2 48 	add  %l7, 0x248, %l7	! 14648 <__FRAME_END__+0xb998>
    59c0:	82 10 60 b0 	or  %g1, 0xb0, %g1
    59c4:	e0 05 c0 01 	ld  [ %l7 + %g1 ], %l0
    59c8:	c4 04 00 00 	ld  [ %l0 ], %g2
    59cc:	90 90 a0 00 	orcc  %g2, 0, %o0
    59d0:	02 80 00 05 	be  59e4 <internal_endent+0x38>
    59d4:	01 00 00 00 	nop 
    59d8:	40 00 52 43 	call  1a2e4 <fclose@plt>
    59dc:	01 00 00 00 	nop 
    59e0:	c0 24 00 00 	clr  [ %l0 ]
    59e4:	81 c7 e0 08 	ret 
    59e8:	81 e8 00 00 	restore 

000059ec <_nss_files_endpwent>:
_nss_files_endpwent():
    59ec:	9d e3 bf 90 	save  %sp, -112, %sp
    59f0:	03 00 00 00 	sethi  %hi(0), %g1
    59f4:	2f 00 00 51 	sethi  %hi(0x14400), %l7
    59f8:	7f ff ff 75 	call  57cc <_nss_files_getgrgid_r+0x110>
    59fc:	ae 05 e2 08 	add  %l7, 0x208, %l7	! 14608 <__FRAME_END__+0xb958>
    5a00:	82 10 61 58 	or  %g1, 0x158, %g1
    5a04:	05 00 00 00 	sethi  %hi(0), %g2
    5a08:	c2 05 c0 01 	ld  [ %l7 + %g1 ], %g1
    5a0c:	80 a0 60 00 	cmp  %g1, 0
    5a10:	02 80 00 04 	be  5a20 <_nss_files_endpwent+0x34>
    5a14:	84 10 a0 b8 	or  %g2, 0xb8, %g2
    5a18:	9f c0 40 00 	call  %g1
    5a1c:	d0 05 c0 02 	ld  [ %l7 + %g2 ], %o0
    5a20:	7f ff ff e3 	call  59ac <internal_endent>
    5a24:	01 00 00 00 	nop 
    5a28:	03 00 00 00 	sethi  %hi(0), %g1
    5a2c:	82 10 60 b4 	or  %g1, 0xb4, %g1	! b4 <GLIBC_PRIVATE+0xb4>
    5a30:	05 00 00 00 	sethi  %hi(0), %g2
    5a34:	c6 05 c0 01 	ld  [ %l7 + %g1 ], %g3
    5a38:	84 10 a1 64 	or  %g2, 0x164, %g2
    5a3c:	09 00 00 00 	sethi  %hi(0), %g4
    5a40:	c2 05 c0 02 	ld  [ %l7 + %g2 ], %g1
    5a44:	88 11 20 b8 	or  %g4, 0xb8, %g4
    5a48:	80 a0 60 00 	cmp  %g1, 0
    5a4c:	02 80 00 04 	be  5a5c <_nss_files_endpwent+0x70>
    5a50:	c0 20 c0 00 	clr  [ %g3 ]
    5a54:	9f c0 40 00 	call  %g1
    5a58:	d0 05 c0 04 	ld  [ %l7 + %g4 ], %o0
    5a5c:	81 c7 e0 08 	ret 
    5a60:	91 e8 20 01 	restore  %g0, 1, %o0

00005a64 <internal_getent>:
internal_getent():
    5a64:	9d e3 bf 90 	save  %sp, -112, %sp
    5a68:	2f 00 00 51 	sethi  %hi(0x14400), %l7
    5a6c:	7f ff ff 58 	call  57cc <_nss_files_getgrgid_r+0x110>
    5a70:	ae 05 e1 94 	add  %l7, 0x194, %l7	! 14594 <__FRAME_END__+0xb8e4>
    5a74:	80 a6 a0 01 	cmp  %i2, 1
    5a78:	08 80 00 32 	bleu  5b40 <internal_getent+0xdc>
    5a7c:	a4 10 00 1a 	mov  %i2, %l2
    5a80:	03 00 00 00 	sethi  %hi(0), %g1
    5a84:	82 10 60 b0 	or  %g1, 0xb0, %g1	! b0 <GLIBC_PRIVATE+0xb0>
    5a88:	e6 05 c0 01 	ld  [ %l7 + %g1 ], %l3
    5a8c:	a2 06 40 1a 	add  %i1, %i2, %l1
    5a90:	82 10 3f ff 	mov  -1, %g1
    5a94:	c2 2c 7f ff 	stb  %g1, [ %l1 + -1 ]
    5a98:	90 10 00 19 	mov  %i1, %o0
    5a9c:	92 10 00 12 	mov  %l2, %o1
    5aa0:	40 00 51 e7 	call  1a23c <fgets_unlocked@plt>
    5aa4:	d4 04 c0 00 	ld  [ %l3 ], %o2
    5aa8:	a0 92 20 00 	orcc  %o0, 0, %l0
    5aac:	22 80 00 28 	be,a   5b4c <internal_getent+0xe8>
    5ab0:	b0 10 20 00 	clr  %i0
    5ab4:	c2 0c 7f ff 	ldub  [ %l1 + -1 ], %g1
    5ab8:	80 a0 60 ff 	cmp  %g1, 0xff
    5abc:	12 80 00 22 	bne  5b44 <internal_getent+0xe0>
    5ac0:	82 10 20 22 	mov  0x22, %g1
    5ac4:	40 00 52 2f 	call  1a380 <__ctype_b_loc@plt>
    5ac8:	01 00 00 00 	nop 
    5acc:	d0 02 00 00 	ld  [ %o0 ], %o0
    5ad0:	c6 4c 00 00 	ldsb  [ %l0 ], %g3
    5ad4:	82 00 c0 03 	add  %g3, %g3, %g1
    5ad8:	c4 12 00 01 	lduh  [ %o0 + %g1 ], %g2
    5adc:	80 88 a0 20 	btst  0x20, %g2
    5ae0:	32 bf ff fc 	bne,a   5ad0 <internal_getent+0x6c>
    5ae4:	a0 04 20 01 	inc  %l0
    5ae8:	80 a0 00 03 	cmp  %g0, %g3
    5aec:	82 60 3f ff 	subx  %g0, -1, %g1
    5af0:	84 18 e0 23 	xor  %g3, 0x23, %g2
    5af4:	80 a0 00 02 	cmp  %g0, %g2
    5af8:	86 60 3f ff 	subx  %g0, -1, %g3
    5afc:	80 90 40 03 	orcc  %g1, %g3, %g0
    5b00:	12 bf ff e5 	bne  5a94 <internal_getent+0x30>
    5b04:	82 10 3f ff 	mov  -1, %g1
    5b08:	90 10 00 10 	mov  %l0, %o0
    5b0c:	92 10 00 18 	mov  %i0, %o1
    5b10:	94 10 00 19 	mov  %i1, %o2
    5b14:	96 10 00 1a 	mov  %i2, %o3
    5b18:	40 00 52 02 	call  1a320 <_nss_files_parse_pwent@plt>
    5b1c:	98 10 00 1b 	mov  %i3, %o4
    5b20:	80 a2 20 00 	cmp  %o0, 0
    5b24:	02 bf ff dc 	be  5a94 <internal_getent+0x30>
    5b28:	82 10 3f ff 	mov  -1, %g1
    5b2c:	80 a2 3f ff 	cmp  %o0, -1
    5b30:	02 80 00 07 	be  5b4c <internal_getent+0xe8>
    5b34:	b0 10 3f fe 	mov  -2, %i0
    5b38:	10 80 00 05 	b  5b4c <internal_getent+0xe8>
    5b3c:	b0 10 20 01 	mov  1, %i0
    5b40:	82 10 20 22 	mov  0x22, %g1
    5b44:	c2 26 c0 00 	st  %g1, [ %i3 ]
    5b48:	b0 10 3f fe 	mov  -2, %i0
    5b4c:	81 c7 e0 08 	ret 
    5b50:	81 e8 00 00 	restore 

00005b54 <_nss_files_getpwent_r>:
_nss_files_getpwent_r():
    5b54:	9d e3 bf 90 	save  %sp, -112, %sp
    5b58:	03 00 00 00 	sethi  %hi(0), %g1
    5b5c:	2f 00 00 51 	sethi  %hi(0x14400), %l7
    5b60:	7f ff ff 1b 	call  57cc <_nss_files_getgrgid_r+0x110>
    5b64:	ae 05 e0 a0 	add  %l7, 0xa0, %l7	! 144a0 <__FRAME_END__+0xb7f0>
    5b68:	82 10 61 58 	or  %g1, 0x158, %g1
    5b6c:	c4 05 c0 01 	ld  [ %l7 + %g1 ], %g2
    5b70:	a6 10 00 18 	mov  %i0, %l3
    5b74:	80 a0 a0 00 	cmp  %g2, 0
    5b78:	02 80 00 06 	be  5b90 <_nss_files_getpwent_r+0x3c>
    5b7c:	b0 10 20 01 	mov  1, %i0
    5b80:	03 00 00 00 	sethi  %hi(0), %g1
    5b84:	82 10 60 b8 	or  %g1, 0xb8, %g1	! b8 <GLIBC_PRIVATE+0xb8>
    5b88:	9f c0 80 00 	call  %g2
    5b8c:	d0 05 c0 01 	ld  [ %l7 + %g1 ], %o0
    5b90:	23 00 00 00 	sethi  %hi(0), %l1
    5b94:	82 14 60 b0 	or  %l1, 0xb0, %g1	! b0 <GLIBC_PRIVATE+0xb0>
    5b98:	e0 05 c0 01 	ld  [ %l7 + %g1 ], %l0
    5b9c:	c4 04 00 00 	ld  [ %l0 ], %g2
    5ba0:	80 a0 a0 00 	cmp  %g2, 0
    5ba4:	02 80 00 27 	be  5c40 <_nss_files_getpwent_r+0xec>
    5ba8:	25 00 00 00 	sethi  %hi(0), %l2
    5bac:	82 14 a0 c0 	or  %l2, 0xc0, %g1	! c0 <GLIBC_PRIVATE+0xc0>
    5bb0:	e0 05 c0 01 	ld  [ %l7 + %g1 ], %l0
    5bb4:	c4 04 00 00 	ld  [ %l0 ], %g2
    5bb8:	80 a0 a0 01 	cmp  %g2, 1
    5bbc:	02 80 00 0c 	be  5bec <_nss_files_getpwent_r+0x98>
    5bc0:	82 14 60 b0 	or  %l1, 0xb0, %g1
    5bc4:	05 00 00 00 	sethi  %hi(0), %g2
    5bc8:	c6 05 c0 01 	ld  [ %l7 + %g1 ], %g3
    5bcc:	84 10 a0 bc 	or  %g2, 0xbc, %g2
    5bd0:	d0 00 c0 00 	ld  [ %g3 ], %o0
    5bd4:	40 00 51 8b 	call  1a200 <fsetpos@plt>
    5bd8:	d2 05 c0 02 	ld  [ %l7 + %g2 ], %o1
    5bdc:	80 a2 20 00 	cmp  %o0, 0
    5be0:	26 80 00 0e 	bl,a   5c18 <_nss_files_getpwent_r+0xc4>
    5be4:	b0 10 3f ff 	mov  -1, %i0
    5be8:	f0 24 00 00 	st  %i0, [ %l0 ]
    5bec:	90 10 00 13 	mov  %l3, %o0
    5bf0:	92 10 00 19 	mov  %i1, %o1
    5bf4:	94 10 00 1a 	mov  %i2, %o2
    5bf8:	7f ff ff 9b 	call  5a64 <internal_getent>
    5bfc:	96 10 00 1b 	mov  %i3, %o3
    5c00:	80 a2 20 01 	cmp  %o0, 1
    5c04:	02 80 00 21 	be  5c88 <_nss_files_getpwent_r+0x134>
    5c08:	b0 10 00 08 	mov  %o0, %i0
    5c0c:	82 14 a0 c0 	or  %l2, 0xc0, %g1
    5c10:	c4 05 c0 01 	ld  [ %l7 + %g1 ], %g2
    5c14:	c0 20 80 00 	clr  [ %g2 ]
    5c18:	03 00 00 00 	sethi  %hi(0), %g1
    5c1c:	82 10 61 64 	or  %g1, 0x164, %g1	! 164 <GLIBC_PRIVATE+0x164>
    5c20:	c4 05 c0 01 	ld  [ %l7 + %g1 ], %g2
    5c24:	80 a0 a0 00 	cmp  %g2, 0
    5c28:	02 80 00 21 	be  5cac <_nss_files_getpwent_r+0x158>
    5c2c:	03 00 00 00 	sethi  %hi(0), %g1
    5c30:	82 10 60 b8 	or  %g1, 0xb8, %g1	! b8 <GLIBC_PRIVATE+0xb8>
    5c34:	9f c0 80 00 	call  %g2
    5c38:	d0 05 c0 01 	ld  [ %l7 + %g1 ], %o0
    5c3c:	30 80 00 1c 	b,a   5cac <_nss_files_getpwent_r+0x158>
    5c40:	7f ff fe e5 	call  57d4 <internal_setent>
    5c44:	90 10 20 00 	clr  %o0
    5c48:	80 a2 20 01 	cmp  %o0, 1
    5c4c:	12 bf ff f3 	bne  5c18 <_nss_files_getpwent_r+0xc4>
    5c50:	b0 10 00 08 	mov  %o0, %i0
    5c54:	03 00 00 00 	sethi  %hi(0), %g1
    5c58:	82 10 60 bc 	or  %g1, 0xbc, %g1	! bc <GLIBC_PRIVATE+0xbc>
    5c5c:	d2 05 c0 01 	ld  [ %l7 + %g1 ], %o1
    5c60:	40 00 51 bc 	call  1a350 <fgetpos@plt>
    5c64:	d0 04 00 00 	ld  [ %l0 ], %o0
    5c68:	80 a2 20 00 	cmp  %o0, 0
    5c6c:	16 bf ff d0 	bge  5bac <_nss_files_getpwent_r+0x58>
    5c70:	25 00 00 00 	sethi  %hi(0), %l2
    5c74:	40 00 51 9c 	call  1a2e4 <fclose@plt>
    5c78:	d0 04 00 00 	ld  [ %l0 ], %o0
    5c7c:	c0 24 00 00 	clr  [ %l0 ]
    5c80:	10 bf ff e6 	b  5c18 <_nss_files_getpwent_r+0xc4>
    5c84:	b0 10 3f ff 	mov  -1, %i0
    5c88:	82 14 60 b0 	or  %l1, 0xb0, %g1
    5c8c:	05 00 00 00 	sethi  %hi(0), %g2
    5c90:	c6 05 c0 01 	ld  [ %l7 + %g1 ], %g3
    5c94:	84 10 a0 bc 	or  %g2, 0xbc, %g2
    5c98:	d0 00 c0 00 	ld  [ %g3 ], %o0
    5c9c:	40 00 51 ad 	call  1a350 <fgetpos@plt>
    5ca0:	d2 05 c0 02 	ld  [ %l7 + %g2 ], %o1
    5ca4:	10 bf ff de 	b  5c1c <_nss_files_getpwent_r+0xc8>
    5ca8:	03 00 00 00 	sethi  %hi(0), %g1
    5cac:	81 c7 e0 08 	ret 
    5cb0:	81 e8 00 00 	restore 

00005cb4 <_nss_files_getpwnam_r>:
_nss_files_getpwnam_r():
    5cb4:	9d e3 bf 90 	save  %sp, -112, %sp
    5cb8:	03 00 00 00 	sethi  %hi(0), %g1
    5cbc:	2f 00 00 50 	sethi  %hi(0x14000), %l7
    5cc0:	7f ff fe c3 	call  57cc <_nss_files_getgrgid_r+0x110>
    5cc4:	ae 05 e3 40 	add  %l7, 0x340, %l7	! 14340 <__FRAME_END__+0xb690>
    5cc8:	82 10 61 58 	or  %g1, 0x158, %g1
    5ccc:	c4 05 c0 01 	ld  [ %l7 + %g1 ], %g2
    5cd0:	80 a0 a0 00 	cmp  %g2, 0
    5cd4:	02 80 00 06 	be  5cec <_nss_files_getpwnam_r+0x38>
    5cd8:	a0 10 00 18 	mov  %i0, %l0
    5cdc:	03 00 00 00 	sethi  %hi(0), %g1
    5ce0:	82 10 60 b8 	or  %g1, 0xb8, %g1	! b8 <GLIBC_PRIVATE+0xb8>
    5ce4:	9f c0 80 00 	call  %g2
    5ce8:	d0 05 c0 01 	ld  [ %l7 + %g1 ], %o0
    5cec:	23 00 00 00 	sethi  %hi(0), %l1
    5cf0:	82 14 60 b4 	or  %l1, 0xb4, %g1	! b4 <GLIBC_PRIVATE+0xb4>
    5cf4:	c4 05 c0 01 	ld  [ %l7 + %g1 ], %g2
    5cf8:	7f ff fe b7 	call  57d4 <internal_setent>
    5cfc:	d0 00 80 00 	ld  [ %g2 ], %o0
    5d00:	80 a2 20 01 	cmp  %o0, 1
    5d04:	02 80 00 0c 	be  5d34 <_nss_files_getpwnam_r+0x80>
    5d08:	b0 10 00 08 	mov  %o0, %i0
    5d0c:	03 00 00 00 	sethi  %hi(0), %g1
    5d10:	82 10 61 64 	or  %g1, 0x164, %g1	! 164 <GLIBC_PRIVATE+0x164>
    5d14:	c4 05 c0 01 	ld  [ %l7 + %g1 ], %g2
    5d18:	80 a0 a0 00 	cmp  %g2, 0
    5d1c:	02 80 00 2d 	be  5dd0 <_nss_files_getpwnam_r+0x11c>
    5d20:	03 00 00 00 	sethi  %hi(0), %g1
    5d24:	82 10 60 b8 	or  %g1, 0xb8, %g1	! b8 <GLIBC_PRIVATE+0xb8>
    5d28:	9f c0 80 00 	call  %g2
    5d2c:	d0 05 c0 01 	ld  [ %l7 + %g1 ], %o0
    5d30:	30 80 00 28 	b,a   5dd0 <_nss_files_getpwnam_r+0x11c>
    5d34:	03 00 00 00 	sethi  %hi(0), %g1
    5d38:	82 10 60 c0 	or  %g1, 0xc0, %g1	! c0 <GLIBC_PRIVATE+0xc0>
    5d3c:	c6 05 c0 01 	ld  [ %l7 + %g1 ], %g3
    5d40:	84 10 20 02 	mov  2, %g2
    5d44:	c4 20 c0 00 	st  %g2, [ %g3 ]
    5d48:	92 10 00 1a 	mov  %i2, %o1
    5d4c:	94 10 00 1b 	mov  %i3, %o2
    5d50:	96 10 00 1c 	mov  %i4, %o3
    5d54:	7f ff ff 44 	call  5a64 <internal_getent>
    5d58:	90 10 00 19 	mov  %i1, %o0
    5d5c:	b0 10 00 08 	mov  %o0, %i0
    5d60:	80 a6 20 01 	cmp  %i0, 1
    5d64:	12 80 00 11 	bne  5da8 <_nss_files_getpwnam_r+0xf4>
    5d68:	90 10 00 10 	mov  %l0, %o0
    5d6c:	c2 4c 00 00 	ldsb  [ %l0 ], %g1
    5d70:	84 18 60 2b 	xor  %g1, 0x2b, %g2
    5d74:	80 a0 00 02 	cmp  %g0, %g2
    5d78:	86 40 20 00 	addx  %g0, 0, %g3
    5d7c:	82 18 60 2d 	xor  %g1, 0x2d, %g1
    5d80:	80 a0 00 01 	cmp  %g0, %g1
    5d84:	84 40 20 00 	addx  %g0, 0, %g2
    5d88:	80 88 c0 02 	btst  %g3, %g2
    5d8c:	02 bf ff f0 	be  5d4c <_nss_files_getpwnam_r+0x98>
    5d90:	92 10 00 1a 	mov  %i2, %o1
    5d94:	40 00 51 15 	call  1a1e8 <strcmp@plt>
    5d98:	d2 06 40 00 	ld  [ %i1 ], %o1
    5d9c:	80 a2 20 00 	cmp  %o0, 0
    5da0:	32 bf ff eb 	bne,a   5d4c <_nss_files_getpwnam_r+0x98>
    5da4:	92 10 00 1a 	mov  %i2, %o1
    5da8:	82 14 60 b4 	or  %l1, 0xb4, %g1
    5dac:	c4 05 c0 01 	ld  [ %l7 + %g1 ], %g2
    5db0:	c6 00 80 00 	ld  [ %g2 ], %g3
    5db4:	80 a0 e0 00 	cmp  %g3, 0
    5db8:	32 bf ff d6 	bne,a   5d10 <_nss_files_getpwnam_r+0x5c>
    5dbc:	03 00 00 00 	sethi  %hi(0), %g1
    5dc0:	7f ff fe fb 	call  59ac <internal_endent>
    5dc4:	01 00 00 00 	nop 
    5dc8:	10 bf ff d2 	b  5d10 <_nss_files_getpwnam_r+0x5c>
    5dcc:	03 00 00 00 	sethi  %hi(0), %g1
    5dd0:	81 c7 e0 08 	ret 
    5dd4:	81 e8 00 00 	restore 

00005dd8 <_nss_files_getpwuid_r>:
_nss_files_getpwuid_r():
    5dd8:	9d e3 bf 90 	save  %sp, -112, %sp
    5ddc:	03 00 00 00 	sethi  %hi(0), %g1
    5de0:	2f 00 00 50 	sethi  %hi(0x14000), %l7
    5de4:	7f ff fe 7a 	call  57cc <_nss_files_getgrgid_r+0x110>
    5de8:	ae 05 e2 1c 	add  %l7, 0x21c, %l7	! 1421c <__FRAME_END__+0xb56c>
    5dec:	82 10 61 58 	or  %g1, 0x158, %g1
    5df0:	c4 05 c0 01 	ld  [ %l7 + %g1 ], %g2
    5df4:	80 a0 a0 00 	cmp  %g2, 0
    5df8:	02 80 00 06 	be  5e10 <_nss_files_getpwuid_r+0x38>
    5dfc:	a0 10 00 18 	mov  %i0, %l0
    5e00:	03 00 00 00 	sethi  %hi(0), %g1
    5e04:	82 10 60 b8 	or  %g1, 0xb8, %g1	! b8 <GLIBC_PRIVATE+0xb8>
    5e08:	9f c0 80 00 	call  %g2
    5e0c:	d0 05 c0 01 	ld  [ %l7 + %g1 ], %o0
    5e10:	23 00 00 00 	sethi  %hi(0), %l1
    5e14:	82 14 60 b4 	or  %l1, 0xb4, %g1	! b4 <GLIBC_PRIVATE+0xb4>
    5e18:	c4 05 c0 01 	ld  [ %l7 + %g1 ], %g2
    5e1c:	7f ff fe 6e 	call  57d4 <internal_setent>
    5e20:	d0 00 80 00 	ld  [ %g2 ], %o0
    5e24:	80 a2 20 01 	cmp  %o0, 1
    5e28:	02 80 00 0c 	be  5e58 <_nss_files_getpwuid_r+0x80>
    5e2c:	b0 10 00 08 	mov  %o0, %i0
    5e30:	03 00 00 00 	sethi  %hi(0), %g1
    5e34:	82 10 61 64 	or  %g1, 0x164, %g1	! 164 <GLIBC_PRIVATE+0x164>
    5e38:	c4 05 c0 01 	ld  [ %l7 + %g1 ], %g2
    5e3c:	80 a0 a0 00 	cmp  %g2, 0
    5e40:	02 80 00 28 	be  5ee0 <_nss_files_getpwuid_r+0x108>
    5e44:	03 00 00 00 	sethi  %hi(0), %g1
    5e48:	82 10 60 b8 	or  %g1, 0xb8, %g1	! b8 <GLIBC_PRIVATE+0xb8>
    5e4c:	9f c0 80 00 	call  %g2
    5e50:	d0 05 c0 01 	ld  [ %l7 + %g1 ], %o0
    5e54:	30 80 00 23 	b,a   5ee0 <_nss_files_getpwuid_r+0x108>
    5e58:	03 00 00 00 	sethi  %hi(0), %g1
    5e5c:	82 10 60 c0 	or  %g1, 0xc0, %g1	! c0 <GLIBC_PRIVATE+0xc0>
    5e60:	c6 05 c0 01 	ld  [ %l7 + %g1 ], %g3
    5e64:	84 10 20 02 	mov  2, %g2
    5e68:	c4 20 c0 00 	st  %g2, [ %g3 ]
    5e6c:	90 10 00 19 	mov  %i1, %o0
    5e70:	92 10 00 1a 	mov  %i2, %o1
    5e74:	94 10 00 1b 	mov  %i3, %o2
    5e78:	7f ff fe fb 	call  5a64 <internal_getent>
    5e7c:	96 10 00 1c 	mov  %i4, %o3
    5e80:	80 a2 20 01 	cmp  %o0, 1
    5e84:	12 80 00 0d 	bne  5eb8 <_nss_files_getpwuid_r+0xe0>
    5e88:	b0 10 00 08 	mov  %o0, %i0
    5e8c:	c2 06 60 08 	ld  [ %i1 + 8 ], %g1
    5e90:	80 a0 40 10 	cmp  %g1, %l0
    5e94:	32 bf ff f7 	bne,a   5e70 <_nss_files_getpwuid_r+0x98>
    5e98:	90 10 00 19 	mov  %i1, %o0
    5e9c:	c2 06 40 00 	ld  [ %i1 ], %g1
    5ea0:	c2 48 40 00 	ldsb  [ %g1 ], %g1
    5ea4:	80 a0 60 2b 	cmp  %g1, 0x2b
    5ea8:	02 bf ff f1 	be  5e6c <_nss_files_getpwuid_r+0x94>
    5eac:	80 a0 60 2d 	cmp  %g1, 0x2d
    5eb0:	22 bf ff f0 	be,a   5e70 <_nss_files_getpwuid_r+0x98>
    5eb4:	90 10 00 19 	mov  %i1, %o0
    5eb8:	82 14 60 b4 	or  %l1, 0xb4, %g1
    5ebc:	c4 05 c0 01 	ld  [ %l7 + %g1 ], %g2
    5ec0:	c6 00 80 00 	ld  [ %g2 ], %g3
    5ec4:	80 a0 e0 00 	cmp  %g3, 0
    5ec8:	32 bf ff db 	bne,a   5e34 <_nss_files_getpwuid_r+0x5c>
    5ecc:	03 00 00 00 	sethi  %hi(0), %g1
    5ed0:	7f ff fe b7 	call  59ac <internal_endent>
    5ed4:	01 00 00 00 	nop 
    5ed8:	10 bf ff d7 	b  5e34 <_nss_files_getpwuid_r+0x5c>
    5edc:	03 00 00 00 	sethi  %hi(0), %g1
    5ee0:	81 c7 e0 08 	ret 
    5ee4:	81 e8 00 00 	restore 
    5ee8:	81 c3 e0 08 	retl 
    5eec:	ae 03 c0 17 	add  %o7, %l7, %l7

00005ef0 <_nss_files_parse_rpcent>:
_nss_files_parse_rpcent():
    5ef0:	9d e3 bf 88 	save  %sp, -120, %sp
    5ef4:	c4 4e 00 00 	ldsb  [ %i0 ], %g2
    5ef8:	2f 00 00 50 	sethi  %hi(0x14000), %l7
    5efc:	7f ff ff fb 	call  5ee8 <_nss_files_getpwuid_r+0x110>
    5f00:	ae 05 e1 04 	add  %l7, 0x104, %l7	! 14104 <__FRAME_END__+0xb454>
    5f04:	80 a0 a0 00 	cmp  %g2, 0
    5f08:	86 10 00 18 	mov  %i0, %g3
    5f0c:	02 80 00 0c 	be  5f3c <_nss_files_parse_rpcent+0x4c>
    5f10:	c2 0e 00 00 	ldub  [ %i0 ], %g1
    5f14:	80 a0 a0 23 	cmp  %g2, 0x23
    5f18:	02 80 00 70 	be  60d8 <_nss_files_parse_rpcent+0x1e8>
    5f1c:	80 a0 a0 0a 	cmp  %g2, 0xa
    5f20:	02 80 00 6f 	be  60dc <_nss_files_parse_rpcent+0x1ec>
    5f24:	83 28 60 18 	sll  %g1, 0x18, %g1
    5f28:	86 00 e0 01 	inc  %g3
    5f2c:	c4 48 c0 00 	ldsb  [ %g3 ], %g2
    5f30:	80 a0 a0 00 	cmp  %g2, 0
    5f34:	12 bf ff f8 	bne  5f14 <_nss_files_parse_rpcent+0x24>
    5f38:	c2 08 c0 00 	ldub  [ %g3 ], %g1
    5f3c:	10 80 00 0b 	b  5f68 <_nss_files_parse_rpcent+0x78>
    5f40:	f0 26 40 00 	st  %i0, [ %i1 ]
    5f44:	40 00 51 0f 	call  1a380 <__ctype_b_loc@plt>
    5f48:	01 00 00 00 	nop 
    5f4c:	82 04 00 10 	add  %l0, %l0, %g1
    5f50:	c4 02 00 00 	ld  [ %o0 ], %g2
    5f54:	c6 10 80 01 	lduh  [ %g2 + %g1 ], %g3
    5f58:	80 88 e0 20 	btst  0x20, %g3
    5f5c:	32 80 00 67 	bne,a   60f8 <_nss_files_parse_rpcent+0x208>
    5f60:	c0 2e 00 00 	clrb  [ %i0 ]
    5f64:	b0 06 20 01 	inc  %i0
    5f68:	e0 4e 00 00 	ldsb  [ %i0 ], %l0
    5f6c:	80 a4 20 00 	cmp  %l0, 0
    5f70:	12 bf ff f5 	bne  5f44 <_nss_files_parse_rpcent+0x54>
    5f74:	90 10 00 18 	mov  %i0, %o0
    5f78:	92 07 bf ec 	add  %fp, -20, %o1
    5f7c:	94 10 20 0a 	mov  0xa, %o2
    5f80:	40 00 50 f1 	call  1a344 <__strtoul_internal@plt>
    5f84:	96 10 20 00 	clr  %o3
    5f88:	e0 07 bf ec 	ld  [ %fp + -20 ], %l0
    5f8c:	80 a4 00 18 	cmp  %l0, %i0
    5f90:	d0 26 60 08 	st  %o0, [ %i1 + 8 ]
    5f94:	02 80 00 73 	be  6160 <_nss_files_parse_rpcent+0x270>
    5f98:	b0 10 20 00 	clr  %i0
    5f9c:	40 00 50 f9 	call  1a380 <__ctype_b_loc@plt>
    5fa0:	01 00 00 00 	nop 
    5fa4:	c8 4c 00 00 	ldsb  [ %l0 ], %g4
    5fa8:	c2 02 00 00 	ld  [ %o0 ], %g1
    5fac:	84 01 00 04 	add  %g4, %g4, %g2
    5fb0:	c6 10 40 02 	lduh  [ %g1 + %g2 ], %g3
    5fb4:	80 88 e0 20 	btst  0x20, %g3
    5fb8:	12 80 00 5a 	bne  6120 <_nss_files_parse_rpcent+0x230>
    5fbc:	80 a1 20 00 	cmp  %g4, 0
    5fc0:	12 80 00 68 	bne  6160 <_nss_files_parse_rpcent+0x270>
    5fc4:	80 a4 00 1a 	cmp  %l0, %i2
    5fc8:	0a 80 00 0a 	bcs  5ff0 <_nss_files_parse_rpcent+0x100>
    5fcc:	90 10 00 1a 	mov  %i2, %o0
    5fd0:	82 06 80 1b 	add  %i2, %i3, %g1
    5fd4:	80 a0 40 10 	cmp  %g1, %l0
    5fd8:	08 80 00 07 	bleu  5ff4 <_nss_files_parse_rpcent+0x104>
    5fdc:	90 02 20 03 	add  %o0, 3, %o0
    5fe0:	90 10 00 10 	mov  %l0, %o0
    5fe4:	40 00 50 72 	call  1a1ac <strchr@plt>
    5fe8:	92 10 20 00 	clr  %o1
    5fec:	90 02 20 01 	inc  %o0
    5ff0:	90 02 20 03 	add  %o0, 3, %o0
    5ff4:	aa 0a 3f fc 	and  %o0, -4, %l5
    5ff8:	a6 10 00 15 	mov  %l5, %l3
    5ffc:	a8 25 40 1a 	sub  %l5, %i2, %l4
    6000:	82 05 20 04 	add  %l4, 4, %g1
    6004:	80 a0 40 1b 	cmp  %g1, %i3
    6008:	18 80 00 31 	bgu  60cc <_nss_files_parse_rpcent+0x1dc>
    600c:	82 10 20 22 	mov  0x22, %g1
    6010:	c2 4c 00 00 	ldsb  [ %l0 ], %g1
    6014:	80 a0 60 00 	cmp  %g1, 0
    6018:	02 80 00 4d 	be  614c <_nss_files_parse_rpcent+0x25c>
    601c:	e2 0c 00 00 	ldub  [ %l0 ], %l1
    6020:	40 00 50 d8 	call  1a380 <__ctype_b_loc@plt>
    6024:	01 00 00 00 	nop 
    6028:	10 80 00 03 	b  6034 <_nss_files_parse_rpcent+0x144>
    602c:	d0 02 00 00 	ld  [ %o0 ], %o0
    6030:	e2 0c 00 00 	ldub  [ %l0 ], %l1
    6034:	83 2c 60 18 	sll  %l1, 0x18, %g1
    6038:	83 38 60 17 	sra  %g1, 0x17, %g1
    603c:	c4 12 00 01 	lduh  [ %o0 + %g1 ], %g2
    6040:	80 88 a0 20 	btst  0x20, %g2
    6044:	32 bf ff fb 	bne,a   6030 <_nss_files_parse_rpcent+0x140>
    6048:	a0 04 20 01 	inc  %l0
    604c:	10 80 00 0c 	b  607c <_nss_files_parse_rpcent+0x18c>
    6050:	a4 10 00 10 	mov  %l0, %l2
    6054:	40 00 50 cb 	call  1a380 <__ctype_b_loc@plt>
    6058:	01 00 00 00 	nop 
    605c:	c2 02 00 00 	ld  [ %o0 ], %g1
    6060:	84 06 00 18 	add  %i0, %i0, %g2
    6064:	c6 10 40 02 	lduh  [ %g1 + %g2 ], %g3
    6068:	80 88 e0 20 	btst  0x20, %g3
    606c:	12 80 00 09 	bne  6090 <_nss_files_parse_rpcent+0x1a0>
    6070:	80 a4 00 12 	cmp  %l0, %l2
    6074:	a0 04 20 01 	inc  %l0
    6078:	e2 0c 00 00 	ldub  [ %l0 ], %l1
    607c:	83 2c 60 18 	sll  %l1, 0x18, %g1
    6080:	b1 38 60 18 	sra  %g1, 0x18, %i0
    6084:	80 a6 20 00 	cmp  %i0, 0
    6088:	12 bf ff f3 	bne  6054 <_nss_files_parse_rpcent+0x164>
    608c:	80 a4 00 12 	cmp  %l0, %l2
    6090:	08 80 00 07 	bleu  60ac <_nss_files_parse_rpcent+0x1bc>
    6094:	83 2c 60 18 	sll  %l1, 0x18, %g1
    6098:	e4 24 c0 00 	st  %l2, [ %l3 ]
    609c:	a6 04 e0 04 	add  %l3, 4, %l3
    60a0:	a8 24 c0 1a 	sub  %l3, %i2, %l4
    60a4:	e2 0c 00 00 	ldub  [ %l0 ], %l1
    60a8:	83 2c 60 18 	sll  %l1, 0x18, %g1
    60ac:	80 a0 60 00 	cmp  %g1, 0
    60b0:	02 bf ff d5 	be  6004 <_nss_files_parse_rpcent+0x114>
    60b4:	82 05 20 04 	add  %l4, 4, %g1
    60b8:	c0 2c 00 00 	clrb  [ %l0 ]
    60bc:	80 a0 40 1b 	cmp  %g1, %i3
    60c0:	08 bf ff d4 	bleu  6010 <_nss_files_parse_rpcent+0x120>
    60c4:	a0 04 20 01 	inc  %l0
    60c8:	82 10 20 22 	mov  0x22, %g1
    60cc:	c2 27 00 00 	st  %g1, [ %i4 ]
    60d0:	10 80 00 24 	b  6160 <_nss_files_parse_rpcent+0x270>
    60d4:	b0 10 3f ff 	mov  -1, %i0
    60d8:	83 28 60 18 	sll  %g1, 0x18, %g1
    60dc:	80 a0 60 00 	cmp  %g1, 0
    60e0:	02 bf ff 97 	be  5f3c <_nss_files_parse_rpcent+0x4c>
    60e4:	82 90 e0 00 	orcc  %g3, 0, %g1
    60e8:	32 bf ff 95 	bne,a   5f3c <_nss_files_parse_rpcent+0x4c>
    60ec:	c0 28 40 00 	clrb  [ %g1 ]
    60f0:	10 bf ff 9e 	b  5f68 <_nss_files_parse_rpcent+0x78>
    60f4:	f0 26 40 00 	st  %i0, [ %i1 ]
    60f8:	d0 02 00 00 	ld  [ %o0 ], %o0
    60fc:	b0 06 20 01 	inc  %i0
    6100:	c2 4e 00 00 	ldsb  [ %i0 ], %g1
    6104:	82 00 40 01 	add  %g1, %g1, %g1
    6108:	c4 12 00 01 	lduh  [ %o0 + %g1 ], %g2
    610c:	80 88 a0 20 	btst  0x20, %g2
    6110:	32 bf ff fc 	bne,a   6100 <_nss_files_parse_rpcent+0x210>
    6114:	b0 06 20 01 	inc  %i0
    6118:	10 bf ff 98 	b  5f78 <_nss_files_parse_rpcent+0x88>
    611c:	90 10 00 18 	mov  %i0, %o0
    6120:	90 10 00 01 	mov  %g1, %o0
    6124:	a0 04 20 01 	inc  %l0
    6128:	e0 27 bf ec 	st  %l0, [ %fp + -20 ]
    612c:	c2 4c 00 00 	ldsb  [ %l0 ], %g1
    6130:	82 00 40 01 	add  %g1, %g1, %g1
    6134:	c4 12 00 01 	lduh  [ %o0 + %g1 ], %g2
    6138:	80 88 a0 20 	btst  0x20, %g2
    613c:	32 bf ff fb 	bne,a   6128 <_nss_files_parse_rpcent+0x238>
    6140:	a0 04 20 01 	inc  %l0
    6144:	10 bf ff a1 	b  5fc8 <_nss_files_parse_rpcent+0xd8>
    6148:	80 a4 00 1a 	cmp  %l0, %i2
    614c:	80 a5 60 00 	cmp  %l5, 0
    6150:	02 bf ff e0 	be  60d0 <_nss_files_parse_rpcent+0x1e0>
    6154:	c0 24 c0 00 	clr  [ %l3 ]
    6158:	ea 26 60 04 	st  %l5, [ %i1 + 4 ]
    615c:	b0 10 20 01 	mov  1, %i0
    6160:	81 c7 e0 08 	ret 
    6164:	81 e8 00 00 	restore 

00006168 <internal_setent>:
internal_setent():
    6168:	9d e3 bf 90 	save  %sp, -112, %sp
    616c:	25 00 00 00 	sethi  %hi(0), %l2
    6170:	2f 00 00 4f 	sethi  %hi(0x13c00), %l7
    6174:	7f ff ff 5d 	call  5ee8 <_nss_files_getpwuid_r+0x110>
    6178:	ae 05 e2 8c 	add  %l7, 0x28c, %l7	! 13e8c <__FRAME_END__+0xb1dc>
    617c:	82 14 a0 cc 	or  %l2, 0xcc, %g1
    6180:	e2 05 c0 01 	ld  [ %l7 + %g1 ], %l1
    6184:	07 00 00 00 	sethi  %hi(0), %g3
    6188:	05 00 00 00 	sethi  %hi(0), %g2
    618c:	d0 04 40 00 	ld  [ %l1 ], %o0
    6190:	a6 10 00 18 	mov  %i0, %l3
    6194:	86 10 e0 e0 	or  %g3, 0xe0, %g3
    6198:	84 10 a0 e4 	or  %g2, 0xe4, %g2
    619c:	80 a2 20 00 	cmp  %o0, 0
    61a0:	12 80 00 10 	bne  61e0 <internal_setent+0x78>
    61a4:	b0 10 20 01 	mov  1, %i0
    61a8:	d2 05 c0 02 	ld  [ %l7 + %g2 ], %o1
    61ac:	40 00 50 63 	call  1a338 <fopen@plt>
    61b0:	d0 05 c0 03 	ld  [ %l7 + %g3 ], %o0
    61b4:	82 92 20 00 	orcc  %o0, 0, %g1
    61b8:	12 80 00 18 	bne  6218 <internal_setent+0xb0>
    61bc:	c2 24 40 00 	st  %g1, [ %l1 ]
    61c0:	40 00 50 16 	call  1a218 <__errno_location@plt>
    61c4:	01 00 00 00 	nop 
    61c8:	c2 02 00 00 	ld  [ %o0 ], %g1
    61cc:	82 18 60 0b 	xor  %g1, 0xb, %g1
    61d0:	80 a0 00 01 	cmp  %g0, %g1
    61d4:	84 40 20 00 	addx  %g0, 0, %g2
    61d8:	10 80 00 04 	b  61e8 <internal_setent+0x80>
    61dc:	b0 00 bf fe 	add  %g2, -2, %i0
    61e0:	40 00 50 11 	call  1a224 <rewind@plt>
    61e4:	01 00 00 00 	nop 
    61e8:	82 14 a0 cc 	or  %l2, 0xcc, %g1
    61ec:	c4 05 c0 01 	ld  [ %l7 + %g1 ], %g2
    61f0:	09 00 00 00 	sethi  %hi(0), %g4
    61f4:	c6 00 80 00 	ld  [ %g2 ], %g3
    61f8:	80 a0 e0 00 	cmp  %g3, 0
    61fc:	02 80 00 1c 	be  626c <internal_setent+0x104>
    6200:	88 11 20 d0 	or  %g4, 0xd0, %g4
    6204:	c4 05 c0 04 	ld  [ %l7 + %g4 ], %g2
    6208:	c2 00 80 00 	ld  [ %g2 ], %g1
    620c:	82 10 40 13 	or  %g1, %l3, %g1
    6210:	10 80 00 17 	b  626c <internal_setent+0x104>
    6214:	c2 20 80 00 	st  %g1, [ %g2 ]
    6218:	40 00 4f f1 	call  1a1dc <fileno@plt>
    621c:	01 00 00 00 	nop 
    6220:	92 10 20 01 	mov  1, %o1	! 1 <GLIBC_PRIVATE+0x1>
    6224:	40 00 50 2a 	call  1a2cc <fcntl@plt>
    6228:	94 10 20 00 	clr  %o2
    622c:	a0 92 20 00 	orcc  %o0, 0, %l0
    6230:	06 80 00 0a 	bl  6258 <internal_setent+0xf0>
    6234:	a0 14 20 01 	or  %l0, 1, %l0
    6238:	40 00 4f e9 	call  1a1dc <fileno@plt>
    623c:	d0 04 40 00 	ld  [ %l1 ], %o0
    6240:	94 10 00 10 	mov  %l0, %o2
    6244:	40 00 50 22 	call  1a2cc <fcntl@plt>
    6248:	92 10 20 02 	mov  2, %o1
    624c:	80 a2 20 00 	cmp  %o0, 0
    6250:	16 bf ff e7 	bge  61ec <internal_setent+0x84>
    6254:	82 14 a0 cc 	or  %l2, 0xcc, %g1
    6258:	40 00 50 23 	call  1a2e4 <fclose@plt>
    625c:	d0 04 40 00 	ld  [ %l1 ], %o0
    6260:	c0 24 40 00 	clr  [ %l1 ]
    6264:	10 bf ff e1 	b  61e8 <internal_setent+0x80>
    6268:	b0 10 3f ff 	mov  -1, %i0
    626c:	81 c7 e0 08 	ret 
    6270:	81 e8 00 00 	restore 

00006274 <_nss_files_setrpcent>:
_nss_files_setrpcent():
    6274:	9d e3 bf 90 	save  %sp, -112, %sp
    6278:	03 00 00 00 	sethi  %hi(0), %g1
    627c:	2f 00 00 4f 	sethi  %hi(0x13c00), %l7
    6280:	7f ff ff 1a 	call  5ee8 <_nss_files_getpwuid_r+0x110>
    6284:	ae 05 e1 80 	add  %l7, 0x180, %l7	! 13d80 <__FRAME_END__+0xb0d0>
    6288:	82 10 61 58 	or  %g1, 0x158, %g1
    628c:	05 00 00 00 	sethi  %hi(0), %g2
    6290:	c2 05 c0 01 	ld  [ %l7 + %g1 ], %g1
    6294:	80 a0 60 00 	cmp  %g1, 0
    6298:	02 80 00 04 	be  62a8 <_nss_files_setrpcent+0x34>
    629c:	84 10 a0 d4 	or  %g2, 0xd4, %g2
    62a0:	9f c0 40 00 	call  %g1
    62a4:	d0 05 c0 02 	ld  [ %l7 + %g2 ], %o0
    62a8:	7f ff ff b0 	call  6168 <internal_setent>
    62ac:	90 10 00 18 	mov  %i0, %o0
    62b0:	05 00 00 00 	sethi  %hi(0), %g2
    62b4:	b0 10 00 08 	mov  %o0, %i0
    62b8:	80 a2 20 01 	cmp  %o0, 1
    62bc:	02 80 00 11 	be  6300 <_nss_files_setrpcent+0x8c>
    62c0:	84 10 a0 d8 	or  %g2, 0xd8, %g2
    62c4:	03 00 00 00 	sethi  %hi(0), %g1
    62c8:	82 10 60 dc 	or  %g1, 0xdc, %g1	! dc <GLIBC_PRIVATE+0xdc>
    62cc:	05 00 00 00 	sethi  %hi(0), %g2
    62d0:	c6 05 c0 01 	ld  [ %l7 + %g1 ], %g3
    62d4:	84 10 a1 64 	or  %g2, 0x164, %g2
    62d8:	09 00 00 00 	sethi  %hi(0), %g4
    62dc:	c4 05 c0 02 	ld  [ %l7 + %g2 ], %g2
    62e0:	82 10 20 01 	mov  1, %g1
    62e4:	88 11 20 d4 	or  %g4, 0xd4, %g4
    62e8:	80 a0 a0 00 	cmp  %g2, 0
    62ec:	02 80 00 13 	be  6338 <_nss_files_setrpcent+0xc4>
    62f0:	c2 20 c0 00 	st  %g1, [ %g3 ]
    62f4:	9f c0 80 00 	call  %g2
    62f8:	d0 05 c0 04 	ld  [ %l7 + %g4 ], %o0
    62fc:	30 80 00 0f 	b,a   6338 <_nss_files_setrpcent+0xc4>
    6300:	03 00 00 00 	sethi  %hi(0), %g1
    6304:	82 10 60 cc 	or  %g1, 0xcc, %g1	! cc <GLIBC_PRIVATE+0xcc>
    6308:	e0 05 c0 01 	ld  [ %l7 + %g1 ], %l0
    630c:	d2 05 c0 02 	ld  [ %l7 + %g2 ], %o1
    6310:	40 00 50 10 	call  1a350 <fgetpos@plt>
    6314:	d0 04 00 00 	ld  [ %l0 ], %o0
    6318:	80 a2 20 00 	cmp  %o0, 0
    631c:	16 bf ff eb 	bge  62c8 <_nss_files_setrpcent+0x54>
    6320:	03 00 00 00 	sethi  %hi(0), %g1
    6324:	40 00 4f f0 	call  1a2e4 <fclose@plt>
    6328:	d0 04 00 00 	ld  [ %l0 ], %o0
    632c:	c0 24 00 00 	clr  [ %l0 ]
    6330:	10 bf ff e5 	b  62c4 <_nss_files_setrpcent+0x50>
    6334:	b0 10 3f ff 	mov  -1, %i0
    6338:	81 c7 e0 08 	ret 
    633c:	81 e8 00 00 	restore 

00006340 <internal_endent>:
internal_endent():
    6340:	9d e3 bf 90 	save  %sp, -112, %sp
    6344:	03 00 00 00 	sethi  %hi(0), %g1
    6348:	2f 00 00 4f 	sethi  %hi(0x13c00), %l7
    634c:	7f ff fe e7 	call  5ee8 <_nss_files_getpwuid_r+0x110>
    6350:	ae 05 e0 b4 	add  %l7, 0xb4, %l7	! 13cb4 <__FRAME_END__+0xb004>
    6354:	82 10 60 cc 	or  %g1, 0xcc, %g1
    6358:	e0 05 c0 01 	ld  [ %l7 + %g1 ], %l0
    635c:	c4 04 00 00 	ld  [ %l0 ], %g2
    6360:	90 90 a0 00 	orcc  %g2, 0, %o0
    6364:	02 80 00 05 	be  6378 <internal_endent+0x38>
    6368:	01 00 00 00 	nop 
    636c:	40 00 4f de 	call  1a2e4 <fclose@plt>
    6370:	01 00 00 00 	nop 
    6374:	c0 24 00 00 	clr  [ %l0 ]
    6378:	81 c7 e0 08 	ret 
    637c:	81 e8 00 00 	restore 

00006380 <_nss_files_endrpcent>:
_nss_files_endrpcent():
    6380:	9d e3 bf 90 	save  %sp, -112, %sp
    6384:	03 00 00 00 	sethi  %hi(0), %g1
    6388:	2f 00 00 4f 	sethi  %hi(0x13c00), %l7
    638c:	7f ff fe d7 	call  5ee8 <_nss_files_getpwuid_r+0x110>
    6390:	ae 05 e0 74 	add  %l7, 0x74, %l7	! 13c74 <__FRAME_END__+0xafc4>
    6394:	82 10 61 58 	or  %g1, 0x158, %g1
    6398:	05 00 00 00 	sethi  %hi(0), %g2
    639c:	c2 05 c0 01 	ld  [ %l7 + %g1 ], %g1
    63a0:	80 a0 60 00 	cmp  %g1, 0
    63a4:	02 80 00 04 	be  63b4 <_nss_files_endrpcent+0x34>
    63a8:	84 10 a0 d4 	or  %g2, 0xd4, %g2
    63ac:	9f c0 40 00 	call  %g1
    63b0:	d0 05 c0 02 	ld  [ %l7 + %g2 ], %o0
    63b4:	7f ff ff e3 	call  6340 <internal_endent>
    63b8:	01 00 00 00 	nop 
    63bc:	03 00 00 00 	sethi  %hi(0), %g1
    63c0:	82 10 60 d0 	or  %g1, 0xd0, %g1	! d0 <GLIBC_PRIVATE+0xd0>
    63c4:	05 00 00 00 	sethi  %hi(0), %g2
    63c8:	c6 05 c0 01 	ld  [ %l7 + %g1 ], %g3
    63cc:	84 10 a1 64 	or  %g2, 0x164, %g2
    63d0:	09 00 00 00 	sethi  %hi(0), %g4
    63d4:	c2 05 c0 02 	ld  [ %l7 + %g2 ], %g1
    63d8:	88 11 20 d4 	or  %g4, 0xd4, %g4
    63dc:	80 a0 60 00 	cmp  %g1, 0
    63e0:	02 80 00 04 	be  63f0 <_nss_files_endrpcent+0x70>
    63e4:	c0 20 c0 00 	clr  [ %g3 ]
    63e8:	9f c0 40 00 	call  %g1
    63ec:	d0 05 c0 04 	ld  [ %l7 + %g4 ], %o0
    63f0:	81 c7 e0 08 	ret 
    63f4:	91 e8 20 01 	restore  %g0, 1, %o0

000063f8 <internal_getent>:
internal_getent():
    63f8:	9d e3 bf 90 	save  %sp, -112, %sp
    63fc:	2f 00 00 4f 	sethi  %hi(0x13c00), %l7
    6400:	7f ff fe ba 	call  5ee8 <_nss_files_getpwuid_r+0x110>
    6404:	ae 05 e0 00 	add  %l7, 0, %l7	! 13c00 <__FRAME_END__+0xaf50>
    6408:	80 a6 a0 01 	cmp  %i2, 1
    640c:	08 80 00 32 	bleu  64d4 <internal_getent+0xdc>
    6410:	a4 10 00 1a 	mov  %i2, %l2
    6414:	03 00 00 00 	sethi  %hi(0), %g1
    6418:	82 10 60 cc 	or  %g1, 0xcc, %g1	! cc <GLIBC_PRIVATE+0xcc>
    641c:	e6 05 c0 01 	ld  [ %l7 + %g1 ], %l3
    6420:	a2 06 40 1a 	add  %i1, %i2, %l1
    6424:	82 10 3f ff 	mov  -1, %g1
    6428:	c2 2c 7f ff 	stb  %g1, [ %l1 + -1 ]
    642c:	90 10 00 19 	mov  %i1, %o0
    6430:	92 10 00 12 	mov  %l2, %o1
    6434:	40 00 4f 82 	call  1a23c <fgets_unlocked@plt>
    6438:	d4 04 c0 00 	ld  [ %l3 ], %o2
    643c:	a0 92 20 00 	orcc  %o0, 0, %l0
    6440:	22 80 00 28 	be,a   64e0 <internal_getent+0xe8>
    6444:	b0 10 20 00 	clr  %i0
    6448:	c2 0c 7f ff 	ldub  [ %l1 + -1 ], %g1
    644c:	80 a0 60 ff 	cmp  %g1, 0xff
    6450:	12 80 00 22 	bne  64d8 <internal_getent+0xe0>
    6454:	82 10 20 22 	mov  0x22, %g1
    6458:	40 00 4f ca 	call  1a380 <__ctype_b_loc@plt>
    645c:	01 00 00 00 	nop 
    6460:	d0 02 00 00 	ld  [ %o0 ], %o0
    6464:	c6 4c 00 00 	ldsb  [ %l0 ], %g3
    6468:	82 00 c0 03 	add  %g3, %g3, %g1
    646c:	c4 12 00 01 	lduh  [ %o0 + %g1 ], %g2
    6470:	80 88 a0 20 	btst  0x20, %g2
    6474:	32 bf ff fc 	bne,a   6464 <internal_getent+0x6c>
    6478:	a0 04 20 01 	inc  %l0
    647c:	80 a0 00 03 	cmp  %g0, %g3
    6480:	82 60 3f ff 	subx  %g0, -1, %g1
    6484:	84 18 e0 23 	xor  %g3, 0x23, %g2
    6488:	80 a0 00 02 	cmp  %g0, %g2
    648c:	86 60 3f ff 	subx  %g0, -1, %g3
    6490:	80 90 40 03 	orcc  %g1, %g3, %g0
    6494:	12 bf ff e5 	bne  6428 <internal_getent+0x30>
    6498:	82 10 3f ff 	mov  -1, %g1
    649c:	90 10 00 10 	mov  %l0, %o0
    64a0:	92 10 00 18 	mov  %i0, %o1
    64a4:	94 10 00 19 	mov  %i1, %o2
    64a8:	96 10 00 1a 	mov  %i2, %o3
    64ac:	7f ff fe 91 	call  5ef0 <_nss_files_parse_rpcent>
    64b0:	98 10 00 1b 	mov  %i3, %o4
    64b4:	80 a2 20 00 	cmp  %o0, 0
    64b8:	02 bf ff dc 	be  6428 <internal_getent+0x30>
    64bc:	82 10 3f ff 	mov  -1, %g1
    64c0:	80 a2 3f ff 	cmp  %o0, -1
    64c4:	02 80 00 07 	be  64e0 <internal_getent+0xe8>
    64c8:	b0 10 3f fe 	mov  -2, %i0
    64cc:	10 80 00 05 	b  64e0 <internal_getent+0xe8>
    64d0:	b0 10 20 01 	mov  1, %i0
    64d4:	82 10 20 22 	mov  0x22, %g1
    64d8:	c2 26 c0 00 	st  %g1, [ %i3 ]
    64dc:	b0 10 3f fe 	mov  -2, %i0
    64e0:	81 c7 e0 08 	ret 
    64e4:	81 e8 00 00 	restore 

000064e8 <_nss_files_getrpcent_r>:
_nss_files_getrpcent_r():
    64e8:	9d e3 bf 90 	save  %sp, -112, %sp
    64ec:	03 00 00 00 	sethi  %hi(0), %g1
    64f0:	2f 00 00 4e 	sethi  %hi(0x13800), %l7
    64f4:	7f ff fe 7d 	call  5ee8 <_nss_files_getpwuid_r+0x110>
    64f8:	ae 05 e3 0c 	add  %l7, 0x30c, %l7	! 13b0c <__FRAME_END__+0xae5c>
    64fc:	82 10 61 58 	or  %g1, 0x158, %g1
    6500:	c4 05 c0 01 	ld  [ %l7 + %g1 ], %g2
    6504:	a6 10 00 18 	mov  %i0, %l3
    6508:	80 a0 a0 00 	cmp  %g2, 0
    650c:	02 80 00 06 	be  6524 <_nss_files_getrpcent_r+0x3c>
    6510:	b0 10 20 01 	mov  1, %i0
    6514:	03 00 00 00 	sethi  %hi(0), %g1
    6518:	82 10 60 d4 	or  %g1, 0xd4, %g1	! d4 <GLIBC_PRIVATE+0xd4>
    651c:	9f c0 80 00 	call  %g2
    6520:	d0 05 c0 01 	ld  [ %l7 + %g1 ], %o0
    6524:	23 00 00 00 	sethi  %hi(0), %l1
    6528:	82 14 60 cc 	or  %l1, 0xcc, %g1	! cc <GLIBC_PRIVATE+0xcc>
    652c:	e0 05 c0 01 	ld  [ %l7 + %g1 ], %l0
    6530:	c4 04 00 00 	ld  [ %l0 ], %g2
    6534:	80 a0 a0 00 	cmp  %g2, 0
    6538:	02 80 00 27 	be  65d4 <_nss_files_getrpcent_r+0xec>
    653c:	25 00 00 00 	sethi  %hi(0), %l2
    6540:	82 14 a0 dc 	or  %l2, 0xdc, %g1	! dc <GLIBC_PRIVATE+0xdc>
    6544:	e0 05 c0 01 	ld  [ %l7 + %g1 ], %l0
    6548:	c4 04 00 00 	ld  [ %l0 ], %g2
    654c:	80 a0 a0 01 	cmp  %g2, 1
    6550:	02 80 00 0c 	be  6580 <_nss_files_getrpcent_r+0x98>
    6554:	82 14 60 cc 	or  %l1, 0xcc, %g1
    6558:	05 00 00 00 	sethi  %hi(0), %g2
    655c:	c6 05 c0 01 	ld  [ %l7 + %g1 ], %g3
    6560:	84 10 a0 d8 	or  %g2, 0xd8, %g2
    6564:	d0 00 c0 00 	ld  [ %g3 ], %o0
    6568:	40 00 4f 26 	call  1a200 <fsetpos@plt>
    656c:	d2 05 c0 02 	ld  [ %l7 + %g2 ], %o1
    6570:	80 a2 20 00 	cmp  %o0, 0
    6574:	26 80 00 0e 	bl,a   65ac <_nss_files_getrpcent_r+0xc4>
    6578:	b0 10 3f ff 	mov  -1, %i0
    657c:	f0 24 00 00 	st  %i0, [ %l0 ]
    6580:	90 10 00 13 	mov  %l3, %o0
    6584:	92 10 00 19 	mov  %i1, %o1
    6588:	94 10 00 1a 	mov  %i2, %o2
    658c:	7f ff ff 9b 	call  63f8 <internal_getent>
    6590:	96 10 00 1b 	mov  %i3, %o3
    6594:	80 a2 20 01 	cmp  %o0, 1
    6598:	02 80 00 21 	be  661c <_nss_files_getrpcent_r+0x134>
    659c:	b0 10 00 08 	mov  %o0, %i0
    65a0:	82 14 a0 dc 	or  %l2, 0xdc, %g1
    65a4:	c4 05 c0 01 	ld  [ %l7 + %g1 ], %g2
    65a8:	c0 20 80 00 	clr  [ %g2 ]
    65ac:	03 00 00 00 	sethi  %hi(0), %g1
    65b0:	82 10 61 64 	or  %g1, 0x164, %g1	! 164 <GLIBC_PRIVATE+0x164>
    65b4:	c4 05 c0 01 	ld  [ %l7 + %g1 ], %g2
    65b8:	80 a0 a0 00 	cmp  %g2, 0
    65bc:	02 80 00 21 	be  6640 <_nss_files_getrpcent_r+0x158>
    65c0:	03 00 00 00 	sethi  %hi(0), %g1
    65c4:	82 10 60 d4 	or  %g1, 0xd4, %g1	! d4 <GLIBC_PRIVATE+0xd4>
    65c8:	9f c0 80 00 	call  %g2
    65cc:	d0 05 c0 01 	ld  [ %l7 + %g1 ], %o0
    65d0:	30 80 00 1c 	b,a   6640 <_nss_files_getrpcent_r+0x158>
    65d4:	7f ff fe e5 	call  6168 <internal_setent>
    65d8:	90 10 20 00 	clr  %o0
    65dc:	80 a2 20 01 	cmp  %o0, 1
    65e0:	12 bf ff f3 	bne  65ac <_nss_files_getrpcent_r+0xc4>
    65e4:	b0 10 00 08 	mov  %o0, %i0
    65e8:	03 00 00 00 	sethi  %hi(0), %g1
    65ec:	82 10 60 d8 	or  %g1, 0xd8, %g1	! d8 <GLIBC_PRIVATE+0xd8>
    65f0:	d2 05 c0 01 	ld  [ %l7 + %g1 ], %o1
    65f4:	40 00 4f 57 	call  1a350 <fgetpos@plt>
    65f8:	d0 04 00 00 	ld  [ %l0 ], %o0
    65fc:	80 a2 20 00 	cmp  %o0, 0
    6600:	16 bf ff d0 	bge  6540 <_nss_files_getrpcent_r+0x58>
    6604:	25 00 00 00 	sethi  %hi(0), %l2
    6608:	40 00 4f 37 	call  1a2e4 <fclose@plt>
    660c:	d0 04 00 00 	ld  [ %l0 ], %o0
    6610:	c0 24 00 00 	clr  [ %l0 ]
    6614:	10 bf ff e6 	b  65ac <_nss_files_getrpcent_r+0xc4>
    6618:	b0 10 3f ff 	mov  -1, %i0
    661c:	82 14 60 cc 	or  %l1, 0xcc, %g1
    6620:	05 00 00 00 	sethi  %hi(0), %g2
    6624:	c6 05 c0 01 	ld  [ %l7 + %g1 ], %g3
    6628:	84 10 a0 d8 	or  %g2, 0xd8, %g2
    662c:	d0 00 c0 00 	ld  [ %g3 ], %o0
    6630:	40 00 4f 48 	call  1a350 <fgetpos@plt>
    6634:	d2 05 c0 02 	ld  [ %l7 + %g2 ], %o1
    6638:	10 bf ff de 	b  65b0 <_nss_files_getrpcent_r+0xc8>
    663c:	03 00 00 00 	sethi  %hi(0), %g1
    6640:	81 c7 e0 08 	ret 
    6644:	81 e8 00 00 	restore 

00006648 <_nss_files_getrpcbyname_r>:
_nss_files_getrpcbyname_r():
    6648:	9d e3 bf 90 	save  %sp, -112, %sp
    664c:	03 00 00 00 	sethi  %hi(0), %g1
    6650:	2f 00 00 4e 	sethi  %hi(0x13800), %l7
    6654:	7f ff fe 25 	call  5ee8 <_nss_files_getpwuid_r+0x110>
    6658:	ae 05 e1 ac 	add  %l7, 0x1ac, %l7	! 139ac <__FRAME_END__+0xacfc>
    665c:	82 10 61 58 	or  %g1, 0x158, %g1
    6660:	c4 05 c0 01 	ld  [ %l7 + %g1 ], %g2
    6664:	80 a0 a0 00 	cmp  %g2, 0
    6668:	02 80 00 06 	be  6680 <_nss_files_getrpcbyname_r+0x38>
    666c:	a4 10 00 18 	mov  %i0, %l2
    6670:	03 00 00 00 	sethi  %hi(0), %g1
    6674:	82 10 60 d4 	or  %g1, 0xd4, %g1	! d4 <GLIBC_PRIVATE+0xd4>
    6678:	9f c0 80 00 	call  %g2
    667c:	d0 05 c0 01 	ld  [ %l7 + %g1 ], %o0
    6680:	27 00 00 00 	sethi  %hi(0), %l3
    6684:	82 14 e0 d0 	or  %l3, 0xd0, %g1	! d0 <GLIBC_PRIVATE+0xd0>
    6688:	c4 05 c0 01 	ld  [ %l7 + %g1 ], %g2
    668c:	7f ff fe b7 	call  6168 <internal_setent>
    6690:	d0 00 80 00 	ld  [ %g2 ], %o0
    6694:	80 a2 20 01 	cmp  %o0, 1
    6698:	02 80 00 0c 	be  66c8 <_nss_files_getrpcbyname_r+0x80>
    669c:	b0 10 00 08 	mov  %o0, %i0
    66a0:	03 00 00 00 	sethi  %hi(0), %g1
    66a4:	82 10 61 64 	or  %g1, 0x164, %g1	! 164 <GLIBC_PRIVATE+0x164>
    66a8:	c4 05 c0 01 	ld  [ %l7 + %g1 ], %g2
    66ac:	80 a0 a0 00 	cmp  %g2, 0
    66b0:	02 80 00 31 	be  6774 <_nss_files_getrpcbyname_r+0x12c>
    66b4:	03 00 00 00 	sethi  %hi(0), %g1
    66b8:	82 10 60 d4 	or  %g1, 0xd4, %g1	! d4 <GLIBC_PRIVATE+0xd4>
    66bc:	9f c0 80 00 	call  %g2
    66c0:	d0 05 c0 01 	ld  [ %l7 + %g1 ], %o0
    66c4:	30 80 00 2c 	b,a   6774 <_nss_files_getrpcbyname_r+0x12c>
    66c8:	03 00 00 00 	sethi  %hi(0), %g1
    66cc:	82 10 60 dc 	or  %g1, 0xdc, %g1	! dc <GLIBC_PRIVATE+0xdc>
    66d0:	c6 05 c0 01 	ld  [ %l7 + %g1 ], %g3
    66d4:	84 10 20 02 	mov  2, %g2
    66d8:	c4 20 c0 00 	st  %g2, [ %g3 ]
    66dc:	90 10 00 19 	mov  %i1, %o0
    66e0:	92 10 00 1a 	mov  %i2, %o1
    66e4:	94 10 00 1b 	mov  %i3, %o2
    66e8:	7f ff ff 44 	call  63f8 <internal_getent>
    66ec:	96 10 00 1c 	mov  %i4, %o3
    66f0:	80 a2 20 01 	cmp  %o0, 1
    66f4:	12 80 00 16 	bne  674c <_nss_files_getrpcbyname_r+0x104>
    66f8:	b0 10 00 08 	mov  %o0, %i0
    66fc:	90 10 00 12 	mov  %l2, %o0
    6700:	40 00 4e ba 	call  1a1e8 <strcmp@plt>
    6704:	d2 06 40 00 	ld  [ %i1 ], %o1
    6708:	80 a2 20 00 	cmp  %o0, 0
    670c:	02 80 00 11 	be  6750 <_nss_files_getrpcbyname_r+0x108>
    6710:	82 14 e0 d0 	or  %l3, 0xd0, %g1
    6714:	e0 06 60 04 	ld  [ %i1 + 4 ], %l0
    6718:	e2 04 00 00 	ld  [ %l0 ], %l1
    671c:	80 a4 60 00 	cmp  %l1, 0
    6720:	02 bf ff f0 	be  66e0 <_nss_files_getrpcbyname_r+0x98>
    6724:	90 10 00 19 	mov  %i1, %o0
    6728:	d2 04 00 00 	ld  [ %l0 ], %o1
    672c:	40 00 4e af 	call  1a1e8 <strcmp@plt>
    6730:	90 10 00 12 	mov  %l2, %o0
    6734:	80 a2 20 00 	cmp  %o0, 0
    6738:	12 bf ff f8 	bne  6718 <_nss_files_getrpcbyname_r+0xd0>
    673c:	a0 04 20 04 	add  %l0, 4, %l0
    6740:	80 a4 60 00 	cmp  %l1, 0
    6744:	02 bf ff e7 	be  66e0 <_nss_files_getrpcbyname_r+0x98>
    6748:	90 10 00 19 	mov  %i1, %o0
    674c:	82 14 e0 d0 	or  %l3, 0xd0, %g1
    6750:	c4 05 c0 01 	ld  [ %l7 + %g1 ], %g2
    6754:	c6 00 80 00 	ld  [ %g2 ], %g3
    6758:	80 a0 e0 00 	cmp  %g3, 0
    675c:	32 bf ff d2 	bne,a   66a4 <_nss_files_getrpcbyname_r+0x5c>
    6760:	03 00 00 00 	sethi  %hi(0), %g1
    6764:	7f ff fe f7 	call  6340 <internal_endent>
    6768:	01 00 00 00 	nop 
    676c:	10 bf ff ce 	b  66a4 <_nss_files_getrpcbyname_r+0x5c>
    6770:	03 00 00 00 	sethi  %hi(0), %g1
    6774:	81 c7 e0 08 	ret 
    6778:	81 e8 00 00 	restore 

0000677c <_nss_files_getrpcbynumber_r>:
_nss_files_getrpcbynumber_r():
    677c:	9d e3 bf 90 	save  %sp, -112, %sp
    6780:	03 00 00 00 	sethi  %hi(0), %g1
    6784:	2f 00 00 4e 	sethi  %hi(0x13800), %l7
    6788:	7f ff fd d8 	call  5ee8 <_nss_files_getpwuid_r+0x110>
    678c:	ae 05 e0 78 	add  %l7, 0x78, %l7	! 13878 <__FRAME_END__+0xabc8>
    6790:	82 10 61 58 	or  %g1, 0x158, %g1
    6794:	c4 05 c0 01 	ld  [ %l7 + %g1 ], %g2
    6798:	80 a0 a0 00 	cmp  %g2, 0
    679c:	02 80 00 06 	be  67b4 <_nss_files_getrpcbynumber_r+0x38>
    67a0:	a2 10 00 18 	mov  %i0, %l1
    67a4:	03 00 00 00 	sethi  %hi(0), %g1
    67a8:	82 10 60 d4 	or  %g1, 0xd4, %g1	! d4 <GLIBC_PRIVATE+0xd4>
    67ac:	9f c0 80 00 	call  %g2
    67b0:	d0 05 c0 01 	ld  [ %l7 + %g1 ], %o0
    67b4:	21 00 00 00 	sethi  %hi(0), %l0
    67b8:	82 14 20 d0 	or  %l0, 0xd0, %g1	! d0 <GLIBC_PRIVATE+0xd0>
    67bc:	c4 05 c0 01 	ld  [ %l7 + %g1 ], %g2
    67c0:	7f ff fe 6a 	call  6168 <internal_setent>
    67c4:	d0 00 80 00 	ld  [ %g2 ], %o0
    67c8:	80 a2 20 01 	cmp  %o0, 1
    67cc:	02 80 00 0c 	be  67fc <_nss_files_getrpcbynumber_r+0x80>
    67d0:	b0 10 00 08 	mov  %o0, %i0
    67d4:	03 00 00 00 	sethi  %hi(0), %g1
    67d8:	82 10 61 64 	or  %g1, 0x164, %g1	! 164 <GLIBC_PRIVATE+0x164>
    67dc:	c4 05 c0 01 	ld  [ %l7 + %g1 ], %g2
    67e0:	80 a0 a0 00 	cmp  %g2, 0
    67e4:	02 80 00 21 	be  6868 <_nss_files_getrpcbynumber_r+0xec>
    67e8:	03 00 00 00 	sethi  %hi(0), %g1
    67ec:	82 10 60 d4 	or  %g1, 0xd4, %g1	! d4 <GLIBC_PRIVATE+0xd4>
    67f0:	9f c0 80 00 	call  %g2
    67f4:	d0 05 c0 01 	ld  [ %l7 + %g1 ], %o0
    67f8:	30 80 00 1c 	b,a   6868 <_nss_files_getrpcbynumber_r+0xec>
    67fc:	03 00 00 00 	sethi  %hi(0), %g1
    6800:	82 10 60 dc 	or  %g1, 0xdc, %g1	! dc <GLIBC_PRIVATE+0xdc>
    6804:	c6 05 c0 01 	ld  [ %l7 + %g1 ], %g3
    6808:	84 10 20 02 	mov  2, %g2
    680c:	c4 20 c0 00 	st  %g2, [ %g3 ]
    6810:	90 10 00 19 	mov  %i1, %o0
    6814:	92 10 00 1a 	mov  %i2, %o1
    6818:	94 10 00 1b 	mov  %i3, %o2
    681c:	7f ff fe f7 	call  63f8 <internal_getent>
    6820:	96 10 00 1c 	mov  %i4, %o3
    6824:	80 a2 20 01 	cmp  %o0, 1
    6828:	12 80 00 06 	bne  6840 <_nss_files_getrpcbynumber_r+0xc4>
    682c:	b0 10 00 08 	mov  %o0, %i0
    6830:	c2 06 60 08 	ld  [ %i1 + 8 ], %g1
    6834:	80 a0 40 11 	cmp  %g1, %l1
    6838:	32 bf ff f7 	bne,a   6814 <_nss_files_getrpcbynumber_r+0x98>
    683c:	90 10 00 19 	mov  %i1, %o0
    6840:	82 14 20 d0 	or  %l0, 0xd0, %g1
    6844:	c4 05 c0 01 	ld  [ %l7 + %g1 ], %g2
    6848:	c6 00 80 00 	ld  [ %g2 ], %g3
    684c:	80 a0 e0 00 	cmp  %g3, 0
    6850:	32 bf ff e2 	bne,a   67d8 <_nss_files_getrpcbynumber_r+0x5c>
    6854:	03 00 00 00 	sethi  %hi(0), %g1
    6858:	7f ff fe ba 	call  6340 <internal_endent>
    685c:	01 00 00 00 	nop 
    6860:	10 bf ff de 	b  67d8 <_nss_files_getrpcbynumber_r+0x5c>
    6864:	03 00 00 00 	sethi  %hi(0), %g1
    6868:	81 c7 e0 08 	ret 
    686c:	81 e8 00 00 	restore 
    6870:	81 c3 e0 08 	retl 
    6874:	ae 03 c0 17 	add  %o7, %l7, %l7

00006878 <_nss_files_parse_etherent>:
_nss_files_parse_etherent():
    6878:	9d e3 bf 88 	save  %sp, -120, %sp
    687c:	c4 4e 00 00 	ldsb  [ %i0 ], %g2
    6880:	2f 00 00 4d 	sethi  %hi(0x13400), %l7
    6884:	7f ff ff fb 	call  6870 <_nss_files_getrpcbynumber_r+0xf4>
    6888:	ae 05 e3 7c 	add  %l7, 0x37c, %l7	! 1377c <__FRAME_END__+0xaacc>
    688c:	80 a0 a0 00 	cmp  %g2, 0
    6890:	86 10 00 18 	mov  %i0, %g3
    6894:	02 80 00 0c 	be  68c4 <_nss_files_parse_etherent+0x4c>
    6898:	c2 0e 00 00 	ldub  [ %i0 ], %g1
    689c:	80 a0 a0 23 	cmp  %g2, 0x23
    68a0:	02 80 00 57 	be  69fc <_nss_files_parse_etherent+0x184>
    68a4:	80 a0 a0 0a 	cmp  %g2, 0xa
    68a8:	02 80 00 56 	be  6a00 <_nss_files_parse_etherent+0x188>
    68ac:	83 28 60 18 	sll  %g1, 0x18, %g1
    68b0:	86 00 e0 01 	inc  %g3
    68b4:	c4 48 c0 00 	ldsb  [ %g3 ], %g2
    68b8:	80 a0 a0 00 	cmp  %g2, 0
    68bc:	12 bf ff f8 	bne  689c <_nss_files_parse_etherent+0x24>
    68c0:	c2 08 c0 00 	ldub  [ %g3 ], %g1
    68c4:	a4 10 20 00 	clr  %l2
    68c8:	80 a4 a0 04 	cmp  %l2, 4
    68cc:	18 80 00 29 	bgu  6970 <_nss_files_parse_etherent+0xf8>
    68d0:	90 10 00 18 	mov  %i0, %o0
    68d4:	92 07 bf ec 	add  %fp, -20, %o1
    68d8:	94 10 20 10 	mov  0x10, %o2
    68dc:	40 00 4e 9a 	call  1a344 <__strtoul_internal@plt>
    68e0:	96 10 20 00 	clr  %o3
    68e4:	c2 07 bf ec 	ld  [ %fp + -20 ], %g1
    68e8:	80 a0 40 18 	cmp  %g1, %i0
    68ec:	02 80 00 4c 	be  6a1c <_nss_files_parse_etherent+0x1a4>
    68f0:	a2 10 00 08 	mov  %o0, %l1
    68f4:	c4 48 40 00 	ldsb  [ %g1 ], %g2
    68f8:	80 a0 a0 3a 	cmp  %g2, 0x3a
    68fc:	02 80 00 3d 	be  69f0 <_nss_files_parse_etherent+0x178>
    6900:	80 a0 a0 00 	cmp  %g2, 0
    6904:	12 80 00 51 	bne  6a48 <_nss_files_parse_etherent+0x1d0>
    6908:	b0 10 20 00 	clr  %i0
    690c:	b0 10 00 01 	mov  %g1, %i0
    6910:	80 a4 60 ff 	cmp  %l1, 0xff
    6914:	18 80 00 42 	bgu  6a1c <_nss_files_parse_etherent+0x1a4>
    6918:	82 06 40 12 	add  %i1, %l2, %g1
    691c:	a4 04 a0 01 	inc  %l2
    6920:	80 a4 a0 05 	cmp  %l2, 5
    6924:	08 bf ff e9 	bleu  68c8 <_nss_files_parse_etherent+0x50>
    6928:	e2 28 60 04 	stb  %l1, [ %g1 + 4 ]
    692c:	10 80 00 0b 	b  6958 <_nss_files_parse_etherent+0xe0>
    6930:	f0 26 40 00 	st  %i0, [ %i1 ]
    6934:	40 00 4e 93 	call  1a380 <__ctype_b_loc@plt>
    6938:	01 00 00 00 	nop 
    693c:	82 04 00 10 	add  %l0, %l0, %g1
    6940:	c4 02 00 00 	ld  [ %o0 ], %g2
    6944:	c6 10 80 01 	lduh  [ %g2 + %g1 ], %g3
    6948:	80 88 e0 20 	btst  0x20, %g3
    694c:	32 80 00 36 	bne,a   6a24 <_nss_files_parse_etherent+0x1ac>
    6950:	c0 2e 00 00 	clrb  [ %i0 ]
    6954:	b0 06 20 01 	inc  %i0
    6958:	e0 4e 00 00 	ldsb  [ %i0 ], %l0
    695c:	80 a4 20 00 	cmp  %l0, 0
    6960:	12 bf ff f5 	bne  6934 <_nss_files_parse_etherent+0xbc>
    6964:	01 00 00 00 	nop 
    6968:	10 80 00 38 	b  6a48 <_nss_files_parse_etherent+0x1d0>
    696c:	b0 10 20 01 	mov  1, %i0	! 1 <GLIBC_PRIVATE+0x1>
    6970:	92 07 bf e8 	add  %fp, -24, %o1
    6974:	94 10 20 10 	mov  0x10, %o2
    6978:	40 00 4e 73 	call  1a344 <__strtoul_internal@plt>
    697c:	96 10 20 00 	clr  %o3
    6980:	e0 07 bf e8 	ld  [ %fp + -24 ], %l0
    6984:	80 a4 00 18 	cmp  %l0, %i0
    6988:	02 80 00 25 	be  6a1c <_nss_files_parse_etherent+0x1a4>
    698c:	a2 10 00 08 	mov  %o0, %l1
    6990:	40 00 4e 7c 	call  1a380 <__ctype_b_loc@plt>
    6994:	01 00 00 00 	nop 
    6998:	c8 4c 00 00 	ldsb  [ %l0 ], %g4
    699c:	c2 02 00 00 	ld  [ %o0 ], %g1
    69a0:	84 01 00 04 	add  %g4, %g4, %g2
    69a4:	c6 10 40 02 	lduh  [ %g1 + %g2 ], %g3
    69a8:	80 88 e0 20 	btst  0x20, %g3
    69ac:	12 80 00 06 	bne  69c4 <_nss_files_parse_etherent+0x14c>
    69b0:	80 a1 20 00 	cmp  %g4, 0
    69b4:	32 80 00 25 	bne,a   6a48 <_nss_files_parse_etherent+0x1d0>
    69b8:	b0 10 20 00 	clr  %i0
    69bc:	10 bf ff d5 	b  6910 <_nss_files_parse_etherent+0x98>
    69c0:	b0 10 00 10 	mov  %l0, %i0
    69c4:	90 10 00 01 	mov  %g1, %o0
    69c8:	a0 04 20 01 	inc  %l0
    69cc:	e0 27 bf e8 	st  %l0, [ %fp + -24 ]
    69d0:	c2 4c 00 00 	ldsb  [ %l0 ], %g1
    69d4:	82 00 40 01 	add  %g1, %g1, %g1
    69d8:	c4 12 00 01 	lduh  [ %o0 + %g1 ], %g2
    69dc:	80 88 a0 20 	btst  0x20, %g2
    69e0:	32 bf ff fb 	bne,a   69cc <_nss_files_parse_etherent+0x154>
    69e4:	a0 04 20 01 	inc  %l0
    69e8:	10 bf ff ca 	b  6910 <_nss_files_parse_etherent+0x98>
    69ec:	b0 10 00 10 	mov  %l0, %i0
    69f0:	82 00 60 01 	inc  %g1
    69f4:	10 bf ff c6 	b  690c <_nss_files_parse_etherent+0x94>
    69f8:	c2 27 bf ec 	st  %g1, [ %fp + -20 ]
    69fc:	83 28 60 18 	sll  %g1, 0x18, %g1
    6a00:	80 a0 60 00 	cmp  %g1, 0
    6a04:	02 bf ff b0 	be  68c4 <_nss_files_parse_etherent+0x4c>
    6a08:	82 90 e0 00 	orcc  %g3, 0, %g1
    6a0c:	32 bf ff ae 	bne,a   68c4 <_nss_files_parse_etherent+0x4c>
    6a10:	c0 28 40 00 	clrb  [ %g1 ]
    6a14:	10 bf ff ad 	b  68c8 <_nss_files_parse_etherent+0x50>
    6a18:	a4 10 20 00 	clr  %l2
    6a1c:	10 80 00 0b 	b  6a48 <_nss_files_parse_etherent+0x1d0>
    6a20:	b0 10 20 00 	clr  %i0
    6a24:	d0 02 00 00 	ld  [ %o0 ], %o0
    6a28:	b0 06 20 01 	inc  %i0
    6a2c:	c2 4e 00 00 	ldsb  [ %i0 ], %g1
    6a30:	82 00 40 01 	add  %g1, %g1, %g1
    6a34:	c4 12 00 01 	lduh  [ %o0 + %g1 ], %g2
    6a38:	80 88 a0 20 	btst  0x20, %g2
    6a3c:	12 bf ff fc 	bne  6a2c <_nss_files_parse_etherent+0x1b4>
    6a40:	b0 06 20 01 	inc  %i0
    6a44:	b0 10 20 01 	mov  1, %i0
    6a48:	81 c7 e0 08 	ret 
    6a4c:	81 e8 00 00 	restore 

00006a50 <internal_setent>:
internal_setent():
    6a50:	9d e3 bf 90 	save  %sp, -112, %sp
    6a54:	25 00 00 00 	sethi  %hi(0), %l2
    6a58:	2f 00 00 4d 	sethi  %hi(0x13400), %l7
    6a5c:	7f ff ff 85 	call  6870 <_nss_files_getrpcbynumber_r+0xf4>
    6a60:	ae 05 e1 a4 	add  %l7, 0x1a4, %l7	! 135a4 <__FRAME_END__+0xa8f4>
    6a64:	82 14 a0 e8 	or  %l2, 0xe8, %g1
    6a68:	e2 05 c0 01 	ld  [ %l7 + %g1 ], %l1
    6a6c:	07 00 00 00 	sethi  %hi(0), %g3
    6a70:	05 00 00 00 	sethi  %hi(0), %g2
    6a74:	d0 04 40 00 	ld  [ %l1 ], %o0
    6a78:	a6 10 00 18 	mov  %i0, %l3
    6a7c:	86 10 e0 fc 	or  %g3, 0xfc, %g3
    6a80:	84 10 a1 00 	or  %g2, 0x100, %g2
    6a84:	80 a2 20 00 	cmp  %o0, 0
    6a88:	12 80 00 10 	bne  6ac8 <internal_setent+0x78>
    6a8c:	b0 10 20 01 	mov  1, %i0
    6a90:	d2 05 c0 02 	ld  [ %l7 + %g2 ], %o1
    6a94:	40 00 4e 29 	call  1a338 <fopen@plt>
    6a98:	d0 05 c0 03 	ld  [ %l7 + %g3 ], %o0
    6a9c:	82 92 20 00 	orcc  %o0, 0, %g1
    6aa0:	12 80 00 18 	bne  6b00 <internal_setent+0xb0>
    6aa4:	c2 24 40 00 	st  %g1, [ %l1 ]
    6aa8:	40 00 4d dc 	call  1a218 <__errno_location@plt>
    6aac:	01 00 00 00 	nop 
    6ab0:	c2 02 00 00 	ld  [ %o0 ], %g1
    6ab4:	82 18 60 0b 	xor  %g1, 0xb, %g1
    6ab8:	80 a0 00 01 	cmp  %g0, %g1
    6abc:	84 40 20 00 	addx  %g0, 0, %g2
    6ac0:	10 80 00 04 	b  6ad0 <internal_setent+0x80>
    6ac4:	b0 00 bf fe 	add  %g2, -2, %i0
    6ac8:	40 00 4d d7 	call  1a224 <rewind@plt>
    6acc:	01 00 00 00 	nop 
    6ad0:	82 14 a0 e8 	or  %l2, 0xe8, %g1
    6ad4:	c4 05 c0 01 	ld  [ %l7 + %g1 ], %g2
    6ad8:	09 00 00 00 	sethi  %hi(0), %g4
    6adc:	c6 00 80 00 	ld  [ %g2 ], %g3
    6ae0:	80 a0 e0 00 	cmp  %g3, 0
    6ae4:	02 80 00 1c 	be  6b54 <internal_setent+0x104>
    6ae8:	88 11 20 ec 	or  %g4, 0xec, %g4
    6aec:	c4 05 c0 04 	ld  [ %l7 + %g4 ], %g2
    6af0:	c2 00 80 00 	ld  [ %g2 ], %g1
    6af4:	82 10 40 13 	or  %g1, %l3, %g1
    6af8:	10 80 00 17 	b  6b54 <internal_setent+0x104>
    6afc:	c2 20 80 00 	st  %g1, [ %g2 ]
    6b00:	40 00 4d b7 	call  1a1dc <fileno@plt>
    6b04:	01 00 00 00 	nop 
    6b08:	92 10 20 01 	mov  1, %o1	! 1 <GLIBC_PRIVATE+0x1>
    6b0c:	40 00 4d f0 	call  1a2cc <fcntl@plt>
    6b10:	94 10 20 00 	clr  %o2
    6b14:	a0 92 20 00 	orcc  %o0, 0, %l0
    6b18:	06 80 00 0a 	bl  6b40 <internal_setent+0xf0>
    6b1c:	a0 14 20 01 	or  %l0, 1, %l0
    6b20:	40 00 4d af 	call  1a1dc <fileno@plt>
    6b24:	d0 04 40 00 	ld  [ %l1 ], %o0
    6b28:	94 10 00 10 	mov  %l0, %o2
    6b2c:	40 00 4d e8 	call  1a2cc <fcntl@plt>
    6b30:	92 10 20 02 	mov  2, %o1
    6b34:	80 a2 20 00 	cmp  %o0, 0
    6b38:	16 bf ff e7 	bge  6ad4 <internal_setent+0x84>
    6b3c:	82 14 a0 e8 	or  %l2, 0xe8, %g1
    6b40:	40 00 4d e9 	call  1a2e4 <fclose@plt>
    6b44:	d0 04 40 00 	ld  [ %l1 ], %o0
    6b48:	c0 24 40 00 	clr  [ %l1 ]
    6b4c:	10 bf ff e1 	b  6ad0 <internal_setent+0x80>
    6b50:	b0 10 3f ff 	mov  -1, %i0
    6b54:	81 c7 e0 08 	ret 
    6b58:	81 e8 00 00 	restore 

00006b5c <_nss_files_setetherent>:
_nss_files_setetherent():
    6b5c:	9d e3 bf 90 	save  %sp, -112, %sp
    6b60:	03 00 00 00 	sethi  %hi(0), %g1
    6b64:	2f 00 00 4d 	sethi  %hi(0x13400), %l7
    6b68:	7f ff ff 42 	call  6870 <_nss_files_getrpcbynumber_r+0xf4>
    6b6c:	ae 05 e0 98 	add  %l7, 0x98, %l7	! 13498 <__FRAME_END__+0xa7e8>
    6b70:	82 10 61 58 	or  %g1, 0x158, %g1
    6b74:	05 00 00 00 	sethi  %hi(0), %g2
    6b78:	c2 05 c0 01 	ld  [ %l7 + %g1 ], %g1
    6b7c:	80 a0 60 00 	cmp  %g1, 0
    6b80:	02 80 00 04 	be  6b90 <_nss_files_setetherent+0x34>
    6b84:	84 10 a0 f0 	or  %g2, 0xf0, %g2
    6b88:	9f c0 40 00 	call  %g1
    6b8c:	d0 05 c0 02 	ld  [ %l7 + %g2 ], %o0
    6b90:	7f ff ff b0 	call  6a50 <internal_setent>
    6b94:	90 10 00 18 	mov  %i0, %o0
    6b98:	05 00 00 00 	sethi  %hi(0), %g2
    6b9c:	b0 10 00 08 	mov  %o0, %i0
    6ba0:	80 a2 20 01 	cmp  %o0, 1
    6ba4:	02 80 00 11 	be  6be8 <_nss_files_setetherent+0x8c>
    6ba8:	84 10 a0 f4 	or  %g2, 0xf4, %g2
    6bac:	03 00 00 00 	sethi  %hi(0), %g1
    6bb0:	82 10 60 f8 	or  %g1, 0xf8, %g1	! f8 <GLIBC_PRIVATE+0xf8>
    6bb4:	05 00 00 00 	sethi  %hi(0), %g2
    6bb8:	c6 05 c0 01 	ld  [ %l7 + %g1 ], %g3
    6bbc:	84 10 a1 64 	or  %g2, 0x164, %g2
    6bc0:	09 00 00 00 	sethi  %hi(0), %g4
    6bc4:	c4 05 c0 02 	ld  [ %l7 + %g2 ], %g2
    6bc8:	82 10 20 01 	mov  1, %g1
    6bcc:	88 11 20 f0 	or  %g4, 0xf0, %g4
    6bd0:	80 a0 a0 00 	cmp  %g2, 0
    6bd4:	02 80 00 13 	be  6c20 <_nss_files_setetherent+0xc4>
    6bd8:	c2 20 c0 00 	st  %g1, [ %g3 ]
    6bdc:	9f c0 80 00 	call  %g2
    6be0:	d0 05 c0 04 	ld  [ %l7 + %g4 ], %o0
    6be4:	30 80 00 0f 	b,a   6c20 <_nss_files_setetherent+0xc4>
    6be8:	03 00 00 00 	sethi  %hi(0), %g1
    6bec:	82 10 60 e8 	or  %g1, 0xe8, %g1	! e8 <GLIBC_PRIVATE+0xe8>
    6bf0:	e0 05 c0 01 	ld  [ %l7 + %g1 ], %l0
    6bf4:	d2 05 c0 02 	ld  [ %l7 + %g2 ], %o1
    6bf8:	40 00 4d d6 	call  1a350 <fgetpos@plt>
    6bfc:	d0 04 00 00 	ld  [ %l0 ], %o0
    6c00:	80 a2 20 00 	cmp  %o0, 0
    6c04:	16 bf ff eb 	bge  6bb0 <_nss_files_setetherent+0x54>
    6c08:	03 00 00 00 	sethi  %hi(0), %g1
    6c0c:	40 00 4d b6 	call  1a2e4 <fclose@plt>
    6c10:	d0 04 00 00 	ld  [ %l0 ], %o0
    6c14:	c0 24 00 00 	clr  [ %l0 ]
    6c18:	10 bf ff e5 	b  6bac <_nss_files_setetherent+0x50>
    6c1c:	b0 10 3f ff 	mov  -1, %i0
    6c20:	81 c7 e0 08 	ret 
    6c24:	81 e8 00 00 	restore 

00006c28 <internal_endent>:
internal_endent():
    6c28:	9d e3 bf 90 	save  %sp, -112, %sp
    6c2c:	03 00 00 00 	sethi  %hi(0), %g1
    6c30:	2f 00 00 4c 	sethi  %hi(0x13000), %l7
    6c34:	7f ff ff 0f 	call  6870 <_nss_files_getrpcbynumber_r+0xf4>
    6c38:	ae 05 e3 cc 	add  %l7, 0x3cc, %l7	! 133cc <__FRAME_END__+0xa71c>
    6c3c:	82 10 60 e8 	or  %g1, 0xe8, %g1
    6c40:	e0 05 c0 01 	ld  [ %l7 + %g1 ], %l0
    6c44:	c4 04 00 00 	ld  [ %l0 ], %g2
    6c48:	90 90 a0 00 	orcc  %g2, 0, %o0
    6c4c:	02 80 00 05 	be  6c60 <internal_endent+0x38>
    6c50:	01 00 00 00 	nop 
    6c54:	40 00 4d a4 	call  1a2e4 <fclose@plt>
    6c58:	01 00 00 00 	nop 
    6c5c:	c0 24 00 00 	clr  [ %l0 ]
    6c60:	81 c7 e0 08 	ret 
    6c64:	81 e8 00 00 	restore 

00006c68 <_nss_files_endetherent>:
_nss_files_endetherent():
    6c68:	9d e3 bf 90 	save  %sp, -112, %sp
    6c6c:	03 00 00 00 	sethi  %hi(0), %g1
    6c70:	2f 00 00 4c 	sethi  %hi(0x13000), %l7
    6c74:	7f ff fe ff 	call  6870 <_nss_files_getrpcbynumber_r+0xf4>
    6c78:	ae 05 e3 8c 	add  %l7, 0x38c, %l7	! 1338c <__FRAME_END__+0xa6dc>
    6c7c:	82 10 61 58 	or  %g1, 0x158, %g1
    6c80:	05 00 00 00 	sethi  %hi(0), %g2
    6c84:	c2 05 c0 01 	ld  [ %l7 + %g1 ], %g1
    6c88:	80 a0 60 00 	cmp  %g1, 0
    6c8c:	02 80 00 04 	be  6c9c <_nss_files_endetherent+0x34>
    6c90:	84 10 a0 f0 	or  %g2, 0xf0, %g2
    6c94:	9f c0 40 00 	call  %g1
    6c98:	d0 05 c0 02 	ld  [ %l7 + %g2 ], %o0
    6c9c:	7f ff ff e3 	call  6c28 <internal_endent>
    6ca0:	01 00 00 00 	nop 
    6ca4:	03 00 00 00 	sethi  %hi(0), %g1
    6ca8:	82 10 60 ec 	or  %g1, 0xec, %g1	! ec <GLIBC_PRIVATE+0xec>
    6cac:	05 00 00 00 	sethi  %hi(0), %g2
    6cb0:	c6 05 c0 01 	ld  [ %l7 + %g1 ], %g3
    6cb4:	84 10 a1 64 	or  %g2, 0x164, %g2
    6cb8:	09 00 00 00 	sethi  %hi(0), %g4
    6cbc:	c2 05 c0 02 	ld  [ %l7 + %g2 ], %g1
    6cc0:	88 11 20 f0 	or  %g4, 0xf0, %g4
    6cc4:	80 a0 60 00 	cmp  %g1, 0
    6cc8:	02 80 00 04 	be  6cd8 <_nss_files_endetherent+0x70>
    6ccc:	c0 20 c0 00 	clr  [ %g3 ]
    6cd0:	9f c0 40 00 	call  %g1
    6cd4:	d0 05 c0 04 	ld  [ %l7 + %g4 ], %o0
    6cd8:	81 c7 e0 08 	ret 
    6cdc:	91 e8 20 01 	restore  %g0, 1, %o0

00006ce0 <internal_getent>:
internal_getent():
    6ce0:	9d e3 bf 90 	save  %sp, -112, %sp
    6ce4:	2f 00 00 4c 	sethi  %hi(0x13000), %l7
    6ce8:	7f ff fe e2 	call  6870 <_nss_files_getrpcbynumber_r+0xf4>
    6cec:	ae 05 e3 18 	add  %l7, 0x318, %l7	! 13318 <__FRAME_END__+0xa668>
    6cf0:	80 a6 a0 01 	cmp  %i2, 1
    6cf4:	08 80 00 32 	bleu  6dbc <internal_getent+0xdc>
    6cf8:	a4 10 00 1a 	mov  %i2, %l2
    6cfc:	03 00 00 00 	sethi  %hi(0), %g1
    6d00:	82 10 60 e8 	or  %g1, 0xe8, %g1	! e8 <GLIBC_PRIVATE+0xe8>
    6d04:	e6 05 c0 01 	ld  [ %l7 + %g1 ], %l3
    6d08:	a2 06 40 1a 	add  %i1, %i2, %l1
    6d0c:	82 10 3f ff 	mov  -1, %g1
    6d10:	c2 2c 7f ff 	stb  %g1, [ %l1 + -1 ]
    6d14:	90 10 00 19 	mov  %i1, %o0
    6d18:	92 10 00 12 	mov  %l2, %o1
    6d1c:	40 00 4d 48 	call  1a23c <fgets_unlocked@plt>
    6d20:	d4 04 c0 00 	ld  [ %l3 ], %o2
    6d24:	a0 92 20 00 	orcc  %o0, 0, %l0
    6d28:	22 80 00 28 	be,a   6dc8 <internal_getent+0xe8>
    6d2c:	b0 10 20 00 	clr  %i0
    6d30:	c2 0c 7f ff 	ldub  [ %l1 + -1 ], %g1
    6d34:	80 a0 60 ff 	cmp  %g1, 0xff
    6d38:	12 80 00 22 	bne  6dc0 <internal_getent+0xe0>
    6d3c:	82 10 20 22 	mov  0x22, %g1
    6d40:	40 00 4d 90 	call  1a380 <__ctype_b_loc@plt>
    6d44:	01 00 00 00 	nop 
    6d48:	d0 02 00 00 	ld  [ %o0 ], %o0
    6d4c:	c6 4c 00 00 	ldsb  [ %l0 ], %g3
    6d50:	82 00 c0 03 	add  %g3, %g3, %g1
    6d54:	c4 12 00 01 	lduh  [ %o0 + %g1 ], %g2
    6d58:	80 88 a0 20 	btst  0x20, %g2
    6d5c:	32 bf ff fc 	bne,a   6d4c <internal_getent+0x6c>
    6d60:	a0 04 20 01 	inc  %l0
    6d64:	80 a0 00 03 	cmp  %g0, %g3
    6d68:	82 60 3f ff 	subx  %g0, -1, %g1
    6d6c:	84 18 e0 23 	xor  %g3, 0x23, %g2
    6d70:	80 a0 00 02 	cmp  %g0, %g2
    6d74:	86 60 3f ff 	subx  %g0, -1, %g3
    6d78:	80 90 40 03 	orcc  %g1, %g3, %g0
    6d7c:	12 bf ff e5 	bne  6d10 <internal_getent+0x30>
    6d80:	82 10 3f ff 	mov  -1, %g1
    6d84:	90 10 00 10 	mov  %l0, %o0
    6d88:	92 10 00 18 	mov  %i0, %o1
    6d8c:	94 10 00 19 	mov  %i1, %o2
    6d90:	96 10 00 1a 	mov  %i2, %o3
    6d94:	7f ff fe b9 	call  6878 <_nss_files_parse_etherent>
    6d98:	98 10 00 1b 	mov  %i3, %o4
    6d9c:	80 a2 20 00 	cmp  %o0, 0
    6da0:	02 bf ff dc 	be  6d10 <internal_getent+0x30>
    6da4:	82 10 3f ff 	mov  -1, %g1
    6da8:	80 a2 3f ff 	cmp  %o0, -1
    6dac:	02 80 00 07 	be  6dc8 <internal_getent+0xe8>
    6db0:	b0 10 3f fe 	mov  -2, %i0
    6db4:	10 80 00 05 	b  6dc8 <internal_getent+0xe8>
    6db8:	b0 10 20 01 	mov  1, %i0
    6dbc:	82 10 20 22 	mov  0x22, %g1
    6dc0:	c2 26 c0 00 	st  %g1, [ %i3 ]
    6dc4:	b0 10 3f fe 	mov  -2, %i0
    6dc8:	81 c7 e0 08 	ret 
    6dcc:	81 e8 00 00 	restore 

00006dd0 <_nss_files_getetherent_r>:
_nss_files_getetherent_r():
    6dd0:	9d e3 bf 90 	save  %sp, -112, %sp
    6dd4:	03 00 00 00 	sethi  %hi(0), %g1
    6dd8:	2f 00 00 4c 	sethi  %hi(0x13000), %l7
    6ddc:	7f ff fe a5 	call  6870 <_nss_files_getrpcbynumber_r+0xf4>
    6de0:	ae 05 e2 24 	add  %l7, 0x224, %l7	! 13224 <__FRAME_END__+0xa574>
    6de4:	82 10 61 58 	or  %g1, 0x158, %g1
    6de8:	c4 05 c0 01 	ld  [ %l7 + %g1 ], %g2
    6dec:	a6 10 00 18 	mov  %i0, %l3
    6df0:	80 a0 a0 00 	cmp  %g2, 0
    6df4:	02 80 00 06 	be  6e0c <_nss_files_getetherent_r+0x3c>
    6df8:	b0 10 20 01 	mov  1, %i0
    6dfc:	03 00 00 00 	sethi  %hi(0), %g1
    6e00:	82 10 60 f0 	or  %g1, 0xf0, %g1	! f0 <GLIBC_PRIVATE+0xf0>
    6e04:	9f c0 80 00 	call  %g2
    6e08:	d0 05 c0 01 	ld  [ %l7 + %g1 ], %o0
    6e0c:	23 00 00 00 	sethi  %hi(0), %l1
    6e10:	82 14 60 e8 	or  %l1, 0xe8, %g1	! e8 <GLIBC_PRIVATE+0xe8>
    6e14:	e0 05 c0 01 	ld  [ %l7 + %g1 ], %l0
    6e18:	c4 04 00 00 	ld  [ %l0 ], %g2
    6e1c:	80 a0 a0 00 	cmp  %g2, 0
    6e20:	02 80 00 27 	be  6ebc <_nss_files_getetherent_r+0xec>
    6e24:	25 00 00 00 	sethi  %hi(0), %l2
    6e28:	82 14 a0 f8 	or  %l2, 0xf8, %g1	! f8 <GLIBC_PRIVATE+0xf8>
    6e2c:	e0 05 c0 01 	ld  [ %l7 + %g1 ], %l0
    6e30:	c4 04 00 00 	ld  [ %l0 ], %g2
    6e34:	80 a0 a0 01 	cmp  %g2, 1
    6e38:	02 80 00 0c 	be  6e68 <_nss_files_getetherent_r+0x98>
    6e3c:	82 14 60 e8 	or  %l1, 0xe8, %g1
    6e40:	05 00 00 00 	sethi  %hi(0), %g2
    6e44:	c6 05 c0 01 	ld  [ %l7 + %g1 ], %g3
    6e48:	84 10 a0 f4 	or  %g2, 0xf4, %g2
    6e4c:	d0 00 c0 00 	ld  [ %g3 ], %o0
    6e50:	40 00 4c ec 	call  1a200 <fsetpos@plt>
    6e54:	d2 05 c0 02 	ld  [ %l7 + %g2 ], %o1
    6e58:	80 a2 20 00 	cmp  %o0, 0
    6e5c:	26 80 00 0e 	bl,a   6e94 <_nss_files_getetherent_r+0xc4>
    6e60:	b0 10 3f ff 	mov  -1, %i0
    6e64:	f0 24 00 00 	st  %i0, [ %l0 ]
    6e68:	90 10 00 13 	mov  %l3, %o0
    6e6c:	92 10 00 19 	mov  %i1, %o1
    6e70:	94 10 00 1a 	mov  %i2, %o2
    6e74:	7f ff ff 9b 	call  6ce0 <internal_getent>
    6e78:	96 10 00 1b 	mov  %i3, %o3
    6e7c:	80 a2 20 01 	cmp  %o0, 1
    6e80:	02 80 00 21 	be  6f04 <_nss_files_getetherent_r+0x134>
    6e84:	b0 10 00 08 	mov  %o0, %i0
    6e88:	82 14 a0 f8 	or  %l2, 0xf8, %g1
    6e8c:	c4 05 c0 01 	ld  [ %l7 + %g1 ], %g2
    6e90:	c0 20 80 00 	clr  [ %g2 ]
    6e94:	03 00 00 00 	sethi  %hi(0), %g1
    6e98:	82 10 61 64 	or  %g1, 0x164, %g1	! 164 <GLIBC_PRIVATE+0x164>
    6e9c:	c4 05 c0 01 	ld  [ %l7 + %g1 ], %g2
    6ea0:	80 a0 a0 00 	cmp  %g2, 0
    6ea4:	02 80 00 21 	be  6f28 <_nss_files_getetherent_r+0x158>
    6ea8:	03 00 00 00 	sethi  %hi(0), %g1
    6eac:	82 10 60 f0 	or  %g1, 0xf0, %g1	! f0 <GLIBC_PRIVATE+0xf0>
    6eb0:	9f c0 80 00 	call  %g2
    6eb4:	d0 05 c0 01 	ld  [ %l7 + %g1 ], %o0
    6eb8:	30 80 00 1c 	b,a   6f28 <_nss_files_getetherent_r+0x158>
    6ebc:	7f ff fe e5 	call  6a50 <internal_setent>
    6ec0:	90 10 20 00 	clr  %o0
    6ec4:	80 a2 20 01 	cmp  %o0, 1
    6ec8:	12 bf ff f3 	bne  6e94 <_nss_files_getetherent_r+0xc4>
    6ecc:	b0 10 00 08 	mov  %o0, %i0
    6ed0:	03 00 00 00 	sethi  %hi(0), %g1
    6ed4:	82 10 60 f4 	or  %g1, 0xf4, %g1	! f4 <GLIBC_PRIVATE+0xf4>
    6ed8:	d2 05 c0 01 	ld  [ %l7 + %g1 ], %o1
    6edc:	40 00 4d 1d 	call  1a350 <fgetpos@plt>
    6ee0:	d0 04 00 00 	ld  [ %l0 ], %o0
    6ee4:	80 a2 20 00 	cmp  %o0, 0
    6ee8:	16 bf ff d0 	bge  6e28 <_nss_files_getetherent_r+0x58>
    6eec:	25 00 00 00 	sethi  %hi(0), %l2
    6ef0:	40 00 4c fd 	call  1a2e4 <fclose@plt>
    6ef4:	d0 04 00 00 	ld  [ %l0 ], %o0
    6ef8:	c0 24 00 00 	clr  [ %l0 ]
    6efc:	10 bf ff e6 	b  6e94 <_nss_files_getetherent_r+0xc4>
    6f00:	b0 10 3f ff 	mov  -1, %i0
    6f04:	82 14 60 e8 	or  %l1, 0xe8, %g1
    6f08:	05 00 00 00 	sethi  %hi(0), %g2
    6f0c:	c6 05 c0 01 	ld  [ %l7 + %g1 ], %g3
    6f10:	84 10 a0 f4 	or  %g2, 0xf4, %g2
    6f14:	d0 00 c0 00 	ld  [ %g3 ], %o0
    6f18:	40 00 4d 0e 	call  1a350 <fgetpos@plt>
    6f1c:	d2 05 c0 02 	ld  [ %l7 + %g2 ], %o1
    6f20:	10 bf ff de 	b  6e98 <_nss_files_getetherent_r+0xc8>
    6f24:	03 00 00 00 	sethi  %hi(0), %g1
    6f28:	81 c7 e0 08 	ret 
    6f2c:	81 e8 00 00 	restore 

00006f30 <_nss_files_gethostton_r>:
_nss_files_gethostton_r():
    6f30:	9d e3 bf 90 	save  %sp, -112, %sp
    6f34:	03 00 00 00 	sethi  %hi(0), %g1
    6f38:	2f 00 00 4c 	sethi  %hi(0x13000), %l7
    6f3c:	7f ff fe 4d 	call  6870 <_nss_files_getrpcbynumber_r+0xf4>
    6f40:	ae 05 e0 c4 	add  %l7, 0xc4, %l7	! 130c4 <__FRAME_END__+0xa414>
    6f44:	82 10 61 58 	or  %g1, 0x158, %g1
    6f48:	c4 05 c0 01 	ld  [ %l7 + %g1 ], %g2
    6f4c:	80 a0 a0 00 	cmp  %g2, 0
    6f50:	02 80 00 06 	be  6f68 <_nss_files_gethostton_r+0x38>
    6f54:	a2 10 00 18 	mov  %i0, %l1
    6f58:	03 00 00 00 	sethi  %hi(0), %g1
    6f5c:	82 10 60 f0 	or  %g1, 0xf0, %g1	! f0 <GLIBC_PRIVATE+0xf0>
    6f60:	9f c0 80 00 	call  %g2
    6f64:	d0 05 c0 01 	ld  [ %l7 + %g1 ], %o0
    6f68:	21 00 00 00 	sethi  %hi(0), %l0
    6f6c:	82 14 20 ec 	or  %l0, 0xec, %g1	! ec <GLIBC_PRIVATE+0xec>
    6f70:	c4 05 c0 01 	ld  [ %l7 + %g1 ], %g2
    6f74:	7f ff fe b7 	call  6a50 <internal_setent>
    6f78:	d0 00 80 00 	ld  [ %g2 ], %o0
    6f7c:	80 a2 20 01 	cmp  %o0, 1
    6f80:	02 80 00 0c 	be  6fb0 <_nss_files_gethostton_r+0x80>
    6f84:	b0 10 00 08 	mov  %o0, %i0
    6f88:	03 00 00 00 	sethi  %hi(0), %g1
    6f8c:	82 10 61 64 	or  %g1, 0x164, %g1	! 164 <GLIBC_PRIVATE+0x164>
    6f90:	c4 05 c0 01 	ld  [ %l7 + %g1 ], %g2
    6f94:	80 a0 a0 00 	cmp  %g2, 0
    6f98:	02 80 00 23 	be  7024 <_nss_files_gethostton_r+0xf4>
    6f9c:	03 00 00 00 	sethi  %hi(0), %g1
    6fa0:	82 10 60 f0 	or  %g1, 0xf0, %g1	! f0 <GLIBC_PRIVATE+0xf0>
    6fa4:	9f c0 80 00 	call  %g2
    6fa8:	d0 05 c0 01 	ld  [ %l7 + %g1 ], %o0
    6fac:	30 80 00 1e 	b,a   7024 <_nss_files_gethostton_r+0xf4>
    6fb0:	03 00 00 00 	sethi  %hi(0), %g1
    6fb4:	82 10 60 f8 	or  %g1, 0xf8, %g1	! f8 <GLIBC_PRIVATE+0xf8>
    6fb8:	c6 05 c0 01 	ld  [ %l7 + %g1 ], %g3
    6fbc:	84 10 20 02 	mov  2, %g2
    6fc0:	c4 20 c0 00 	st  %g2, [ %g3 ]
    6fc4:	92 10 00 1a 	mov  %i2, %o1
    6fc8:	94 10 00 1b 	mov  %i3, %o2
    6fcc:	96 10 00 1c 	mov  %i4, %o3
    6fd0:	7f ff ff 44 	call  6ce0 <internal_getent>
    6fd4:	90 10 00 19 	mov  %i1, %o0
    6fd8:	b0 10 00 08 	mov  %o0, %i0
    6fdc:	80 a2 20 01 	cmp  %o0, 1
    6fe0:	12 80 00 07 	bne  6ffc <_nss_files_gethostton_r+0xcc>
    6fe4:	92 10 00 11 	mov  %l1, %o1
    6fe8:	40 00 4c dd 	call  1a35c <__strcasecmp@plt>
    6fec:	d0 06 40 00 	ld  [ %i1 ], %o0
    6ff0:	80 a2 20 00 	cmp  %o0, 0
    6ff4:	12 bf ff f5 	bne  6fc8 <_nss_files_gethostton_r+0x98>
    6ff8:	92 10 00 1a 	mov  %i2, %o1
    6ffc:	82 14 20 ec 	or  %l0, 0xec, %g1
    7000:	c4 05 c0 01 	ld  [ %l7 + %g1 ], %g2
    7004:	c6 00 80 00 	ld  [ %g2 ], %g3
    7008:	80 a0 e0 00 	cmp  %g3, 0
    700c:	32 bf ff e0 	bne,a   6f8c <_nss_files_gethostton_r+0x5c>
    7010:	03 00 00 00 	sethi  %hi(0), %g1
    7014:	7f ff ff 05 	call  6c28 <internal_endent>
    7018:	01 00 00 00 	nop 
    701c:	10 bf ff dc 	b  6f8c <_nss_files_gethostton_r+0x5c>
    7020:	03 00 00 00 	sethi  %hi(0), %g1
    7024:	81 c7 e0 08 	ret 
    7028:	81 e8 00 00 	restore 

0000702c <_nss_files_getntohost_r>:
_nss_files_getntohost_r():
    702c:	9d e3 bf 90 	save  %sp, -112, %sp
    7030:	03 00 00 00 	sethi  %hi(0), %g1
    7034:	2f 00 00 4b 	sethi  %hi(0x12c00), %l7
    7038:	7f ff fe 0e 	call  6870 <_nss_files_getrpcbynumber_r+0xf4>
    703c:	ae 05 e3 c8 	add  %l7, 0x3c8, %l7	! 12fc8 <__FRAME_END__+0xa318>
    7040:	82 10 61 58 	or  %g1, 0x158, %g1
    7044:	c4 05 c0 01 	ld  [ %l7 + %g1 ], %g2
    7048:	80 a0 a0 00 	cmp  %g2, 0
    704c:	02 80 00 06 	be  7064 <_nss_files_getntohost_r+0x38>
    7050:	a4 10 00 18 	mov  %i0, %l2
    7054:	03 00 00 00 	sethi  %hi(0), %g1
    7058:	82 10 60 f0 	or  %g1, 0xf0, %g1	! f0 <GLIBC_PRIVATE+0xf0>
    705c:	9f c0 80 00 	call  %g2
    7060:	d0 05 c0 01 	ld  [ %l7 + %g1 ], %o0
    7064:	23 00 00 00 	sethi  %hi(0), %l1
    7068:	82 14 60 ec 	or  %l1, 0xec, %g1	! ec <GLIBC_PRIVATE+0xec>
    706c:	c4 05 c0 01 	ld  [ %l7 + %g1 ], %g2
    7070:	7f ff fe 78 	call  6a50 <internal_setent>
    7074:	d0 00 80 00 	ld  [ %g2 ], %o0
    7078:	80 a2 20 01 	cmp  %o0, 1
    707c:	02 80 00 0c 	be  70ac <_nss_files_getntohost_r+0x80>
    7080:	b0 10 00 08 	mov  %o0, %i0
    7084:	03 00 00 00 	sethi  %hi(0), %g1
    7088:	82 10 61 64 	or  %g1, 0x164, %g1	! 164 <GLIBC_PRIVATE+0x164>
    708c:	c4 05 c0 01 	ld  [ %l7 + %g1 ], %g2
    7090:	80 a0 a0 00 	cmp  %g2, 0
    7094:	02 80 00 26 	be  712c <_nss_files_getntohost_r+0x100>
    7098:	03 00 00 00 	sethi  %hi(0), %g1
    709c:	82 10 60 f0 	or  %g1, 0xf0, %g1	! f0 <GLIBC_PRIVATE+0xf0>
    70a0:	9f c0 80 00 	call  %g2
    70a4:	d0 05 c0 01 	ld  [ %l7 + %g1 ], %o0
    70a8:	30 80 00 21 	b,a   712c <_nss_files_getntohost_r+0x100>
    70ac:	03 00 00 00 	sethi  %hi(0), %g1
    70b0:	82 10 60 f8 	or  %g1, 0xf8, %g1	! f8 <GLIBC_PRIVATE+0xf8>
    70b4:	c6 05 c0 01 	ld  [ %l7 + %g1 ], %g3
    70b8:	84 10 20 02 	mov  2, %g2
    70bc:	c4 20 c0 00 	st  %g2, [ %g3 ]
    70c0:	a0 06 60 04 	add  %i1, 4, %l0
    70c4:	92 10 00 1a 	mov  %i2, %o1
    70c8:	94 10 00 1b 	mov  %i3, %o2
    70cc:	96 10 00 1c 	mov  %i4, %o3
    70d0:	7f ff ff 04 	call  6ce0 <internal_getent>
    70d4:	90 10 00 19 	mov  %i1, %o0
    70d8:	b0 10 00 08 	mov  %o0, %i0
    70dc:	90 10 00 10 	mov  %l0, %o0
    70e0:	92 10 00 12 	mov  %l2, %o1
    70e4:	80 a6 20 01 	cmp  %i0, 1
    70e8:	12 80 00 07 	bne  7104 <_nss_files_getntohost_r+0xd8>
    70ec:	94 10 20 06 	mov  6, %o2
    70f0:	40 00 4c 68 	call  1a290 <memcmp@plt>
    70f4:	01 00 00 00 	nop 
    70f8:	80 a2 20 00 	cmp  %o0, 0
    70fc:	12 bf ff f3 	bne  70c8 <_nss_files_getntohost_r+0x9c>
    7100:	92 10 00 1a 	mov  %i2, %o1
    7104:	82 14 60 ec 	or  %l1, 0xec, %g1
    7108:	c4 05 c0 01 	ld  [ %l7 + %g1 ], %g2
    710c:	c6 00 80 00 	ld  [ %g2 ], %g3
    7110:	80 a0 e0 00 	cmp  %g3, 0
    7114:	32 bf ff dd 	bne,a   7088 <_nss_files_getntohost_r+0x5c>
    7118:	03 00 00 00 	sethi  %hi(0), %g1
    711c:	7f ff fe c3 	call  6c28 <internal_endent>
    7120:	01 00 00 00 	nop 
    7124:	10 bf ff d9 	b  7088 <_nss_files_getntohost_r+0x5c>
    7128:	03 00 00 00 	sethi  %hi(0), %g1
    712c:	81 c7 e0 08 	ret 
    7130:	81 e8 00 00 	restore 
    7134:	81 c3 e0 08 	retl 
    7138:	ae 03 c0 17 	add  %o7, %l7, %l7

0000713c <internal_setent>:
internal_setent():
    713c:	9d e3 bf 90 	save  %sp, -112, %sp
    7140:	25 00 00 00 	sethi  %hi(0), %l2
    7144:	2f 00 00 4b 	sethi  %hi(0x12c00), %l7
    7148:	7f ff ff fb 	call  7134 <_nss_files_getntohost_r+0x108>
    714c:	ae 05 e2 b8 	add  %l7, 0x2b8, %l7	! 12eb8 <__FRAME_END__+0xa208>
    7150:	82 14 a1 04 	or  %l2, 0x104, %g1
    7154:	e2 05 c0 01 	ld  [ %l7 + %g1 ], %l1
    7158:	07 00 00 00 	sethi  %hi(0), %g3
    715c:	05 00 00 00 	sethi  %hi(0), %g2
    7160:	d0 04 40 00 	ld  [ %l1 ], %o0
    7164:	a6 10 00 18 	mov  %i0, %l3
    7168:	86 10 e1 18 	or  %g3, 0x118, %g3
    716c:	84 10 a1 1c 	or  %g2, 0x11c, %g2
    7170:	80 a2 20 00 	cmp  %o0, 0
    7174:	12 80 00 10 	bne  71b4 <internal_setent+0x78>
    7178:	b0 10 20 01 	mov  1, %i0
    717c:	d2 05 c0 02 	ld  [ %l7 + %g2 ], %o1
    7180:	40 00 4c 6e 	call  1a338 <fopen@plt>
    7184:	d0 05 c0 03 	ld  [ %l7 + %g3 ], %o0
    7188:	82 92 20 00 	orcc  %o0, 0, %g1
    718c:	12 80 00 18 	bne  71ec <internal_setent+0xb0>
    7190:	c2 24 40 00 	st  %g1, [ %l1 ]
    7194:	40 00 4c 21 	call  1a218 <__errno_location@plt>
    7198:	01 00 00 00 	nop 
    719c:	c2 02 00 00 	ld  [ %o0 ], %g1
    71a0:	82 18 60 0b 	xor  %g1, 0xb, %g1
    71a4:	80 a0 00 01 	cmp  %g0, %g1
    71a8:	84 40 20 00 	addx  %g0, 0, %g2
    71ac:	10 80 00 04 	b  71bc <internal_setent+0x80>
    71b0:	b0 00 bf fe 	add  %g2, -2, %i0
    71b4:	40 00 4c 1c 	call  1a224 <rewind@plt>
    71b8:	01 00 00 00 	nop 
    71bc:	82 14 a1 04 	or  %l2, 0x104, %g1
    71c0:	c4 05 c0 01 	ld  [ %l7 + %g1 ], %g2
    71c4:	09 00 00 00 	sethi  %hi(0), %g4
    71c8:	c6 00 80 00 	ld  [ %g2 ], %g3
    71cc:	80 a0 e0 00 	cmp  %g3, 0
    71d0:	02 80 00 1c 	be  7240 <internal_setent+0x104>
    71d4:	88 11 21 08 	or  %g4, 0x108, %g4
    71d8:	c4 05 c0 04 	ld  [ %l7 + %g4 ], %g2
    71dc:	c2 00 80 00 	ld  [ %g2 ], %g1
    71e0:	82 10 40 13 	or  %g1, %l3, %g1
    71e4:	10 80 00 17 	b  7240 <internal_setent+0x104>
    71e8:	c2 20 80 00 	st  %g1, [ %g2 ]
    71ec:	40 00 4b fc 	call  1a1dc <fileno@plt>
    71f0:	01 00 00 00 	nop 
    71f4:	92 10 20 01 	mov  1, %o1	! 1 <GLIBC_PRIVATE+0x1>
    71f8:	40 00 4c 35 	call  1a2cc <fcntl@plt>
    71fc:	94 10 20 00 	clr  %o2
    7200:	a0 92 20 00 	orcc  %o0, 0, %l0
    7204:	06 80 00 0a 	bl  722c <internal_setent+0xf0>
    7208:	a0 14 20 01 	or  %l0, 1, %l0
    720c:	40 00 4b f4 	call  1a1dc <fileno@plt>
    7210:	d0 04 40 00 	ld  [ %l1 ], %o0
    7214:	94 10 00 10 	mov  %l0, %o2
    7218:	40 00 4c 2d 	call  1a2cc <fcntl@plt>
    721c:	92 10 20 02 	mov  2, %o1
    7220:	80 a2 20 00 	cmp  %o0, 0
    7224:	16 bf ff e7 	bge  71c0 <internal_setent+0x84>
    7228:	82 14 a1 04 	or  %l2, 0x104, %g1
    722c:	40 00 4c 2e 	call  1a2e4 <fclose@plt>
    7230:	d0 04 40 00 	ld  [ %l1 ], %o0
    7234:	c0 24 40 00 	clr  [ %l1 ]
    7238:	10 bf ff e1 	b  71bc <internal_setent+0x80>
    723c:	b0 10 3f ff 	mov  -1, %i0
    7240:	81 c7 e0 08 	ret 
    7244:	81 e8 00 00 	restore 

00007248 <_nss_files_setspent>:
_nss_files_setspent():
    7248:	9d e3 bf 90 	save  %sp, -112, %sp
    724c:	03 00 00 00 	sethi  %hi(0), %g1
    7250:	2f 00 00 4b 	sethi  %hi(0x12c00), %l7
    7254:	7f ff ff b8 	call  7134 <_nss_files_getntohost_r+0x108>
    7258:	ae 05 e1 ac 	add  %l7, 0x1ac, %l7	! 12dac <__FRAME_END__+0xa0fc>
    725c:	82 10 61 58 	or  %g1, 0x158, %g1
    7260:	05 00 00 00 	sethi  %hi(0), %g2
    7264:	c2 05 c0 01 	ld  [ %l7 + %g1 ], %g1
    7268:	80 a0 60 00 	cmp  %g1, 0
    726c:	02 80 00 04 	be  727c <_nss_files_setspent+0x34>
    7270:	84 10 a1 0c 	or  %g2, 0x10c, %g2
    7274:	9f c0 40 00 	call  %g1
    7278:	d0 05 c0 02 	ld  [ %l7 + %g2 ], %o0
    727c:	7f ff ff b0 	call  713c <internal_setent>
    7280:	90 10 00 18 	mov  %i0, %o0
    7284:	05 00 00 00 	sethi  %hi(0), %g2
    7288:	b0 10 00 08 	mov  %o0, %i0
    728c:	80 a2 20 01 	cmp  %o0, 1
    7290:	02 80 00 11 	be  72d4 <_nss_files_setspent+0x8c>
    7294:	84 10 a1 10 	or  %g2, 0x110, %g2
    7298:	03 00 00 00 	sethi  %hi(0), %g1
    729c:	82 10 61 14 	or  %g1, 0x114, %g1	! 114 <GLIBC_PRIVATE+0x114>
    72a0:	05 00 00 00 	sethi  %hi(0), %g2
    72a4:	c6 05 c0 01 	ld  [ %l7 + %g1 ], %g3
    72a8:	84 10 a1 64 	or  %g2, 0x164, %g2
    72ac:	09 00 00 00 	sethi  %hi(0), %g4
    72b0:	c4 05 c0 02 	ld  [ %l7 + %g2 ], %g2
    72b4:	82 10 20 01 	mov  1, %g1
    72b8:	88 11 21 0c 	or  %g4, 0x10c, %g4
    72bc:	80 a0 a0 00 	cmp  %g2, 0
    72c0:	02 80 00 13 	be  730c <_nss_files_setspent+0xc4>
    72c4:	c2 20 c0 00 	st  %g1, [ %g3 ]
    72c8:	9f c0 80 00 	call  %g2
    72cc:	d0 05 c0 04 	ld  [ %l7 + %g4 ], %o0
    72d0:	30 80 00 0f 	b,a   730c <_nss_files_setspent+0xc4>
    72d4:	03 00 00 00 	sethi  %hi(0), %g1
