
/home/inouema/work/LEON/linux/snapgear-2.6-p42/romfs/lib/libnsl-2.5.so:     ファイル形式 elf32-sparc

セクション .init の逆アセンブル:

00003ca8 <_init>:
_init():
    3ca8:	9d e3 bf a0 	save  %sp, -96, %sp
    3cac:	40 00 00 37 	call  3d88 <frame_dummy>
    3cb0:	01 00 00 00 	nop 
    3cb4:	40 00 2d 76 	call  f28c <__do_global_ctors_aux>
    3cb8:	01 00 00 00 	nop 
    3cbc:	81 c7 e0 08 	ret 
    3cc0:	81 e8 00 00 	restore 
セクション .text の逆アセンブル:

00003cc4 <__do_global_dtors_aux-0x8>:
    3cc4:	81 c3 e0 08 	retl 
    3cc8:	ae 03 c0 17 	add  %o7, %l7, %l7

00003ccc <__do_global_dtors_aux>:
__do_global_dtors_aux():
    3ccc:	9d e3 bf 98 	save  %sp, -104, %sp
    3cd0:	23 00 00 00 	sethi  %hi(0), %l1
    3cd4:	2f 00 00 78 	sethi  %hi(0x1e000), %l7
    3cd8:	7f ff ff fb 	call  3cc4 <_init+0x1c>
    3cdc:	ae 05 e3 28 	add  %l7, 0x328, %l7	! 1e328 <__FRAME_END__+0xd300>
    3ce0:	82 14 60 0c 	or  %l1, 0xc, %g1
    3ce4:	c4 05 c0 01 	ld  [ %l7 + %g1 ], %g2
    3ce8:	c6 08 80 00 	ldub  [ %g2 ], %g3
    3cec:	80 a0 e0 00 	cmp  %g3, 0
    3cf0:	12 80 00 21 	bne  3d74 <__do_global_dtors_aux+0xa8>
    3cf4:	03 00 00 00 	sethi  %hi(0), %g1
    3cf8:	82 10 63 e0 	or  %g1, 0x3e0, %g1	! 3e0 <GLIBC_2.0+0x3e0>
    3cfc:	c4 05 c0 01 	ld  [ %l7 + %g1 ], %g2
    3d00:	80 a0 a0 00 	cmp  %g2, 0
    3d04:	02 80 00 06 	be  3d1c <__do_global_dtors_aux+0x50>
    3d08:	03 00 00 00 	sethi  %hi(0), %g1
    3d0c:	82 10 63 98 	or  %g1, 0x398, %g1	! 398 <GLIBC_2.0+0x398>
    3d10:	c4 05 c0 01 	ld  [ %l7 + %g1 ], %g2
    3d14:	40 00 7a 9e 	call  2278c <__cxa_finalize@plt>
    3d18:	d0 00 80 00 	ld  [ %g2 ], %o0
    3d1c:	03 00 00 00 	sethi  %hi(0), %g1
    3d20:	82 10 60 08 	or  %g1, 8, %g1	! 8 <GLIBC_2.0+0x8>
    3d24:	c2 05 c0 01 	ld  [ %l7 + %g1 ], %g1
    3d28:	c4 00 40 00 	ld  [ %g1 ], %g2
    3d2c:	c4 00 80 00 	ld  [ %g2 ], %g2
    3d30:	80 a0 a0 00 	cmp  %g2, 0
    3d34:	22 80 00 0d 	be,a   3d68 <__do_global_dtors_aux+0x9c>
    3d38:	82 14 60 0c 	or  %l1, 0xc, %g1
    3d3c:	a0 10 00 01 	mov  %g1, %l0
    3d40:	c2 04 00 00 	ld  [ %l0 ], %g1
    3d44:	82 00 60 04 	add  %g1, 4, %g1
    3d48:	9f c0 80 00 	call  %g2
    3d4c:	c2 24 00 00 	st  %g1, [ %l0 ]
    3d50:	c2 04 00 00 	ld  [ %l0 ], %g1
    3d54:	c4 00 40 00 	ld  [ %g1 ], %g2
    3d58:	80 a0 a0 00 	cmp  %g2, 0
    3d5c:	12 bf ff fb 	bne  3d48 <__do_global_dtors_aux+0x7c>
    3d60:	82 00 60 04 	add  %g1, 4, %g1
    3d64:	82 14 60 0c 	or  %l1, 0xc, %g1
    3d68:	c6 05 c0 01 	ld  [ %l7 + %g1 ], %g3
    3d6c:	84 10 20 01 	mov  1, %g2
    3d70:	c4 28 c0 00 	stb  %g2, [ %g3 ]
    3d74:	81 c7 e0 08 	ret 
    3d78:	81 e8 00 00 	restore 

00003d7c <call___do_global_dtors_aux>:
call___do_global_dtors_aux():
    3d7c:	9d e3 bf 98 	save  %sp, -104, %sp
    3d80:	81 c7 e0 08 	ret 
    3d84:	81 e8 00 00 	restore 

00003d88 <frame_dummy>:
frame_dummy():
    3d88:	9d e3 bf 98 	save  %sp, -104, %sp
    3d8c:	03 00 00 00 	sethi  %hi(0), %g1
    3d90:	2f 00 00 78 	sethi  %hi(0x1e000), %l7
    3d94:	7f ff ff cc 	call  3cc4 <_init+0x1c>
    3d98:	ae 05 e2 6c 	add  %l7, 0x26c, %l7	! 1e26c <__FRAME_END__+0xd244>
    3d9c:	82 10 60 04 	or  %g1, 4, %g1
    3da0:	f0 05 c0 01 	ld  [ %l7 + %g1 ], %i0
    3da4:	05 00 00 00 	sethi  %hi(0), %g2
    3da8:	c2 06 00 00 	ld  [ %i0 ], %g1
    3dac:	80 a0 60 00 	cmp  %g1, 0
    3db0:	02 80 00 08 	be  3dd0 <frame_dummy+0x48>
    3db4:	84 10 a3 fc 	or  %g2, 0x3fc, %g2
    3db8:	c2 05 c0 02 	ld  [ %l7 + %g2 ], %g1
    3dbc:	80 a0 60 00 	cmp  %g1, 0
    3dc0:	02 80 00 04 	be  3dd0 <frame_dummy+0x48>
    3dc4:	01 00 00 00 	nop 
    3dc8:	10 80 7a aa 	b  22870 <_Jv_RegisterClasses@plt>
    3dcc:	81 e8 00 00 	restore 
    3dd0:	01 00 00 00 	nop 
    3dd4:	81 c7 e0 08 	ret 
    3dd8:	81 e8 00 00 	restore 

00003ddc <call_frame_dummy>:
call_frame_dummy():
    3ddc:	9d e3 bf 98 	save  %sp, -104, %sp
    3de0:	81 c7 e0 08 	ret 
    3de4:	81 e8 00 00 	restore 

00003de8 <xdr_ypstat>:
xdr_ypstat():
    3de8:	82 13 c0 00 	mov  %o7, %g1
    3dec:	10 80 7a 3b 	b  226d8 <xdr_enum@plt>
    3df0:	01 00 00 00 	nop 
    3df4:	01 00 00 00 	nop 

00003df8 <xdr_ypxfrstat>:
xdr_ypxfrstat():
    3df8:	82 13 c0 00 	mov  %o7, %g1
    3dfc:	10 80 7a 37 	b  226d8 <xdr_enum@plt>
    3e00:	01 00 00 00 	nop 
    3e04:	01 00 00 00 	nop 

00003e08 <xdr_domainname>:
xdr_domainname():
    3e08:	94 10 3f ff 	mov  -1, %o2	! ffffffff <_end+0xfffdb227>
    3e0c:	82 13 c0 00 	mov  %o7, %g1
    3e10:	10 80 7a a7 	b  228ac <xdr_string@plt>
    3e14:	01 00 00 00 	nop 
    3e18:	01 00 00 00 	nop 

00003e1c <xdr_mapname>:
xdr_mapname():
    3e1c:	94 10 3f ff 	mov  -1, %o2	! ffffffff <_end+0xfffdb227>
    3e20:	82 13 c0 00 	mov  %o7, %g1
    3e24:	10 80 7a a2 	b  228ac <xdr_string@plt>
    3e28:	01 00 00 00 	nop 
    3e2c:	01 00 00 00 	nop 

00003e30 <xdr_peername>:
xdr_peername():
    3e30:	94 10 3f ff 	mov  -1, %o2	! ffffffff <_end+0xfffdb227>
    3e34:	82 13 c0 00 	mov  %o7, %g1
    3e38:	10 80 7a 9d 	b  228ac <xdr_string@plt>
    3e3c:	01 00 00 00 	nop 
    3e40:	01 00 00 00 	nop 

00003e44 <xdr_keydat>:
xdr_keydat():
    3e44:	94 10 00 09 	mov  %o1, %o2
    3e48:	92 02 60 04 	add  %o1, 4, %o1
    3e4c:	96 10 3f ff 	mov  -1, %o3
    3e50:	82 13 c0 00 	mov  %o7, %g1
    3e54:	10 80 79 eb 	b  22600 <xdr_bytes@plt>
    3e58:	01 00 00 00 	nop 
    3e5c:	01 00 00 00 	nop 

00003e60 <xdr_valdat>:
xdr_valdat():
    3e60:	94 10 00 09 	mov  %o1, %o2
    3e64:	92 02 60 04 	add  %o1, 4, %o1
    3e68:	96 10 3f ff 	mov  -1, %o3
    3e6c:	82 13 c0 00 	mov  %o7, %g1
    3e70:	10 80 79 e4 	b  22600 <xdr_bytes@plt>
    3e74:	01 00 00 00 	nop 
    3e78:	01 00 00 00 	nop 

00003e7c <xdr_ypmap_parms>:
xdr_ypmap_parms():
    3e7c:	9d e3 bf 90 	save  %sp, -112, %sp
    3e80:	92 10 00 19 	mov  %i1, %o1
    3e84:	7f ff ff e1 	call  3e08 <xdr_domainname>
    3e88:	90 10 00 18 	mov  %i0, %o0
    3e8c:	80 a2 20 00 	cmp  %o0, 0
    3e90:	92 06 60 04 	add  %i1, 4, %o1
    3e94:	02 80 00 0f 	be  3ed0 <xdr_ypmap_parms+0x54>
    3e98:	90 10 00 18 	mov  %i0, %o0
    3e9c:	7f ff ff e0 	call  3e1c <xdr_mapname>
    3ea0:	01 00 00 00 	nop 
    3ea4:	80 a2 20 00 	cmp  %o0, 0
    3ea8:	92 06 60 08 	add  %i1, 8, %o1
    3eac:	02 80 00 09 	be  3ed0 <xdr_ypmap_parms+0x54>
    3eb0:	90 10 00 18 	mov  %i0, %o0
    3eb4:	40 00 79 b5 	call  22588 <xdr_u_int@plt>
    3eb8:	b2 06 60 0c 	add  %i1, 0xc, %i1
    3ebc:	80 a2 20 00 	cmp  %o0, 0
    3ec0:	02 80 00 04 	be  3ed0 <xdr_ypmap_parms+0x54>
    3ec4:	01 00 00 00 	nop 
    3ec8:	10 bf ff da 	b  3e30 <xdr_peername>
    3ecc:	81 e8 00 00 	restore 
    3ed0:	81 c7 e0 08 	ret 
    3ed4:	91 e8 20 00 	restore  %g0, 0, %o0

00003ed8 <xdr_ypreq_key>:
xdr_ypreq_key():
    3ed8:	9d e3 bf 90 	save  %sp, -112, %sp
    3edc:	92 10 00 19 	mov  %i1, %o1
    3ee0:	7f ff ff ca 	call  3e08 <xdr_domainname>
    3ee4:	90 10 00 18 	mov  %i0, %o0
    3ee8:	80 a2 20 00 	cmp  %o0, 0
    3eec:	92 06 60 04 	add  %i1, 4, %o1
    3ef0:	02 80 00 09 	be  3f14 <xdr_ypreq_key+0x3c>
    3ef4:	90 10 00 18 	mov  %i0, %o0
    3ef8:	7f ff ff c9 	call  3e1c <xdr_mapname>
    3efc:	b2 06 60 08 	add  %i1, 8, %i1
    3f00:	80 a2 20 00 	cmp  %o0, 0
    3f04:	02 80 00 04 	be  3f14 <xdr_ypreq_key+0x3c>
    3f08:	01 00 00 00 	nop 
    3f0c:	10 bf ff ce 	b  3e44 <xdr_keydat>
    3f10:	81 e8 00 00 	restore 
    3f14:	81 c7 e0 08 	ret 
    3f18:	91 e8 20 00 	restore  %g0, 0, %o0

00003f1c <xdr_ypreq_nokey>:
xdr_ypreq_nokey():
    3f1c:	9d e3 bf 90 	save  %sp, -112, %sp
    3f20:	92 10 00 19 	mov  %i1, %o1
    3f24:	7f ff ff b9 	call  3e08 <xdr_domainname>
    3f28:	90 10 00 18 	mov  %i0, %o0
    3f2c:	80 a2 20 00 	cmp  %o0, 0
    3f30:	02 80 00 04 	be  3f40 <xdr_ypreq_nokey+0x24>
    3f34:	b2 06 60 04 	add  %i1, 4, %i1
    3f38:	10 bf ff b9 	b  3e1c <xdr_mapname>
    3f3c:	81 e8 00 00 	restore 
    3f40:	81 c7 e0 08 	ret 
    3f44:	91 e8 20 00 	restore  %g0, 0, %o0

00003f48 <xdr_ypreq_xfr>:
xdr_ypreq_xfr():
    3f48:	9d e3 bf 90 	save  %sp, -112, %sp
    3f4c:	92 10 00 19 	mov  %i1, %o1
    3f50:	7f ff ff cb 	call  3e7c <xdr_ypmap_parms>
    3f54:	90 10 00 18 	mov  %i0, %o0
    3f58:	80 a2 20 00 	cmp  %o0, 0
    3f5c:	92 06 60 10 	add  %i1, 0x10, %o1
    3f60:	02 80 00 0f 	be  3f9c <xdr_ypreq_xfr+0x54>
    3f64:	90 10 00 18 	mov  %i0, %o0
    3f68:	40 00 79 88 	call  22588 <xdr_u_int@plt>
    3f6c:	01 00 00 00 	nop 
    3f70:	80 a2 20 00 	cmp  %o0, 0
    3f74:	92 06 60 14 	add  %i1, 0x14, %o1
    3f78:	02 80 00 09 	be  3f9c <xdr_ypreq_xfr+0x54>
    3f7c:	90 10 00 18 	mov  %i0, %o0
    3f80:	40 00 79 82 	call  22588 <xdr_u_int@plt>
    3f84:	b2 06 60 18 	add  %i1, 0x18, %i1
    3f88:	80 a2 20 00 	cmp  %o0, 0
    3f8c:	02 80 00 04 	be  3f9c <xdr_ypreq_xfr+0x54>
    3f90:	01 00 00 00 	nop 
    3f94:	10 80 79 7d 	b  22588 <xdr_u_int@plt>
    3f98:	81 e8 00 00 	restore 
    3f9c:	81 c7 e0 08 	ret 
    3fa0:	91 e8 20 00 	restore  %g0, 0, %o0

00003fa4 <xdr_ypresp_val>:
xdr_ypresp_val():
    3fa4:	9d e3 bf 90 	save  %sp, -112, %sp
    3fa8:	92 10 00 19 	mov  %i1, %o1
    3fac:	7f ff ff 8f 	call  3de8 <xdr_ypstat>
    3fb0:	90 10 00 18 	mov  %i0, %o0
    3fb4:	80 a2 20 00 	cmp  %o0, 0
    3fb8:	02 80 00 04 	be  3fc8 <xdr_ypresp_val+0x24>
    3fbc:	b2 06 60 04 	add  %i1, 4, %i1
    3fc0:	10 bf ff a8 	b  3e60 <xdr_valdat>
    3fc4:	81 e8 00 00 	restore 
    3fc8:	81 c7 e0 08 	ret 
    3fcc:	91 e8 20 00 	restore  %g0, 0, %o0

00003fd0 <xdr_ypresp_key_val>:
xdr_ypresp_key_val():
    3fd0:	9d e3 bf 90 	save  %sp, -112, %sp
    3fd4:	92 10 00 19 	mov  %i1, %o1
    3fd8:	7f ff ff 84 	call  3de8 <xdr_ypstat>
    3fdc:	90 10 00 18 	mov  %i0, %o0
    3fe0:	80 a2 20 00 	cmp  %o0, 0
    3fe4:	92 06 60 04 	add  %i1, 4, %o1
    3fe8:	02 80 00 09 	be  400c <xdr_ypresp_key_val+0x3c>
    3fec:	90 10 00 18 	mov  %i0, %o0
    3ff0:	7f ff ff 9c 	call  3e60 <xdr_valdat>
    3ff4:	b2 06 60 0c 	add  %i1, 0xc, %i1
    3ff8:	80 a2 20 00 	cmp  %o0, 0
    3ffc:	02 80 00 04 	be  400c <xdr_ypresp_key_val+0x3c>
    4000:	01 00 00 00 	nop 
    4004:	10 bf ff 90 	b  3e44 <xdr_keydat>
    4008:	81 e8 00 00 	restore 
    400c:	81 c7 e0 08 	ret 
    4010:	91 e8 20 00 	restore  %g0, 0, %o0

00004014 <xdr_ypresp_master>:
xdr_ypresp_master():
    4014:	9d e3 bf 90 	save  %sp, -112, %sp
    4018:	92 10 00 19 	mov  %i1, %o1
    401c:	7f ff ff 73 	call  3de8 <xdr_ypstat>
    4020:	90 10 00 18 	mov  %i0, %o0
    4024:	80 a2 20 00 	cmp  %o0, 0
    4028:	02 80 00 04 	be  4038 <xdr_ypresp_master+0x24>
    402c:	b2 06 60 04 	add  %i1, 4, %i1
    4030:	10 bf ff 80 	b  3e30 <xdr_peername>
    4034:	81 e8 00 00 	restore 
    4038:	81 c7 e0 08 	ret 
    403c:	91 e8 20 00 	restore  %g0, 0, %o0

00004040 <xdr_ypresp_order>:
xdr_ypresp_order():
    4040:	9d e3 bf 90 	save  %sp, -112, %sp
    4044:	92 10 00 19 	mov  %i1, %o1
    4048:	7f ff ff 68 	call  3de8 <xdr_ypstat>
    404c:	90 10 00 18 	mov  %i0, %o0
    4050:	80 a2 20 00 	cmp  %o0, 0
    4054:	02 80 00 04 	be  4064 <xdr_ypresp_order+0x24>
    4058:	b2 06 60 04 	add  %i1, 4, %i1
    405c:	10 80 79 4b 	b  22588 <xdr_u_int@plt>
    4060:	81 e8 00 00 	restore 
    4064:	81 c7 e0 08 	ret 
    4068:	91 e8 20 00 	restore  %g0, 0, %o0

0000406c <xdr_ypresp_all>:
xdr_ypresp_all():
    406c:	9d e3 bf 90 	save  %sp, -112, %sp
    4070:	90 10 00 18 	mov  %i0, %o0
    4074:	40 00 79 a8 	call  22714 <xdr_bool@plt>
    4078:	92 10 00 19 	mov  %i1, %o1
    407c:	80 a2 20 00 	cmp  %o0, 0
    4080:	02 80 00 0c 	be  40b0 <xdr_ypresp_all+0x44>
    4084:	82 10 20 00 	clr  %g1
    4088:	c4 06 40 00 	ld  [ %i1 ], %g2
    408c:	80 a0 a0 00 	cmp  %g2, 0
    4090:	02 80 00 08 	be  40b0 <xdr_ypresp_all+0x44>
    4094:	82 10 20 01 	mov  1, %g1
    4098:	b2 06 60 04 	add  %i1, 4, %i1
    409c:	80 a0 a0 01 	cmp  %g2, 1
    40a0:	12 80 00 04 	bne  40b0 <xdr_ypresp_all+0x44>
    40a4:	82 10 20 00 	clr  %g1
    40a8:	10 bf ff ca 	b  3fd0 <xdr_ypresp_key_val>
    40ac:	81 e8 00 00 	restore 
    40b0:	81 c7 e0 08 	ret 
    40b4:	91 e8 00 01 	restore  %g0, %g1, %o0

000040b8 <xdr_ypresp_xfr>:
xdr_ypresp_xfr():
    40b8:	9d e3 bf 90 	save  %sp, -112, %sp
    40bc:	92 10 00 19 	mov  %i1, %o1
    40c0:	40 00 79 32 	call  22588 <xdr_u_int@plt>
    40c4:	90 10 00 18 	mov  %i0, %o0
    40c8:	80 a2 20 00 	cmp  %o0, 0
    40cc:	02 80 00 04 	be  40dc <xdr_ypresp_xfr+0x24>
    40d0:	b2 06 60 04 	add  %i1, 4, %i1
    40d4:	10 bf ff 49 	b  3df8 <xdr_ypxfrstat>
    40d8:	81 e8 00 00 	restore 
    40dc:	81 c7 e0 08 	ret 
    40e0:	91 e8 20 00 	restore  %g0, 0, %o0
    40e4:	81 c3 e0 08 	retl 
    40e8:	ae 03 c0 17 	add  %o7, %l7, %l7

000040ec <xdr_ypmaplist>:
xdr_ypmaplist():
    40ec:	9d e3 bf 90 	save  %sp, -112, %sp
    40f0:	2f 00 00 77 	sethi  %hi(0x1dc00), %l7
    40f4:	7f ff ff fc 	call  40e4 <xdr_ypresp_xfr+0x2c>
    40f8:	ae 05 e3 0c 	add  %l7, 0x30c, %l7	! 1df0c <__FRAME_END__+0xcee4>
    40fc:	92 10 00 19 	mov  %i1, %o1
    4100:	7f ff ff 47 	call  3e1c <xdr_mapname>
    4104:	90 10 00 18 	mov  %i0, %o0
    4108:	03 00 00 00 	sethi  %hi(0), %g1
    410c:	82 10 63 e8 	or  %g1, 0x3e8, %g1	! 3e8 <GLIBC_2.0+0x3e8>
    4110:	b2 06 60 04 	add  %i1, 4, %i1
    4114:	80 a2 20 00 	cmp  %o0, 0
    4118:	02 80 00 05 	be  412c <xdr_ypmaplist+0x40>
    411c:	b4 10 20 08 	mov  8, %i2
    4120:	f6 05 c0 01 	ld  [ %l7 + %g1 ], %i3
    4124:	10 80 79 c1 	b  22828 <xdr_pointer@plt>
    4128:	81 e8 00 00 	restore 
    412c:	81 c7 e0 08 	ret 
    4130:	91 e8 20 00 	restore  %g0, 0, %o0

00004134 <xdr_ypresp_maplist>:
xdr_ypresp_maplist():
    4134:	9d e3 bf 90 	save  %sp, -112, %sp
    4138:	2f 00 00 77 	sethi  %hi(0x1dc00), %l7
    413c:	7f ff ff ea 	call  40e4 <xdr_ypresp_xfr+0x2c>
    4140:	ae 05 e2 c4 	add  %l7, 0x2c4, %l7	! 1dec4 <__FRAME_END__+0xce9c>
    4144:	92 10 00 19 	mov  %i1, %o1
    4148:	7f ff ff 28 	call  3de8 <xdr_ypstat>
    414c:	90 10 00 18 	mov  %i0, %o0
    4150:	03 00 00 00 	sethi  %hi(0), %g1
    4154:	82 10 63 e8 	or  %g1, 0x3e8, %g1	! 3e8 <GLIBC_2.0+0x3e8>
    4158:	b2 06 60 04 	add  %i1, 4, %i1
    415c:	80 a2 20 00 	cmp  %o0, 0
    4160:	02 80 00 05 	be  4174 <xdr_ypresp_maplist+0x40>
    4164:	b4 10 20 08 	mov  8, %i2
    4168:	f6 05 c0 01 	ld  [ %l7 + %g1 ], %i3
    416c:	10 80 79 af 	b  22828 <xdr_pointer@plt>
    4170:	81 e8 00 00 	restore 
    4174:	81 c7 e0 08 	ret 
    4178:	91 e8 20 00 	restore  %g0, 0, %o0

0000417c <xdr_yppush_status>:
xdr_yppush_status():
    417c:	82 13 c0 00 	mov  %o7, %g1
    4180:	10 80 79 56 	b  226d8 <xdr_enum@plt>
    4184:	01 00 00 00 	nop 
    4188:	01 00 00 00 	nop 

0000418c <xdr_yppushresp_xfr>:
xdr_yppushresp_xfr():
    418c:	9d e3 bf 90 	save  %sp, -112, %sp
    4190:	92 10 00 19 	mov  %i1, %o1
    4194:	40 00 78 fd 	call  22588 <xdr_u_int@plt>
    4198:	90 10 00 18 	mov  %i0, %o0
    419c:	80 a2 20 00 	cmp  %o0, 0
    41a0:	02 80 00 04 	be  41b0 <xdr_yppushresp_xfr+0x24>
    41a4:	b2 06 60 04 	add  %i1, 4, %i1
    41a8:	10 bf ff f5 	b  417c <xdr_yppush_status>
    41ac:	81 e8 00 00 	restore 
    41b0:	81 c7 e0 08 	ret 
    41b4:	91 e8 20 00 	restore  %g0, 0, %o0

000041b8 <xdr_ypbind_resptype>:
xdr_ypbind_resptype():
    41b8:	82 13 c0 00 	mov  %o7, %g1
    41bc:	10 80 79 47 	b  226d8 <xdr_enum@plt>
    41c0:	01 00 00 00 	nop 
    41c4:	01 00 00 00 	nop 

000041c8 <xdr_ypbind_binding>:
xdr_ypbind_binding():
    41c8:	9d e3 bf 90 	save  %sp, -112, %sp
    41cc:	92 10 00 19 	mov  %i1, %o1
    41d0:	90 10 00 18 	mov  %i0, %o0
    41d4:	40 00 78 ab 	call  22480 <xdr_opaque@plt>
    41d8:	94 10 20 04 	mov  4, %o2
    41dc:	b2 06 60 04 	add  %i1, 4, %i1
    41e0:	80 a2 20 00 	cmp  %o0, 0
    41e4:	02 80 00 04 	be  41f4 <xdr_ypbind_binding+0x2c>
    41e8:	b4 10 20 02 	mov  2, %i2
    41ec:	10 80 78 a5 	b  22480 <xdr_opaque@plt>
    41f0:	81 e8 00 00 	restore 
    41f4:	81 c7 e0 08 	ret 
    41f8:	91 e8 20 00 	restore  %g0, 0, %o0

000041fc <xdr_ypbind_resp>:
xdr_ypbind_resp():
    41fc:	9d e3 bf 90 	save  %sp, -112, %sp
    4200:	90 10 00 18 	mov  %i0, %o0
    4204:	7f ff ff ed 	call  41b8 <xdr_ypbind_resptype>
    4208:	92 10 00 19 	mov  %i1, %o1
    420c:	80 a2 20 00 	cmp  %o0, 0
    4210:	02 80 00 0e 	be  4248 <xdr_ypbind_resp+0x4c>
    4214:	a0 10 00 19 	mov  %i1, %l0
    4218:	c2 04 00 00 	ld  [ %l0 ], %g1
    421c:	80 a0 60 01 	cmp  %g1, 1
    4220:	02 80 00 06 	be  4238 <xdr_ypbind_resp+0x3c>
    4224:	b2 06 60 04 	add  %i1, 4, %i1
    4228:	80 a0 60 02 	cmp  %g1, 2
    422c:	12 80 00 07 	bne  4248 <xdr_ypbind_resp+0x4c>
    4230:	01 00 00 00 	nop 
    4234:	30 80 00 03 	b,a   4240 <xdr_ypbind_resp+0x44>
    4238:	10 bf ff e4 	b  41c8 <xdr_ypbind_binding>
    423c:	81 e8 00 00 	restore 
    4240:	10 80 78 d2 	b  22588 <xdr_u_int@plt>
    4244:	81 e8 00 00 	restore 
    4248:	81 c7 e0 08 	ret 
    424c:	91 e8 20 00 	restore  %g0, 0, %o0

00004250 <xdr_ypbind_setdom>:
xdr_ypbind_setdom():
    4250:	9d e3 bf 90 	save  %sp, -112, %sp
    4254:	92 10 00 19 	mov  %i1, %o1
    4258:	7f ff fe ec 	call  3e08 <xdr_domainname>
    425c:	90 10 00 18 	mov  %i0, %o0
    4260:	80 a2 20 00 	cmp  %o0, 0
    4264:	92 06 60 04 	add  %i1, 4, %o1
    4268:	02 80 00 09 	be  428c <xdr_ypbind_setdom+0x3c>
    426c:	90 10 00 18 	mov  %i0, %o0
    4270:	7f ff ff d6 	call  41c8 <xdr_ypbind_binding>
    4274:	b2 06 60 0c 	add  %i1, 0xc, %i1
    4278:	80 a2 20 00 	cmp  %o0, 0
    427c:	02 80 00 04 	be  428c <xdr_ypbind_setdom+0x3c>
    4280:	01 00 00 00 	nop 
    4284:	10 80 78 c1 	b  22588 <xdr_u_int@plt>
    4288:	81 e8 00 00 	restore 
    428c:	81 c7 e0 08 	ret 
    4290:	91 e8 20 00 	restore  %g0, 0, %o0

00004294 <xdr_ypall>:
xdr_ypall():
    4294:	9d e3 b7 70 	save  %sp, -2192, %sp
    4298:	84 10 20 00 	clr  %g2
    429c:	86 10 20 00 	clr  %g3
    42a0:	c4 3f bf e0 	std  %g2, [ %fp + -32 ]
    42a4:	c4 3f bf d8 	std  %g2, [ %fp + -40 ]
    42a8:	88 10 24 00 	mov  0x400, %g4
    42ac:	82 07 bb d8 	add  %fp, -1064, %g1
    42b0:	84 07 b7 d8 	add  %fp, -2088, %g2
    42b4:	c2 27 bf e8 	st  %g1, [ %fp + -24 ]
    42b8:	c4 27 bf e0 	st  %g2, [ %fp + -32 ]
    42bc:	c8 27 bf dc 	st  %g4, [ %fp + -36 ]
    42c0:	c8 27 bf e4 	st  %g4, [ %fp + -28 ]
    42c4:	92 07 b7 d4 	add  %fp, -2092, %o1
    42c8:	40 00 79 13 	call  22714 <xdr_bool@plt>
    42cc:	90 10 00 18 	mov  %i0, %o0
    42d0:	80 a2 20 00 	cmp  %o0, 0
    42d4:	92 07 bf d8 	add  %fp, -40, %o1
    42d8:	02 80 00 17 	be  4334 <xdr_ypall+0xa0>
    42dc:	90 10 00 18 	mov  %i0, %o0
    42e0:	c2 07 b7 d4 	ld  [ %fp + -2092 ], %g1
    42e4:	80 a0 60 00 	cmp  %g1, 0
    42e8:	22 80 00 14 	be,a   4338 <xdr_ypall+0xa4>
    42ec:	b0 10 20 01 	mov  1, %i0
    42f0:	7f ff ff 38 	call  3fd0 <xdr_ypresp_key_val>
    42f4:	01 00 00 00 	nop 
    42f8:	80 a2 20 00 	cmp  %o0, 0
    42fc:	02 80 00 0e 	be  4334 <xdr_ypall+0xa0>
    4300:	d0 07 bf d8 	ld  [ %fp + -40 ], %o0
    4304:	c2 06 40 00 	ld  [ %i1 ], %g1
    4308:	d2 07 bf e8 	ld  [ %fp + -24 ], %o1
    430c:	d4 07 bf e4 	ld  [ %fp + -28 ], %o2
    4310:	d6 07 bf e0 	ld  [ %fp + -32 ], %o3
    4314:	d8 07 bf dc 	ld  [ %fp + -36 ], %o4
    4318:	9f c0 40 00 	call  %g1
    431c:	da 06 60 04 	ld  [ %i1 + 4 ], %o5
    4320:	80 a2 20 00 	cmp  %o0, 0
    4324:	02 bf ff e9 	be  42c8 <xdr_ypall+0x34>
    4328:	92 07 b7 d4 	add  %fp, -2092, %o1
    432c:	10 80 00 03 	b  4338 <xdr_ypall+0xa4>
    4330:	b0 10 20 01 	mov  1, %i0
    4334:	b0 10 20 00 	clr  %i0
    4338:	81 c7 e0 08 	ret 
    433c:	81 e8 00 00 	restore 
    4340:	00 00 15 18 	unimp  0x1518
    4344:	00 00 15 ec 	unimp  0x15ec
    4348:	00 00 15 e0 	unimp  0x15e0
    434c:	00 00 15 d4 	unimp  0x15d4
    4350:	00 00 15 c8 	unimp  0x15c8
    4354:	00 00 15 bc 	unimp  0x15bc
    4358:	00 00 15 b0 	unimp  0x15b0
    435c:	00 00 15 a4 	unimp  0x15a4
    4360:	00 00 15 98 	unimp  0x1598
    4364:	00 00 15 8c 	unimp  0x158c
    4368:	00 00 15 80 	unimp  0x1580
    436c:	00 00 15 74 	unimp  0x1574
    4370:	00 00 15 68 	unimp  0x1568
    4374:	00 00 15 5c 	unimp  0x155c
    4378:	00 00 15 50 	unimp  0x1550
    437c:	00 00 15 44 	unimp  0x1544
    4380:	00 00 15 38 	unimp  0x1538
    4384:	81 c3 e0 08 	retl 
    4388:	ae 03 c0 17 	add  %o7, %l7, %l7

0000438c <yp_bind_client_create>:
yp_bind_client_create():
    438c:	9d e3 bf 88 	save  %sp, -120, %sp
    4390:	82 10 20 02 	mov  2, %g1
    4394:	c2 36 60 48 	sth  %g1, [ %i1 + 0x48 ]
    4398:	c2 16 a0 08 	lduh  [ %i2 + 8 ], %g1
    439c:	c2 36 60 4a 	sth  %g1, [ %i1 + 0x4a ]
    43a0:	c4 06 a0 04 	ld  [ %i2 + 4 ], %g2
    43a4:	2f 00 00 77 	sethi  %hi(0x1dc00), %l7
    43a8:	7f ff ff f7 	call  4384 <xdr_ypall+0xf0>
    43ac:	ae 05 e0 58 	add  %l7, 0x58, %l7	! 1dc58 <__FRAME_END__+0xcc30>
    43b0:	c4 26 60 4c 	st  %g2, [ %i1 + 0x4c ]
    43b4:	92 10 00 18 	mov  %i0, %o1
    43b8:	94 10 20 40 	mov  0x40, %o2
    43bc:	40 00 79 18 	call  2281c <strncpy@plt>
    43c0:	90 06 60 04 	add  %i1, 4, %o0
    43c4:	03 00 00 00 	sethi  %hi(0), %g1
    43c8:	82 10 60 1c 	or  %g1, 0x1c, %g1	! 1c <GLIBC_2.0+0x1c>
    43cc:	c4 05 c0 01 	ld  [ %l7 + %g1 ], %g2
    43d0:	c8 00 a0 04 	ld  [ %g2 + 4 ], %g4
    43d4:	c6 00 80 00 	ld  [ %g2 ], %g3
    43d8:	82 10 3f ff 	mov  -1, %g1
    43dc:	13 00 00 61 	sethi  %hi(0x18400), %o1
    43e0:	92 12 62 a4 	or  %o1, 0x2a4, %o1	! 186a4 <__FRAME_END__+0x767c>
    43e4:	94 10 20 02 	mov  2, %o2
    43e8:	c2 26 60 58 	st  %g1, [ %i1 + 0x58 ]
    43ec:	c6 27 bf e8 	st  %g3, [ %fp + -24 ]
    43f0:	c8 27 bf ec 	st  %g4, [ %fp + -20 ]
    43f4:	c0 2e 60 44 	clrb  [ %i1 + 0x44 ]
    43f8:	96 07 bf e8 	add  %fp, -24, %o3
    43fc:	98 06 60 58 	add  %i1, 0x58, %o4
    4400:	40 00 78 ad 	call  226b4 <clntudp_create@plt>
    4404:	90 06 60 48 	add  %i1, 0x48, %o0
    4408:	92 10 20 02 	mov  2, %o1
    440c:	94 10 20 01 	mov  1, %o2
    4410:	80 a2 20 00 	cmp  %o0, 0
    4414:	02 80 00 0a 	be  443c <yp_bind_client_create+0xb0>
    4418:	d0 26 60 5c 	st  %o0, [ %i1 + 0x5c ]
    441c:	40 00 78 ca 	call  22744 <fcntl@plt>
    4420:	d0 06 60 58 	ld  [ %i1 + 0x58 ], %o0
    4424:	03 00 00 00 	sethi  %hi(0), %g1
    4428:	80 a2 3f ff 	cmp  %o0, -1
    442c:	12 80 00 04 	bne  443c <yp_bind_client_create+0xb0>
    4430:	82 10 60 30 	or  %g1, 0x30, %g1
    4434:	40 00 78 31 	call  224f8 <perror@plt>
    4438:	d0 05 c0 01 	ld  [ %l7 + %g1 ], %o0
    443c:	01 00 00 00 	nop 
    4440:	81 c7 e0 08 	ret 
    4444:	81 e8 00 00 	restore 

00004448 <__yp_unbind>:
__yp_unbind():
    4448:	9d e3 bf 90 	save  %sp, -112, %sp
    444c:	d0 06 20 5c 	ld  [ %i0 + 0x5c ], %o0
    4450:	c4 02 20 04 	ld  [ %o0 + 4 ], %g2
    4454:	c2 00 a0 10 	ld  [ %g2 + 0x10 ], %g1
    4458:	9f c0 40 00 	call  %g1
    445c:	01 00 00 00 	nop 
    4460:	10 80 78 e0 	b  227e0 <free@plt>
    4464:	81 e8 00 00 	restore 
    4468:	01 00 00 00 	nop 

0000446c <yp_unbind_locked>:
yp_unbind_locked():
    446c:	9d e3 bf 90 	save  %sp, -112, %sp
    4470:	03 00 00 00 	sethi  %hi(0), %g1
    4474:	2f 00 00 76 	sethi  %hi(0x1d800), %l7
    4478:	7f ff ff c3 	call  4384 <xdr_ypall+0xf0>
    447c:	ae 05 e3 88 	add  %l7, 0x388, %l7	! 1db88 <__FRAME_END__+0xcb60>
    4480:	82 10 60 18 	or  %g1, 0x18, %g1
    4484:	c2 05 c0 01 	ld  [ %l7 + %g1 ], %g1
    4488:	e0 00 40 00 	ld  [ %g1 ], %l0
    448c:	80 a4 20 00 	cmp  %l0, 0
    4490:	02 80 00 16 	be  44e8 <yp_unbind_locked+0x7c>
    4494:	a2 10 20 00 	clr  %l1
    4498:	a4 10 00 01 	mov  %g1, %l2
    449c:	90 04 20 04 	add  %l0, 4, %o0
    44a0:	40 00 78 0d 	call  224d4 <strcmp@plt>
    44a4:	92 10 00 18 	mov  %i0, %o1
    44a8:	80 a2 20 00 	cmp  %o0, 0
    44ac:	02 80 00 08 	be  44cc <yp_unbind_locked+0x60>
    44b0:	80 a4 60 00 	cmp  %l1, 0
    44b4:	a2 10 00 10 	mov  %l0, %l1
    44b8:	e0 04 00 00 	ld  [ %l0 ], %l0
    44bc:	80 a4 20 00 	cmp  %l0, 0
    44c0:	12 bf ff f8 	bne  44a0 <yp_unbind_locked+0x34>
    44c4:	90 04 20 04 	add  %l0, 4, %o0
    44c8:	30 80 00 08 	b,a   44e8 <yp_unbind_locked+0x7c>
    44cc:	22 80 00 04 	be,a   44dc <yp_unbind_locked+0x70>
    44d0:	c2 04 80 00 	ld  [ %l2 ], %g1
    44d4:	10 bf ff dd 	b  4448 <__yp_unbind>
    44d8:	91 e8 00 10 	restore  %g0, %l0, %o0
    44dc:	c4 00 40 00 	ld  [ %g1 ], %g2
    44e0:	10 bf ff fd 	b  44d4 <yp_unbind_locked+0x68>
    44e4:	c4 24 80 00 	st  %g2, [ %l2 ]
    44e8:	81 c7 e0 08 	ret 
    44ec:	81 e8 00 00 	restore 

000044f0 <yp_unbind>:
yp_unbind():
    44f0:	9d e3 bf 90 	save  %sp, -112, %sp
    44f4:	03 00 00 00 	sethi  %hi(0), %g1
    44f8:	2f 00 00 76 	sethi  %hi(0x1d800), %l7
    44fc:	7f ff ff a2 	call  4384 <xdr_ypall+0xf0>
    4500:	ae 05 e3 04 	add  %l7, 0x304, %l7	! 1db04 <__FRAME_END__+0xcadc>
    4504:	82 10 63 68 	or  %g1, 0x368, %g1
    4508:	05 00 00 00 	sethi  %hi(0), %g2
    450c:	c2 05 c0 01 	ld  [ %l7 + %g1 ], %g1
    4510:	80 a0 60 00 	cmp  %g1, 0
    4514:	02 80 00 04 	be  4524 <yp_unbind+0x34>
    4518:	84 10 a0 20 	or  %g2, 0x20, %g2
    451c:	9f c0 40 00 	call  %g1
    4520:	d0 05 c0 02 	ld  [ %l7 + %g2 ], %o0
    4524:	7f ff ff d2 	call  446c <yp_unbind_locked>
    4528:	90 10 00 18 	mov  %i0, %o0
    452c:	03 00 00 00 	sethi  %hi(0), %g1
    4530:	82 10 63 a8 	or  %g1, 0x3a8, %g1	! 3a8 <GLIBC_2.0+0x3a8>
    4534:	05 00 00 00 	sethi  %hi(0), %g2
    4538:	c2 05 c0 01 	ld  [ %l7 + %g1 ], %g1
    453c:	80 a0 60 00 	cmp  %g1, 0
    4540:	02 80 00 04 	be  4550 <yp_unbind+0x60>
    4544:	84 10 a0 20 	or  %g2, 0x20, %g2
    4548:	9f c0 40 00 	call  %g1
    454c:	d0 05 c0 02 	ld  [ %l7 + %g2 ], %o0
    4550:	01 00 00 00 	nop 
    4554:	81 c7 e0 08 	ret 
    4558:	81 e8 00 00 	restore 

0000455c <__ypclnt_call>:
__ypclnt_call():
    455c:	9d e3 bf 80 	save  %sp, -128, %sp
    4560:	e0 07 a0 5c 	ld  [ %fp + 0x5c ], %l0
    4564:	03 00 00 00 	sethi  %hi(0), %g1
    4568:	c8 04 00 00 	ld  [ %l0 ], %g4
    456c:	2f 00 00 76 	sethi  %hi(0x1d800), %l7
    4570:	7f ff ff 85 	call  4384 <xdr_ypall+0xf0>
    4574:	ae 05 e2 90 	add  %l7, 0x290, %l7	! 1da90 <__FRAME_END__+0xca68>
    4578:	82 10 60 10 	or  %g1, 0x10, %g1
    457c:	c4 01 20 5c 	ld  [ %g4 + 0x5c ], %g2
    4580:	c6 05 c0 01 	ld  [ %l7 + %g1 ], %g3
    4584:	d0 00 a0 04 	ld  [ %g2 + 4 ], %o0
    4588:	82 07 bf e8 	add  %fp, -24, %g1
    458c:	c2 23 a0 5c 	st  %g1, [ %sp + 0x5c ]
    4590:	c2 00 c0 00 	ld  [ %g3 ], %g1
    4594:	c2 27 bf e8 	st  %g1, [ %fp + -24 ]
    4598:	c4 00 e0 04 	ld  [ %g3 + 4 ], %g2
    459c:	c2 02 00 00 	ld  [ %o0 ], %g1
    45a0:	c4 27 bf ec 	st  %g2, [ %fp + -20 ]
    45a4:	92 10 00 19 	mov  %i1, %o1
    45a8:	94 10 00 1a 	mov  %i2, %o2
    45ac:	96 10 00 1b 	mov  %i3, %o3
    45b0:	98 10 00 1c 	mov  %i4, %o4
    45b4:	9a 10 00 1d 	mov  %i5, %o5
    45b8:	9f c0 40 00 	call  %g1
    45bc:	d0 01 20 5c 	ld  [ %g4 + 0x5c ], %o0
    45c0:	80 a2 20 00 	cmp  %o0, 0
    45c4:	02 80 00 0e 	be  45fc <__ypclnt_call+0xa0>
    45c8:	b0 10 20 00 	clr  %i0
    45cc:	05 00 00 00 	sethi  %hi(0), %g2
    45d0:	c2 07 a0 60 	ld  [ %fp + 0x60 ], %g1
    45d4:	80 a0 60 00 	cmp  %g1, 0
    45d8:	12 80 00 04 	bne  45e8 <__ypclnt_call+0x8c>
    45dc:	84 10 a0 34 	or  %g2, 0x34, %g2
    45e0:	10 80 00 07 	b  45fc <__ypclnt_call+0xa0>
    45e4:	b0 10 20 02 	mov  2, %i0
    45e8:	c2 04 00 00 	ld  [ %l0 ], %g1
    45ec:	d0 00 60 5c 	ld  [ %g1 + 0x5c ], %o0
    45f0:	40 00 78 b2 	call  228b8 <clnt_perror@plt>
    45f4:	d2 05 c0 02 	ld  [ %l7 + %g2 ], %o1
    45f8:	b0 10 20 02 	mov  2, %i0
    45fc:	81 c7 e0 08 	ret 
    4600:	81 e8 00 00 	restore 

00004604 <ypprot_err>:
ypprot_err():
    4604:	9d e3 bf 90 	save  %sp, -112, %sp
    4608:	82 06 20 08 	add  %i0, 8, %g1
    460c:	05 00 00 00 	sethi  %hi(0), %g2
    4610:	86 10 00 18 	mov  %i0, %g3
    4614:	2f 00 00 76 	sethi  %hi(0x1d800), %l7
    4618:	7f ff ff 5b 	call  4384 <xdr_ypall+0xf0>
    461c:	ae 05 e1 e8 	add  %l7, 0x1e8, %l7	! 1d9e8 <__FRAME_END__+0xc9c0>
    4620:	84 10 a0 14 	or  %g2, 0x14, %g2
    4624:	80 a0 60 0a 	cmp  %g1, 0xa
    4628:	18 80 00 05 	bgu  463c <ypprot_err+0x38>
    462c:	b0 10 20 06 	mov  6, %i0
    4630:	c2 05 c0 02 	ld  [ %l7 + %g2 ], %g1
    4634:	82 00 c0 01 	add  %g3, %g1, %g1
    4638:	f0 48 60 08 	ldsb  [ %g1 + 8 ], %i0
    463c:	81 c7 e0 08 	ret 
    4640:	81 e8 00 00 	restore 

00004644 <yp_get_default_domain>:
yp_get_default_domain():
    4644:	9d e3 bf 90 	save  %sp, -112, %sp
    4648:	03 00 00 00 	sethi  %hi(0), %g1
    464c:	2f 00 00 76 	sethi  %hi(0x1d800), %l7
    4650:	7f ff ff 4d 	call  4384 <xdr_ypall+0xf0>
    4654:	ae 05 e1 b0 	add  %l7, 0x1b0, %l7	! 1d9b0 <__FRAME_END__+0xc988>
    4658:	82 10 63 68 	or  %g1, 0x368, %g1
    465c:	c4 05 c0 01 	ld  [ %l7 + %g1 ], %g2
    4660:	c0 26 00 00 	clr  [ %i0 ]
    4664:	80 a0 a0 00 	cmp  %g2, 0
    4668:	02 80 00 06 	be  4680 <yp_get_default_domain+0x3c>
    466c:	a2 10 20 00 	clr  %l1
    4670:	03 00 00 00 	sethi  %hi(0), %g1
    4674:	82 10 60 24 	or  %g1, 0x24, %g1	! 24 <GLIBC_2.0+0x24>
    4678:	9f c0 80 00 	call  %g2
    467c:	d0 05 c0 01 	ld  [ %l7 + %g1 ], %o0
    4680:	03 00 00 00 	sethi  %hi(0), %g1
    4684:	82 10 60 28 	or  %g1, 0x28, %g1	! 28 <GLIBC_2.0+0x28>
    4688:	e0 05 c0 01 	ld  [ %l7 + %g1 ], %l0
    468c:	c4 4c 00 00 	ldsb  [ %l0 ], %g2
    4690:	80 a0 a0 00 	cmp  %g2, 0
    4694:	22 80 00 0d 	be,a   46c8 <yp_get_default_domain+0x84>
    4698:	90 10 00 10 	mov  %l0, %o0
    469c:	e0 26 00 00 	st  %l0, [ %i0 ]
    46a0:	03 00 00 00 	sethi  %hi(0), %g1
    46a4:	82 10 63 a8 	or  %g1, 0x3a8, %g1	! 3a8 <GLIBC_2.0+0x3a8>
    46a8:	c4 05 c0 01 	ld  [ %l7 + %g1 ], %g2
    46ac:	80 a0 a0 00 	cmp  %g2, 0
    46b0:	02 80 00 16 	be  4708 <yp_get_default_domain+0xc4>
    46b4:	03 00 00 00 	sethi  %hi(0), %g1
    46b8:	82 10 60 24 	or  %g1, 0x24, %g1	! 24 <GLIBC_2.0+0x24>
    46bc:	9f c0 80 00 	call  %g2
    46c0:	d0 05 c0 01 	ld  [ %l7 + %g1 ], %o0
    46c4:	30 80 00 11 	b,a   4708 <yp_get_default_domain+0xc4>
    46c8:	40 00 77 e0 	call  22648 <getdomainname@plt>
    46cc:	92 10 24 00 	mov  0x400, %o1
    46d0:	80 a2 20 00 	cmp  %o0, 0
    46d4:	32 bf ff f3 	bne,a   46a0 <yp_get_default_domain+0x5c>
    46d8:	a2 10 20 0c 	mov  0xc, %l1
    46dc:	03 00 00 00 	sethi  %hi(0), %g1
    46e0:	82 10 60 38 	or  %g1, 0x38, %g1	! 38 <GLIBC_2.0+0x38>
    46e4:	d2 05 c0 01 	ld  [ %l7 + %g1 ], %o1
    46e8:	40 00 77 7b 	call  224d4 <strcmp@plt>
    46ec:	90 10 00 10 	mov  %l0, %o0
    46f0:	80 a2 20 00 	cmp  %o0, 0
    46f4:	32 bf ff eb 	bne,a   46a0 <yp_get_default_domain+0x5c>
    46f8:	e0 26 00 00 	st  %l0, [ %i0 ]
    46fc:	c0 2c 00 00 	clrb  [ %l0 ]
    4700:	10 bf ff e8 	b  46a0 <yp_get_default_domain+0x5c>
    4704:	a2 10 20 0c 	mov  0xc, %l1
    4708:	81 c7 e0 08 	ret 
    470c:	91 e8 00 11 	restore  %g0, %l1, %o0

00004710 <__xdr_ypresp_all>:
__xdr_ypresp_all():
    4710:	9d e3 bf 78 	save  %sp, -136, %sp
    4714:	2d 00 00 00 	sethi  %hi(0), %l6
    4718:	2f 00 00 76 	sethi  %hi(0x1d800), %l7
    471c:	7f ff ff 1a 	call  4384 <xdr_ypall+0xf0>
    4720:	ae 05 e0 e4 	add  %l7, 0xe4, %l7	! 1d8e4 <__FRAME_END__+0xc8bc>
    4724:	aa 07 bf d8 	add  %fp, -40, %l5
    4728:	10 80 00 2c 	b  47d8 <__xdr_ypresp_all+0xc8>
    472c:	ba 15 a3 4c 	or  %l6, 0x34c, %i5
    4730:	c2 07 bf d8 	ld  [ %fp + -40 ], %g1
    4734:	80 a0 60 00 	cmp  %g1, 0
    4738:	02 80 00 3a 	be  4820 <__xdr_ypresp_all+0x110>
    473c:	c6 07 bf dc 	ld  [ %fp + -36 ], %g3
    4740:	80 a0 e0 01 	cmp  %g3, 1
    4744:	12 80 00 3f 	bne  4840 <__xdr_ypresp_all+0x130>
    4748:	e2 07 bf e8 	ld  [ %fp + -24 ], %l1
    474c:	82 04 60 08 	add  %l1, 8, %g1
    4750:	82 08 7f f8 	and  %g1, -8, %g1
    4754:	e0 07 bf e0 	ld  [ %fp + -32 ], %l0
    4758:	9c 23 80 01 	sub  %sp, %g1, %sp
    475c:	84 04 20 08 	add  %l0, 8, %g2
    4760:	84 08 bf f8 	and  %g2, -8, %g2
    4764:	a6 03 a0 60 	add  %sp, 0x60, %l3
    4768:	9c 23 80 02 	sub  %sp, %g2, %sp
    476c:	c6 26 40 00 	st  %g3, [ %i1 ]
    4770:	a4 03 a0 60 	add  %sp, 0x60, %l2
    4774:	d2 07 bf ec 	ld  [ %fp + -20 ], %o1
    4778:	94 10 00 11 	mov  %l1, %o2
    477c:	40 00 77 44 	call  2248c <mempcpy@plt>
    4780:	90 10 00 13 	mov  %l3, %o0
    4784:	c0 2a 00 00 	clrb  [ %o0 ]
    4788:	94 10 00 10 	mov  %l0, %o2
    478c:	d2 07 bf e4 	ld  [ %fp + -28 ], %o1
    4790:	40 00 77 3f 	call  2248c <mempcpy@plt>
    4794:	90 10 00 12 	mov  %l2, %o0
    4798:	82 15 a3 4c 	or  %l6, 0x34c, %g1
    479c:	c0 2a 00 00 	clrb  [ %o0 ]
    47a0:	d0 05 c0 01 	ld  [ %l7 + %g1 ], %o0
    47a4:	40 00 77 52 	call  224ec <xdr_free@plt>
    47a8:	92 10 00 15 	mov  %l5, %o1
    47ac:	92 10 00 13 	mov  %l3, %o1
    47b0:	94 10 00 11 	mov  %l1, %o2
    47b4:	96 10 00 12 	mov  %l2, %o3
    47b8:	98 10 00 10 	mov  %l0, %o4
    47bc:	c2 06 60 08 	ld  [ %i1 + 8 ], %g1
    47c0:	d0 06 40 00 	ld  [ %i1 ], %o0
    47c4:	9f c0 40 00 	call  %g1
    47c8:	da 06 60 04 	ld  [ %i1 + 4 ], %o5
    47cc:	80 a2 20 00 	cmp  %o0, 0
    47d0:	12 80 00 2b 	bne  487c <__xdr_ypresp_all+0x16c>
    47d4:	9c 10 00 14 	mov  %l4, %sp
    47d8:	84 10 20 00 	clr  %g2
    47dc:	86 10 20 00 	clr  %g3
    47e0:	c4 3f bf e8 	std  %g2, [ %fp + -24 ]
    47e4:	c4 3f bf d8 	std  %g2, [ %fp + -40 ]
    47e8:	c4 3f bf e0 	std  %g2, [ %fp + -32 ]
    47ec:	92 10 00 15 	mov  %l5, %o1
    47f0:	7f ff fe 1f 	call  406c <xdr_ypresp_all>
    47f4:	90 10 00 18 	mov  %i0, %o0
    47f8:	80 a2 20 00 	cmp  %o0, 0
    47fc:	12 bf ff cd 	bne  4730 <__xdr_ypresp_all+0x20>
    4800:	a8 10 00 0e 	mov  %sp, %l4
    4804:	d0 05 c0 1d 	ld  [ %l7 + %i5 ], %o0
    4808:	40 00 77 39 	call  224ec <xdr_free@plt>
    480c:	92 10 00 15 	mov  %l5, %o1
    4810:	82 10 3f fa 	mov  -6, %g1
    4814:	c2 26 40 00 	st  %g1, [ %i1 ]
    4818:	10 80 00 1a 	b  4880 <__xdr_ypresp_all+0x170>
    481c:	b0 10 20 00 	clr  %i0
    4820:	82 15 a3 4c 	or  %l6, 0x34c, %g1
    4824:	d0 05 c0 01 	ld  [ %l7 + %g1 ], %o0
    4828:	40 00 77 31 	call  224ec <xdr_free@plt>
    482c:	92 10 00 15 	mov  %l5, %o1
    4830:	82 10 20 02 	mov  2, %g1
    4834:	c2 26 40 00 	st  %g1, [ %i1 ]
    4838:	10 80 00 12 	b  4880 <__xdr_ypresp_all+0x170>
    483c:	b0 10 20 01 	mov  1, %i0
    4840:	82 15 a3 4c 	or  %l6, 0x34c, %g1
    4844:	d0 05 c0 01 	ld  [ %l7 + %g1 ], %o0
    4848:	c6 26 40 00 	st  %g3, [ %i1 ]
    484c:	40 00 77 28 	call  224ec <xdr_free@plt>
    4850:	92 10 00 15 	mov  %l5, %o1
    4854:	da 06 60 04 	ld  [ %i1 + 4 ], %o5
    4858:	c2 06 60 08 	ld  [ %i1 + 8 ], %g1
    485c:	d0 06 40 00 	ld  [ %i1 ], %o0
    4860:	92 10 20 00 	clr  %o1
    4864:	94 10 20 00 	clr  %o2
    4868:	96 10 20 00 	clr  %o3
    486c:	9f c0 40 00 	call  %g1
    4870:	98 10 20 00 	clr  %o4
    4874:	10 80 00 03 	b  4880 <__xdr_ypresp_all+0x170>
    4878:	b0 10 20 01 	mov  1, %i0
    487c:	b0 10 20 01 	mov  1, %i0
    4880:	81 c7 e0 08 	ret 
    4884:	81 e8 00 00 	restore 

00004888 <ypbinderr_string>:
ypbinderr_string():
    4888:	9d e3 bf 90 	save  %sp, -112, %sp
    488c:	03 00 00 00 	sethi  %hi(0), %g1
    4890:	2f 00 00 75 	sethi  %hi(0x1d400), %l7
    4894:	7f ff fe bc 	call  4384 <xdr_ypall+0xf0>
    4898:	ae 05 e3 6c 	add  %l7, 0x36c, %l7	! 1d76c <__FRAME_END__+0xc744>
    489c:	80 a6 20 01 	cmp  %i0, 1
    48a0:	02 80 00 0e 	be  48d8 <ypbinderr_string+0x50>
    48a4:	82 10 60 3c 	or  %g1, 0x3c, %g1
    48a8:	80 a6 20 01 	cmp  %i0, 1
    48ac:	04 80 00 11 	ble  48f0 <ypbinderr_string+0x68>
    48b0:	03 00 00 00 	sethi  %hi(0), %g1
    48b4:	80 a6 20 02 	cmp  %i0, 2
    48b8:	02 80 00 08 	be  48d8 <ypbinderr_string+0x50>
    48bc:	82 10 60 40 	or  %g1, 0x40, %g1
    48c0:	03 00 00 00 	sethi  %hi(0), %g1
    48c4:	80 a6 20 03 	cmp  %i0, 3
    48c8:	02 80 00 04 	be  48d8 <ypbinderr_string+0x50>
    48cc:	82 10 60 44 	or  %g1, 0x44, %g1
    48d0:	03 00 00 00 	sethi  %hi(0), %g1
    48d4:	82 10 60 48 	or  %g1, 0x48, %g1	! 48 <GLIBC_2.0+0x48>
    48d8:	f2 05 c0 01 	ld  [ %l7 + %g1 ], %i1
    48dc:	03 00 00 00 	sethi  %hi(0), %g1
    48e0:	82 10 63 90 	or  %g1, 0x390, %g1	! 390 <GLIBC_2.0+0x390>
    48e4:	f0 05 c0 01 	ld  [ %l7 + %g1 ], %i0
    48e8:	10 80 77 b2 	b  227b0 <__dcgettext@plt>
    48ec:	95 e8 20 05 	restore  %g0, 5, %o2
    48f0:	03 00 00 00 	sethi  %hi(0), %g1
    48f4:	80 a6 20 00 	cmp  %i0, 0
    48f8:	02 bf ff f8 	be  48d8 <ypbinderr_string+0x50>
    48fc:	82 10 60 4c 	or  %g1, 0x4c, %g1
    4900:	10 bf ff f5 	b  48d4 <ypbinderr_string+0x4c>
    4904:	03 00 00 00 	sethi  %hi(0), %g1

00004908 <yp_bind_ypbindprog>:
yp_bind_ypbindprog():
    4908:	9d e3 bf 58 	save  %sp, -168, %sp
    490c:	84 10 20 02 	mov  2, %g2
    4910:	c4 37 bf e0 	sth  %g2, [ %fp + -32 ]
    4914:	03 1f c0 00 	sethi  %hi(0x7f000000), %g1
    4918:	82 10 60 01 	or  %g1, 1, %g1	! 7f000001 <_end+0x7efdb229>
    491c:	84 10 3f ff 	mov  -1, %g2
    4920:	13 00 00 61 	sethi  %hi(0x18400), %o1
    4924:	2f 00 00 75 	sethi  %hi(0x1d400), %l7
    4928:	7f ff fe 97 	call  4384 <xdr_ypall+0xf0>
    492c:	ae 05 e2 d8 	add  %l7, 0x2d8, %l7	! 1d6d8 <__FRAME_END__+0xc6b0>
    4930:	f0 27 a0 44 	st  %i0, [ %fp + 0x44 ]
    4934:	c2 27 bf e4 	st  %g1, [ %fp + -28 ]
    4938:	c4 27 bf c4 	st  %g2, [ %fp + -60 ]
    493c:	92 12 62 a7 	or  %o1, 0x2a7, %o1
    4940:	c0 37 bf e2 	clrh  [ %fp + -30 ]
    4944:	96 07 bf c4 	add  %fp, -60, %o3
    4948:	90 07 bf e0 	add  %fp, -32, %o0
    494c:	94 10 20 02 	mov  2, %o2
    4950:	98 10 20 00 	clr  %o4
    4954:	40 00 76 bf 	call  22450 <clnttcp_create@plt>
    4958:	9a 10 20 00 	clr  %o5
    495c:	a0 92 20 00 	orcc  %o0, 0, %l0
    4960:	02 80 00 41 	be  4a64 <yp_bind_ypbindprog+0x15c>
    4964:	b0 10 20 0a 	mov  0xa, %i0
    4968:	05 00 00 00 	sethi  %hi(0), %g2
    496c:	19 00 00 00 	sethi  %hi(0), %o4
    4970:	1f 00 00 00 	sethi  %hi(0), %o7
    4974:	b0 07 bf d0 	add  %fp, -48, %i0
    4978:	c2 17 bf e2 	lduh  [ %fp + -30 ], %g1
    497c:	84 10 a0 10 	or  %g2, 0x10, %g2
    4980:	98 13 23 88 	or  %o4, 0x388, %o4
    4984:	9e 13 e3 84 	or  %o7, 0x384, %o7
    4988:	96 07 a0 44 	add  %fp, 0x44, %o3
    498c:	9a 10 00 18 	mov  %i0, %o5
    4990:	80 a0 63 ff 	cmp  %g1, 0x3ff
    4994:	18 80 00 30 	bgu  4a54 <yp_bind_ypbindprog+0x14c>
    4998:	92 10 20 01 	mov  1, %o1
    499c:	c8 04 20 04 	ld  [ %l0 + 4 ], %g4
    49a0:	82 07 bf c8 	add  %fp, -56, %g1
    49a4:	c6 05 c0 02 	ld  [ %l7 + %g2 ], %g3
    49a8:	c2 23 a0 5c 	st  %g1, [ %sp + 0x5c ]
    49ac:	c2 00 c0 00 	ld  [ %g3 ], %g1
    49b0:	c4 00 e0 04 	ld  [ %g3 + 4 ], %g2
    49b4:	c2 27 bf c8 	st  %g1, [ %fp + -56 ]
    49b8:	d4 05 c0 0c 	ld  [ %l7 + %o4 ], %o2
    49bc:	c4 27 bf cc 	st  %g2, [ %fp + -52 ]
    49c0:	d8 05 c0 0f 	ld  [ %l7 + %o7 ], %o4
    49c4:	c2 01 00 00 	ld  [ %g4 ], %g1
    49c8:	9f c0 40 00 	call  %g1
    49cc:	01 00 00 00 	nop 
    49d0:	80 a2 20 00 	cmp  %o0, 0
    49d4:	12 80 00 20 	bne  4a54 <yp_bind_ypbindprog+0x14c>
    49d8:	90 10 00 10 	mov  %l0, %o0
    49dc:	c2 04 20 04 	ld  [ %l0 + 4 ], %g1
    49e0:	c4 00 60 10 	ld  [ %g1 + 0x10 ], %g2
    49e4:	9f c0 80 00 	call  %g2
    49e8:	01 00 00 00 	nop 
    49ec:	c2 07 bf d0 	ld  [ %fp + -48 ], %g1
    49f0:	92 10 00 19 	mov  %i1, %o1
    49f4:	80 a0 60 01 	cmp  %g1, 1
    49f8:	12 80 00 0a 	bne  4a20 <yp_bind_ypbindprog+0x118>
    49fc:	94 10 00 18 	mov  %i0, %o2
    4a00:	c0 26 60 48 	clr  [ %i1 + 0x48 ]
    4a04:	c0 26 60 4c 	clr  [ %i1 + 0x4c ]
    4a08:	c0 26 60 50 	clr  [ %i1 + 0x50 ]
    4a0c:	c0 26 60 54 	clr  [ %i1 + 0x54 ]
    4a10:	7f ff fe 5f 	call  438c <yp_bind_client_create>
    4a14:	d0 07 a0 44 	ld  [ %fp + 0x44 ], %o0
    4a18:	10 80 00 13 	b  4a64 <yp_bind_ypbindprog+0x15c>
    4a1c:	b0 10 20 00 	clr  %i0
    4a20:	7f ff ff 9a 	call  4888 <ypbinderr_string>
    4a24:	d0 07 bf d4 	ld  [ %fp + -44 ], %o0
    4a28:	03 00 00 00 	sethi  %hi(0), %g1
    4a2c:	82 10 63 b0 	or  %g1, 0x3b0, %g1	! 3b0 <GLIBC_2.0+0x3b0>
    4a30:	05 00 00 00 	sethi  %hi(0), %g2
    4a34:	94 10 00 08 	mov  %o0, %o2
    4a38:	c6 05 c0 01 	ld  [ %l7 + %g1 ], %g3
    4a3c:	84 10 a0 50 	or  %g2, 0x50, %g2
    4a40:	d0 00 c0 00 	ld  [ %g3 ], %o0
    4a44:	40 00 77 2b 	call  226f0 <fprintf@plt>
    4a48:	d2 05 c0 02 	ld  [ %l7 + %g2 ], %o1
    4a4c:	10 80 00 06 	b  4a64 <yp_bind_ypbindprog+0x15c>
    4a50:	b0 10 20 03 	mov  3, %i0
    4a54:	c2 04 20 04 	ld  [ %l0 + 4 ], %g1
    4a58:	c4 00 60 10 	ld  [ %g1 + 0x10 ], %g2
    4a5c:	9f c0 80 00 	call  %g2
    4a60:	b0 10 20 0a 	mov  0xa, %i0
    4a64:	01 00 00 00 	nop 
    4a68:	81 c7 e0 08 	ret 
    4a6c:	81 e8 00 00 	restore 

00004a70 <__yp_bind>:
__yp_bind():
    4a70:	9d e3 bf 80 	save  %sp, -128, %sp
    4a74:	2f 00 00 75 	sethi  %hi(0x1d400), %l7
    4a78:	7f ff fe 43 	call  4384 <xdr_ypall+0xf0>
    4a7c:	ae 05 e1 88 	add  %l7, 0x188, %l7	! 1d588 <__FRAME_END__+0xc560>
    4a80:	80 a6 20 00 	cmp  %i0, 0
    4a84:	02 80 00 23 	be  4b10 <__yp_bind+0xa0>
    4a88:	a4 10 20 00 	clr  %l2
    4a8c:	c2 4e 00 00 	ldsb  [ %i0 ], %g1
    4a90:	80 a0 60 00 	cmp  %g1, 0
    4a94:	02 80 00 6a 	be  4c3c <__yp_bind+0x1cc>
    4a98:	90 10 20 01 	mov  1, %o0
    4a9c:	10 80 00 08 	b  4abc <__yp_bind+0x4c>
    4aa0:	e2 06 40 00 	ld  [ %i1 ], %l1
    4aa4:	40 00 76 8c 	call  224d4 <strcmp@plt>
    4aa8:	90 10 00 18 	mov  %i0, %o0
    4aac:	80 a2 20 00 	cmp  %o0, 0
    4ab0:	02 80 00 1a 	be  4b18 <__yp_bind+0xa8>
    4ab4:	80 a4 60 00 	cmp  %l1, 0
    4ab8:	e2 04 40 00 	ld  [ %l1 ], %l1
    4abc:	80 a4 60 00 	cmp  %l1, 0
    4ac0:	12 bf ff f9 	bne  4aa4 <__yp_bind+0x34>
    4ac4:	92 04 60 04 	add  %l1, 4, %o1
    4ac8:	90 10 20 01 	mov  1, %o0
    4acc:	40 00 77 3f 	call  227c8 <calloc@plt>
    4ad0:	92 10 20 60 	mov  0x60, %o1
    4ad4:	a2 92 20 00 	orcc  %o0, 0, %l1
    4ad8:	a4 10 20 01 	mov  1, %l2
    4adc:	02 80 00 58 	be  4c3c <__yp_bind+0x1cc>
    4ae0:	90 10 20 07 	mov  7, %o0
    4ae4:	c2 04 60 5c 	ld  [ %l1 + 0x5c ], %g1
    4ae8:	80 a0 60 00 	cmp  %g1, 0
    4aec:	02 80 00 12 	be  4b34 <__yp_bind+0xc4>
    4af0:	a8 10 00 0e 	mov  %sp, %l4
    4af4:	80 a4 a0 00 	cmp  %l2, 0
    4af8:	02 80 00 51 	be  4c3c <__yp_bind+0x1cc>
    4afc:	90 10 20 00 	clr  %o0
    4b00:	c2 06 40 00 	ld  [ %i1 ], %g1
    4b04:	c2 24 40 00 	st  %g1, [ %l1 ]
    4b08:	10 80 00 4d 	b  4c3c <__yp_bind+0x1cc>
    4b0c:	e2 26 40 00 	st  %l1, [ %i1 ]
    4b10:	10 80 00 4b 	b  4c3c <__yp_bind+0x1cc>
    4b14:	90 10 20 01 	mov  1, %o0
    4b18:	02 bf ff ed 	be  4acc <__yp_bind+0x5c>
    4b1c:	90 10 20 01 	mov  1, %o0
    4b20:	c2 04 60 5c 	ld  [ %l1 + 0x5c ], %g1
    4b24:	80 a0 60 00 	cmp  %g1, 0
    4b28:	12 bf ff f4 	bne  4af8 <__yp_bind+0x88>
    4b2c:	80 a4 a0 00 	cmp  %l2, 0
    4b30:	a8 10 00 0e 	mov  %sp, %l4
    4b34:	40 00 76 ce 	call  2266c <strlen@plt>
    4b38:	90 10 00 18 	mov  %i0, %o0
    4b3c:	82 02 20 26 	add  %o0, 0x26, %g1
    4b40:	82 08 7f f8 	and  %g1, -8, %g1
    4b44:	9c 23 80 01 	sub  %sp, %g1, %sp
    4b48:	05 00 00 00 	sethi  %hi(0), %g2
    4b4c:	03 00 00 00 	sethi  %hi(0), %g1
    4b50:	a0 03 a0 60 	add  %sp, 0x60, %l0
    4b54:	84 10 a0 54 	or  %g2, 0x54, %g2
    4b58:	82 10 60 58 	or  %g1, 0x58, %g1
    4b5c:	92 02 20 1f 	add  %o0, 0x1f, %o1
    4b60:	d4 05 c0 02 	ld  [ %l7 + %g2 ], %o2
    4b64:	d6 05 c0 01 	ld  [ %l7 + %g1 ], %o3
    4b68:	98 10 00 18 	mov  %i0, %o4
    4b6c:	9a 10 20 02 	mov  2, %o5
    4b70:	40 00 76 95 	call  225c4 <snprintf@plt>
    4b74:	90 10 00 10 	mov  %l0, %o0
    4b78:	90 10 00 10 	mov  %l0, %o0
    4b7c:	40 00 77 0a 	call  227a4 <open@plt>
    4b80:	92 10 20 00 	clr  %o1
    4b84:	a0 92 20 00 	orcc  %o0, 0, %l0
    4b88:	06 80 00 0b 	bl  4bb4 <__yp_bind+0x144>
    4b8c:	94 10 20 0c 	mov  0xc, %o2
    4b90:	a6 07 bf e0 	add  %fp, -32, %l3
    4b94:	92 10 00 13 	mov  %l3, %o1
    4b98:	40 00 76 2b 	call  22444 <pread@plt>
    4b9c:	96 10 20 02 	mov  2, %o3
    4ba0:	80 a2 20 0c 	cmp  %o0, 0xc
    4ba4:	02 80 00 22 	be  4c2c <__yp_bind+0x1bc>
    4ba8:	94 10 00 13 	mov  %l3, %o2
    4bac:	40 00 76 4d 	call  224e0 <close@plt>
    4bb0:	90 10 00 10 	mov  %l0, %o0
    4bb4:	c2 04 60 5c 	ld  [ %l1 + 0x5c ], %g1
    4bb8:	80 a0 60 00 	cmp  %g1, 0
    4bbc:	12 bf ff ce 	bne  4af4 <__yp_bind+0x84>
    4bc0:	9c 10 00 14 	mov  %l4, %sp
    4bc4:	90 10 00 18 	mov  %i0, %o0
    4bc8:	7f ff ff 50 	call  4908 <yp_bind_ypbindprog>
    4bcc:	92 10 00 11 	mov  %l1, %o1
    4bd0:	b0 92 20 00 	orcc  %o0, 0, %i0
    4bd4:	22 80 00 0b 	be,a   4c00 <__yp_bind+0x190>
    4bd8:	c2 04 60 5c 	ld  [ %l1 + 0x5c ], %g1
    4bdc:	80 a4 a0 00 	cmp  %l2, 0
    4be0:	12 80 00 04 	bne  4bf0 <__yp_bind+0x180>
    4be4:	01 00 00 00 	nop 
    4be8:	10 80 00 15 	b  4c3c <__yp_bind+0x1cc>
    4bec:	90 10 00 18 	mov  %i0, %o0
    4bf0:	40 00 76 fc 	call  227e0 <free@plt>
    4bf4:	90 10 00 11 	mov  %l1, %o0
    4bf8:	10 80 00 11 	b  4c3c <__yp_bind+0x1cc>
    4bfc:	90 10 00 18 	mov  %i0, %o0
    4c00:	80 a0 60 00 	cmp  %g1, 0
    4c04:	12 bf ff bd 	bne  4af8 <__yp_bind+0x88>
    4c08:	80 a4 a0 00 	cmp  %l2, 0
    4c0c:	12 80 00 04 	bne  4c1c <__yp_bind+0x1ac>
    4c10:	01 00 00 00 	nop 
    4c14:	10 80 00 0a 	b  4c3c <__yp_bind+0x1cc>
    4c18:	90 10 20 0b 	mov  0xb, %o0	! b <GLIBC_2.0+0xb>
    4c1c:	40 00 76 f1 	call  227e0 <free@plt>
    4c20:	90 10 00 11 	mov  %l1, %o0
    4c24:	10 80 00 06 	b  4c3c <__yp_bind+0x1cc>
    4c28:	90 10 20 0b 	mov  0xb, %o0
    4c2c:	90 10 00 18 	mov  %i0, %o0
    4c30:	7f ff fd d7 	call  438c <yp_bind_client_create>
    4c34:	92 10 00 11 	mov  %l1, %o1
    4c38:	30 bf ff dd 	b,a   4bac <__yp_bind+0x13c>
    4c3c:	81 c7 e0 08 	ret 
    4c40:	91 e8 00 08 	restore  %g0, %o0, %o0

00004c44 <do_ypcall>:
do_ypcall():
    4c44:	9d e3 bf 80 	save  %sp, -128, %sp
    4c48:	2f 00 00 74 	sethi  %hi(0x1d000), %l7
    4c4c:	7f ff fd ce 	call  4384 <xdr_ypall+0xf0>
    4c50:	ae 05 e3 b4 	add  %l7, 0x3b4, %l7	! 1d3b4 <__FRAME_END__+0xc38c>
    4c54:	40 00 76 4a 	call  2257c <__errno_location@plt>
    4c58:	a4 10 20 06 	mov  6, %l2
    4c5c:	03 00 00 00 	sethi  %hi(0), %g1
    4c60:	82 10 63 68 	or  %g1, 0x368, %g1	! 368 <GLIBC_2.0+0x368>
    4c64:	c4 05 c0 01 	ld  [ %l7 + %g1 ], %g2
    4c68:	80 a0 a0 00 	cmp  %g2, 0
    4c6c:	02 80 00 06 	be  4c84 <do_ypcall+0x40>
    4c70:	e6 02 00 00 	ld  [ %o0 ], %l3
    4c74:	03 00 00 00 	sethi  %hi(0), %g1
    4c78:	82 10 60 20 	or  %g1, 0x20, %g1	! 20 <GLIBC_2.0+0x20>
    4c7c:	9f c0 80 00 	call  %g2
    4c80:	d0 05 c0 01 	ld  [ %l7 + %g1 ], %o0
    4c84:	03 00 00 00 	sethi  %hi(0), %g1
    4c88:	82 10 60 18 	or  %g1, 0x18, %g1	! 18 <GLIBC_2.0+0x18>
    4c8c:	c4 05 c0 01 	ld  [ %l7 + %g1 ], %g2
    4c90:	c6 00 80 00 	ld  [ %g2 ], %g3
    4c94:	a0 10 00 03 	mov  %g3, %l0
    4c98:	80 a0 e0 00 	cmp  %g3, 0
    4c9c:	02 80 00 12 	be  4ce4 <do_ypcall+0xa0>
    4ca0:	c6 27 bf ec 	st  %g3, [ %fp + -20 ]
    4ca4:	03 00 00 00 	sethi  %hi(0), %g1
    4ca8:	82 10 63 a8 	or  %g1, 0x3a8, %g1	! 3a8 <GLIBC_2.0+0x3a8>
    4cac:	23 00 00 00 	sethi  %hi(0), %l1
    4cb0:	e8 05 c0 01 	ld  [ %l7 + %g1 ], %l4
    4cb4:	a2 14 60 20 	or  %l1, 0x20, %l1
    4cb8:	92 04 20 04 	add  %l0, 4, %o1
    4cbc:	40 00 76 06 	call  224d4 <strcmp@plt>
    4cc0:	90 10 00 18 	mov  %i0, %o0
    4cc4:	80 a2 20 00 	cmp  %o0, 0
    4cc8:	22 80 00 3e 	be,a   4dc0 <do_ypcall+0x17c>
    4ccc:	90 10 00 18 	mov  %i0, %o0
    4cd0:	c2 04 00 00 	ld  [ %l0 ], %g1
    4cd4:	a0 10 00 01 	mov  %g1, %l0
    4cd8:	80 a0 60 00 	cmp  %g1, 0
    4cdc:	12 bf ff f7 	bne  4cb8 <do_ypcall+0x74>
    4ce0:	c2 27 bf ec 	st  %g1, [ %fp + -20 ]
    4ce4:	03 00 00 00 	sethi  %hi(0), %g1
    4ce8:	82 10 63 a8 	or  %g1, 0x3a8, %g1	! 3a8 <GLIBC_2.0+0x3a8>
    4cec:	c4 05 c0 01 	ld  [ %l7 + %g1 ], %g2
    4cf0:	80 a0 a0 00 	cmp  %g2, 0
    4cf4:	02 80 00 05 	be  4d08 <do_ypcall+0xc4>
    4cf8:	03 00 00 00 	sethi  %hi(0), %g1
    4cfc:	82 10 60 20 	or  %g1, 0x20, %g1	! 20 <GLIBC_2.0+0x20>
    4d00:	9f c0 80 00 	call  %g2
    4d04:	d0 05 c0 01 	ld  [ %l7 + %g1 ], %o0
    4d08:	c0 27 bf ec 	clr  [ %fp + -20 ]
    4d0c:	90 10 00 18 	mov  %i0, %o0
    4d10:	7f ff ff 58 	call  4a70 <__yp_bind>
    4d14:	92 07 bf ec 	add  %fp, -20, %o1
    4d18:	80 a2 20 00 	cmp  %o0, 0
    4d1c:	02 80 00 09 	be  4d40 <do_ypcall+0xfc>
    4d20:	80 a4 a0 00 	cmp  %l2, 0
    4d24:	32 80 00 19 	bne,a   4d88 <do_ypcall+0x144>
    4d28:	90 10 20 01 	mov  1, %o0
    4d2c:	40 00 76 14 	call  2257c <__errno_location@plt>
    4d30:	01 00 00 00 	nop 
    4d34:	e6 22 00 00 	st  %l3, [ %o0 ]
    4d38:	10 80 00 4e 	b  4e70 <do_ypcall+0x22c>
    4d3c:	90 10 00 12 	mov  %l2, %o0
    4d40:	82 07 bf ec 	add  %fp, -20, %g1
    4d44:	84 10 20 01 	mov  1, %g2
    4d48:	c2 23 a0 5c 	st  %g1, [ %sp + 0x5c ]
    4d4c:	c4 23 a0 60 	st  %g2, [ %sp + 0x60 ]
    4d50:	92 10 00 19 	mov  %i1, %o1
    4d54:	94 10 00 1a 	mov  %i2, %o2
    4d58:	96 10 00 1b 	mov  %i3, %o3
    4d5c:	98 10 00 1c 	mov  %i4, %o4
    4d60:	9a 10 00 1d 	mov  %i5, %o5
    4d64:	7f ff fd fe 	call  455c <__ypclnt_call>
    4d68:	90 10 00 18 	mov  %i0, %o0
    4d6c:	a4 10 00 08 	mov  %o0, %l2
    4d70:	7f ff fd b6 	call  4448 <__yp_unbind>
    4d74:	d0 07 bf ec 	ld  [ %fp + -20 ], %o0
    4d78:	80 a4 a0 00 	cmp  %l2, 0
    4d7c:	02 bf ff ec 	be  4d2c <do_ypcall+0xe8>
    4d80:	01 00 00 00 	nop 
    4d84:	90 10 20 01 	mov  1, %o0	! 1 <GLIBC_2.0+0x1>
    4d88:	40 00 76 90 	call  227c8 <calloc@plt>
    4d8c:	92 10 20 60 	mov  0x60, %o1
    4d90:	80 a2 20 00 	cmp  %o0, 0
    4d94:	02 80 00 08 	be  4db4 <do_ypcall+0x170>
    4d98:	d0 27 bf ec 	st  %o0, [ %fp + -20 ]
    4d9c:	92 10 00 08 	mov  %o0, %o1
    4da0:	7f ff fe da 	call  4908 <yp_bind_ypbindprog>
    4da4:	90 10 00 18 	mov  %i0, %o0
    4da8:	80 a2 20 00 	cmp  %o0, 0
    4dac:	02 80 00 23 	be  4e38 <do_ypcall+0x1f4>
    4db0:	82 07 bf ec 	add  %fp, -20, %g1
    4db4:	40 00 76 8b 	call  227e0 <free@plt>
    4db8:	d0 07 bf ec 	ld  [ %fp + -20 ], %o0
    4dbc:	30 bf ff dc 	b,a   4d2c <do_ypcall+0xe8>
    4dc0:	7f ff ff 2c 	call  4a70 <__yp_bind>
    4dc4:	92 07 bf ec 	add  %fp, -20, %o1
    4dc8:	80 a2 20 00 	cmp  %o0, 0
    4dcc:	12 80 00 17 	bne  4e28 <do_ypcall+0x1e4>
    4dd0:	90 10 00 18 	mov  %i0, %o0
    4dd4:	82 07 bf ec 	add  %fp, -20, %g1
    4dd8:	c2 23 a0 5c 	st  %g1, [ %sp + 0x5c ]
    4ddc:	c0 23 a0 60 	clr  [ %sp + 0x60 ]
    4de0:	92 10 00 19 	mov  %i1, %o1
    4de4:	94 10 00 1a 	mov  %i2, %o2
    4de8:	96 10 00 1b 	mov  %i3, %o3
    4dec:	98 10 00 1c 	mov  %i4, %o4
    4df0:	7f ff fd db 	call  455c <__ypclnt_call>
    4df4:	9a 10 00 1d 	mov  %i5, %o5
    4df8:	a4 92 20 00 	orcc  %o0, 0, %l2
    4dfc:	12 80 00 0b 	bne  4e28 <do_ypcall+0x1e4>
    4e00:	80 a5 20 00 	cmp  %l4, 0
    4e04:	02 80 00 04 	be  4e14 <do_ypcall+0x1d0>
    4e08:	01 00 00 00 	nop 
    4e0c:	9f c5 00 00 	call  %l4
    4e10:	d0 05 c0 11 	ld  [ %l7 + %l1 ], %o0
    4e14:	40 00 75 da 	call  2257c <__errno_location@plt>
    4e18:	01 00 00 00 	nop 
    4e1c:	e6 22 00 00 	st  %l3, [ %o0 ]
    4e20:	10 80 00 14 	b  4e70 <do_ypcall+0x22c>
    4e24:	90 10 20 00 	clr  %o0
    4e28:	7f ff fd 91 	call  446c <yp_unbind_locked>
    4e2c:	90 10 00 18 	mov  %i0, %o0
    4e30:	10 bf ff ae 	b  4ce8 <do_ypcall+0xa4>
    4e34:	03 00 00 00 	sethi  %hi(0), %g1
    4e38:	84 10 20 01 	mov  1, %g2
    4e3c:	c2 23 a0 5c 	st  %g1, [ %sp + 0x5c ]
    4e40:	c4 23 a0 60 	st  %g2, [ %sp + 0x60 ]
    4e44:	90 10 00 18 	mov  %i0, %o0
    4e48:	92 10 00 19 	mov  %i1, %o1
    4e4c:	94 10 00 1a 	mov  %i2, %o2
    4e50:	96 10 00 1b 	mov  %i3, %o3
    4e54:	98 10 00 1c 	mov  %i4, %o4
    4e58:	7f ff fd c1 	call  455c <__ypclnt_call>
    4e5c:	9a 10 00 1d 	mov  %i5, %o5
    4e60:	a4 10 00 08 	mov  %o0, %l2
    4e64:	7f ff fd 79 	call  4448 <__yp_unbind>
    4e68:	d0 07 bf ec 	ld  [ %fp + -20 ], %o0
    4e6c:	30 bf ff b0 	b,a   4d2c <do_ypcall+0xe8>
    4e70:	81 c7 e0 08 	ret 
    4e74:	91 e8 00 08 	restore  %g0, %o0, %o0

00004e78 <do_ypcall_tr>:
do_ypcall_tr():
    4e78:	9d e3 bf 90 	save  %sp, -112, %sp
    4e7c:	90 10 00 18 	mov  %i0, %o0
    4e80:	92 10 00 19 	mov  %i1, %o1
    4e84:	94 10 00 1a 	mov  %i2, %o2
    4e88:	96 10 00 1b 	mov  %i3, %o3
    4e8c:	98 10 00 1c 	mov  %i4, %o4
    4e90:	7f ff ff 6d 	call  4c44 <do_ypcall>
    4e94:	9a 10 00 1d 	mov  %i5, %o5
    4e98:	80 a2 20 00 	cmp  %o0, 0
    4e9c:	12 80 00 04 	bne  4eac <do_ypcall_tr+0x34>
    4ea0:	01 00 00 00 	nop 
    4ea4:	7f ff fd d8 	call  4604 <ypprot_err>
    4ea8:	d0 07 40 00 	ld  [ %i5 ], %o0
    4eac:	81 c7 e0 08 	ret 
    4eb0:	91 e8 00 08 	restore  %g0, %o0, %o0

00004eb4 <yp_maplist>:
yp_maplist():
    4eb4:	9d e3 bf 88 	save  %sp, -120, %sp
    4eb8:	82 10 00 18 	mov  %i0, %g1
    4ebc:	f0 27 a0 44 	st  %i0, [ %fp + 0x44 ]
    4ec0:	80 a6 20 00 	cmp  %i0, 0
    4ec4:	2f 00 00 74 	sethi  %hi(0x1d000), %l7
    4ec8:	7f ff fd 2f 	call  4384 <xdr_ypall+0xf0>
    4ecc:	ae 05 e1 38 	add  %l7, 0x138, %l7	! 1d138 <__FRAME_END__+0xc110>
    4ed0:	02 80 00 18 	be  4f30 <yp_maplist+0x7c>
    4ed4:	b0 10 20 01 	mov  1, %i0
    4ed8:	90 10 00 01 	mov  %g1, %o0
    4edc:	09 00 00 00 	sethi  %hi(0), %g4
    4ee0:	19 00 00 00 	sethi  %hi(0), %o4
    4ee4:	c2 48 40 00 	ldsb  [ %g1 ], %g1
    4ee8:	88 11 23 88 	or  %g4, 0x388, %g4
    4eec:	98 13 23 c0 	or  %o4, 0x3c0, %o4
    4ef0:	92 10 20 0b 	mov  0xb, %o1
    4ef4:	96 07 a0 44 	add  %fp, 0x44, %o3
    4ef8:	80 a0 60 00 	cmp  %g1, 0
    4efc:	02 80 00 0d 	be  4f30 <yp_maplist+0x7c>
    4f00:	9a 07 bf e8 	add  %fp, -24, %o5
    4f04:	84 10 20 00 	clr  %g2
    4f08:	86 10 20 00 	clr  %g3
    4f0c:	c4 3f bf e8 	std  %g2, [ %fp + -24 ]
    4f10:	d4 05 c0 04 	ld  [ %l7 + %g4 ], %o2
    4f14:	7f ff ff d9 	call  4e78 <do_ypcall_tr>
    4f18:	d8 05 c0 0c 	ld  [ %l7 + %o4 ], %o4
    4f1c:	80 a2 20 00 	cmp  %o0, 0
    4f20:	12 80 00 03 	bne  4f2c <yp_maplist+0x78>
    4f24:	c2 07 bf ec 	ld  [ %fp + -20 ], %g1
    4f28:	c2 26 40 00 	st  %g1, [ %i1 ]
    4f2c:	b0 10 00 08 	mov  %o0, %i0
    4f30:	81 c7 e0 08 	ret 
    4f34:	81 e8 00 00 	restore 

00004f38 <yp_order>:
yp_order():
    4f38:	9d e3 bf 80 	save  %sp, -128, %sp
    4f3c:	2f 00 00 74 	sethi  %hi(0x1d000), %l7
    4f40:	7f ff fd 11 	call  4384 <xdr_ypall+0xf0>
    4f44:	ae 05 e0 c0 	add  %l7, 0xc0, %l7	! 1d0c0 <__FRAME_END__+0xc098>
    4f48:	80 a6 20 00 	cmp  %i0, 0
    4f4c:	02 80 00 28 	be  4fec <yp_order+0xb4>
    4f50:	86 10 20 01 	mov  1, %g3
    4f54:	c2 4e 00 00 	ldsb  [ %i0 ], %g1
    4f58:	80 a0 00 01 	cmp  %g0, %g1
    4f5c:	84 60 3f ff 	subx  %g0, -1, %g2
    4f60:	80 a0 00 19 	cmp  %g0, %i1
    4f64:	82 60 3f ff 	subx  %g0, -1, %g1
    4f68:	80 90 80 01 	orcc  %g2, %g1, %g0
    4f6c:	12 80 00 20 	bne  4fec <yp_order+0xb4>
    4f70:	09 00 00 00 	sethi  %hi(0), %g4
    4f74:	a2 07 bf e0 	add  %fp, -32, %l1
    4f78:	c2 4e 40 00 	ldsb  [ %i1 ], %g1
    4f7c:	88 11 23 d0 	or  %g4, 0x3d0, %g4
    4f80:	90 10 00 18 	mov  %i0, %o0
    4f84:	92 10 20 0a 	mov  0xa, %o1
    4f88:	96 07 bf e8 	add  %fp, -24, %o3
    4f8c:	80 a0 60 00 	cmp  %g1, 0
    4f90:	02 80 00 17 	be  4fec <yp_order+0xb4>
    4f94:	9a 10 00 11 	mov  %l1, %o5
    4f98:	03 00 00 00 	sethi  %hi(0), %g1
    4f9c:	82 10 63 a0 	or  %g1, 0x3a0, %g1	! 3a0 <GLIBC_2.0+0x3a0>
    4fa0:	e0 05 c0 01 	ld  [ %l7 + %g1 ], %l0
    4fa4:	86 10 20 00 	clr  %g3
    4fa8:	84 10 20 00 	clr  %g2
    4fac:	f2 27 bf ec 	st  %i1, [ %fp + -20 ]
    4fb0:	c4 3f bf e0 	std  %g2, [ %fp + -32 ]
    4fb4:	d4 05 c0 04 	ld  [ %l7 + %g4 ], %o2
    4fb8:	f0 27 bf e8 	st  %i0, [ %fp + -24 ]
    4fbc:	7f ff ff af 	call  4e78 <do_ypcall_tr>
    4fc0:	98 10 00 10 	mov  %l0, %o4
    4fc4:	b2 10 00 08 	mov  %o0, %i1
    4fc8:	90 10 00 10 	mov  %l0, %o0
    4fcc:	92 10 00 11 	mov  %l1, %o1
    4fd0:	80 a6 60 00 	cmp  %i1, 0
    4fd4:	02 80 00 06 	be  4fec <yp_order+0xb4>
    4fd8:	86 10 20 00 	clr  %g3
    4fdc:	c2 07 bf e4 	ld  [ %fp + -28 ], %g1
    4fe0:	40 00 75 43 	call  224ec <xdr_free@plt>
    4fe4:	c2 26 80 00 	st  %g1, [ %i2 ]
    4fe8:	86 10 00 19 	mov  %i1, %g3
    4fec:	81 c7 e0 08 	ret 
    4ff0:	91 e8 00 03 	restore  %g0, %g3, %o0

00004ff4 <yp_master>:
yp_master():
    4ff4:	9d e3 bf 80 	save  %sp, -128, %sp
    4ff8:	2f 00 00 74 	sethi  %hi(0x1d000), %l7
    4ffc:	7f ff fc e2 	call  4384 <xdr_ypall+0xf0>
    5000:	ae 05 e0 04 	add  %l7, 4, %l7	! 1d004 <__FRAME_END__+0xbfdc>
    5004:	80 a6 20 00 	cmp  %i0, 0
    5008:	02 80 00 2c 	be  50b8 <yp_master+0xc4>
    500c:	86 10 20 01 	mov  1, %g3
    5010:	c2 4e 00 00 	ldsb  [ %i0 ], %g1
    5014:	80 a0 00 01 	cmp  %g0, %g1
    5018:	84 60 3f ff 	subx  %g0, -1, %g2
    501c:	80 a0 00 19 	cmp  %g0, %i1
    5020:	82 60 3f ff 	subx  %g0, -1, %g1
    5024:	80 90 80 01 	orcc  %g2, %g1, %g0
    5028:	12 80 00 24 	bne  50b8 <yp_master+0xc4>
    502c:	09 00 00 00 	sethi  %hi(0), %g4
    5030:	a0 07 bf e0 	add  %fp, -32, %l0
    5034:	c2 4e 40 00 	ldsb  [ %i1 ], %g1
    5038:	88 11 23 d0 	or  %g4, 0x3d0, %g4
    503c:	90 10 00 18 	mov  %i0, %o0
    5040:	92 10 20 09 	mov  9, %o1
    5044:	96 07 bf e8 	add  %fp, -24, %o3
    5048:	80 a0 60 00 	cmp  %g1, 0
    504c:	02 80 00 1b 	be  50b8 <yp_master+0xc4>
    5050:	9a 10 00 10 	mov  %l0, %o5
    5054:	03 00 00 00 	sethi  %hi(0), %g1
    5058:	82 10 63 a4 	or  %g1, 0x3a4, %g1	! 3a4 <GLIBC_2.0+0x3a4>
    505c:	86 10 20 00 	clr  %g3
    5060:	e2 05 c0 01 	ld  [ %l7 + %g1 ], %l1
    5064:	84 10 20 00 	clr  %g2
    5068:	c4 3f bf e0 	std  %g2, [ %fp + -32 ]
    506c:	f2 27 bf ec 	st  %i1, [ %fp + -20 ]
    5070:	d4 05 c0 04 	ld  [ %l7 + %g4 ], %o2
    5074:	f0 27 bf e8 	st  %i0, [ %fp + -24 ]
    5078:	7f ff ff 80 	call  4e78 <do_ypcall_tr>
    507c:	98 10 00 11 	mov  %l1, %o4
    5080:	86 92 20 00 	orcc  %o0, 0, %g3
    5084:	12 80 00 0d 	bne  50b8 <yp_master+0xc4>
    5088:	01 00 00 00 	nop 
    508c:	40 00 75 bd 	call  22780 <__strdup@plt>
    5090:	d0 07 bf e4 	ld  [ %fp + -28 ], %o0
    5094:	d0 26 80 00 	st  %o0, [ %i2 ]
    5098:	90 10 00 11 	mov  %l1, %o0
    509c:	40 00 75 14 	call  224ec <xdr_free@plt>
    50a0:	92 10 00 10 	mov  %l0, %o1
    50a4:	c4 06 80 00 	ld  [ %i2 ], %g2
    50a8:	80 a0 00 02 	cmp  %g0, %g2
    50ac:	82 60 20 00 	subx  %g0, 0, %g1
    50b0:	82 08 7f fa 	and  %g1, -6, %g1
    50b4:	86 00 60 06 	add  %g1, 6, %g3
    50b8:	81 c7 e0 08 	ret 
    50bc:	91 e8 00 03 	restore  %g0, %g3, %o0

000050c0 <yp_next>:
yp_next():
    50c0:	9d e3 bf 68 	save  %sp, -152, %sp
    50c4:	90 96 20 00 	orcc  %i0, 0, %o0
    50c8:	2f 00 00 73 	sethi  %hi(0x1cc00), %l7
    50cc:	7f ff fc ae 	call  4384 <xdr_ypall+0xf0>
    50d0:	ae 05 e3 34 	add  %l7, 0x334, %l7	! 1cf34 <__FRAME_END__+0xbf0c>
    50d4:	f0 07 a0 5c 	ld  [ %fp + 0x5c ], %i0
    50d8:	02 80 00 1a 	be  5140 <yp_next+0x80>
    50dc:	e0 07 a0 60 	ld  [ %fp + 0x60 ], %l0
    50e0:	c2 4a 00 00 	ldsb  [ %o0 ], %g1
    50e4:	80 a0 00 01 	cmp  %g0, %g1
    50e8:	84 60 3f ff 	subx  %g0, -1, %g2
    50ec:	80 a0 00 19 	cmp  %g0, %i1
    50f0:	82 60 3f ff 	subx  %g0, -1, %g1
    50f4:	80 90 80 01 	orcc  %g2, %g1, %g0
    50f8:	32 80 00 56 	bne,a   5250 <yp_next+0x190>
    50fc:	90 10 20 01 	mov  1, %o0
    5100:	c2 4e 40 00 	ldsb  [ %i1 ], %g1
    5104:	84 06 ff ff 	add  %i3, -1, %g2
    5108:	80 a0 00 01 	cmp  %g0, %g1
    510c:	84 16 c0 02 	or  %i3, %g2, %g2
    5110:	82 60 3f ff 	subx  %g0, -1, %g1
    5114:	85 30 a0 1f 	srl  %g2, 0x1f, %g2
    5118:	80 90 40 02 	orcc  %g1, %g2, %g0
    511c:	32 80 00 4d 	bne,a   5250 <yp_next+0x190>
    5120:	90 10 20 01 	mov  1, %o0
    5124:	80 a6 a0 00 	cmp  %i2, 0
    5128:	22 80 00 4a 	be,a   5250 <yp_next+0x190>
    512c:	90 10 20 01 	mov  1, %o0
    5130:	c2 4e 80 00 	ldsb  [ %i2 ], %g1
    5134:	80 a0 60 00 	cmp  %g1, 0
    5138:	12 80 00 04 	bne  5148 <yp_next+0x88>
    513c:	03 00 00 00 	sethi  %hi(0), %g1
    5140:	10 80 00 44 	b  5250 <yp_next+0x190>
    5144:	90 10 20 01 	mov  1, %o0
    5148:	25 00 00 00 	sethi  %hi(0), %l2
    514c:	c0 26 00 00 	clr  [ %i0 ]
    5150:	c0 24 00 00 	clr  [ %l0 ]
    5154:	84 10 20 00 	clr  %g2
    5158:	86 10 20 00 	clr  %g3
    515c:	82 10 63 dc 	or  %g1, 0x3dc, %g1
    5160:	88 14 a3 7c 	or  %l2, 0x37c, %g4
    5164:	a2 07 bf c8 	add  %fp, -56, %l1
    5168:	f2 27 bf e4 	st  %i1, [ %fp + -28 ]
    516c:	f4 27 bf ec 	st  %i2, [ %fp + -20 ]
    5170:	f6 27 bf e8 	st  %i3, [ %fp + -24 ]
    5174:	c4 3f bf d0 	std  %g2, [ %fp + -48 ]
    5178:	d0 27 bf e0 	st  %o0, [ %fp + -32 ]
    517c:	c0 27 00 00 	clr  [ %i4 ]
    5180:	c0 27 40 00 	clr  [ %i5 ]
    5184:	c4 3f bf c8 	std  %g2, [ %fp + -56 ]
    5188:	c0 27 bf d8 	clr  [ %fp + -40 ]
    518c:	d4 05 c0 01 	ld  [ %l7 + %g1 ], %o2
    5190:	d8 05 c0 04 	ld  [ %l7 + %g4 ], %o4
    5194:	92 10 20 05 	mov  5, %o1
    5198:	96 07 bf e0 	add  %fp, -32, %o3
    519c:	7f ff ff 37 	call  4e78 <do_ypcall_tr>
    51a0:	9a 10 00 11 	mov  %l1, %o5
    51a4:	80 a2 20 00 	cmp  %o0, 0
    51a8:	12 80 00 2a 	bne  5250 <yp_next+0x190>
    51ac:	01 00 00 00 	nop 
    51b0:	d0 07 bf d4 	ld  [ %fp + -44 ], %o0
    51b4:	40 00 75 07 	call  225d0 <malloc@plt>
    51b8:	90 02 20 01 	inc  %o0
    51bc:	80 a2 20 00 	cmp  %o0, 0
    51c0:	02 80 00 20 	be  5240 <yp_next+0x180>
    51c4:	d0 27 00 00 	st  %o0, [ %i4 ]
    51c8:	d0 07 bf cc 	ld  [ %fp + -52 ], %o0
    51cc:	40 00 75 01 	call  225d0 <malloc@plt>
    51d0:	90 02 20 01 	inc  %o0
    51d4:	80 a2 20 00 	cmp  %o0, 0
    51d8:	02 80 00 1a 	be  5240 <yp_next+0x180>
    51dc:	d0 26 00 00 	st  %o0, [ %i0 ]
    51e0:	c2 07 bf d4 	ld  [ %fp + -44 ], %g1
    51e4:	94 10 00 01 	mov  %g1, %o2
    51e8:	c2 27 40 00 	st  %g1, [ %i5 ]
    51ec:	d2 07 bf d8 	ld  [ %fp + -40 ], %o1
    51f0:	40 00 75 58 	call  22750 <memcpy@plt>
    51f4:	d0 07 00 00 	ld  [ %i4 ], %o0
    51f8:	c4 07 40 00 	ld  [ %i5 ], %g2
    51fc:	c2 07 00 00 	ld  [ %i4 ], %g1
    5200:	c0 28 40 02 	clrb  [ %g1 + %g2 ]
    5204:	d4 07 bf cc 	ld  [ %fp + -52 ], %o2
    5208:	d0 06 00 00 	ld  [ %i0 ], %o0
    520c:	d4 24 00 00 	st  %o2, [ %l0 ]
    5210:	40 00 75 50 	call  22750 <memcpy@plt>
    5214:	d2 07 bf d0 	ld  [ %fp + -48 ], %o1
    5218:	c4 06 00 00 	ld  [ %i0 ], %g2
    521c:	c2 04 00 00 	ld  [ %l0 ], %g1
    5220:	c0 28 80 01 	clrb  [ %g2 + %g1 ]
    5224:	b0 10 20 00 	clr  %i0
    5228:	82 14 a3 7c 	or  %l2, 0x37c, %g1
    522c:	d0 05 c0 01 	ld  [ %l7 + %g1 ], %o0
    5230:	40 00 74 af 	call  224ec <xdr_free@plt>
    5234:	92 10 00 11 	mov  %l1, %o1
    5238:	10 80 00 06 	b  5250 <yp_next+0x190>
    523c:	90 10 00 18 	mov  %i0, %o0
    5240:	40 00 75 68 	call  227e0 <free@plt>
    5244:	d0 07 00 00 	ld  [ %i4 ], %o0
    5248:	10 bf ff f8 	b  5228 <yp_next+0x168>
    524c:	b0 10 20 07 	mov  7, %i0
    5250:	81 c7 e0 08 	ret 
    5254:	91 e8 00 08 	restore  %g0, %o0, %o0

00005258 <yp_match>:
yp_match():
    5258:	9d e3 bf 70 	save  %sp, -144, %sp
    525c:	2f 00 00 73 	sethi  %hi(0x1cc00), %l7
    5260:	7f ff fc 49 	call  4384 <xdr_ypall+0xf0>
    5264:	ae 05 e1 a0 	add  %l7, 0x1a0, %l7	! 1cda0 <__FRAME_END__+0xbd78>
    5268:	80 a6 20 00 	cmp  %i0, 0
    526c:	02 80 00 45 	be  5380 <yp_match+0x128>
    5270:	88 10 20 01 	mov  1, %g4
    5274:	c2 4e 00 00 	ldsb  [ %i0 ], %g1
    5278:	80 a0 00 01 	cmp  %g0, %g1
    527c:	84 60 3f ff 	subx  %g0, -1, %g2
    5280:	80 a0 00 19 	cmp  %g0, %i1
    5284:	82 60 3f ff 	subx  %g0, -1, %g1
    5288:	80 90 80 01 	orcc  %g2, %g1, %g0
    528c:	12 80 00 3d 	bne  5380 <yp_match+0x128>
    5290:	01 00 00 00 	nop 
    5294:	c2 4e 40 00 	ldsb  [ %i1 ], %g1
    5298:	80 a0 00 01 	cmp  %g0, %g1
    529c:	86 60 3f ff 	subx  %g0, -1, %g3
    52a0:	80 a0 00 1a 	cmp  %g0, %i2
    52a4:	82 06 ff ff 	add  %i3, -1, %g1
    52a8:	82 16 c0 01 	or  %i3, %g1, %g1
    52ac:	84 60 3f ff 	subx  %g0, -1, %g2
    52b0:	80 90 c0 02 	orcc  %g3, %g2, %g0
    52b4:	12 80 00 33 	bne  5380 <yp_match+0x128>
    52b8:	99 30 60 1f 	srl  %g1, 0x1f, %o4
    52bc:	c2 4e 80 00 	ldsb  [ %i2 ], %g1
    52c0:	80 a0 00 01 	cmp  %g0, %g1
    52c4:	15 00 00 00 	sethi  %hi(0), %o2
    52c8:	a0 07 bf d0 	add  %fp, -48, %l0
    52cc:	84 60 3f ff 	subx  %g0, -1, %g2
    52d0:	94 12 a3 dc 	or  %o2, 0x3dc, %o2
    52d4:	90 10 00 18 	mov  %i0, %o0
    52d8:	92 10 20 03 	mov  3, %o1
    52dc:	96 07 bf e0 	add  %fp, -32, %o3
    52e0:	80 90 80 0c 	orcc  %g2, %o4, %g0
    52e4:	12 80 00 27 	bne  5380 <yp_match+0x128>
    52e8:	9a 10 00 10 	mov  %l0, %o5
    52ec:	03 00 00 00 	sethi  %hi(0), %g1
    52f0:	82 10 63 f0 	or  %g1, 0x3f0, %g1	! 3f0 <GLIBC_2.0+0x3f0>
    52f4:	e2 05 c0 01 	ld  [ %l7 + %g1 ], %l1
    52f8:	84 10 20 00 	clr  %g2
    52fc:	86 10 20 00 	clr  %g3
    5300:	f6 27 bf e8 	st  %i3, [ %fp + -24 ]
    5304:	f2 27 bf e4 	st  %i1, [ %fp + -28 ]
    5308:	f4 27 bf ec 	st  %i2, [ %fp + -20 ]
    530c:	c4 3f bf d0 	std  %g2, [ %fp + -48 ]
    5310:	d4 05 c0 0a 	ld  [ %l7 + %o2 ], %o2
    5314:	f0 27 bf e0 	st  %i0, [ %fp + -32 ]
    5318:	c0 27 00 00 	clr  [ %i4 ]
    531c:	c0 27 40 00 	clr  [ %i5 ]
    5320:	c0 27 bf d8 	clr  [ %fp + -40 ]
    5324:	7f ff fe d5 	call  4e78 <do_ypcall_tr>
    5328:	98 10 00 11 	mov  %l1, %o4
    532c:	88 92 20 00 	orcc  %o0, 0, %g4
    5330:	12 80 00 14 	bne  5380 <yp_match+0x128>
    5334:	b6 10 20 07 	mov  7, %i3
    5338:	d0 07 bf d4 	ld  [ %fp + -44 ], %o0
    533c:	d0 27 40 00 	st  %o0, [ %i5 ]
    5340:	40 00 74 a4 	call  225d0 <malloc@plt>
    5344:	90 02 20 01 	inc  %o0
    5348:	82 92 20 00 	orcc  %o0, 0, %g1
    534c:	02 80 00 09 	be  5370 <yp_match+0x118>
    5350:	c2 27 00 00 	st  %g1, [ %i4 ]
    5354:	d2 07 bf d8 	ld  [ %fp + -40 ], %o1
    5358:	40 00 74 fe 	call  22750 <memcpy@plt>
    535c:	d4 07 40 00 	ld  [ %i5 ], %o2
    5360:	c4 07 00 00 	ld  [ %i4 ], %g2
    5364:	c2 07 40 00 	ld  [ %i5 ], %g1
    5368:	c0 28 80 01 	clrb  [ %g2 + %g1 ]
    536c:	b6 10 20 00 	clr  %i3
    5370:	90 10 00 11 	mov  %l1, %o0
    5374:	40 00 74 5e 	call  224ec <xdr_free@plt>
    5378:	92 10 00 10 	mov  %l0, %o1
    537c:	88 10 00 1b 	mov  %i3, %g4
    5380:	81 c7 e0 08 	ret 
    5384:	91 e8 00 04 	restore  %g0, %g4, %o0

00005388 <yp_first>:
yp_first():
    5388:	9d e3 bf 70 	save  %sp, -144, %sp
    538c:	2f 00 00 73 	sethi  %hi(0x1cc00), %l7
    5390:	7f ff fb fd 	call  4384 <xdr_ypall+0xf0>
    5394:	ae 05 e0 70 	add  %l7, 0x70, %l7	! 1cc70 <__FRAME_END__+0xbc48>
    5398:	90 96 20 00 	orcc  %i0, 0, %o0
    539c:	22 80 00 56 	be,a   54f4 <yp_first+0x16c>
    53a0:	90 10 20 01 	mov  1, %o0
    53a4:	c2 4a 00 00 	ldsb  [ %o0 ], %g1
    53a8:	80 a0 00 01 	cmp  %g0, %g1
    53ac:	84 60 3f ff 	subx  %g0, -1, %g2
    53b0:	80 a0 00 19 	cmp  %g0, %i1
    53b4:	82 60 3f ff 	subx  %g0, -1, %g1
    53b8:	80 90 80 01 	orcc  %g2, %g1, %g0
    53bc:	22 80 00 04 	be,a   53cc <yp_first+0x44>
    53c0:	c2 4e 40 00 	ldsb  [ %i1 ], %g1
    53c4:	10 80 00 4c 	b  54f4 <yp_first+0x16c>
    53c8:	90 10 20 01 	mov  1, %o0
    53cc:	80 a0 60 00 	cmp  %g1, 0
    53d0:	22 80 00 49 	be,a   54f4 <yp_first+0x16c>
    53d4:	90 10 20 01 	mov  1, %o0
    53d8:	03 00 00 00 	sethi  %hi(0), %g1
    53dc:	23 00 00 00 	sethi  %hi(0), %l1
    53e0:	84 10 20 00 	clr  %g2
    53e4:	86 10 20 00 	clr  %g3
    53e8:	c0 27 00 00 	clr  [ %i4 ]
    53ec:	c0 27 40 00 	clr  [ %i5 ]
    53f0:	82 10 63 d0 	or  %g1, 0x3d0, %g1
    53f4:	88 14 63 7c 	or  %l1, 0x37c, %g4
    53f8:	a0 07 bf d0 	add  %fp, -48, %l0
    53fc:	f2 27 bf ec 	st  %i1, [ %fp + -20 ]
    5400:	c4 3f bf d8 	std  %g2, [ %fp + -40 ]
    5404:	d0 27 bf e8 	st  %o0, [ %fp + -24 ]
    5408:	c0 26 80 00 	clr  [ %i2 ]
    540c:	c0 26 c0 00 	clr  [ %i3 ]
    5410:	c4 3f bf d0 	std  %g2, [ %fp + -48 ]
    5414:	c0 27 bf e0 	clr  [ %fp + -32 ]
    5418:	d4 05 c0 01 	ld  [ %l7 + %g1 ], %o2
    541c:	d8 05 c0 04 	ld  [ %l7 + %g4 ], %o4
    5420:	92 10 20 04 	mov  4, %o1
    5424:	96 07 bf e8 	add  %fp, -24, %o3
    5428:	7f ff fe 07 	call  4c44 <do_ypcall>
    542c:	9a 10 00 10 	mov  %l0, %o5
    5430:	80 a2 20 00 	cmp  %o0, 0
    5434:	12 80 00 30 	bne  54f4 <yp_first+0x16c>
    5438:	90 10 20 02 	mov  2, %o0
    543c:	d0 07 bf d0 	ld  [ %fp + -48 ], %o0
    5440:	80 a2 20 01 	cmp  %o0, 1
    5444:	22 80 00 05 	be,a   5458 <yp_first+0xd0>
    5448:	d0 07 bf dc 	ld  [ %fp + -36 ], %o0
    544c:	7f ff fc 6e 	call  4604 <ypprot_err>
    5450:	01 00 00 00 	nop 
    5454:	30 80 00 28 	b,a   54f4 <yp_first+0x16c>
    5458:	40 00 74 5e 	call  225d0 <malloc@plt>
    545c:	90 02 20 01 	inc  %o0
    5460:	80 a2 20 00 	cmp  %o0, 0
    5464:	02 80 00 20 	be  54e4 <yp_first+0x15c>
    5468:	d0 26 80 00 	st  %o0, [ %i2 ]
    546c:	d0 07 bf d4 	ld  [ %fp + -44 ], %o0
    5470:	40 00 74 58 	call  225d0 <malloc@plt>
    5474:	90 02 20 01 	inc  %o0
    5478:	80 a2 20 00 	cmp  %o0, 0
    547c:	02 80 00 1a 	be  54e4 <yp_first+0x15c>
    5480:	d0 27 00 00 	st  %o0, [ %i4 ]
    5484:	c2 07 bf dc 	ld  [ %fp + -36 ], %g1
    5488:	94 10 00 01 	mov  %g1, %o2
    548c:	c2 26 c0 00 	st  %g1, [ %i3 ]
    5490:	d2 07 bf e0 	ld  [ %fp + -32 ], %o1
    5494:	40 00 74 af 	call  22750 <memcpy@plt>
    5498:	d0 06 80 00 	ld  [ %i2 ], %o0
    549c:	c4 06 c0 00 	ld  [ %i3 ], %g2
    54a0:	c2 06 80 00 	ld  [ %i2 ], %g1
    54a4:	c0 28 40 02 	clrb  [ %g1 + %g2 ]
    54a8:	d4 07 bf d4 	ld  [ %fp + -44 ], %o2
    54ac:	d4 27 40 00 	st  %o2, [ %i5 ]
    54b0:	d0 07 00 00 	ld  [ %i4 ], %o0
    54b4:	40 00 74 a7 	call  22750 <memcpy@plt>
    54b8:	d2 07 bf d8 	ld  [ %fp + -40 ], %o1
    54bc:	c4 07 00 00 	ld  [ %i4 ], %g2
    54c0:	c2 07 40 00 	ld  [ %i5 ], %g1
    54c4:	c0 28 80 01 	clrb  [ %g2 + %g1 ]
    54c8:	b0 10 20 00 	clr  %i0
    54cc:	82 14 63 7c 	or  %l1, 0x37c, %g1
    54d0:	d0 05 c0 01 	ld  [ %l7 + %g1 ], %o0
    54d4:	40 00 74 06 	call  224ec <xdr_free@plt>
    54d8:	92 10 00 10 	mov  %l0, %o1
    54dc:	10 80 00 06 	b  54f4 <yp_first+0x16c>
    54e0:	90 10 00 18 	mov  %i0, %o0
    54e4:	40 00 74 bf 	call  227e0 <free@plt>
    54e8:	d0 06 80 00 	ld  [ %i2 ], %o0
    54ec:	10 bf ff f8 	b  54cc <yp_first+0x144>
    54f0:	b0 10 20 07 	mov  7, %i0
    54f4:	81 c7 e0 08 	ret 
    54f8:	91 e8 00 08 	restore  %g0, %o0, %o0

000054fc <yp_all>:
yp_all():
    54fc:	9d e3 bf 50 	save  %sp, -176, %sp
    5500:	2f 00 00 72 	sethi  %hi(0x1c800), %l7
    5504:	7f ff fb a0 	call  4384 <xdr_ypall+0xf0>
    5508:	ae 05 e2 fc 	add  %l7, 0x2fc, %l7	! 1cafc <__FRAME_END__+0xbad4>
    550c:	40 00 74 1c 	call  2257c <__errno_location@plt>
    5510:	c0 27 bf bc 	clr  [ %fp + -68 ]
    5514:	a4 10 00 18 	mov  %i0, %l2
    5518:	80 a6 20 00 	cmp  %i0, 0
    551c:	02 80 00 61 	be  56a0 <yp_all+0x1a4>
    5520:	ec 02 00 00 	ld  [ %o0 ], %l6
    5524:	c2 4e 00 00 	ldsb  [ %i0 ], %g1
    5528:	80 a0 00 01 	cmp  %g0, %g1
    552c:	84 60 3f ff 	subx  %g0, -1, %g2
    5530:	80 a0 00 19 	cmp  %g0, %i1
    5534:	82 60 3f ff 	subx  %g0, -1, %g1
    5538:	80 90 80 01 	orcc  %g2, %g1, %g0
    553c:	32 80 00 7b 	bne,a   5728 <yp_all+0x22c>
    5540:	90 10 20 01 	mov  1, %o0
    5544:	c2 4e 40 00 	ldsb  [ %i1 ], %g1
    5548:	80 a0 60 00 	cmp  %g1, 0
    554c:	22 80 00 77 	be,a   5728 <yp_all+0x22c>
    5550:	90 10 20 01 	mov  1, %o0
    5554:	2b 00 00 00 	sethi  %hi(0), %l5
    5558:	29 00 00 00 	sethi  %hi(0), %l4
    555c:	27 00 00 00 	sethi  %hi(0), %l3
    5560:	aa 15 60 10 	or  %l5, 0x10, %l5
    5564:	a8 15 23 d0 	or  %l4, 0x3d0, %l4
    5568:	a6 14 e0 2c 	or  %l3, 0x2c, %l3
    556c:	a2 10 20 00 	clr  %l1
    5570:	b0 10 20 06 	mov  6, %i0
    5574:	80 a4 60 01 	cmp  %l1, 1
    5578:	04 80 00 03 	ble  5584 <yp_all+0x88>
    557c:	84 10 20 01 	mov  1, %g2
    5580:	84 10 20 00 	clr  %g2
    5584:	80 a0 00 18 	cmp  %g0, %i0
    5588:	82 40 20 00 	addx  %g0, 0, %g1
    558c:	80 88 80 01 	btst  %g2, %g1
    5590:	02 80 00 46 	be  56a8 <yp_all+0x1ac>
    5594:	01 00 00 00 	nop 
    5598:	90 10 00 12 	mov  %l2, %o0
    559c:	7f ff fd 35 	call  4a70 <__yp_bind>
    55a0:	92 07 bf bc 	add  %fp, -68, %o1
    55a4:	80 a2 20 00 	cmp  %o0, 0
    55a8:	12 80 00 45 	bne  56bc <yp_all+0x1c0>
    55ac:	01 00 00 00 	nop 
    55b0:	d0 07 bf bc 	ld  [ %fp + -68 ], %o0
    55b4:	c2 02 20 48 	ld  [ %o0 + 0x48 ], %g1
    55b8:	c2 27 bf d8 	st  %g1, [ %fp + -40 ]
    55bc:	c4 02 20 4c 	ld  [ %o0 + 0x4c ], %g2
    55c0:	c4 27 bf dc 	st  %g2, [ %fp + -36 ]
    55c4:	c2 02 20 50 	ld  [ %o0 + 0x50 ], %g1
    55c8:	c2 27 bf e0 	st  %g1, [ %fp + -32 ]
    55cc:	c4 02 20 54 	ld  [ %o0 + 0x54 ], %g2
    55d0:	82 10 3f ff 	mov  -1, %g1
    55d4:	c2 27 bf b8 	st  %g1, [ %fp + -72 ]
    55d8:	c4 27 bf e4 	st  %g2, [ %fp + -28 ]
    55dc:	7f ff fb 9b 	call  4448 <__yp_unbind>
    55e0:	c0 37 bf da 	clrh  [ %fp + -38 ]
    55e4:	13 00 00 61 	sethi  %hi(0x18400), %o1
    55e8:	c0 27 bf bc 	clr  [ %fp + -68 ]
    55ec:	92 12 62 a4 	or  %o1, 0x2a4, %o1
    55f0:	90 07 bf d8 	add  %fp, -40, %o0
    55f4:	94 10 20 02 	mov  2, %o2
    55f8:	96 07 bf b8 	add  %fp, -72, %o3
    55fc:	98 10 20 00 	clr  %o4
    5600:	40 00 73 94 	call  22450 <clnttcp_create@plt>
    5604:	9a 10 20 00 	clr  %o5
    5608:	a0 92 20 00 	orcc  %o0, 0, %l0
    560c:	02 80 00 31 	be  56d0 <yp_all+0x1d4>
    5610:	82 07 bf c0 	add  %fp, -64, %g1
    5614:	d8 04 20 04 	ld  [ %l0 + 4 ], %o4
    5618:	c2 23 a0 5c 	st  %g1, [ %sp + 0x5c ]
    561c:	c8 05 c0 15 	ld  [ %l7 + %l5 ], %g4
    5620:	c2 06 80 00 	ld  [ %i2 ], %g1
    5624:	da 01 20 04 	ld  [ %g4 + 4 ], %o5
    5628:	c2 27 bf d0 	st  %g1, [ %fp + -48 ]
    562c:	c4 06 a0 04 	ld  [ %i2 + 4 ], %g2
    5630:	c6 01 00 00 	ld  [ %g4 ], %g3
    5634:	da 27 bf c4 	st  %o5, [ %fp + -60 ]
    5638:	c2 03 00 00 	ld  [ %o4 ], %g1
    563c:	c4 27 bf cc 	st  %g2, [ %fp + -52 ]
    5640:	c6 27 bf c0 	st  %g3, [ %fp + -64 ]
    5644:	e4 27 bf e8 	st  %l2, [ %fp + -24 ]
    5648:	f2 27 bf ec 	st  %i1, [ %fp + -20 ]
    564c:	92 10 20 08 	mov  8, %o1
    5650:	d4 05 c0 14 	ld  [ %l7 + %l4 ], %o2
    5654:	96 07 bf e8 	add  %fp, -24, %o3
    5658:	d8 05 c0 13 	ld  [ %l7 + %l3 ], %o4
    565c:	9f c0 40 00 	call  %g1
    5660:	9a 07 bf c8 	add  %fp, -56, %o5
    5664:	80 a2 20 00 	cmp  %o0, 0
    5668:	12 80 00 25 	bne  56fc <yp_all+0x200>
    566c:	b0 10 20 00 	clr  %i0
    5670:	c2 04 20 04 	ld  [ %l0 + 4 ], %g1
    5674:	c4 00 60 10 	ld  [ %g1 + 0x10 ], %g2
    5678:	9f c0 80 00 	call  %g2
    567c:	90 10 00 10 	mov  %l0, %o0
    5680:	80 a6 20 00 	cmp  %i0, 0
    5684:	12 bf ff bc 	bne  5574 <yp_all+0x78>
    5688:	a2 04 60 01 	inc  %l1
    568c:	e0 07 bf c8 	ld  [ %fp + -56 ], %l0
    5690:	80 a4 20 02 	cmp  %l0, 2
    5694:	02 bf ff b9 	be  5578 <yp_all+0x7c>
    5698:	80 a4 60 01 	cmp  %l1, 1
    569c:	30 80 00 12 	b,a   56e4 <yp_all+0x1e8>
    56a0:	10 80 00 22 	b  5728 <yp_all+0x22c>
    56a4:	90 10 20 01 	mov  1, %o0
    56a8:	40 00 73 b5 	call  2257c <__errno_location@plt>
    56ac:	01 00 00 00 	nop 
    56b0:	ec 22 00 00 	st  %l6, [ %o0 ]
    56b4:	10 80 00 1d 	b  5728 <yp_all+0x22c>
    56b8:	90 10 00 18 	mov  %i0, %o0
    56bc:	40 00 73 b0 	call  2257c <__errno_location@plt>
    56c0:	01 00 00 00 	nop 
    56c4:	ec 22 00 00 	st  %l6, [ %o0 ]
    56c8:	10 80 00 18 	b  5728 <yp_all+0x22c>
    56cc:	90 10 20 03 	mov  3, %o0
    56d0:	40 00 73 ab 	call  2257c <__errno_location@plt>
    56d4:	01 00 00 00 	nop 
    56d8:	ec 22 00 00 	st  %l6, [ %o0 ]
    56dc:	10 80 00 13 	b  5728 <yp_all+0x22c>
    56e0:	90 10 20 09 	mov  9, %o0
    56e4:	40 00 73 a6 	call  2257c <__errno_location@plt>
    56e8:	01 00 00 00 	nop 
    56ec:	ec 22 00 00 	st  %l6, [ %o0 ]
    56f0:	7f ff fb c5 	call  4604 <ypprot_err>
    56f4:	90 10 00 10 	mov  %l0, %o0
    56f8:	30 80 00 0c 	b,a   5728 <yp_all+0x22c>
    56fc:	80 a4 60 01 	cmp  %l1, 1
    5700:	02 80 00 04 	be  5710 <yp_all+0x214>
    5704:	03 00 00 00 	sethi  %hi(0), %g1
    5708:	10 bf ff da 	b  5670 <yp_all+0x174>
    570c:	b0 10 20 02 	mov  2, %i0
    5710:	82 10 60 5c 	or  %g1, 0x5c, %g1
    5714:	d2 05 c0 01 	ld  [ %l7 + %g1 ], %o1
    5718:	40 00 74 68 	call  228b8 <clnt_perror@plt>
    571c:	90 10 00 10 	mov  %l0, %o0
    5720:	10 bf ff d4 	b  5670 <yp_all+0x174>
    5724:	b0 10 20 02 	mov  2, %i0
    5728:	81 c7 e0 08 	ret 
    572c:	91 e8 00 08 	restore  %g0, %o0, %o0

00005730 <yp_bind>:
yp_bind():
    5730:	9d e3 bf 90 	save  %sp, -112, %sp
    5734:	03 00 00 00 	sethi  %hi(0), %g1
    5738:	2f 00 00 72 	sethi  %hi(0x1c800), %l7
    573c:	7f ff fb 12 	call  4384 <xdr_ypall+0xf0>
    5740:	ae 05 e0 c4 	add  %l7, 0xc4, %l7	! 1c8c4 <__FRAME_END__+0xb89c>
    5744:	82 10 63 68 	or  %g1, 0x368, %g1
    5748:	05 00 00 00 	sethi  %hi(0), %g2
    574c:	c2 05 c0 01 	ld  [ %l7 + %g1 ], %g1
    5750:	80 a0 60 00 	cmp  %g1, 0
    5754:	02 80 00 04 	be  5764 <yp_bind+0x34>
    5758:	84 10 a0 20 	or  %g2, 0x20, %g2
    575c:	9f c0 40 00 	call  %g1
    5760:	d0 05 c0 02 	ld  [ %l7 + %g2 ], %o0
    5764:	03 00 00 00 	sethi  %hi(0), %g1
    5768:	82 10 60 18 	or  %g1, 0x18, %g1	! 18 <GLIBC_2.0+0x18>
    576c:	d2 05 c0 01 	ld  [ %l7 + %g1 ], %o1
    5770:	7f ff fc c0 	call  4a70 <__yp_bind>
    5774:	90 10 00 18 	mov  %i0, %o0
    5778:	03 00 00 00 	sethi  %hi(0), %g1
    577c:	82 10 63 a8 	or  %g1, 0x3a8, %g1	! 3a8 <GLIBC_2.0+0x3a8>
    5780:	05 00 00 00 	sethi  %hi(0), %g2
    5784:	c2 05 c0 01 	ld  [ %l7 + %g1 ], %g1
    5788:	b0 10 00 08 	mov  %o0, %i0
    578c:	80 a0 60 00 	cmp  %g1, 0
    5790:	02 80 00 04 	be  57a0 <yp_bind+0x70>
    5794:	84 10 a0 20 	or  %g2, 0x20, %g2
    5798:	9f c0 40 00 	call  %g1
    579c:	d0 05 c0 02 	ld  [ %l7 + %g2 ], %o0
    57a0:	81 c7 e0 08 	ret 
    57a4:	81 e8 00 00 	restore 

000057a8 <__yp_check>:
__yp_check():
    57a8:	9d e3 bf 88 	save  %sp, -120, %sp
    57ac:	21 00 00 00 	sethi  %hi(0), %l0
    57b0:	2f 00 00 72 	sethi  %hi(0x1c800), %l7
    57b4:	7f ff fa f4 	call  4384 <xdr_ypall+0xf0>
    57b8:	ae 05 e0 4c 	add  %l7, 0x4c, %l7	! 1c84c <__FRAME_END__+0xb824>
    57bc:	82 14 20 28 	or  %l0, 0x28, %g1
    57c0:	c4 05 c0 01 	ld  [ %l7 + %g1 ], %g2
    57c4:	c2 48 80 00 	ldsb  [ %g2 ], %g1
    57c8:	90 07 bf ec 	add  %fp, -20, %o0
    57cc:	80 a0 60 00 	cmp  %g1, 0
    57d0:	02 80 00 0c 	be  5800 <__yp_check+0x58>
    57d4:	a2 10 00 18 	mov  %i0, %l1
    57d8:	80 a4 60 00 	cmp  %l1, 0
    57dc:	02 80 00 04 	be  57ec <__yp_check+0x44>
    57e0:	84 14 20 28 	or  %l0, 0x28, %g2
    57e4:	c2 05 c0 02 	ld  [ %l7 + %g2 ], %g1
    57e8:	c2 24 40 00 	st  %g1, [ %l1 ]
    57ec:	7f ff ff d1 	call  5730 <yp_bind>
    57f0:	d0 05 c0 02 	ld  [ %l7 + %g2 ], %o0
    57f4:	80 a0 00 08 	cmp  %g0, %o0
    57f8:	10 80 00 07 	b  5814 <__yp_check+0x6c>
    57fc:	b0 60 3f ff 	subx  %g0, -1, %i0
    5800:	7f ff fb 91 	call  4644 <yp_get_default_domain>
    5804:	b0 10 20 00 	clr  %i0
    5808:	80 a2 20 00 	cmp  %o0, 0
    580c:	02 bf ff f4 	be  57dc <__yp_check+0x34>
    5810:	80 a4 60 00 	cmp  %l1, 0
    5814:	81 c7 e0 08 	ret 
    5818:	81 e8 00 00 	restore 

0000581c <yperr_string>:
yperr_string():
    581c:	9d e3 bf 90 	save  %sp, -112, %sp
    5820:	03 00 00 00 	sethi  %hi(0), %g1
    5824:	2f 00 00 71 	sethi  %hi(0x1c400), %l7
    5828:	7f ff fa d7 	call  4384 <xdr_ypall+0xf0>
    582c:	ae 05 e3 d8 	add  %l7, 0x3d8, %l7	! 1c7d8 <__FRAME_END__+0xb7b0>
    5830:	80 a6 20 10 	cmp  %i0, 0x10
    5834:	18 80 00 0b 	bgu  5860 <yperr_string+0x44>
    5838:	82 10 60 60 	or  %g1, 0x60, %g1
    583c:	03 00 00 77 	sethi  %hi(0x1dc00), %g1
    5840:	82 10 60 c0 	or  %g1, 0xc0, %g1	! 1dcc0 <__FRAME_END__+0xcc98>
    5844:	86 25 c0 01 	sub  %l7, %g1, %g3
    5848:	85 2e 20 02 	sll  %i0, 2, %g2
    584c:	c2 00 c0 02 	ld  [ %g3 + %g2 ], %g1
    5850:	81 c0 40 03 	jmp  %g1 + %g3
    5854:	01 00 00 00 	nop 
    5858:	03 00 00 00 	sethi  %hi(0), %g1
    585c:	82 10 60 4c 	or  %g1, 0x4c, %g1	! 4c <GLIBC_2.0+0x4c>
    5860:	f2 05 c0 01 	ld  [ %l7 + %g1 ], %i1
    5864:	03 00 00 00 	sethi  %hi(0), %g1
    5868:	82 10 63 90 	or  %g1, 0x390, %g1	! 390 <GLIBC_2.0+0x390>
    586c:	f0 05 c0 01 	ld  [ %l7 + %g1 ], %i0
    5870:	10 80 73 d0 	b  227b0 <__dcgettext@plt>
    5874:	95 e8 20 05 	restore  %g0, 5, %o2
    5878:	03 00 00 00 	sethi  %hi(0), %g1
    587c:	10 bf ff f9 	b  5860 <yperr_string+0x44>
    5880:	82 10 60 64 	or  %g1, 0x64, %g1	! 64 <GLIBC_2.0+0x64>
    5884:	03 00 00 00 	sethi  %hi(0), %g1
    5888:	10 bf ff f6 	b  5860 <yperr_string+0x44>
    588c:	82 10 60 68 	or  %g1, 0x68, %g1	! 68 <GLIBC_2.0+0x68>
    5890:	03 00 00 00 	sethi  %hi(0), %g1
    5894:	10 bf ff f3 	b  5860 <yperr_string+0x44>
    5898:	82 10 60 6c 	or  %g1, 0x6c, %g1	! 6c <GLIBC_2.0+0x6c>
    589c:	03 00 00 00 	sethi  %hi(0), %g1
    58a0:	10 bf ff f0 	b  5860 <yperr_string+0x44>
    58a4:	82 10 60 70 	or  %g1, 0x70, %g1	! 70 <GLIBC_2.0+0x70>
    58a8:	03 00 00 00 	sethi  %hi(0), %g1
    58ac:	10 bf ff ed 	b  5860 <yperr_string+0x44>
    58b0:	82 10 60 74 	or  %g1, 0x74, %g1	! 74 <GLIBC_2.0+0x74>
    58b4:	03 00 00 00 	sethi  %hi(0), %g1
    58b8:	10 bf ff ea 	b  5860 <yperr_string+0x44>
    58bc:	82 10 60 78 	or  %g1, 0x78, %g1	! 78 <GLIBC_2.0+0x78>
    58c0:	03 00 00 00 	sethi  %hi(0), %g1
    58c4:	10 bf ff e7 	b  5860 <yperr_string+0x44>
    58c8:	82 10 60 7c 	or  %g1, 0x7c, %g1	! 7c <GLIBC_2.0+0x7c>
    58cc:	03 00 00 00 	sethi  %hi(0), %g1
    58d0:	10 bf ff e4 	b  5860 <yperr_string+0x44>
    58d4:	82 10 60 80 	or  %g1, 0x80, %g1	! 80 <GLIBC_2.0+0x80>
    58d8:	03 00 00 00 	sethi  %hi(0), %g1
    58dc:	10 bf ff e1 	b  5860 <yperr_string+0x44>
    58e0:	82 10 60 84 	or  %g1, 0x84, %g1	! 84 <GLIBC_2.0+0x84>
    58e4:	03 00 00 00 	sethi  %hi(0), %g1
    58e8:	10 bf ff de 	b  5860 <yperr_string+0x44>
    58ec:	82 10 60 88 	or  %g1, 0x88, %g1	! 88 <GLIBC_2.0+0x88>
    58f0:	03 00 00 00 	sethi  %hi(0), %g1
    58f4:	10 bf ff db 	b  5860 <yperr_string+0x44>
    58f8:	82 10 60 8c 	or  %g1, 0x8c, %g1	! 8c <GLIBC_2.0+0x8c>
    58fc:	03 00 00 00 	sethi  %hi(0), %g1
    5900:	10 bf ff d8 	b  5860 <yperr_string+0x44>
    5904:	82 10 60 90 	or  %g1, 0x90, %g1	! 90 <GLIBC_2.0+0x90>
    5908:	03 00 00 00 	sethi  %hi(0), %g1
    590c:	10 bf ff d5 	b  5860 <yperr_string+0x44>
    5910:	82 10 60 94 	or  %g1, 0x94, %g1	! 94 <GLIBC_2.0+0x94>
    5914:	03 00 00 00 	sethi  %hi(0), %g1
    5918:	10 bf ff d2 	b  5860 <yperr_string+0x44>
    591c:	82 10 60 98 	or  %g1, 0x98, %g1	! 98 <GLIBC_2.0+0x98>
    5920:	03 00 00 00 	sethi  %hi(0), %g1
    5924:	10 bf ff cf 	b  5860 <yperr_string+0x44>
    5928:	82 10 60 9c 	or  %g1, 0x9c, %g1	! 9c <GLIBC_2.0+0x9c>
    592c:	03 00 00 00 	sethi  %hi(0), %g1
    5930:	10 bf ff cc 	b  5860 <yperr_string+0x44>
    5934:	82 10 60 a0 	or  %g1, 0xa0, %g1	! a0 <GLIBC_2.0+0xa0>

00005938 <yp_update>:
yp_update():
    5938:	9d e3 be 50 	save  %sp, -432, %sp
    593c:	80 a0 00 18 	cmp  %g0, %i0
    5940:	84 60 3f ff 	subx  %g0, -1, %g2
    5944:	80 a0 00 19 	cmp  %g0, %i1
    5948:	82 60 3f ff 	subx  %g0, -1, %g1
    594c:	2f 00 00 71 	sethi  %hi(0x1c400), %l7
    5950:	7f ff fa 8d 	call  4384 <xdr_ypall+0xf0>
    5954:	ae 05 e2 b0 	add  %l7, 0x2b0, %l7	! 1c6b0 <__FRAME_END__+0xb688>
    5958:	92 10 00 19 	mov  %i1, %o1
    595c:	80 90 80 01 	orcc  %g2, %g1, %g0
    5960:	12 80 00 0c 	bne  5990 <yp_update+0x58>
    5964:	c0 27 be b8 	clr  [ %fp + -328 ]
    5968:	80 a6 e0 00 	cmp  %i3, 0
    596c:	02 80 00 09 	be  5990 <yp_update+0x58>
    5970:	82 1e a0 03 	xor  %i2, 3, %g1
    5974:	80 a0 00 01 	cmp  %g0, %g1
    5978:	84 40 20 00 	addx  %g0, 0, %g2
    597c:	80 a0 00 1d 	cmp  %g0, %i5
    5980:	82 60 3f ff 	subx  %g0, -1, %g1
    5984:	80 88 80 01 	btst  %g2, %g1
    5988:	02 80 00 04 	be  5998 <yp_update+0x60>
    598c:	c2 07 a0 5c 	ld  [ %fp + 0x5c ], %g1
    5990:	10 80 00 9c 	b  5c00 <yp_update+0x2c8>
    5994:	90 10 20 01 	mov  1, %o0
    5998:	f8 27 bf dc 	st  %i4, [ %fp + -36 ]
    599c:	f6 27 bf e0 	st  %i3, [ %fp + -32 ]
    59a0:	c2 27 bf e4 	st  %g1, [ %fp + -28 ]
    59a4:	fa 27 bf e8 	st  %i5, [ %fp + -24 ]
    59a8:	f2 27 bf d8 	st  %i1, [ %fp + -40 ]
    59ac:	90 10 00 18 	mov  %i0, %o0
    59b0:	7f ff fd 91 	call  4ff4 <yp_master>
    59b4:	94 07 be bc 	add  %fp, -324, %o2
    59b8:	80 a2 20 00 	cmp  %o0, 0
    59bc:	12 80 00 91 	bne  5c00 <yp_update+0x2c8>
    59c0:	a0 07 be c8 	add  %fp, -312, %l0
    59c4:	94 10 00 18 	mov  %i0, %o2
    59c8:	90 10 00 10 	mov  %l0, %o0
    59cc:	40 00 73 34 	call  2269c <host2netname@plt>
    59d0:	d2 07 be bc 	ld  [ %fp + -324 ], %o1
    59d4:	80 a2 20 00 	cmp  %o0, 0
    59d8:	02 80 00 5e 	be  5b50 <yp_update+0x218>
    59dc:	03 00 00 00 	sethi  %hi(0), %g1
    59e0:	82 10 60 a4 	or  %g1, 0xa4, %g1	! a4 <GLIBC_2.0+0xa4>
    59e4:	13 00 00 61 	sethi  %hi(0x18400), %o1
    59e8:	92 12 62 bc 	or  %o1, 0x2bc, %o1	! 186bc <__FRAME_END__+0x7694>
    59ec:	d6 05 c0 01 	ld  [ %l7 + %g1 ], %o3
    59f0:	94 10 20 01 	mov  1, %o2
    59f4:	40 00 72 b2 	call  224bc <clnt_create@plt>
    59f8:	d0 07 be bc 	ld  [ %fp + -324 ], %o0
    59fc:	ba 10 00 08 	mov  %o0, %i5
    5a00:	40 00 73 78 	call  227e0 <free@plt>
    5a04:	d0 07 be bc 	ld  [ %fp + -324 ], %o0
    5a08:	80 a7 60 00 	cmp  %i5, 0
    5a0c:	02 80 00 71 	be  5bd0 <yp_update+0x298>
    5a10:	b6 07 bf c8 	add  %fp, -56, %i3
    5a14:	c2 07 60 04 	ld  [ %i5 + 4 ], %g1
    5a18:	c4 00 60 14 	ld  [ %g1 + 0x14 ], %g2
    5a1c:	90 10 00 1d 	mov  %i5, %o0
    5a20:	92 10 20 03 	mov  3, %o1
    5a24:	9f c0 80 00 	call  %g2
    5a28:	94 10 00 1b 	mov  %i3, %o2
    5a2c:	80 a2 20 00 	cmp  %o0, 0
    5a30:	02 80 00 59 	be  5b94 <yp_update+0x25c>
    5a34:	80 a6 a0 03 	cmp  %i2, 3
    5a38:	02 80 00 3e 	be  5b30 <yp_update+0x1f8>
    5a3c:	03 00 00 00 	sethi  %hi(0), %g1
    5a40:	18 80 00 38 	bgu  5b20 <yp_update+0x1e8>
    5a44:	80 a6 a0 04 	cmp  %i2, 4
    5a48:	80 a6 a0 01 	cmp  %i2, 1
    5a4c:	0a 80 00 6d 	bcs  5c00 <yp_update+0x2c8>
    5a50:	90 10 20 01 	mov  1, %o0
    5a54:	03 00 00 00 	sethi  %hi(0), %g1
    5a58:	82 10 63 54 	or  %g1, 0x354, %g1	! 354 <GLIBC_2.0+0x354>
    5a5c:	f8 05 c0 01 	ld  [ %l7 + %g1 ], %i4
    5a60:	90 10 00 10 	mov  %l0, %o0
    5a64:	94 10 00 1b 	mov  %i3, %o2
    5a68:	92 10 20 3c 	mov  0x3c, %o1
    5a6c:	40 00 72 73 	call  22438 <authdes_create@plt>
    5a70:	96 10 20 00 	clr  %o3
    5a74:	80 a2 20 00 	cmp  %o0, 0
    5a78:	02 80 00 32 	be  5b40 <yp_update+0x208>
    5a7c:	d0 27 40 00 	st  %o0, [ %i5 ]
    5a80:	21 00 00 00 	sethi  %hi(0), %l0
    5a84:	b2 07 bf d8 	add  %fp, -40, %i1
    5a88:	b0 07 be c0 	add  %fp, -320, %i0
    5a8c:	10 80 00 0d 	b  5ac0 <yp_update+0x188>
    5a90:	37 00 00 00 	sethi  %hi(0), %i3
    5a94:	c2 00 80 00 	ld  [ %g2 ], %g1
    5a98:	80 a0 60 03 	cmp  %g1, 3
    5a9c:	12 80 00 27 	bne  5b38 <yp_update+0x200>
    5aa0:	90 10 00 02 	mov  %g2, %o0
    5aa4:	c2 00 a0 20 	ld  [ %g2 + 0x20 ], %g1
    5aa8:	c4 00 60 10 	ld  [ %g1 + 0x10 ], %g2
    5aac:	9f c0 80 00 	call  %g2
    5ab0:	01 00 00 00 	nop 
    5ab4:	40 00 73 12 	call  226fc <authunix_create_default@plt>
    5ab8:	01 00 00 00 	nop 
    5abc:	d0 27 40 00 	st  %o0, [ %i5 ]
    5ac0:	82 14 20 10 	or  %l0, 0x10, %g1
    5ac4:	c4 05 c0 01 	ld  [ %l7 + %g1 ], %g2
    5ac8:	da 07 60 04 	ld  [ %i5 + 4 ], %o5
    5acc:	c2 00 80 00 	ld  [ %g2 ], %g1
    5ad0:	f0 23 a0 5c 	st  %i0, [ %sp + 0x5c ]
    5ad4:	c2 27 be c0 	st  %g1, [ %fp + -320 ]
    5ad8:	c8 00 a0 04 	ld  [ %g2 + 4 ], %g4
    5adc:	86 16 e3 9c 	or  %i3, 0x39c, %g3
    5ae0:	c2 03 40 00 	ld  [ %o5 ], %g1
    5ae4:	c8 27 be c4 	st  %g4, [ %fp + -316 ]
    5ae8:	d8 05 c0 03 	ld  [ %l7 + %g3 ], %o4
    5aec:	92 10 00 1a 	mov  %i2, %o1
    5af0:	94 10 00 1c 	mov  %i4, %o2
    5af4:	96 10 00 19 	mov  %i1, %o3
    5af8:	9a 07 be b8 	add  %fp, -328, %o5
    5afc:	9f c0 40 00 	call  %g1
    5b00:	90 10 00 1d 	mov  %i5, %o0
    5b04:	80 a2 20 07 	cmp  %o0, 7
    5b08:	22 bf ff e3 	be,a   5a94 <yp_update+0x15c>
    5b0c:	c4 07 40 00 	ld  [ %i5 ], %g2
    5b10:	80 a2 20 00 	cmp  %o0, 0
    5b14:	12 80 00 35 	bne  5be8 <yp_update+0x2b0>
    5b18:	d0 07 be b8 	ld  [ %fp + -328 ], %o0
    5b1c:	30 80 00 39 	b,a   5c00 <yp_update+0x2c8>
    5b20:	12 80 00 38 	bne  5c00 <yp_update+0x2c8>
    5b24:	90 10 20 01 	mov  1, %o0
    5b28:	10 bf ff cc 	b  5a58 <yp_update+0x120>
    5b2c:	03 00 00 00 	sethi  %hi(0), %g1
    5b30:	10 bf ff cb 	b  5a5c <yp_update+0x124>
    5b34:	82 10 63 78 	or  %g1, 0x378, %g1	! 378 <GLIBC_2.0+0x378>
    5b38:	10 80 00 32 	b  5c00 <yp_update+0x2c8>
    5b3c:	90 10 20 0f 	mov  0xf, %o0
    5b40:	40 00 72 ef 	call  226fc <authunix_create_default@plt>
    5b44:	21 00 00 00 	sethi  %hi(0), %l0
    5b48:	10 bf ff cf 	b  5a84 <yp_update+0x14c>
    5b4c:	d0 27 40 00 	st  %o0, [ %i5 ]
    5b50:	05 00 00 00 	sethi  %hi(0), %g2
    5b54:	03 00 00 00 	sethi  %hi(0), %g1
    5b58:	84 10 a3 90 	or  %g2, 0x390, %g2
    5b5c:	82 10 60 a8 	or  %g1, 0xa8, %g1
    5b60:	d2 05 c0 01 	ld  [ %l7 + %g1 ], %o1
    5b64:	94 10 20 05 	mov  5, %o2
    5b68:	40 00 73 12 	call  227b0 <__dcgettext@plt>
    5b6c:	d0 05 c0 02 	ld  [ %l7 + %g2 ], %o0
    5b70:	03 00 00 00 	sethi  %hi(0), %g1
    5b74:	82 10 63 b0 	or  %g1, 0x3b0, %g1	! 3b0 <GLIBC_2.0+0x3b0>
    5b78:	c4 05 c0 01 	ld  [ %l7 + %g1 ], %g2
    5b7c:	40 00 72 b6 	call  22654 <fputs@plt>
    5b80:	d2 00 80 00 	ld  [ %g2 ], %o1
    5b84:	40 00 73 17 	call  227e0 <free@plt>
    5b88:	d0 07 be bc 	ld  [ %fp + -324 ], %o0
    5b8c:	10 80 00 1d 	b  5c00 <yp_update+0x2c8>
    5b90:	90 10 20 06 	mov  6, %o0
    5b94:	05 00 00 00 	sethi  %hi(0), %g2
    5b98:	03 00 00 00 	sethi  %hi(0), %g1
    5b9c:	84 10 a3 90 	or  %g2, 0x390, %g2
    5ba0:	82 10 60 ac 	or  %g1, 0xac, %g1
    5ba4:	d2 05 c0 01 	ld  [ %l7 + %g1 ], %o1
    5ba8:	d0 05 c0 02 	ld  [ %l7 + %g2 ], %o0
    5bac:	40 00 73 01 	call  227b0 <__dcgettext@plt>
    5bb0:	94 10 20 05 	mov  5, %o2
    5bb4:	03 00 00 00 	sethi  %hi(0), %g1
    5bb8:	82 10 63 b0 	or  %g1, 0x3b0, %g1	! 3b0 <GLIBC_2.0+0x3b0>
    5bbc:	c4 05 c0 01 	ld  [ %l7 + %g1 ], %g2
    5bc0:	40 00 72 a5 	call  22654 <fputs@plt>
    5bc4:	d2 00 80 00 	ld  [ %g2 ], %o1
    5bc8:	10 80 00 0e 	b  5c00 <yp_update+0x2c8>
    5bcc:	90 10 20 02 	mov  2, %o0
    5bd0:	03 00 00 00 	sethi  %hi(0), %g1
    5bd4:	82 10 60 b0 	or  %g1, 0xb0, %g1	! b0 <GLIBC_2.0+0xb0>
    5bd8:	40 00 72 78 	call  225b8 <clnt_pcreateerror@plt>
    5bdc:	d0 05 c0 01 	ld  [ %l7 + %g1 ], %o0
    5be0:	10 80 00 08 	b  5c00 <yp_update+0x2c8>
    5be4:	90 10 20 02 	mov  2, %o0
    5be8:	03 00 00 00 	sethi  %hi(0), %g1
    5bec:	82 10 60 b4 	or  %g1, 0xb4, %g1	! b4 <GLIBC_2.0+0xb4>
    5bf0:	90 10 00 1d 	mov  %i5, %o0
    5bf4:	40 00 73 31 	call  228b8 <clnt_perror@plt>
    5bf8:	d2 05 c0 01 	ld  [ %l7 + %g1 ], %o1
    5bfc:	90 10 20 02 	mov  2, %o0
    5c00:	81 c7 e0 08 	ret 
    5c04:	91 e8 00 08 	restore  %g0, %o0, %o0

00005c08 <xdr_yp_buf>:
xdr_yp_buf():
    5c08:	94 10 00 09 	mov  %o1, %o2
    5c0c:	92 02 60 04 	add  %o1, 4, %o1
    5c10:	96 10 3f ff 	mov  -1, %o3
    5c14:	82 13 c0 00 	mov  %o7, %g1
    5c18:	10 80 72 7a 	b  22600 <xdr_bytes@plt>
    5c1c:	01 00 00 00 	nop 
    5c20:	01 00 00 00 	nop 

00005c24 <xdr_ypupdate_args>:
xdr_ypupdate_args():
    5c24:	9d e3 bf 90 	save  %sp, -112, %sp
    5c28:	92 10 00 19 	mov  %i1, %o1
    5c2c:	94 10 3f ff 	mov  -1, %o2
    5c30:	40 00 73 1f 	call  228ac <xdr_string@plt>
    5c34:	90 10 00 18 	mov  %i0, %o0
    5c38:	80 a2 20 00 	cmp  %o0, 0
    5c3c:	92 06 60 04 	add  %i1, 4, %o1
    5c40:	02 80 00 09 	be  5c64 <xdr_ypupdate_args+0x40>
    5c44:	90 10 00 18 	mov  %i0, %o0
    5c48:	7f ff ff f0 	call  5c08 <xdr_yp_buf>
    5c4c:	b2 06 60 0c 	add  %i1, 0xc, %i1
    5c50:	80 a2 20 00 	cmp  %o0, 0
    5c54:	02 80 00 04 	be  5c64 <xdr_ypupdate_args+0x40>
    5c58:	01 00 00 00 	nop 
    5c5c:	10 bf ff eb 	b  5c08 <xdr_yp_buf>
    5c60:	81 e8 00 00 	restore 
    5c64:	81 c7 e0 08 	ret 
    5c68:	91 e8 20 00 	restore  %g0, 0, %o0

00005c6c <xdr_ypdelete_args>:
xdr_ypdelete_args():
    5c6c:	9d e3 bf 90 	save  %sp, -112, %sp
    5c70:	92 10 00 19 	mov  %i1, %o1
    5c74:	90 10 00 18 	mov  %i0, %o0
    5c78:	40 00 73 0d 	call  228ac <xdr_string@plt>
    5c7c:	94 10 3f ff 	mov  -1, %o2
    5c80:	80 a2 20 00 	cmp  %o0, 0
    5c84:	02 80 00 04 	be  5c94 <xdr_ypdelete_args+0x28>
    5c88:	b2 06 60 04 	add  %i1, 4, %i1
    5c8c:	10 bf ff df 	b  5c08 <xdr_yp_buf>
    5c90:	81 e8 00 00 	restore 
    5c94:	81 c7 e0 08 	ret 
    5c98:	91 e8 20 00 	restore  %g0, 0, %o0

00005c9c <nis_leaf_of_r>:
nis_leaf_of_r():
    5c9c:	9d e3 bf 90 	save  %sp, -112, %sp
    5ca0:	c0 2e 40 00 	clrb  [ %i1 ]
    5ca4:	c4 4e 00 00 	ldsb  [ %i0 ], %g2
    5ca8:	82 18 a0 2e 	xor  %g2, 0x2e, %g1
    5cac:	80 a0 00 01 	cmp  %g0, %g1
    5cb0:	86 40 20 00 	addx  %g0, 0, %g3
    5cb4:	80 a0 00 02 	cmp  %g0, %g2
    5cb8:	82 40 20 00 	addx  %g0, 0, %g1
    5cbc:	92 10 00 18 	mov  %i0, %o1
    5cc0:	80 88 c0 01 	btst  %g3, %g1
    5cc4:	02 80 00 0c 	be  5cf4 <nis_leaf_of_r+0x58>
    5cc8:	94 10 20 00 	clr  %o2
    5ccc:	94 02 a0 01 	inc  %o2
    5cd0:	c4 4a 40 0a 	ldsb  [ %o1 + %o2 ], %g2
    5cd4:	82 18 a0 2e 	xor  %g2, 0x2e, %g1
    5cd8:	80 a0 00 01 	cmp  %g0, %g1
    5cdc:	86 40 20 00 	addx  %g0, 0, %g3
    5ce0:	80 a0 00 02 	cmp  %g0, %g2
    5ce4:	82 40 20 00 	addx  %g0, 0, %g1
    5ce8:	80 88 c0 01 	btst  %g3, %g1
    5cec:	32 bf ff f9 	bne,a   5cd0 <nis_leaf_of_r+0x34>
    5cf0:	94 02 a0 01 	inc  %o2
    5cf4:	80 a2 80 1a 	cmp  %o2, %i2
    5cf8:	1a 80 00 07 	bcc  5d14 <nis_leaf_of_r+0x78>
    5cfc:	01 00 00 00 	nop 
    5d00:	40 00 71 e3 	call  2248c <mempcpy@plt>
    5d04:	90 10 00 19 	mov  %i1, %o0
    5d08:	c0 2a 00 00 	clrb  [ %o0 ]
    5d0c:	10 80 00 07 	b  5d28 <nis_leaf_of_r+0x8c>
    5d10:	90 10 00 19 	mov  %i1, %o0
    5d14:	40 00 72 1a 	call  2257c <__errno_location@plt>
    5d18:	01 00 00 00 	nop 
    5d1c:	82 10 20 22 	mov  0x22, %g1	! 22 <GLIBC_2.0+0x22>
    5d20:	c2 22 00 00 	st  %g1, [ %o0 ]
    5d24:	90 10 20 00 	clr  %o0
    5d28:	81 c7 e0 08 	ret 
    5d2c:	91 e8 00 08 	restore  %g0, %o0, %o0
    5d30:	81 c3 e0 08 	retl 
    5d34:	ae 03 c0 17 	add  %o7, %l7, %l7

00005d38 <nis_leaf_of>:
nis_leaf_of():
    5d38:	9d e3 bf 90 	save  %sp, -112, %sp
    5d3c:	03 00 00 00 	sethi  %hi(0), %g1
    5d40:	2f 00 00 70 	sethi  %hi(0x1c000), %l7
    5d44:	7f ff ff fb 	call  5d30 <nis_leaf_of_r+0x94>
    5d48:	ae 05 e2 bc 	add  %l7, 0x2bc, %l7	! 1c2bc <__FRAME_END__+0xb294>
    5d4c:	82 10 60 b8 	or  %g1, 0xb8, %g1
    5d50:	f2 05 c0 01 	ld  [ %l7 + %g1 ], %i1
    5d54:	10 bf ff d2 	b  5c9c <nis_leaf_of_r>
    5d58:	95 e8 24 00 	restore  %g0, 0x400, %o2
    5d5c:	01 00 00 00 	nop 

00005d60 <nis_name_of_r>:
nis_name_of_r():
    5d60:	9d e3 bf 90 	save  %sp, -112, %sp
    5d64:	40 00 01 ef 	call  6520 <nis_local_directory>
    5d68:	01 00 00 00 	nop 
    5d6c:	a2 10 00 08 	mov  %o0, %l1
    5d70:	40 00 72 3f 	call  2266c <strlen@plt>
    5d74:	90 10 00 18 	mov  %i0, %o0
    5d78:	a0 10 00 08 	mov  %o0, %l0
    5d7c:	40 00 72 3c 	call  2266c <strlen@plt>
    5d80:	90 10 00 11 	mov  %l1, %o0
    5d84:	a0 24 00 08 	sub  %l0, %o0, %l0
    5d88:	92 10 00 11 	mov  %l1, %o1
    5d8c:	90 06 00 10 	add  %i0, %l0, %o0
    5d90:	80 a4 20 00 	cmp  %l0, 0
    5d94:	04 80 00 19 	ble  5df8 <nis_name_of_r+0x98>
    5d98:	82 10 20 00 	clr  %g1
    5d9c:	40 00 71 ce 	call  224d4 <strcmp@plt>
    5da0:	01 00 00 00 	nop 
    5da4:	80 a2 20 00 	cmp  %o0, 0
    5da8:	12 80 00 14 	bne  5df8 <nis_name_of_r+0x98>
    5dac:	82 10 20 00 	clr  %g1
    5db0:	92 10 00 18 	mov  %i0, %o1
    5db4:	90 10 00 19 	mov  %i1, %o0
    5db8:	80 a4 00 1a 	cmp  %l0, %i2
    5dbc:	1a 80 00 0a 	bcc  5de4 <nis_name_of_r+0x84>
    5dc0:	94 04 3f ff 	add  %l0, -1, %o2
    5dc4:	40 00 71 b2 	call  2248c <mempcpy@plt>
    5dc8:	01 00 00 00 	nop 
    5dcc:	c0 2a 00 00 	clrb  [ %o0 ]
    5dd0:	80 a4 20 01 	cmp  %l0, 1
    5dd4:	02 80 00 09 	be  5df8 <nis_name_of_r+0x98>
    5dd8:	82 10 20 00 	clr  %g1
    5ddc:	10 80 00 07 	b  5df8 <nis_name_of_r+0x98>
    5de0:	82 10 00 19 	mov  %i1, %g1
    5de4:	40 00 71 e6 	call  2257c <__errno_location@plt>
    5de8:	01 00 00 00 	nop 
    5dec:	82 10 20 22 	mov  0x22, %g1	! 22 <GLIBC_2.0+0x22>
    5df0:	c2 22 00 00 	st  %g1, [ %o0 ]
    5df4:	82 10 20 00 	clr  %g1
    5df8:	81 c7 e0 08 	ret 
    5dfc:	91 e8 00 01 	restore  %g0, %g1, %o0

00005e00 <nis_name_of>:
nis_name_of():
    5e00:	9d e3 bf 90 	save  %sp, -112, %sp
    5e04:	03 00 00 00 	sethi  %hi(0), %g1
    5e08:	2f 00 00 70 	sethi  %hi(0x1c000), %l7
    5e0c:	7f ff ff c9 	call  5d30 <nis_leaf_of_r+0x94>
    5e10:	ae 05 e1 f4 	add  %l7, 0x1f4, %l7	! 1c1f4 <__FRAME_END__+0xb1cc>
    5e14:	82 10 60 bc 	or  %g1, 0xbc, %g1
    5e18:	f2 05 c0 01 	ld  [ %l7 + %g1 ], %i1
    5e1c:	10 bf ff d1 	b  5d60 <nis_name_of_r>
    5e20:	95 e8 24 00 	restore  %g0, 0x400, %o2
    5e24:	01 00 00 00 	nop 

00005e28 <nis_getnames>:
nis_getnames():
    5e28:	9d e3 bf 88 	save  %sp, -120, %sp
    5e2c:	2f 00 00 70 	sethi  %hi(0x1c000), %l7
    5e30:	7f ff ff c0 	call  5d30 <nis_leaf_of_r+0x94>
    5e34:	ae 05 e1 d0 	add  %l7, 0x1d0, %l7	! 1c1d0 <__FRAME_END__+0xb1a8>
    5e38:	40 00 01 ba 	call  6520 <nis_local_directory>
    5e3c:	b8 10 00 18 	mov  %i0, %i4
    5e40:	40 00 72 0b 	call  2266c <strlen@plt>
    5e44:	b6 10 00 08 	mov  %o0, %i3
    5e48:	ac 10 00 08 	mov  %o0, %l6
    5e4c:	40 00 72 08 	call  2266c <strlen@plt>
    5e50:	90 10 00 18 	mov  %i0, %o0
    5e54:	ba 10 00 08 	mov  %o0, %i5
    5e58:	40 00 71 de 	call  225d0 <malloc@plt>
    5e5c:	90 10 20 0c 	mov  0xc, %o0
    5e60:	a6 92 20 00 	orcc  %o0, 0, %l3
    5e64:	a4 10 20 00 	clr  %l2
    5e68:	a8 10 20 02 	mov  2, %l4
    5e6c:	02 80 01 63 	be  63f8 <nis_getnames+0x5d0>
    5e70:	b0 10 20 00 	clr  %i0
    5e74:	88 07 00 1d 	add  %i4, %i5, %g4
    5e78:	c6 49 3f ff 	ldsb  [ %g4 + -1 ], %g3
    5e7c:	80 a0 e0 2e 	cmp  %g3, 0x2e
    5e80:	02 80 00 ab 	be  612c <nis_getnames+0x304>
    5e84:	80 a5 a0 02 	cmp  %l6, 2
    5e88:	08 80 00 09 	bleu  5eac <nis_getnames+0x84>
    5e8c:	84 06 c0 16 	add  %i3, %l6, %g2
    5e90:	c2 48 bf fe 	ldsb  [ %g2 + -2 ], %g1
    5e94:	80 a0 40 03 	cmp  %g1, %g3
    5e98:	86 01 3f ff 	add  %g4, -1, %g3
    5e9c:	88 10 20 00 	clr  %g4
    5ea0:	a0 00 bf fe 	add  %g2, -2, %l0
    5ea4:	02 80 00 9a 	be  610c <nis_getnames+0x2e4>
    5ea8:	c2 08 bf fe 	ldub  [ %g2 + -2 ], %g1
    5eac:	03 00 00 00 	sethi  %hi(0), %g1
    5eb0:	82 10 60 c0 	or  %g1, 0xc0, %g1	! c0 <GLIBC_2.0+0xc0>
    5eb4:	40 00 71 94 	call  22504 <getenv@plt>
    5eb8:	d0 05 c0 01 	ld  [ %l7 + %g1 ], %o0
    5ebc:	a0 92 20 00 	orcc  %o0, 0, %l0
    5ec0:	02 80 01 31 	be  6384 <nis_getnames+0x55c>
    5ec4:	03 00 00 00 	sethi  %hi(0), %g1
    5ec8:	40 00 71 e9 	call  2266c <strlen@plt>
    5ecc:	01 00 00 00 	nop 
    5ed0:	82 02 20 08 	add  %o0, 8, %g1
    5ed4:	82 08 7f f8 	and  %g1, -8, %g1
    5ed8:	9c 23 80 01 	sub  %sp, %g1, %sp
    5edc:	94 02 20 01 	add  %o0, 1, %o2
    5ee0:	92 10 00 10 	mov  %l0, %o1
    5ee4:	40 00 72 1b 	call  22750 <memcpy@plt>
    5ee8:	90 03 a0 60 	add  %sp, 0x60, %o0
    5eec:	90 92 20 00 	orcc  %o0, 0, %o0
    5ef0:	02 80 01 33 	be  63bc <nis_getnames+0x594>
    5ef4:	b4 07 bf ec 	add  %fp, -20, %i2
    5ef8:	c2 4a 00 00 	ldsb  [ %o0 ], %g1
    5efc:	80 a0 60 3a 	cmp  %g1, 0x3a
    5f00:	12 80 00 07 	bne  5f1c <nis_getnames+0xf4>
    5f04:	c2 0a 00 00 	ldub  [ %o0 ], %g1
    5f08:	90 02 20 01 	inc  %o0
    5f0c:	c2 4a 00 00 	ldsb  [ %o0 ], %g1
    5f10:	80 a0 60 3a 	cmp  %g1, 0x3a
    5f14:	02 bf ff fd 	be  5f08 <nis_getnames+0xe0>
    5f18:	c2 0a 00 00 	ldub  [ %o0 ], %g1
    5f1c:	83 28 60 18 	sll  %g1, 0x18, %g1
    5f20:	80 a0 60 00 	cmp  %g1, 0
    5f24:	02 80 00 14 	be  5f74 <nis_getnames+0x14c>
    5f28:	92 10 20 00 	clr  %o1
    5f2c:	82 10 00 08 	mov  %o0, %g1
    5f30:	90 02 20 01 	inc  %o0
    5f34:	c6 0a 00 00 	ldub  [ %o0 ], %g3
    5f38:	87 28 e0 18 	sll  %g3, 0x18, %g3
    5f3c:	80 a0 e0 00 	cmp  %g3, 0
    5f40:	02 80 00 0c 	be  5f70 <nis_getnames+0x148>
    5f44:	92 10 00 01 	mov  %g1, %o1
    5f48:	82 10 00 03 	mov  %g3, %g1
    5f4c:	83 38 60 18 	sra  %g1, 0x18, %g1
    5f50:	80 a0 60 3a 	cmp  %g1, 0x3a
    5f54:	02 80 01 1c 	be  63c4 <nis_getnames+0x59c>
    5f58:	90 02 20 01 	inc  %o0
    5f5c:	c6 0a 00 00 	ldub  [ %o0 ], %g3
    5f60:	83 28 e0 18 	sll  %g3, 0x18, %g1
    5f64:	80 a0 60 00 	cmp  %g1, 0
    5f68:	12 bf ff fa 	bne  5f50 <nis_getnames+0x128>
    5f6c:	83 38 60 18 	sra  %g1, 0x18, %g1
    5f70:	d0 26 80 00 	st  %o0, [ %i2 ]
    5f74:	a0 10 00 09 	mov  %o1, %l0
    5f78:	80 a4 20 00 	cmp  %l0, 0
    5f7c:	02 80 00 b4 	be  624c <nis_getnames+0x424>
    5f80:	83 2c a0 02 	sll  %l2, 2, %g1
    5f84:	c2 0c 00 00 	ldub  [ %l0 ], %g1
    5f88:	82 80 7f dc 	addcc  %g1, -36, %g1
    5f8c:	22 80 00 02 	be,a   5f94 <nis_getnames+0x16c>
    5f90:	c2 0c 20 01 	ldub  [ %l0 + 1 ], %g1
    5f94:	80 a0 60 00 	cmp  %g1, 0
    5f98:	12 80 00 6d 	bne  614c <nis_getnames+0x324>
    5f9c:	83 2d 20 02 	sll  %l4, 2, %g1
    5fa0:	a2 00 60 04 	add  %g1, 4, %l1
    5fa4:	a0 10 00 1b 	mov  %i3, %l0
    5fa8:	c4 0e c0 00 	ldub  [ %i3 ], %g2
    5fac:	83 28 a0 18 	sll  %g2, 0x18, %g1
    5fb0:	80 a0 60 00 	cmp  %g1, 0
    5fb4:	02 80 00 81 	be  61b8 <nis_getnames+0x390>
    5fb8:	86 10 20 00 	clr  %g3
    5fbc:	84 10 20 00 	clr  %g2
    5fc0:	c2 0c 00 00 	ldub  [ %l0 ], %g1
    5fc4:	83 28 60 18 	sll  %g1, 0x18, %g1
    5fc8:	83 38 60 18 	sra  %g1, 0x18, %g1
    5fcc:	82 18 60 2e 	xor  %g1, 0x2e, %g1
    5fd0:	80 a0 00 01 	cmp  %g0, %g1
    5fd4:	84 00 a0 01 	inc  %g2
    5fd8:	c2 4c 00 02 	ldsb  [ %l0 + %g2 ], %g1
    5fdc:	86 60 ff ff 	subx  %g3, -1, %g3
    5fe0:	80 a0 60 00 	cmp  %g1, 0
    5fe4:	12 bf ff f8 	bne  5fc4 <nis_getnames+0x19c>
    5fe8:	c2 0c 00 02 	ldub  [ %l0 + %g2 ], %g1
    5fec:	80 a0 e0 01 	cmp  %g3, 1
    5ff0:	04 80 00 72 	ble  61b8 <nis_getnames+0x390>
    5ff4:	80 a4 80 14 	cmp  %l2, %l4
    5ff8:	06 80 00 0a 	bl  6020 <nis_getnames+0x1f8>
    5ffc:	01 00 00 00 	nop 
    6000:	a2 04 60 14 	add  %l1, 0x14, %l1
    6004:	90 10 00 13 	mov  %l3, %o0
    6008:	40 00 71 c9 	call  2272c <realloc@plt>
    600c:	92 10 00 11 	mov  %l1, %o1
    6010:	80 a2 20 00 	cmp  %o0, 0
    6014:	02 80 00 b9 	be  62f8 <nis_getnames+0x4d0>
    6018:	a8 05 20 05 	add  %l4, 5, %l4
    601c:	a6 10 00 08 	mov  %o0, %l3
    6020:	40 00 71 93 	call  2266c <strlen@plt>
    6024:	90 10 00 10 	mov  %l0, %o0
    6028:	90 02 00 16 	add  %o0, %l6, %o0
    602c:	90 02 00 1d 	add  %o0, %i5, %o0
    6030:	40 00 71 68 	call  225d0 <malloc@plt>
    6034:	90 02 20 02 	add  %o0, 2, %o0
    6038:	84 92 20 00 	orcc  %o0, 0, %g2
    603c:	02 80 00 af 	be  62f8 <nis_getnames+0x4d0>
    6040:	83 2c a0 02 	sll  %l2, 2, %g1
    6044:	c4 24 c0 01 	st  %g2, [ %l3 + %g1 ]
    6048:	40 00 71 92 	call  22690 <stpcpy@plt>
    604c:	92 10 00 1c 	mov  %i4, %o1
    6050:	82 10 20 2e 	mov  0x2e, %g1
    6054:	c2 2a 00 00 	stb  %g1, [ %o0 ]
    6058:	c4 4c 20 01 	ldsb  [ %l0 + 1 ], %g2
    605c:	80 a0 a0 00 	cmp  %g2, 0
    6060:	12 80 00 ad 	bne  6314 <nis_getnames+0x4ec>
    6064:	90 02 20 01 	inc  %o0
    6068:	a0 04 20 01 	inc  %l0
    606c:	c4 4c 00 00 	ldsb  [ %l0 ], %g2
    6070:	82 18 a0 2e 	xor  %g2, 0x2e, %g1
    6074:	80 a0 00 01 	cmp  %g0, %g1
    6078:	86 40 20 00 	addx  %g0, 0, %g3
    607c:	80 a0 00 02 	cmp  %g0, %g2
    6080:	82 40 20 00 	addx  %g0, 0, %g1
    6084:	80 88 c0 01 	btst  %g3, %g1
    6088:	10 80 00 0a 	b  60b0 <nis_getnames+0x288>
    608c:	a4 04 a0 01 	inc  %l2
    6090:	a0 04 20 01 	inc  %l0
    6094:	c4 4c 00 00 	ldsb  [ %l0 ], %g2
    6098:	82 18 a0 2e 	xor  %g2, 0x2e, %g1
    609c:	80 a0 00 01 	cmp  %g0, %g1
    60a0:	86 40 20 00 	addx  %g0, 0, %g3
    60a4:	80 a0 00 02 	cmp  %g0, %g2
    60a8:	82 40 20 00 	addx  %g0, 0, %g1
    60ac:	80 88 c0 01 	btst  %g3, %g1
    60b0:	12 bf ff f8 	bne  6090 <nis_getnames+0x268>
    60b4:	c4 0c 00 00 	ldub  [ %l0 ], %g2
    60b8:	83 28 a0 18 	sll  %g2, 0x18, %g1
    60bc:	80 a0 60 00 	cmp  %g1, 0
    60c0:	02 80 00 3f 	be  61bc <nis_getnames+0x394>
    60c4:	c6 07 bf ec 	ld  [ %fp + -20 ], %g3
    60c8:	c2 4c 20 01 	ldsb  [ %l0 + 1 ], %g1
    60cc:	80 a0 60 00 	cmp  %g1, 0
    60d0:	02 bf ff b8 	be  5fb0 <nis_getnames+0x188>
    60d4:	83 28 a0 18 	sll  %g2, 0x18, %g1
    60d8:	a0 04 20 01 	inc  %l0
    60dc:	10 bf ff b4 	b  5fac <nis_getnames+0x184>
    60e0:	c4 0c 00 00 	ldub  [ %l0 ], %g2
    60e4:	80 a4 00 1b 	cmp  %l0, %i3
    60e8:	0a 80 00 ba 	bcs  63d0 <nis_getnames+0x5a8>
    60ec:	80 a0 c0 1c 	cmp  %g3, %i4
    60f0:	2a 80 00 8d 	bcs,a   6324 <nis_getnames+0x4fc>
    60f4:	c2 4c 00 00 	ldsb  [ %l0 ], %g1
    60f8:	c2 48 c0 00 	ldsb  [ %g3 ], %g1
    60fc:	c4 4c 00 00 	ldsb  [ %l0 ], %g2
    6100:	80 a0 80 01 	cmp  %g2, %g1
    6104:	12 80 00 8b 	bne  6330 <nis_getnames+0x508>
    6108:	c2 0c 00 00 	ldub  [ %l0 ], %g1
    610c:	83 28 60 18 	sll  %g1, 0x18, %g1
    6110:	83 38 60 18 	sra  %g1, 0x18, %g1
    6114:	a0 04 3f ff 	add  %l0, -1, %l0
    6118:	80 a0 60 2e 	cmp  %g1, 0x2e
    611c:	12 bf ff f2 	bne  60e4 <nis_getnames+0x2bc>
    6120:	86 00 ff ff 	add  %g3, -1, %g3
    6124:	10 bf ff f0 	b  60e4 <nis_getnames+0x2bc>
    6128:	88 10 20 01 	mov  1, %g4
    612c:	40 00 71 95 	call  22780 <__strdup@plt>
    6130:	90 10 00 1c 	mov  %i4, %o0
    6134:	80 a2 20 00 	cmp  %o0, 0
    6138:	02 80 00 70 	be  62f8 <nis_getnames+0x4d0>
    613c:	d0 24 c0 00 	st  %o0, [ %l3 ]
    6140:	c0 24 e0 04 	clr  [ %l3 + 4 ]
    6144:	10 80 00 ad 	b  63f8 <nis_getnames+0x5d0>
    6148:	b0 10 00 13 	mov  %l3, %i0
    614c:	40 00 71 48 	call  2266c <strlen@plt>
    6150:	90 10 00 10 	mov  %l0, %o0
    6154:	82 04 00 08 	add  %l0, %o0, %g1
    6158:	c4 48 7f ff 	ldsb  [ %g1 + -1 ], %g2
    615c:	80 a0 a0 24 	cmp  %g2, 0x24
    6160:	02 80 00 3e 	be  6258 <nis_getnames+0x430>
    6164:	a2 10 00 08 	mov  %o0, %l1
    6168:	90 02 00 1d 	add  %o0, %i5, %o0
    616c:	40 00 71 19 	call  225d0 <malloc@plt>
    6170:	90 02 20 02 	add  %o0, 2, %o0
    6174:	aa 92 20 00 	orcc  %o0, 0, %l5
    6178:	02 80 00 61 	be  62fc <nis_getnames+0x4d4>
    617c:	82 94 a0 00 	orcc  %l2, 0, %g1
    6180:	40 00 71 44 	call  22690 <stpcpy@plt>
    6184:	92 10 00 1c 	mov  %i4, %o1
    6188:	82 10 20 2e 	mov  0x2e, %g1
    618c:	c2 2a 00 00 	stb  %g1, [ %o0 ]
    6190:	90 02 20 01 	inc  %o0
    6194:	92 10 00 10 	mov  %l0, %o1
    6198:	40 00 71 6e 	call  22750 <memcpy@plt>
    619c:	94 04 60 01 	add  %l1, 1, %o2
    61a0:	80 a4 80 14 	cmp  %l2, %l4
    61a4:	36 80 00 49 	bge,a   62c8 <nis_getnames+0x4a0>
    61a8:	a8 05 20 05 	add  %l4, 5, %l4
    61ac:	83 2c a0 02 	sll  %l2, 2, %g1
    61b0:	ea 24 c0 01 	st  %l5, [ %l3 + %g1 ]
    61b4:	a4 04 a0 01 	inc  %l2
    61b8:	c6 07 bf ec 	ld  [ %fp + -20 ], %g3
    61bc:	c2 48 c0 00 	ldsb  [ %g3 ], %g1
    61c0:	80 a0 60 3a 	cmp  %g1, 0x3a
    61c4:	12 80 00 07 	bne  61e0 <nis_getnames+0x3b8>
    61c8:	c2 08 c0 00 	ldub  [ %g3 ], %g1
    61cc:	86 00 e0 01 	inc  %g3
    61d0:	c2 48 c0 00 	ldsb  [ %g3 ], %g1
    61d4:	80 a0 60 3a 	cmp  %g1, 0x3a
    61d8:	02 bf ff fd 	be  61cc <nis_getnames+0x3a4>
    61dc:	c2 08 c0 00 	ldub  [ %g3 ], %g1
    61e0:	83 28 60 18 	sll  %g1, 0x18, %g1
    61e4:	80 a0 60 00 	cmp  %g1, 0
    61e8:	02 80 00 14 	be  6238 <nis_getnames+0x410>
    61ec:	90 10 20 00 	clr  %o0
    61f0:	82 10 00 03 	mov  %g3, %g1
    61f4:	86 00 e0 01 	inc  %g3
    61f8:	c8 08 c0 00 	ldub  [ %g3 ], %g4
    61fc:	89 29 20 18 	sll  %g4, 0x18, %g4
    6200:	80 a1 20 00 	cmp  %g4, 0
    6204:	02 80 00 0c 	be  6234 <nis_getnames+0x40c>
    6208:	90 10 00 01 	mov  %g1, %o0
    620c:	82 10 00 04 	mov  %g4, %g1
    6210:	83 38 60 18 	sra  %g1, 0x18, %g1
    6214:	80 a0 60 3a 	cmp  %g1, 0x3a
    6218:	02 80 00 75 	be  63ec <nis_getnames+0x5c4>
    621c:	86 00 e0 01 	inc  %g3
    6220:	c8 08 c0 00 	ldub  [ %g3 ], %g4
    6224:	83 29 20 18 	sll  %g4, 0x18, %g1
    6228:	80 a0 60 00 	cmp  %g1, 0
    622c:	12 bf ff fa 	bne  6214 <nis_getnames+0x3ec>
    6230:	83 38 60 18 	sra  %g1, 0x18, %g1
    6234:	c6 26 80 00 	st  %g3, [ %i2 ]
    6238:	a0 10 00 08 	mov  %o0, %l0
    623c:	80 a4 20 00 	cmp  %l0, 0
    6240:	32 bf ff 52 	bne,a   5f88 <nis_getnames+0x160>
    6244:	c2 0c 00 00 	ldub  [ %l0 ], %g1
    6248:	83 2c a0 02 	sll  %l2, 2, %g1
    624c:	c0 24 c0 01 	clr  [ %l3 + %g1 ]
    6250:	10 80 00 6a 	b  63f8 <nis_getnames+0x5d0>
    6254:	b0 10 00 13 	mov  %l3, %i0
    6258:	90 02 00 16 	add  %o0, %l6, %o0
    625c:	90 02 00 1d 	add  %o0, %i5, %o0
    6260:	40 00 70 dc 	call  225d0 <malloc@plt>
    6264:	90 02 20 02 	add  %o0, 2, %o0
    6268:	aa 92 20 00 	orcc  %o0, 0, %l5
    626c:	02 80 00 24 	be  62fc <nis_getnames+0x4d4>
    6270:	82 94 a0 00 	orcc  %l2, 0, %g1
    6274:	40 00 71 07 	call  22690 <stpcpy@plt>
    6278:	92 10 00 1c 	mov  %i4, %o1
    627c:	b0 10 20 2e 	mov  0x2e, %i0
    6280:	f0 2a 00 00 	stb  %i0, [ %o0 ]
    6284:	90 02 20 01 	inc  %o0
    6288:	92 10 00 10 	mov  %l0, %o1
    628c:	40 00 70 80 	call  2248c <mempcpy@plt>
    6290:	94 10 00 11 	mov  %l1, %o2
    6294:	90 02 3f ff 	add  %o0, -1, %o0
    6298:	c2 4a 3f ff 	ldsb  [ %o0 + -1 ], %g1
    629c:	80 a0 60 2e 	cmp  %g1, 0x2e
    62a0:	02 80 00 04 	be  62b0 <nis_getnames+0x488>
    62a4:	01 00 00 00 	nop 
    62a8:	f0 2a 00 00 	stb  %i0, [ %o0 ]
    62ac:	90 02 20 01 	inc  %o0
    62b0:	40 00 71 88 	call  228d0 <strcpy@plt>
    62b4:	92 10 00 1b 	mov  %i3, %o1
    62b8:	80 a4 80 14 	cmp  %l2, %l4
    62bc:	06 bf ff bd 	bl  61b0 <nis_getnames+0x388>
    62c0:	83 2c a0 02 	sll  %l2, 2, %g1
    62c4:	a8 05 20 05 	add  %l4, 5, %l4
    62c8:	93 2d 20 02 	sll  %l4, 2, %o1
    62cc:	92 02 60 04 	add  %o1, 4, %o1
    62d0:	40 00 71 17 	call  2272c <realloc@plt>
    62d4:	90 10 00 13 	mov  %l3, %o0
    62d8:	80 a2 20 00 	cmp  %o0, 0
    62dc:	22 80 00 08 	be,a   62fc <nis_getnames+0x4d4>
    62e0:	82 94 a0 00 	orcc  %l2, 0, %g1
    62e4:	10 bf ff b2 	b  61ac <nis_getnames+0x384>
    62e8:	a6 10 00 08 	mov  %o0, %l3
    62ec:	83 2c a0 02 	sll  %l2, 2, %g1
    62f0:	40 00 71 3c 	call  227e0 <free@plt>
    62f4:	d0 04 c0 01 	ld  [ %l3 + %g1 ], %o0
    62f8:	82 94 a0 00 	orcc  %l2, 0, %g1
    62fc:	14 bf ff fc 	bg  62ec <nis_getnames+0x4c4>
    6300:	a4 04 bf ff 	add  %l2, -1, %l2
    6304:	40 00 71 37 	call  227e0 <free@plt>
    6308:	90 10 00 13 	mov  %l3, %o0
    630c:	10 80 00 3b 	b  63f8 <nis_getnames+0x5d0>
    6310:	b0 10 20 00 	clr  %i0
    6314:	40 00 71 6f 	call  228d0 <strcpy@plt>
    6318:	92 10 00 10 	mov  %l0, %o1
    631c:	10 bf ff 55 	b  6070 <nis_getnames+0x248>
    6320:	c4 4c 00 00 	ldsb  [ %l0 ], %g2
    6324:	82 18 60 2e 	xor  %g1, 0x2e, %g1
    6328:	80 a0 00 01 	cmp  %g0, %g1
    632c:	88 60 3f ff 	subx  %g0, -1, %g4
    6330:	80 a1 20 00 	cmp  %g4, 0
    6334:	02 bf fe df 	be  5eb0 <nis_getnames+0x88>
    6338:	03 00 00 00 	sethi  %hi(0), %g1
    633c:	40 00 70 a5 	call  225d0 <malloc@plt>
    6340:	90 07 60 02 	add  %i5, 2, %o0
    6344:	82 92 20 00 	orcc  %o0, 0, %g1
    6348:	02 bf ff ec 	be  62f8 <nis_getnames+0x4d0>
    634c:	c2 24 c0 00 	st  %g1, [ %l3 ]
    6350:	40 00 70 d0 	call  22690 <stpcpy@plt>
    6354:	92 10 00 1c 	mov  %i4, %o1
    6358:	82 10 20 2e 	mov  0x2e, %g1
    635c:	c2 2a 00 00 	stb  %g1, [ %o0 ]
    6360:	03 00 00 00 	sethi  %hi(0), %g1
    6364:	c0 2a 20 01 	clrb  [ %o0 + 1 ]
    6368:	82 10 60 c0 	or  %g1, 0xc0, %g1
    636c:	40 00 70 66 	call  22504 <getenv@plt>
    6370:	d0 05 c0 01 	ld  [ %l7 + %g1 ], %o0
    6374:	a0 92 20 00 	orcc  %o0, 0, %l0
    6378:	12 bf fe d4 	bne  5ec8 <nis_getnames+0xa0>
    637c:	a4 10 20 01 	mov  1, %l2
    6380:	03 00 00 00 	sethi  %hi(0), %g1
    6384:	82 10 60 c4 	or  %g1, 0xc4, %g1	! c4 <GLIBC_2.0+0xc4>
    6388:	e0 05 c0 01 	ld  [ %l7 + %g1 ], %l0
    638c:	40 00 70 b8 	call  2266c <strlen@plt>
    6390:	90 10 00 10 	mov  %l0, %o0
    6394:	82 02 20 08 	add  %o0, 8, %g1
    6398:	82 08 7f f8 	and  %g1, -8, %g1
    639c:	9c 23 80 01 	sub  %sp, %g1, %sp
    63a0:	94 02 20 01 	add  %o0, 1, %o2
    63a4:	92 10 00 10 	mov  %l0, %o1
    63a8:	40 00 70 ea 	call  22750 <memcpy@plt>
    63ac:	90 03 a0 60 	add  %sp, 0x60, %o0
    63b0:	90 92 20 00 	orcc  %o0, 0, %o0
    63b4:	12 bf fe d1 	bne  5ef8 <nis_getnames+0xd0>
    63b8:	b4 07 bf ec 	add  %fp, -20, %i2
    63bc:	10 bf fe cf 	b  5ef8 <nis_getnames+0xd0>
    63c0:	d0 07 bf ec 	ld  [ %fp + -20 ], %o0
    63c4:	c0 2a 3f ff 	clrb  [ %o0 + -1 ]
    63c8:	10 bf fe eb 	b  5f74 <nis_getnames+0x14c>
    63cc:	d0 26 80 00 	st  %o0, [ %i2 ]
    63d0:	0a bf ff db 	bcs  633c <nis_getnames+0x514>
    63d4:	01 00 00 00 	nop 
    63d8:	c2 48 c0 00 	ldsb  [ %g3 ], %g1
    63dc:	80 a0 60 2e 	cmp  %g1, 0x2e
    63e0:	12 bf fe b4 	bne  5eb0 <nis_getnames+0x88>
    63e4:	03 00 00 00 	sethi  %hi(0), %g1
    63e8:	30 bf ff d5 	b,a   633c <nis_getnames+0x514>
    63ec:	c0 28 ff ff 	clrb  [ %g3 + -1 ]
    63f0:	10 bf ff 92 	b  6238 <nis_getnames+0x410>
    63f4:	c6 26 80 00 	st  %g3, [ %i2 ]
    63f8:	81 c7 e0 08 	ret 
    63fc:	81 e8 00 00 	restore 

00006400 <nis_freenames>:
nis_freenames():
    6400:	9d e3 bf 90 	save  %sp, -112, %sp
    6404:	c2 06 00 00 	ld  [ %i0 ], %g1
    6408:	80 a0 60 00 	cmp  %g1, 0
    640c:	02 80 00 0b 	be  6438 <nis_freenames+0x38>
    6410:	a0 10 20 00 	clr  %l0
    6414:	84 10 20 00 	clr  %g2
    6418:	40 00 70 f2 	call  227e0 <free@plt>
    641c:	d0 06 00 02 	ld  [ %i0 + %g2 ], %o0
    6420:	a0 04 20 01 	inc  %l0
    6424:	85 2c 20 02 	sll  %l0, 2, %g2
    6428:	c2 06 00 02 	ld  [ %i0 + %g2 ], %g1
    642c:	80 a0 60 00 	cmp  %g1, 0
    6430:	12 bf ff fa 	bne  6418 <nis_freenames+0x18>
    6434:	01 00 00 00 	nop 
    6438:	10 80 70 ea 	b  227e0 <free@plt>
    643c:	81 e8 00 00 	restore 
    6440:	01 00 00 00 	nop 

00006444 <nis_dir_cmp>:
nis_dir_cmp():
    6444:	9d e3 bf 90 	save  %sp, -112, %sp
    6448:	40 00 70 89 	call  2266c <strlen@plt>
    644c:	90 10 00 18 	mov  %i0, %o0
    6450:	a0 10 00 08 	mov  %o0, %l0
    6454:	40 00 70 86 	call  2266c <strlen@plt>
    6458:	90 10 00 19 	mov  %i1, %o0
    645c:	86 10 00 08 	mov  %o0, %g3
    6460:	a2 10 00 18 	mov  %i0, %l1
    6464:	90 10 00 18 	mov  %i0, %o0
    6468:	80 a4 00 03 	cmp  %l0, %g3
    646c:	02 80 00 20 	be  64ec <nis_dir_cmp+0xa8>
    6470:	92 10 00 19 	mov  %i1, %o1
    6474:	82 20 c0 10 	sub  %g3, %l0, %g1
    6478:	84 24 00 03 	sub  %l0, %g3, %g2
    647c:	88 06 40 01 	add  %i1, %g1, %g4
    6480:	82 06 00 02 	add  %i0, %g2, %g1
    6484:	80 a4 00 03 	cmp  %l0, %g3
    6488:	06 80 00 0d 	bl  64bc <nis_dir_cmp+0x78>
    648c:	b0 10 20 03 	mov  3, %i0
    6490:	90 10 00 01 	mov  %g1, %o0
    6494:	c2 48 7f ff 	ldsb  [ %g1 + -1 ], %g1
    6498:	80 a0 60 2e 	cmp  %g1, 0x2e
    649c:	12 80 00 19 	bne  6500 <nis_dir_cmp+0xbc>
    64a0:	01 00 00 00 	nop 
    64a4:	40 00 70 0c 	call  224d4 <strcmp@plt>
    64a8:	01 00 00 00 	nop 
    64ac:	80 a0 00 08 	cmp  %g0, %o0
    64b0:	82 40 20 00 	addx  %g0, 0, %g1
    64b4:	10 80 00 13 	b  6500 <nis_dir_cmp+0xbc>
    64b8:	b0 00 60 02 	add  %g1, 2, %i0
    64bc:	c2 49 3f ff 	ldsb  [ %g4 + -1 ], %g1
    64c0:	90 10 00 04 	mov  %g4, %o0
    64c4:	80 a0 60 2e 	cmp  %g1, 0x2e
    64c8:	12 80 00 0e 	bne  6500 <nis_dir_cmp+0xbc>
    64cc:	92 10 00 11 	mov  %l1, %o1
    64d0:	40 00 70 01 	call  224d4 <strcmp@plt>
    64d4:	01 00 00 00 	nop 
    64d8:	80 a0 00 08 	cmp  %g0, %o0
    64dc:	82 60 20 00 	subx  %g0, 0, %g1
    64e0:	b0 08 60 02 	and  %g1, 2, %i0
    64e4:	10 80 00 07 	b  6500 <nis_dir_cmp+0xbc>
    64e8:	b0 06 20 01 	inc  %i0
    64ec:	40 00 6f fa 	call  224d4 <strcmp@plt>
    64f0:	01 00 00 00 	nop 
    64f4:	80 a0 00 08 	cmp  %g0, %o0
    64f8:	82 60 20 00 	subx  %g0, 0, %g1
    64fc:	b0 08 60 03 	and  %g1, 3, %i0
    6500:	81 c7 e0 08 	ret 
    6504:	81 e8 00 00 	restore 

00006508 <nis_destroy_object>:
nis_destroy_object():
    6508:	82 13 c0 00 	mov  %o7, %g1
    650c:	10 80 01 21 	b  6990 <nis_free_object>
    6510:	01 00 00 00 	nop 
    6514:	01 00 00 00 	nop 
    6518:	81 c3 e0 08 	retl 
    651c:	ae 03 c0 17 	add  %o7, %l7, %l7

00006520 <nis_local_directory>:
nis_local_directory():
    6520:	9d e3 bf 90 	save  %sp, -112, %sp
    6524:	21 00 00 00 	sethi  %hi(0), %l0
    6528:	2f 00 00 6e 	sethi  %hi(0x1b800), %l7
    652c:	7f ff ff fb 	call  6518 <nis_destroy_object+0x10>
    6530:	ae 05 e2 d4 	add  %l7, 0x2d4, %l7	! 1bad4 <__FRAME_END__+0xaaac>
    6534:	82 14 20 c8 	or  %l0, 0xc8, %g1
    6538:	f0 05 c0 01 	ld  [ %l7 + %g1 ], %i0
    653c:	c2 4e 00 00 	ldsb  [ %i0 ], %g1
    6540:	92 10 24 00 	mov  0x400, %o1
    6544:	80 a0 60 00 	cmp  %g1, 0
    6548:	12 80 00 12 	bne  6590 <nis_local_directory+0x70>
    654c:	90 10 00 18 	mov  %i0, %o0
    6550:	40 00 70 3e 	call  22648 <getdomainname@plt>
    6554:	01 00 00 00 	nop 
    6558:	80 a2 20 00 	cmp  %o0, 0
    655c:	92 10 20 00 	clr  %o1
    6560:	06 80 00 0b 	bl  658c <nis_local_directory+0x6c>
    6564:	90 10 00 18 	mov  %i0, %o0
    6568:	40 00 6f f0 	call  22528 <rawmemchr@plt>
    656c:	01 00 00 00 	nop 
    6570:	c2 4a 3f ff 	ldsb  [ %o0 + -1 ], %g1
    6574:	80 a0 60 2e 	cmp  %g1, 0x2e
    6578:	02 80 00 06 	be  6590 <nis_local_directory+0x70>
    657c:	82 10 20 2e 	mov  0x2e, %g1
    6580:	c2 2a 00 00 	stb  %g1, [ %o0 ]
    6584:	10 80 00 03 	b  6590 <nis_local_directory+0x70>
    6588:	c0 2a 20 01 	clrb  [ %o0 + 1 ]
    658c:	c0 2e 00 00 	clrb  [ %i0 ]
    6590:	82 14 20 c8 	or  %l0, 0xc8, %g1
    6594:	f0 05 c0 01 	ld  [ %l7 + %g1 ], %i0
    6598:	81 c7 e0 08 	ret 
    659c:	81 e8 00 00 	restore 

000065a0 <nis_local_group>:
nis_local_group():
    65a0:	9d e3 bf 90 	save  %sp, -112, %sp
    65a4:	23 00 00 00 	sethi  %hi(0), %l1
    65a8:	2f 00 00 6e 	sethi  %hi(0x1b800), %l7
    65ac:	7f ff ff db 	call  6518 <nis_destroy_object+0x10>
    65b0:	ae 05 e2 54 	add  %l7, 0x254, %l7	! 1ba54 <__FRAME_END__+0xaa2c>
    65b4:	82 14 60 cc 	or  %l1, 0xcc, %g1
    65b8:	e0 05 c0 01 	ld  [ %l7 + %g1 ], %l0
    65bc:	07 00 00 00 	sethi  %hi(0), %g3
    65c0:	c4 4c 00 00 	ldsb  [ %l0 ], %g2
    65c4:	80 a0 a0 00 	cmp  %g2, 0
    65c8:	12 80 00 25 	bne  665c <nis_local_group+0xbc>
    65cc:	86 10 e0 d8 	or  %g3, 0xd8, %g3
    65d0:	40 00 6f cd 	call  22504 <getenv@plt>
    65d4:	d0 05 c0 03 	ld  [ %l7 + %g3 ], %o0
    65d8:	b0 92 20 00 	orcc  %o0, 0, %i0
    65dc:	02 80 00 20 	be  665c <nis_local_group+0xbc>
    65e0:	82 14 60 cc 	or  %l1, 0xcc, %g1
    65e4:	40 00 70 22 	call  2266c <strlen@plt>
    65e8:	01 00 00 00 	nop 
    65ec:	80 a2 23 ff 	cmp  %o0, 0x3ff
    65f0:	92 10 00 18 	mov  %i0, %o1
    65f4:	18 80 00 19 	bgu  6658 <nis_local_group+0xb8>
    65f8:	90 10 00 10 	mov  %l0, %o0
    65fc:	40 00 70 25 	call  22690 <stpcpy@plt>
    6600:	01 00 00 00 	nop 
    6604:	c2 4a 3f ff 	ldsb  [ %o0 + -1 ], %g1
    6608:	80 a0 60 2e 	cmp  %g1, 0x2e
    660c:	02 80 00 13 	be  6658 <nis_local_group+0xb8>
    6610:	a4 10 00 08 	mov  %o0, %l2
    6614:	7f ff ff c3 	call  6520 <nis_local_directory>
    6618:	01 00 00 00 	nop 
    661c:	40 00 70 14 	call  2266c <strlen@plt>
    6620:	b0 10 00 08 	mov  %o0, %i0
    6624:	82 10 20 01 	mov  1, %g1
    6628:	84 02 00 12 	add  %o0, %l2, %g2
    662c:	82 20 40 10 	sub  %g1, %l0, %g1
    6630:	84 00 80 01 	add  %g2, %g1, %g2
    6634:	90 04 a0 01 	add  %l2, 1, %o0
    6638:	80 a0 a3 ff 	cmp  %g2, 0x3ff
    663c:	08 80 00 04 	bleu  664c <nis_local_group+0xac>
    6640:	92 10 00 18 	mov  %i0, %o1
    6644:	10 80 00 05 	b  6658 <nis_local_group+0xb8>
    6648:	c0 2c 00 00 	clrb  [ %l0 ]
    664c:	82 10 20 2e 	mov  0x2e, %g1
    6650:	40 00 70 a0 	call  228d0 <strcpy@plt>
    6654:	c2 2c 80 00 	stb  %g1, [ %l2 ]
    6658:	82 14 60 cc 	or  %l1, 0xcc, %g1
    665c:	f0 05 c0 01 	ld  [ %l7 + %g1 ], %i0
    6660:	81 c7 e0 08 	ret 
    6664:	81 e8 00 00 	restore 

00006668 <nis_local_host>:
nis_local_host():
    6668:	9d e3 bf 90 	save  %sp, -112, %sp
    666c:	25 00 00 00 	sethi  %hi(0), %l2
    6670:	2f 00 00 6e 	sethi  %hi(0x1b800), %l7
    6674:	7f ff ff a9 	call  6518 <nis_destroy_object+0x10>
    6678:	ae 05 e1 8c 	add  %l7, 0x18c, %l7	! 1b98c <__FRAME_END__+0xa964>
    667c:	82 14 a0 d0 	or  %l2, 0xd0, %g1
    6680:	e0 05 c0 01 	ld  [ %l7 + %g1 ], %l0
    6684:	c2 4c 00 00 	ldsb  [ %l0 ], %g1
    6688:	90 10 00 10 	mov  %l0, %o0
    668c:	80 a0 60 00 	cmp  %g1, 0
    6690:	02 80 00 05 	be  66a4 <nis_local_host+0x3c>
    6694:	92 10 24 00 	mov  0x400, %o1
    6698:	82 14 a0 d0 	or  %l2, 0xd0, %g1
    669c:	10 80 00 26 	b  6734 <nis_local_host+0xcc>
    66a0:	f0 05 c0 01 	ld  [ %l7 + %g1 ], %i0
    66a4:	40 00 70 3d 	call  22798 <gethostname@plt>
    66a8:	01 00 00 00 	nop 
    66ac:	80 a2 20 00 	cmp  %o0, 0
    66b0:	92 10 20 00 	clr  %o1
    66b4:	06 80 00 14 	bl  6704 <nis_local_host+0x9c>
    66b8:	90 10 00 10 	mov  %l0, %o0
    66bc:	40 00 6f 9b 	call  22528 <rawmemchr@plt>
    66c0:	b0 10 00 10 	mov  %l0, %i0
    66c4:	c2 4a 3f ff 	ldsb  [ %o0 + -1 ], %g1
    66c8:	a2 10 00 08 	mov  %o0, %l1
    66cc:	80 a0 60 2e 	cmp  %g1, 0x2e
    66d0:	02 80 00 19 	be  6734 <nis_local_host+0xcc>
    66d4:	a6 22 00 10 	sub  %o0, %l0, %l3
    66d8:	7f ff ff 92 	call  6520 <nis_local_directory>
    66dc:	01 00 00 00 	nop 
    66e0:	40 00 6f e3 	call  2266c <strlen@plt>
    66e4:	01 00 00 00 	nop 
    66e8:	90 02 00 13 	add  %o0, %l3, %o0
    66ec:	90 02 20 01 	inc  %o0
    66f0:	80 a2 24 00 	cmp  %o0, 0x400
    66f4:	08 80 00 06 	bleu  670c <nis_local_host+0xa4>
    66f8:	82 10 20 2e 	mov  0x2e, %g1
    66fc:	10 80 00 0e 	b  6734 <nis_local_host+0xcc>
    6700:	c0 2c 00 00 	clrb  [ %l0 ]
    6704:	10 bf ff e5 	b  6698 <nis_local_host+0x30>
    6708:	c0 2c 00 00 	clrb  [ %l0 ]
    670c:	7f ff ff 85 	call  6520 <nis_local_directory>
    6710:	c2 2c 40 00 	stb  %g1, [ %l1 ]
    6714:	92 10 00 08 	mov  %o0, %o1
    6718:	a2 04 60 01 	inc  %l1
    671c:	94 10 23 ff 	mov  0x3ff, %o2
    6720:	94 22 80 13 	sub  %o2, %l3, %o2
    6724:	40 00 70 3e 	call  2281c <strncpy@plt>
    6728:	90 10 00 11 	mov  %l1, %o0
    672c:	10 bf ff db 	b  6698 <nis_local_host+0x30>
    6730:	c0 2c 24 00 	clrb  [ %l0 + 0x400 ]
    6734:	81 c7 e0 08 	ret 
    6738:	81 e8 00 00 	restore 

0000673c <nis_local_principal>:
nis_local_principal():
    673c:	9d e3 bb 88 	save  %sp, -1144, %sp
    6740:	21 00 00 00 	sethi  %hi(0), %l0
    6744:	2f 00 00 6e 	sethi  %hi(0x1b800), %l7
    6748:	7f ff ff 74 	call  6518 <nis_destroy_object+0x10>
    674c:	ae 05 e0 b8 	add  %l7, 0xb8, %l7	! 1b8b8 <__FRAME_END__+0xa890>
    6750:	82 14 20 d4 	or  %l0, 0xd4, %g1
    6754:	f0 05 c0 01 	ld  [ %l7 + %g1 ], %i0
    6758:	c4 4e 00 00 	ldsb  [ %i0 ], %g2
    675c:	80 a0 a0 00 	cmp  %g2, 0
    6760:	12 80 00 5b 	bne  68cc <nis_local_principal+0x190>
    6764:	86 10 00 18 	mov  %i0, %g3
    6768:	40 00 70 57 	call  228c4 <geteuid@plt>
    676c:	01 00 00 00 	nop 
    6770:	a2 92 20 00 	orcc  %o0, 0, %l1
    6774:	02 80 00 1a 	be  67dc <nis_local_principal+0xa0>
    6778:	01 00 00 00 	nop 
    677c:	7f ff ff 69 	call  6520 <nis_local_directory>
    6780:	01 00 00 00 	nop 
    6784:	03 00 00 00 	sethi  %hi(0), %g1
    6788:	98 10 00 08 	mov  %o0, %o4
    678c:	82 10 60 dc 	or  %g1, 0xdc, %g1
    6790:	a4 07 bb e8 	add  %fp, -1048, %l2
    6794:	d4 05 c0 01 	ld  [ %l7 + %g1 ], %o2
    6798:	90 10 00 12 	mov  %l2, %o0
    679c:	92 10 23 ff 	mov  0x3ff, %o1
    67a0:	40 00 6f 89 	call  225c4 <snprintf@plt>
    67a4:	96 10 00 11 	mov  %l1, %o3
    67a8:	80 a2 23 fe 	cmp  %o0, 0x3fe
    67ac:	04 80 00 13 	ble  67f8 <nis_local_principal+0xbc>
    67b0:	84 07 bf f0 	add  %fp, -16, %g2
    67b4:	84 14 20 d4 	or  %l0, 0xd4, %g2
    67b8:	c6 05 c0 02 	ld  [ %l7 + %g2 ], %g3
    67bc:	03 1b 9b d8 	sethi  %hi(0x6e6f6000), %g1
    67c0:	05 00 00 19 	sethi  %hi(0x6400), %g2
    67c4:	82 10 62 6f 	or  %g1, 0x26f, %g1
    67c8:	84 10 a0 79 	or  %g2, 0x79, %g2
    67cc:	c2 20 c0 00 	st  %g1, [ %g3 ]
    67d0:	c4 30 e0 04 	sth  %g2, [ %g3 + 4 ]
    67d4:	10 80 00 3e 	b  68cc <nis_local_principal+0x190>
    67d8:	c0 28 e0 06 	clrb  [ %g3 + 6 ]
    67dc:	7f ff ff a3 	call  6668 <nis_local_host>
    67e0:	01 00 00 00 	nop 
    67e4:	92 10 00 08 	mov  %o0, %o1
    67e8:	40 00 70 3a 	call  228d0 <strcpy@plt>
    67ec:	90 10 00 18 	mov  %i0, %o0
    67f0:	10 80 00 37 	b  68cc <nis_local_principal+0x190>
    67f4:	86 10 00 08 	mov  %o0, %g3
    67f8:	86 00 80 08 	add  %g2, %o0, %g3
    67fc:	c2 48 fb f7 	ldsb  [ %g3 + -1033 ], %g1
    6800:	80 a0 60 2e 	cmp  %g1, 0x2e
    6804:	02 80 00 05 	be  6818 <nis_local_principal+0xdc>
    6808:	82 10 20 2e 	mov  0x2e, %g1
    680c:	c2 28 fb f8 	stb  %g1, [ %g3 + -1032 ]
    6810:	84 02 00 02 	add  %o0, %g2, %g2
    6814:	c0 28 bb f9 	clrb  [ %g2 + -1031 ]
    6818:	13 00 00 c0 	sethi  %hi(0x30000), %o1
    681c:	90 10 00 12 	mov  %l2, %o0
    6820:	92 12 60 03 	or  %o1, 3, %o1
    6824:	94 10 20 00 	clr  %o2
    6828:	40 00 0b 53 	call  9574 <nis_list>
    682c:	96 10 20 00 	clr  %o3
    6830:	a4 92 20 00 	orcc  %o0, 0, %l2
    6834:	02 bf ff e1 	be  67b8 <nis_local_principal+0x7c>
    6838:	84 14 20 d4 	or  %l0, 0xd4, %g2
    683c:	c2 04 80 00 	ld  [ %l2 ], %g1
    6840:	80 a0 60 00 	cmp  %g1, 0
    6844:	12 80 00 1e 	bne  68bc <nis_local_principal+0x180>
    6848:	01 00 00 00 	nop 
    684c:	c2 04 a0 04 	ld  [ %l2 + 4 ], %g1
    6850:	80 a0 60 01 	cmp  %g1, 1
    6854:	18 80 00 0b 	bgu  6880 <nis_local_principal+0x144>
    6858:	05 00 00 00 	sethi  %hi(0), %g2
    685c:	c2 04 a0 08 	ld  [ %l2 + 8 ], %g1
    6860:	c4 00 60 2c 	ld  [ %g1 + 0x2c ], %g2
    6864:	d2 00 a0 08 	ld  [ %g2 + 8 ], %o1
    6868:	40 00 70 1a 	call  228d0 <strcpy@plt>
    686c:	90 10 00 18 	mov  %i0, %o0
    6870:	40 00 00 57 	call  69cc <nis_freeresult>
    6874:	90 10 00 12 	mov  %l2, %o0
    6878:	10 80 00 15 	b  68cc <nis_local_principal+0x190>
    687c:	86 10 00 18 	mov  %i0, %g3
    6880:	03 00 00 00 	sethi  %hi(0), %g1
    6884:	84 10 a3 90 	or  %g2, 0x390, %g2
    6888:	82 10 60 e0 	or  %g1, 0xe0, %g1
    688c:	d2 05 c0 01 	ld  [ %l7 + %g1 ], %o1
    6890:	d0 05 c0 02 	ld  [ %l7 + %g2 ], %o0
    6894:	40 00 6f c7 	call  227b0 <__dcgettext@plt>
    6898:	94 10 20 05 	mov  5, %o2
    689c:	7f ff ff 21 	call  6520 <nis_local_directory>
    68a0:	a0 10 00 08 	mov  %o0, %l0
    68a4:	94 10 00 08 	mov  %o0, %o2
    68a8:	90 10 00 10 	mov  %l0, %o0
    68ac:	40 00 6f fa 	call  22894 <printf@plt>
    68b0:	92 10 00 11 	mov  %l1, %o1
    68b4:	10 bf ff eb 	b  6860 <nis_local_principal+0x124>
    68b8:	c2 04 a0 08 	ld  [ %l2 + 8 ], %g1
    68bc:	40 00 00 44 	call  69cc <nis_freeresult>
    68c0:	01 00 00 00 	nop 
    68c4:	10 bf ff bd 	b  67b8 <nis_local_principal+0x7c>
    68c8:	84 14 20 d4 	or  %l0, 0xd4, %g2
    68cc:	81 c7 e0 08 	ret 
    68d0:	91 e8 00 03 	restore  %g0, %g3, %o0
    68d4:	81 c3 e0 08 	retl 
    68d8:	ae 03 c0 17 	add  %o7, %l7, %l7

000068dc <__free_fdresult>:
__free_fdresult():
    68dc:	9d e3 bf 90 	save  %sp, -112, %sp
    68e0:	05 00 00 00 	sethi  %hi(0), %g2
    68e4:	2f 00 00 6d 	sethi  %hi(0x1b400), %l7
    68e8:	7f ff ff fb 	call  68d4 <nis_local_principal+0x198>
    68ec:	ae 05 e3 18 	add  %l7, 0x318, %l7	! 1b718 <__FRAME_END__+0xa6f0>
    68f0:	92 96 20 00 	orcc  %i0, 0, %o1
    68f4:	02 80 00 06 	be  690c <__free_fdresult+0x30>
    68f8:	84 10 a3 74 	or  %g2, 0x374, %g2
    68fc:	40 00 6e fc 	call  224ec <xdr_free@plt>
    6900:	d0 05 c0 02 	ld  [ %l7 + %g2 ], %o0
    6904:	10 80 6f b7 	b  227e0 <free@plt>
    6908:	81 e8 00 00 	restore 
    690c:	01 00 00 00 	nop 
    6910:	81 c7 e0 08 	ret 
    6914:	81 e8 00 00 	restore 

00006918 <nis_free_request>:
nis_free_request():
    6918:	9d e3 bf 90 	save  %sp, -112, %sp
    691c:	05 00 00 00 	sethi  %hi(0), %g2
    6920:	2f 00 00 6d 	sethi  %hi(0x1b400), %l7
    6924:	7f ff ff ec 	call  68d4 <nis_local_principal+0x198>
    6928:	ae 05 e2 dc 	add  %l7, 0x2dc, %l7	! 1b6dc <__FRAME_END__+0xa6b4>
    692c:	92 96 20 00 	orcc  %i0, 0, %o1
    6930:	02 80 00 06 	be  6948 <nis_free_request+0x30>
    6934:	84 10 a3 50 	or  %g2, 0x350, %g2
    6938:	40 00 6e ed 	call  224ec <xdr_free@plt>
    693c:	d0 05 c0 02 	ld  [ %l7 + %g2 ], %o0
    6940:	10 80 6f a8 	b  227e0 <free@plt>
    6944:	81 e8 00 00 	restore 
    6948:	01 00 00 00 	nop 
    694c:	81 c7 e0 08 	ret 
    6950:	81 e8 00 00 	restore 

00006954 <nis_free_directory>:
nis_free_directory():
    6954:	9d e3 bf 90 	save  %sp, -112, %sp
    6958:	05 00 00 01 	sethi  %hi(0x400), %g2
    695c:	2f 00 00 6d 	sethi  %hi(0x1b400), %l7
    6960:	7f ff ff dd 	call  68d4 <nis_local_principal+0x198>
    6964:	ae 05 e2 a0 	add  %l7, 0x2a0, %l7	! 1b6a0 <__FRAME_END__+0xa678>
    6968:	92 96 20 00 	orcc  %i0, 0, %o1
    696c:	02 80 00 06 	be  6984 <nis_free_directory+0x30>
    6970:	84 10 a0 04 	or  %g2, 4, %g2
    6974:	40 00 6e de 	call  224ec <xdr_free@plt>
    6978:	d0 05 c0 02 	ld  [ %l7 + %g2 ], %o0
    697c:	10 80 6f 99 	b  227e0 <free@plt>
    6980:	81 e8 00 00 	restore 
    6984:	01 00 00 00 	nop 
    6988:	81 c7 e0 08 	ret 
    698c:	81 e8 00 00 	restore 

00006990 <nis_free_object>:
nis_free_object():
    6990:	9d e3 bf 90 	save  %sp, -112, %sp
    6994:	05 00 00 00 	sethi  %hi(0), %g2
    6998:	2f 00 00 6d 	sethi  %hi(0x1b400), %l7
    699c:	7f ff ff ce 	call  68d4 <nis_local_principal+0x198>
    69a0:	ae 05 e2 64 	add  %l7, 0x264, %l7	! 1b664 <__FRAME_END__+0xa63c>
    69a4:	92 96 20 00 	orcc  %i0, 0, %o1
    69a8:	02 80 00 06 	be  69c0 <nis_free_object+0x30>
    69ac:	84 10 a3 80 	or  %g2, 0x380, %g2
    69b0:	40 00 6e cf 	call  224ec <xdr_free@plt>
    69b4:	d0 05 c0 02 	ld  [ %l7 + %g2 ], %o0
    69b8:	10 80 6f 8a 	b  227e0 <free@plt>
    69bc:	81 e8 00 00 	restore 
    69c0:	01 00 00 00 	nop 
    69c4:	81 c7 e0 08 	ret 
    69c8:	81 e8 00 00 	restore 

000069cc <nis_freeresult>:
nis_freeresult():
    69cc:	9d e3 bf 90 	save  %sp, -112, %sp
    69d0:	05 00 00 00 	sethi  %hi(0), %g2
    69d4:	2f 00 00 6d 	sethi  %hi(0x1b400), %l7
    69d8:	7f ff ff bf 	call  68d4 <nis_local_principal+0x198>
    69dc:	ae 05 e2 28 	add  %l7, 0x228, %l7	! 1b628 <__FRAME_END__+0xa600>
    69e0:	92 96 20 00 	orcc  %i0, 0, %o1
    69e4:	02 80 00 06 	be  69fc <nis_freeresult+0x30>
    69e8:	84 10 a3 60 	or  %g2, 0x360, %g2
    69ec:	40 00 6e c0 	call  224ec <xdr_free@plt>
    69f0:	d0 05 c0 02 	ld  [ %l7 + %g2 ], %o0
    69f4:	10 80 6f 7b 	b  227e0 <free@plt>
    69f8:	81 e8 00 00 	restore 
    69fc:	01 00 00 00 	nop 
    6a00:	81 c7 e0 08 	ret 
    6a04:	81 e8 00 00 	restore 
    6a08:	81 c3 e0 08 	retl 
    6a0c:	ae 03 c0 17 	add  %o7, %l7, %l7

00006a10 <read_nis_obj>:
read_nis_obj():
    6a10:	9d e3 bf 78 	save  %sp, -136, %sp
    6a14:	03 00 00 00 	sethi  %hi(0), %g1
    6a18:	2f 00 00 6d 	sethi  %hi(0x1b400), %l7
    6a1c:	7f ff ff fb 	call  6a08 <nis_freeresult+0x3c>
    6a20:	ae 05 e1 e4 	add  %l7, 0x1e4, %l7	! 1b5e4 <__FRAME_END__+0xa5bc>
    6a24:	82 10 60 e8 	or  %g1, 0xe8, %g1
    6a28:	90 10 00 18 	mov  %i0, %o0
    6a2c:	40 00 6f 82 	call  22834 <fopen@plt>
    6a30:	d2 05 c0 01 	ld  [ %l7 + %g1 ], %o1
    6a34:	a0 10 00 08 	mov  %o0, %l0
    6a38:	90 10 20 01 	mov  1, %o0
    6a3c:	80 a4 20 00 	cmp  %l0, 0
    6a40:	92 10 00 1b 	mov  %i3, %o1
    6a44:	02 80 00 24 	be  6ad4 <read_nis_obj+0xc4>
    6a48:	b0 10 20 00 	clr  %i0
    6a4c:	40 00 6f 5f 	call  227c8 <calloc@plt>
    6a50:	01 00 00 00 	nop 
    6a54:	b0 10 00 08 	mov  %o0, %i0
    6a58:	b6 07 bf d8 	add  %fp, -40, %i3
    6a5c:	94 10 20 01 	mov  1, %o2
    6a60:	90 10 00 1b 	mov  %i3, %o0
    6a64:	80 a6 20 00 	cmp  %i0, 0
    6a68:	02 80 00 10 	be  6aa8 <read_nis_obj+0x98>
    6a6c:	92 10 00 10 	mov  %l0, %o1
    6a70:	40 00 6f 74 	call  22840 <xdrstdio_create@plt>
    6a74:	01 00 00 00 	nop 
    6a78:	90 10 00 1b 	mov  %i3, %o0
    6a7c:	9f c6 40 00 	call  %i1
    6a80:	92 10 00 18 	mov  %i0, %o1
    6a84:	c2 07 bf dc 	ld  [ %fp + -36 ], %g1
    6a88:	b2 10 00 08 	mov  %o0, %i1
    6a8c:	c2 00 60 1c 	ld  [ %g1 + 0x1c ], %g1
    6a90:	80 a0 60 00 	cmp  %g1, 0
    6a94:	12 80 00 08 	bne  6ab4 <read_nis_obj+0xa4>
    6a98:	90 10 00 1b 	mov  %i3, %o0
    6a9c:	80 a6 60 00 	cmp  %i1, 0
    6aa0:	02 80 00 0a 	be  6ac8 <read_nis_obj+0xb8>
    6aa4:	90 10 00 18 	mov  %i0, %o0
    6aa8:	40 00 6f 2d 	call  2275c <fclose@plt>
    6aac:	90 10 00 10 	mov  %l0, %o0
    6ab0:	30 80 00 09 	b,a   6ad4 <read_nis_obj+0xc4>
    6ab4:	9f c0 40 00 	call  %g1
    6ab8:	01 00 00 00 	nop 
    6abc:	80 a6 60 00 	cmp  %i1, 0
    6ac0:	12 bf ff fa 	bne  6aa8 <read_nis_obj+0x98>
    6ac4:	90 10 00 18 	mov  %i0, %o0
    6ac8:	9f c6 80 00 	call  %i2
    6acc:	b0 10 20 00 	clr  %i0
    6ad0:	30 bf ff f6 	b,a   6aa8 <read_nis_obj+0x98>
    6ad4:	81 c7 e0 08 	ret 
    6ad8:	81 e8 00 00 	restore 

00006adc <write_nis_obj>:
write_nis_obj():
    6adc:	9d e3 bf 78 	save  %sp, -136, %sp
    6ae0:	03 00 00 00 	sethi  %hi(0), %g1
    6ae4:	2f 00 00 6d 	sethi  %hi(0x1b400), %l7
    6ae8:	7f ff ff c8 	call  6a08 <nis_freeresult+0x3c>
    6aec:	ae 05 e1 18 	add  %l7, 0x118, %l7	! 1b518 <__FRAME_END__+0xa4f0>
    6af0:	82 10 60 ec 	or  %g1, 0xec, %g1
    6af4:	90 10 00 18 	mov  %i0, %o0
    6af8:	40 00 6f 4f 	call  22834 <fopen@plt>
    6afc:	d2 05 c0 01 	ld  [ %l7 + %g1 ], %o1
    6b00:	a0 10 00 08 	mov  %o0, %l0
    6b04:	a2 07 bf d8 	add  %fp, -40, %l1
    6b08:	94 10 20 00 	clr  %o2
    6b0c:	90 10 00 11 	mov  %l1, %o0
    6b10:	92 94 20 00 	orcc  %l0, 0, %o1
    6b14:	02 80 00 13 	be  6b60 <write_nis_obj+0x84>
    6b18:	b0 10 20 00 	clr  %i0
    6b1c:	40 00 6f 49 	call  22840 <xdrstdio_create@plt>
    6b20:	01 00 00 00 	nop 
    6b24:	90 10 00 11 	mov  %l1, %o0
    6b28:	9f c6 80 00 	call  %i2
    6b2c:	92 10 00 19 	mov  %i1, %o1
    6b30:	c2 07 bf dc 	ld  [ %fp + -36 ], %g1
    6b34:	b0 10 00 08 	mov  %o0, %i0
    6b38:	c2 00 60 1c 	ld  [ %g1 + 0x1c ], %g1
    6b3c:	80 a0 60 00 	cmp  %g1, 0
    6b40:	12 80 00 05 	bne  6b54 <write_nis_obj+0x78>
    6b44:	90 10 00 11 	mov  %l1, %o0
    6b48:	40 00 6f 05 	call  2275c <fclose@plt>
    6b4c:	90 10 00 10 	mov  %l0, %o0
    6b50:	30 80 00 04 	b,a   6b60 <write_nis_obj+0x84>
    6b54:	9f c0 40 00 	call  %g1
    6b58:	01 00 00 00 	nop 
    6b5c:	30 bf ff fb 	b,a   6b48 <write_nis_obj+0x6c>
    6b60:	81 c7 e0 08 	ret 
    6b64:	81 e8 00 00 	restore 

00006b68 <readColdStartFile>:
readColdStartFile():
    6b68:	9d e3 bf 90 	save  %sp, -112, %sp
    6b6c:	03 00 00 00 	sethi  %hi(0), %g1
    6b70:	05 00 00 01 	sethi  %hi(0x400), %g2
    6b74:	07 00 00 00 	sethi  %hi(0), %g3
    6b78:	2f 00 00 6d 	sethi  %hi(0x1b400), %l7
    6b7c:	7f ff ff a3 	call  6a08 <nis_freeresult+0x3c>
    6b80:	ae 05 e0 84 	add  %l7, 0x84, %l7	! 1b484 <__FRAME_END__+0xa45c>
    6b84:	82 10 60 e4 	or  %g1, 0xe4, %g1
    6b88:	84 10 a0 04 	or  %g2, 4, %g2
    6b8c:	86 10 e3 b4 	or  %g3, 0x3b4, %g3
    6b90:	f0 05 c0 01 	ld  [ %l7 + %g1 ], %i0
    6b94:	f2 05 c0 02 	ld  [ %l7 + %g2 ], %i1
    6b98:	f4 05 c0 03 	ld  [ %l7 + %g3 ], %i2
    6b9c:	10 bf ff 9d 	b  6a10 <read_nis_obj>
    6ba0:	97 e8 20 1c 	restore  %g0, 0x1c, %o3
    6ba4:	01 00 00 00 	nop 

00006ba8 <writeColdStartFile>:
writeColdStartFile():
    6ba8:	9d e3 bf 90 	save  %sp, -112, %sp
    6bac:	03 00 00 00 	sethi  %hi(0), %g1
    6bb0:	05 00 00 01 	sethi  %hi(0x400), %g2
    6bb4:	2f 00 00 6d 	sethi  %hi(0x1b400), %l7
    6bb8:	7f ff ff 94 	call  6a08 <nis_freeresult+0x3c>
    6bbc:	ae 05 e0 48 	add  %l7, 0x48, %l7	! 1b448 <__FRAME_END__+0xa420>
    6bc0:	b2 10 00 18 	mov  %i0, %i1
    6bc4:	82 10 60 e4 	or  %g1, 0xe4, %g1
    6bc8:	84 10 a0 04 	or  %g2, 4, %g2
    6bcc:	f0 05 c0 01 	ld  [ %l7 + %g1 ], %i0
    6bd0:	f4 05 c0 02 	ld  [ %l7 + %g2 ], %i2
    6bd4:	10 bf ff c2 	b  6adc <write_nis_obj>
    6bd8:	81 e8 00 00 	restore 
    6bdc:	01 00 00 00 	nop 

00006be0 <nis_read_obj>:
nis_read_obj():
    6be0:	9d e3 bf 90 	save  %sp, -112, %sp
    6be4:	03 00 00 00 	sethi  %hi(0), %g1
    6be8:	05 00 00 00 	sethi  %hi(0), %g2
    6bec:	2f 00 00 6d 	sethi  %hi(0x1b400), %l7
    6bf0:	7f ff ff 86 	call  6a08 <nis_freeresult+0x3c>
    6bf4:	ae 05 e0 10 	add  %l7, 0x10, %l7	! 1b410 <__FRAME_END__+0xa3e8>
    6bf8:	82 10 63 80 	or  %g1, 0x380, %g1
    6bfc:	84 10 a3 bc 	or  %g2, 0x3bc, %g2
    6c00:	f2 05 c0 01 	ld  [ %l7 + %g1 ], %i1
    6c04:	f4 05 c0 02 	ld  [ %l7 + %g2 ], %i2
    6c08:	10 bf ff 82 	b  6a10 <read_nis_obj>
    6c0c:	97 e8 20 40 	restore  %g0, 0x40, %o3
    6c10:	01 00 00 00 	nop 

00006c14 <nis_write_obj>:
nis_write_obj():
    6c14:	9d e3 bf 90 	save  %sp, -112, %sp
    6c18:	03 00 00 00 	sethi  %hi(0), %g1
    6c1c:	2f 00 00 6c 	sethi  %hi(0x1b000), %l7
    6c20:	7f ff ff 7a 	call  6a08 <nis_freeresult+0x3c>
    6c24:	ae 05 e3 e0 	add  %l7, 0x3e0, %l7	! 1b3e0 <__FRAME_END__+0xa3b8>
    6c28:	82 10 63 80 	or  %g1, 0x380, %g1
    6c2c:	f4 05 c0 01 	ld  [ %l7 + %g1 ], %i2
    6c30:	10 bf ff ab 	b  6adc <write_nis_obj>
    6c34:	81 e8 00 00 	restore 
    6c38:	01 00 00 00 	nop 
    6c3c:	00 00 00 a4 	unimp  0xa4
    6c40:	00 00 00 bc 	unimp  0xbc
    6c44:	00 00 00 c8 	unimp  0xc8
    6c48:	00 00 00 d4 	unimp  0xd4
    6c4c:	00 00 00 e0 	unimp  0xe0
    6c50:	00 00 00 ec 	unimp  0xec
    6c54:	00 00 00 f8 	unimp  0xf8
    6c58:	00 00 01 04 	unimp  0x104
    6c5c:	00 00 00 b0 	unimp  0xb0
    6c60:	00 00 01 dc 	unimp  0x1dc
    6c64:	00 00 01 f0 	unimp  0x1f0
    6c68:	00 00 02 04 	unimp  0x204
    6c6c:	00 00 02 18 	unimp  0x218
    6c70:	00 00 02 2c 	unimp  0x22c
    6c74:	00 00 02 40 	unimp  0x240
    6c78:	00 00 02 54 	unimp  0x254
    6c7c:	00 00 01 c8 	unimp  0x1c8
    6c80:	00 00 0f 58 	unimp  0xf58
    6c84:	00 00 0f 58 	unimp  0xf58
    6c88:	00 00 0f 20 	unimp  0xf20
    6c8c:	00 00 0f 2c 	unimp  0xf2c
    6c90:	00 00 0f 38 	unimp  0xf38
    6c94:	00 00 0f 44 	unimp  0xf44
    6c98:	00 00 0f 50 	unimp  0xf50
    6c9c:	00 00 0e f4 	unimp  0xef4
    6ca0:	81 c3 e0 08 	retl 
    6ca4:	ae 03 c0 17 	add  %o7, %l7, %l7

00006ca8 <nis_nstype2str>:
nis_nstype2str():
    6ca8:	9d e3 bf 90 	save  %sp, -112, %sp
    6cac:	2f 00 00 6c 	sethi  %hi(0x1b000), %l7
    6cb0:	7f ff ff fc 	call  6ca0 <nis_write_obj+0x8c>
    6cb4:	ae 05 e3 50 	add  %l7, 0x350, %l7	! 1b350 <__FRAME_END__+0xa328>
    6cb8:	80 a6 20 08 	cmp  %i0, 8
    6cbc:	18 80 00 0a 	bgu  6ce4 <nis_nstype2str+0x3c>
    6cc0:	03 00 00 00 	sethi  %hi(0), %g1
    6cc4:	03 00 00 6c 	sethi  %hi(0x1b000), %g1
    6cc8:	82 10 63 c4 	or  %g1, 0x3c4, %g1	! 1b3c4 <__FRAME_END__+0xa39c>
    6ccc:	86 25 c0 01 	sub  %l7, %g1, %g3
    6cd0:	85 2e 20 02 	sll  %i0, 2, %g2
    6cd4:	c2 00 c0 02 	ld  [ %g3 + %g2 ], %g1
    6cd8:	81 c0 40 03 	jmp  %g1 + %g3
    6cdc:	01 00 00 00 	nop 
    6ce0:	03 00 00 00 	sethi  %hi(0), %g1
    6ce4:	10 80 00 19 	b  6d48 <nis_nstype2str+0xa0>
    6ce8:	82 10 60 f0 	or  %g1, 0xf0, %g1	! f0 <GLIBC_2.0+0xf0>
    6cec:	03 00 00 00 	sethi  %hi(0), %g1
    6cf0:	10 80 00 16 	b  6d48 <nis_nstype2str+0xa0>
    6cf4:	82 10 60 f4 	or  %g1, 0xf4, %g1	! f4 <GLIBC_2.0+0xf4>
    6cf8:	03 00 00 00 	sethi  %hi(0), %g1
    6cfc:	10 80 00 13 	b  6d48 <nis_nstype2str+0xa0>
    6d00:	82 10 60 f8 	or  %g1, 0xf8, %g1	! f8 <GLIBC_2.0+0xf8>
    6d04:	03 00 00 00 	sethi  %hi(0), %g1
    6d08:	10 80 00 10 	b  6d48 <nis_nstype2str+0xa0>
    6d0c:	82 10 60 fc 	or  %g1, 0xfc, %g1	! fc <GLIBC_2.0+0xfc>
    6d10:	03 00 00 00 	sethi  %hi(0), %g1
    6d14:	10 80 00 0d 	b  6d48 <nis_nstype2str+0xa0>
    6d18:	82 10 61 00 	or  %g1, 0x100, %g1	! 100 <GLIBC_2.0+0x100>
    6d1c:	03 00 00 00 	sethi  %hi(0), %g1
    6d20:	10 80 00 0a 	b  6d48 <nis_nstype2str+0xa0>
    6d24:	82 10 61 04 	or  %g1, 0x104, %g1	! 104 <GLIBC_2.0+0x104>
    6d28:	03 00 00 00 	sethi  %hi(0), %g1
    6d2c:	10 80 00 07 	b  6d48 <nis_nstype2str+0xa0>
    6d30:	82 10 61 08 	or  %g1, 0x108, %g1	! 108 <GLIBC_2.0+0x108>
    6d34:	03 00 00 00 	sethi  %hi(0), %g1
    6d38:	10 80 00 04 	b  6d48 <nis_nstype2str+0xa0>
    6d3c:	82 10 61 0c 	or  %g1, 0x10c, %g1	! 10c <GLIBC_2.0+0x10c>
    6d40:	03 00 00 00 	sethi  %hi(0), %g1
    6d44:	82 10 61 10 	or  %g1, 0x110, %g1	! 110 <GLIBC_2.0+0x110>
    6d48:	f0 05 c0 01 	ld  [ %l7 + %g1 ], %i0
    6d4c:	81 c7 e0 08 	ret 
    6d50:	81 e8 00 00 	restore 

00006d54 <print_ttl>:
print_ttl():
    6d54:	9d e3 bf 90 	save  %sp, -112, %sp
    6d58:	33 24 68 ac 	sethi  %hi(0x91a2b000), %i1
    6d5c:	b2 16 63 c5 	or  %i1, 0x3c5, %i1	! 91a2b3c5 <_end+0x91a065ed>
    6d60:	80 56 00 19 	umul  %i0, %i1, %g0
    6d64:	b3 40 00 00 	rd  %y, %i1
    6d68:	b3 36 60 0b 	srl  %i1, 0xb, %i1
    6d6c:	82 5e 6e 10 	smul  %i1, 0xe10, %g1
    6d70:	35 22 22 22 	sethi  %hi(0x88888800), %i2
    6d74:	b0 26 00 01 	sub  %i0, %g1, %i0
    6d78:	b4 16 a0 89 	or  %i2, 0x89, %i2
    6d7c:	80 56 00 1a 	umul  %i0, %i2, %g0
    6d80:	b5 40 00 00 	rd  %y, %i2
    6d84:	b5 36 a0 05 	srl  %i2, 5, %i2
    6d88:	b7 2e a0 04 	sll  %i2, 4, %i3
    6d8c:	b6 26 c0 1a 	sub  %i3, %i2, %i3
    6d90:	03 00 00 00 	sethi  %hi(0), %g1
    6d94:	b7 2e e0 02 	sll  %i3, 2, %i3
    6d98:	2f 00 00 6c 	sethi  %hi(0x1b000), %l7
    6d9c:	7f ff ff c1 	call  6ca0 <nis_write_obj+0x8c>
    6da0:	ae 05 e2 64 	add  %l7, 0x264, %l7	! 1b264 <__FRAME_END__+0xa23c>
    6da4:	82 10 61 14 	or  %g1, 0x114, %g1
    6da8:	b6 26 00 1b 	sub  %i0, %i3, %i3
    6dac:	f0 05 c0 01 	ld  [ %l7 + %g1 ], %i0
    6db0:	10 80 6e b9 	b  22894 <printf@plt>
    6db4:	81 e8 00 00 	restore 
    6db8:	01 00 00 00 	nop 

00006dbc <nis_print_objtype>:
nis_print_objtype():
    6dbc:	9d e3 bf 90 	save  %sp, -112, %sp
    6dc0:	2f 00 00 6c 	sethi  %hi(0x1b000), %l7
    6dc4:	7f ff ff b7 	call  6ca0 <nis_write_obj+0x8c>
    6dc8:	ae 05 e2 3c 	add  %l7, 0x23c, %l7	! 1b23c <__FRAME_END__+0xa214>
    6dcc:	80 a6 20 07 	cmp  %i0, 7
    6dd0:	18 80 00 08 	bgu  6df0 <nis_print_objtype+0x34>
    6dd4:	03 00 00 6c 	sethi  %hi(0x1b000), %g1
    6dd8:	82 10 63 a0 	or  %g1, 0x3a0, %g1	! 1b3a0 <__FRAME_END__+0xa378>
    6ddc:	86 25 c0 01 	sub  %l7, %g1, %g3
    6de0:	85 2e 20 02 	sll  %i0, 2, %g2
    6de4:	c2 00 c0 02 	ld  [ %g3 + %g2 ], %g1
    6de8:	81 c0 40 03 	jmp  %g1 + %g3
    6dec:	01 00 00 00 	nop 
    6df0:	03 00 00 00 	sethi  %hi(0), %g1
    6df4:	05 00 00 00 	sethi  %hi(0), %g2
    6df8:	82 10 63 90 	or  %g1, 0x390, %g1
    6dfc:	84 10 a1 18 	or  %g2, 0x118, %g2
    6e00:	d0 05 c0 01 	ld  [ %l7 + %g1 ], %o0
    6e04:	d2 05 c0 02 	ld  [ %l7 + %g2 ], %o1
    6e08:	40 00 6e 6a 	call  227b0 <__dcgettext@plt>
    6e0c:	94 10 20 05 	mov  5, %o2
    6e10:	03 00 00 00 	sethi  %hi(0), %g1
    6e14:	82 10 63 ac 	or  %g1, 0x3ac, %g1	! 3ac <GLIBC_2.0+0x3ac>
    6e18:	c4 05 c0 01 	ld  [ %l7 + %g1 ], %g2
    6e1c:	f2 00 80 00 	ld  [ %g2 ], %i1
    6e20:	10 80 6e 0d 	b  22654 <fputs@plt>
    6e24:	91 e8 00 08 	restore  %g0, %o0, %o0
    6e28:	03 00 00 00 	sethi  %hi(0), %g1
    6e2c:	05 00 00 00 	sethi  %hi(0), %g2
    6e30:	82 10 63 90 	or  %g1, 0x390, %g1
    6e34:	10 bf ff f3 	b  6e00 <nis_print_objtype+0x44>
    6e38:	84 10 a1 1c 	or  %g2, 0x11c, %g2
    6e3c:	03 00 00 00 	sethi  %hi(0), %g1
    6e40:	05 00 00 00 	sethi  %hi(0), %g2
    6e44:	82 10 63 90 	or  %g1, 0x390, %g1
    6e48:	10 bf ff ee 	b  6e00 <nis_print_objtype+0x44>
    6e4c:	84 10 a1 20 	or  %g2, 0x120, %g2
    6e50:	03 00 00 00 	sethi  %hi(0), %g1
    6e54:	05 00 00 00 	sethi  %hi(0), %g2
    6e58:	82 10 63 90 	or  %g1, 0x390, %g1
    6e5c:	10 bf ff e9 	b  6e00 <nis_print_objtype+0x44>
    6e60:	84 10 a1 24 	or  %g2, 0x124, %g2
    6e64:	03 00 00 00 	sethi  %hi(0), %g1
    6e68:	05 00 00 00 	sethi  %hi(0), %g2
    6e6c:	82 10 63 90 	or  %g1, 0x390, %g1
    6e70:	10 bf ff e4 	b  6e00 <nis_print_objtype+0x44>
    6e74:	84 10 a1 28 	or  %g2, 0x128, %g2
    6e78:	03 00 00 00 	sethi  %hi(0), %g1
    6e7c:	05 00 00 00 	sethi  %hi(0), %g2
    6e80:	82 10 63 90 	or  %g1, 0x390, %g1
    6e84:	10 bf ff df 	b  6e00 <nis_print_objtype+0x44>
    6e88:	84 10 a1 2c 	or  %g2, 0x12c, %g2
    6e8c:	03 00 00 00 	sethi  %hi(0), %g1
    6e90:	05 00 00 00 	sethi  %hi(0), %g2
    6e94:	82 10 63 90 	or  %g1, 0x390, %g1
    6e98:	10 bf ff da 	b  6e00 <nis_print_objtype+0x44>
    6e9c:	84 10 a1 30 	or  %g2, 0x130, %g2
    6ea0:	03 00 00 00 	sethi  %hi(0), %g1
    6ea4:	05 00 00 00 	sethi  %hi(0), %g2
    6ea8:	82 10 63 90 	or  %g1, 0x390, %g1
    6eac:	10 bf ff d5 	b  6e00 <nis_print_objtype+0x44>
    6eb0:	84 10 a1 34 	or  %g2, 0x134, %g2
    6eb4:	03 00 00 00 	sethi  %hi(0), %g1
    6eb8:	05 00 00 00 	sethi  %hi(0), %g2
    6ebc:	82 10 63 90 	or  %g1, 0x390, %g1
    6ec0:	10 bf ff d0 	b  6e00 <nis_print_objtype+0x44>
    6ec4:	84 10 a1 38 	or  %g2, 0x138, %g2

00006ec8 <nis_print_rights>:
nis_print_rights():
    6ec8:	9d e3 bf 78 	save  %sp, -136, %sp
    6ecc:	c0 2f bf e8 	clrb  [ %fp + -24 ]
    6ed0:	98 10 20 10 	mov  0x10, %o4
    6ed4:	96 07 bf f0 	add  %fp, -16, %o3
    6ed8:	2f 00 00 6c 	sethi  %hi(0x1b000), %l7
    6edc:	7f ff ff 71 	call  6ca0 <nis_write_obj+0x8c>
    6ee0:	ae 05 e1 24 	add  %l7, 0x124, %l7	! 1b124 <__FRAME_END__+0xa0fc>
    6ee4:	82 0e 20 01 	and  %i0, 1, %g1
    6ee8:	80 a0 00 01 	cmp  %g0, %g1
    6eec:	82 0e 20 02 	and  %i0, 2, %g1
    6ef0:	9a 40 3f ff 	addx  %g0, -1, %o5
    6ef4:	80 a0 00 01 	cmp  %g0, %g1
    6ef8:	82 0e 20 04 	and  %i0, 4, %g1
    6efc:	88 40 3f ff 	addx  %g0, -1, %g4
    6f00:	80 a0 00 01 	cmp  %g0, %g1
    6f04:	82 0e 20 08 	and  %i0, 8, %g1
    6f08:	86 40 3f ff 	addx  %g0, -1, %g3
    6f0c:	80 a0 00 01 	cmp  %g0, %g1
    6f10:	84 40 3f ff 	addx  %g0, -1, %g2
    6f14:	98 03 3f fc 	add  %o4, -4, %o4
    6f18:	9a 0b 7f bb 	and  %o5, -69, %o5
    6f1c:	88 09 3f c0 	and  %g4, -64, %g4
    6f20:	86 08 ff ca 	and  %g3, -54, %g3
    6f24:	84 08 bf c9 	and  %g2, -55, %g2
    6f28:	82 02 c0 0c 	add  %o3, %o4, %g1
    6f2c:	9a 03 60 72 	add  %o5, 0x72, %o5
    6f30:	88 01 20 6d 	add  %g4, 0x6d, %g4
    6f34:	86 00 e0 63 	add  %g3, 0x63, %g3
    6f38:	84 00 a0 64 	add  %g2, 0x64, %g2
    6f3c:	c4 28 7f eb 	stb  %g2, [ %g1 + -21 ]
    6f40:	da 28 7f e8 	stb  %o5, [ %g1 + -24 ]
    6f44:	c8 28 7f e9 	stb  %g4, [ %g1 + -23 ]
    6f48:	c6 28 7f ea 	stb  %g3, [ %g1 + -22 ]
    6f4c:	80 a3 20 00 	cmp  %o4, 0
    6f50:	14 bf ff e5 	bg  6ee4 <nis_print_rights+0x1c>
    6f54:	b1 36 20 08 	srl  %i0, 8, %i0
    6f58:	03 00 00 00 	sethi  %hi(0), %g1
    6f5c:	82 10 63 ac 	or  %g1, 0x3ac, %g1	! 3ac <GLIBC_2.0+0x3ac>
    6f60:	c4 05 c0 01 	ld  [ %l7 + %g1 ], %g2
    6f64:	d2 00 80 00 	ld  [ %g2 ], %o1
    6f68:	40 00 6d bb 	call  22654 <fputs@plt>
    6f6c:	90 07 bf d8 	add  %fp, -40, %o0
    6f70:	01 00 00 00 	nop 
    6f74:	81 c7 e0 08 	ret 
    6f78:	81 e8 00 00 	restore 

00006f7c <nis_print_directory>:
nis_print_directory():
    6f7c:	9d e3 bf 80 	save  %sp, -128, %sp
    6f80:	03 00 00 00 	sethi  %hi(0), %g1
    6f84:	2f 00 00 6c 	sethi  %hi(0x1b000), %l7
    6f88:	7f ff ff 46 	call  6ca0 <nis_write_obj+0x8c>
    6f8c:	ae 05 e0 78 	add  %l7, 0x78, %l7	! 1b078 <__FRAME_END__+0xa050>
    6f90:	82 10 63 90 	or  %g1, 0x390, %g1
    6f94:	05 00 00 00 	sethi  %hi(0), %g2
    6f98:	84 10 a1 3c 	or  %g2, 0x13c, %g2	! 13c <GLIBC_2.0+0x13c>
    6f9c:	e4 05 c0 01 	ld  [ %l7 + %g1 ], %l2
    6fa0:	d2 05 c0 02 	ld  [ %l7 + %g2 ], %o1
    6fa4:	94 10 20 05 	mov  5, %o2
    6fa8:	40 00 6e 02 	call  227b0 <__dcgettext@plt>
    6fac:	90 10 00 12 	mov  %l2, %o0
    6fb0:	40 00 6e 39 	call  22894 <printf@plt>
    6fb4:	d2 06 00 00 	ld  [ %i0 ], %o1
    6fb8:	03 00 00 00 	sethi  %hi(0), %g1
    6fbc:	82 10 61 40 	or  %g1, 0x140, %g1	! 140 <GLIBC_2.0+0x140>
    6fc0:	d2 05 c0 01 	ld  [ %l7 + %g1 ], %o1
    6fc4:	94 10 20 05 	mov  5, %o2
    6fc8:	40 00 6d fa 	call  227b0 <__dcgettext@plt>
    6fcc:	90 10 00 12 	mov  %l2, %o0
    6fd0:	a0 10 00 08 	mov  %o0, %l0
    6fd4:	7f ff ff 35 	call  6ca8 <nis_nstype2str>
    6fd8:	d0 06 20 04 	ld  [ %i0 + 4 ], %o0
    6fdc:	92 10 00 08 	mov  %o0, %o1
    6fe0:	40 00 6e 2d 	call  22894 <printf@plt>
    6fe4:	90 10 00 10 	mov  %l0, %o0
    6fe8:	c2 06 20 08 	ld  [ %i0 + 8 ], %g1
    6fec:	80 a0 60 00 	cmp  %g1, 0
    6ff0:	35 00 00 00 	sethi  %hi(0), %i2
    6ff4:	e2 06 20 0c 	ld  [ %i0 + 0xc ], %l1
    6ff8:	08 80 00 ab 	bleu  72a4 <nis_print_directory+0x328>
    6ffc:	a8 10 20 00 	clr  %l4
    7000:	03 00 00 00 	sethi  %hi(0), %g1
    7004:	82 10 63 ac 	or  %g1, 0x3ac, %g1	! 3ac <GLIBC_2.0+0x3ac>
    7008:	c2 27 bf ec 	st  %g1, [ %fp + -20 ]
    700c:	f2 05 c0 01 	ld  [ %l7 + %g1 ], %i1
    7010:	10 80 00 3e 	b  7108 <nis_print_directory+0x18c>
    7014:	c2 27 bf e8 	st  %g1, [ %fp + -24 ]
    7018:	84 16 a3 90 	or  %i2, 0x390, %g2
    701c:	82 10 61 44 	or  %g1, 0x144, %g1
    7020:	d0 05 c0 02 	ld  [ %l7 + %g2 ], %o0
    7024:	d2 05 c0 01 	ld  [ %l7 + %g1 ], %o1
    7028:	40 00 6d e2 	call  227b0 <__dcgettext@plt>
    702c:	94 10 20 05 	mov  5, %o2
    7030:	c4 07 bf ec 	ld  [ %fp + -20 ], %g2
    7034:	c2 05 c0 02 	ld  [ %l7 + %g2 ], %g1
    7038:	40 00 6d 87 	call  22654 <fputs@plt>
    703c:	d2 00 40 00 	ld  [ %g1 ], %o1
    7040:	21 00 00 00 	sethi  %hi(0), %l0
    7044:	05 00 00 00 	sethi  %hi(0), %g2
    7048:	a0 14 23 90 	or  %l0, 0x390, %l0
    704c:	82 10 a1 48 	or  %g2, 0x148, %g1
    7050:	e0 05 c0 10 	ld  [ %l7 + %l0 ], %l0
    7054:	d2 05 c0 01 	ld  [ %l7 + %g1 ], %o1
    7058:	94 10 20 05 	mov  5, %o2
    705c:	40 00 6d d5 	call  227b0 <__dcgettext@plt>
    7060:	90 10 00 10 	mov  %l0, %o0
    7064:	40 00 6e 0c 	call  22894 <printf@plt>
    7068:	d2 04 40 00 	ld  [ %l1 ], %o1
    706c:	05 00 00 00 	sethi  %hi(0), %g2
    7070:	82 10 a1 4c 	or  %g2, 0x14c, %g1	! 14c <GLIBC_2.0+0x14c>
    7074:	d2 05 c0 01 	ld  [ %l7 + %g1 ], %o1
    7078:	94 10 20 05 	mov  5, %o2
    707c:	40 00 6d cd 	call  227b0 <__dcgettext@plt>
    7080:	90 10 00 10 	mov  %l0, %o0
    7084:	40 00 6d 74 	call  22654 <fputs@plt>
    7088:	d2 06 40 00 	ld  [ %i1 ], %o1
    708c:	c2 04 60 0c 	ld  [ %l1 + 0xc ], %g1
    7090:	80 a0 60 01 	cmp  %g1, 1
    7094:	02 80 00 c5 	be  73a8 <nis_print_directory+0x42c>
    7098:	35 00 00 00 	sethi  %hi(0), %i2
    709c:	80 a0 60 01 	cmp  %g1, 1
    70a0:	0a 80 00 77 	bcs  727c <nis_print_directory+0x300>
    70a4:	80 a0 60 02 	cmp  %g1, 2
    70a8:	02 80 00 cc 	be  73d8 <nis_print_directory+0x45c>
    70ac:	80 a0 60 03 	cmp  %g1, 3
    70b0:	02 80 00 cd 	be  73e4 <nis_print_directory+0x468>
    70b4:	84 16 a3 90 	or  %i2, 0x390, %g2
    70b8:	03 00 00 00 	sethi  %hi(0), %g1
    70bc:	82 10 61 50 	or  %g1, 0x150, %g1	! 150 <GLIBC_2.0+0x150>
    70c0:	d2 05 c0 01 	ld  [ %l7 + %g1 ], %o1
    70c4:	94 10 20 05 	mov  5, %o2
    70c8:	40 00 6d ba 	call  227b0 <__dcgettext@plt>
    70cc:	d0 05 c0 02 	ld  [ %l7 + %g2 ], %o0
    70d0:	d4 04 60 10 	ld  [ %l1 + 0x10 ], %o2
    70d4:	95 2a a0 02 	sll  %o2, 2, %o2
    70d8:	94 02 bf fc 	add  %o2, -4, %o2
    70dc:	40 00 6d ee 	call  22894 <printf@plt>
    70e0:	d2 04 60 0c 	ld  [ %l1 + 0xc ], %o1
    70e4:	c2 04 60 04 	ld  [ %l1 + 4 ], %g1
    70e8:	80 a0 60 00 	cmp  %g1, 0
    70ec:	12 80 00 13 	bne  7138 <nis_print_directory+0x1bc>
    70f0:	03 00 00 00 	sethi  %hi(0), %g1
    70f4:	a8 05 20 01 	inc  %l4
    70f8:	c2 06 20 08 	ld  [ %i0 + 8 ], %g1
    70fc:	80 a0 40 14 	cmp  %g1, %l4
    7100:	08 80 00 69 	bleu  72a4 <nis_print_directory+0x328>
    7104:	a2 04 60 18 	add  %l1, 0x18, %l1
    7108:	80 a5 20 00 	cmp  %l4, 0
    710c:	02 bf ff c3 	be  7018 <nis_print_directory+0x9c>
    7110:	03 00 00 00 	sethi  %hi(0), %g1
    7114:	03 00 00 00 	sethi  %hi(0), %g1
    7118:	84 16 a3 90 	or  %i2, 0x390, %g2
    711c:	82 10 61 58 	or  %g1, 0x158, %g1
    7120:	d0 05 c0 02 	ld  [ %l7 + %g2 ], %o0
    7124:	d2 05 c0 01 	ld  [ %l7 + %g1 ], %o1
    7128:	40 00 6d a2 	call  227b0 <__dcgettext@plt>
    712c:	94 10 20 05 	mov  5, %o2
    7130:	10 bf ff c1 	b  7034 <nis_print_directory+0xb8>
    7134:	c4 07 bf e8 	ld  [ %fp + -24 ], %g2
    7138:	82 10 61 54 	or  %g1, 0x154, %g1
    713c:	84 16 a3 90 	or  %i2, 0x390, %g2
    7140:	d2 05 c0 01 	ld  [ %l7 + %g1 ], %o1
    7144:	d0 05 c0 02 	ld  [ %l7 + %g2 ], %o0
    7148:	94 10 20 05 	mov  5, %o2
    714c:	40 00 6d 99 	call  227b0 <__dcgettext@plt>
    7150:	e0 04 60 08 	ld  [ %l1 + 8 ], %l0
    7154:	40 00 6d d0 	call  22894 <printf@plt>
    7158:	d2 04 60 04 	ld  [ %l1 + 4 ], %o1
    715c:	c2 04 60 04 	ld  [ %l1 + 4 ], %g1
    7160:	80 a0 60 00 	cmp  %g1, 0
    7164:	08 bf ff e4 	bleu  70f4 <nis_print_directory+0x178>
    7168:	92 10 20 00 	clr  %o1
    716c:	3b 00 00 00 	sethi  %hi(0), %i5
    7170:	2b 00 00 00 	sethi  %hi(0), %l5
    7174:	37 00 00 00 	sethi  %hi(0), %i3
    7178:	ba 17 61 5c 	or  %i5, 0x15c, %i5
    717c:	aa 15 61 60 	or  %l5, 0x160, %l5
    7180:	27 00 00 00 	sethi  %hi(0), %l3
    7184:	2d 00 00 00 	sethi  %hi(0), %l6
    7188:	b6 16 e3 ac 	or  %i3, 0x3ac, %i3
    718c:	a6 14 e1 64 	or  %l3, 0x164, %l3
    7190:	ac 15 a1 68 	or  %l6, 0x168, %l6
    7194:	f6 05 c0 1b 	ld  [ %l7 + %i3 ], %i3
    7198:	fa 27 bf e4 	st  %i5, [ %fp + -28 ]
    719c:	10 80 00 20 	b  721c <nis_print_directory+0x2a0>
    71a0:	b8 10 00 15 	mov  %l5, %i4
    71a4:	40 00 6d bc 	call  22894 <printf@plt>
    71a8:	d0 05 c0 15 	ld  [ %l7 + %l5 ], %o0
    71ac:	d2 04 20 04 	ld  [ %l0 + 4 ], %o1
    71b0:	80 a2 60 00 	cmp  %o1, 0
    71b4:	02 80 00 06 	be  71cc <nis_print_directory+0x250>
    71b8:	01 00 00 00 	nop 
    71bc:	c2 4a 40 00 	ldsb  [ %o1 ], %g1
    71c0:	80 a0 60 00 	cmp  %g1, 0
    71c4:	12 80 00 26 	bne  725c <nis_print_directory+0x2e0>
    71c8:	c2 07 bf e4 	ld  [ %fp + -28 ], %g1
    71cc:	40 00 6d b2 	call  22894 <printf@plt>
    71d0:	d0 05 c0 1c 	ld  [ %l7 + %i4 ], %o0
    71d4:	d0 04 00 00 	ld  [ %l0 ], %o0
    71d8:	80 a2 20 00 	cmp  %o0, 0
    71dc:	22 80 00 07 	be,a   71f8 <nis_print_directory+0x27c>
    71e0:	d0 05 c0 16 	ld  [ %l7 + %l6 ], %o0
    71e4:	c2 4a 00 00 	ldsb  [ %o0 ], %g1
    71e8:	80 a0 60 00 	cmp  %g1, 0
    71ec:	12 80 00 20 	bne  726c <nis_print_directory+0x2f0>
    71f0:	01 00 00 00 	nop 
    71f4:	d0 05 c0 16 	ld  [ %l7 + %l6 ], %o0
    71f8:	92 10 20 01 	mov  1, %o1
    71fc:	94 10 20 02 	mov  2, %o2
    7200:	40 00 6d 96 	call  22858 <fwrite@plt>
    7204:	d6 06 c0 00 	ld  [ %i3 ], %o3
    7208:	c2 04 60 04 	ld  [ %l1 + 4 ], %g1
    720c:	92 10 00 12 	mov  %l2, %o1
    7210:	80 a0 40 12 	cmp  %g1, %l2
    7214:	08 bf ff b8 	bleu  70f4 <nis_print_directory+0x178>
    7218:	a0 04 20 0c 	add  %l0, 0xc, %l0
    721c:	a4 02 60 01 	add  %o1, 1, %l2
    7220:	92 10 00 12 	mov  %l2, %o1
    7224:	40 00 6d 9c 	call  22894 <printf@plt>
    7228:	d0 05 c0 13 	ld  [ %l7 + %l3 ], %o0
    722c:	d2 04 20 08 	ld  [ %l0 + 8 ], %o1
    7230:	80 a2 60 00 	cmp  %o1, 0
    7234:	02 bf ff dc 	be  71a4 <nis_print_directory+0x228>
    7238:	01 00 00 00 	nop 
    723c:	c2 4a 40 00 	ldsb  [ %o1 ], %g1
    7240:	80 a0 60 00 	cmp  %g1, 0
    7244:	02 bf ff d8 	be  71a4 <nis_print_directory+0x228>
    7248:	01 00 00 00 	nop 
    724c:	40 00 6d 92 	call  22894 <printf@plt>
    7250:	d0 05 c0 1d 	ld  [ %l7 + %i5 ], %o0
    7254:	10 bf ff d7 	b  71b0 <nis_print_directory+0x234>
    7258:	d2 04 20 04 	ld  [ %l0 + 4 ], %o1
    725c:	40 00 6d 8e 	call  22894 <printf@plt>
    7260:	d0 05 c0 01 	ld  [ %l7 + %g1 ], %o0
    7264:	10 bf ff dd 	b  71d8 <nis_print_directory+0x25c>
    7268:	d0 04 00 00 	ld  [ %l0 ], %o0
    726c:	40 00 6c d0 	call  225ac <puts@plt>
    7270:	01 00 00 00 	nop 
    7274:	10 bf ff e6 	b  720c <nis_print_directory+0x290>
    7278:	c2 04 60 04 	ld  [ %l1 + 4 ], %g1
    727c:	03 00 00 00 	sethi  %hi(0), %g1
    7280:	82 10 61 6c 	or  %g1, 0x16c, %g1	! 16c <GLIBC_2.0+0x16c>
    7284:	d2 05 c0 01 	ld  [ %l7 + %g1 ], %o1
    7288:	90 10 00 10 	mov  %l0, %o0
    728c:	40 00 6d 49 	call  227b0 <__dcgettext@plt>
    7290:	94 10 20 05 	mov  5, %o2
    7294:	40 00 6c f0 	call  22654 <fputs@plt>
    7298:	d2 06 40 00 	ld  [ %i1 ], %o1
    729c:	10 bf ff 93 	b  70e8 <nis_print_directory+0x16c>
    72a0:	c2 04 60 04 	ld  [ %l1 + 4 ], %g1
    72a4:	84 16 a3 90 	or  %i2, 0x390, %g2
    72a8:	03 00 00 00 	sethi  %hi(0), %g1
    72ac:	e4 05 c0 02 	ld  [ %l7 + %g2 ], %l2
    72b0:	82 10 61 70 	or  %g1, 0x170, %g1
    72b4:	94 10 20 05 	mov  5, %o2
    72b8:	d2 05 c0 01 	ld  [ %l7 + %g1 ], %o1
    72bc:	40 00 6d 3d 	call  227b0 <__dcgettext@plt>
    72c0:	90 10 00 12 	mov  %l2, %o0
    72c4:	05 00 00 00 	sethi  %hi(0), %g2
    72c8:	82 10 a3 ac 	or  %g2, 0x3ac, %g1	! 3ac <GLIBC_2.0+0x3ac>
    72cc:	e0 05 c0 01 	ld  [ %l7 + %g1 ], %l0
    72d0:	40 00 6c e1 	call  22654 <fputs@plt>
    72d4:	d2 04 00 00 	ld  [ %l0 ], %o1
    72d8:	7f ff fe 9f 	call  6d54 <print_ttl>
    72dc:	d0 06 20 10 	ld  [ %i0 + 0x10 ], %o0
    72e0:	03 00 00 00 	sethi  %hi(0), %g1
    72e4:	82 10 61 74 	or  %g1, 0x174, %g1	! 174 <GLIBC_2.0+0x174>
    72e8:	d2 05 c0 01 	ld  [ %l7 + %g1 ], %o1
    72ec:	94 10 20 05 	mov  5, %o2
    72f0:	40 00 6d 30 	call  227b0 <__dcgettext@plt>
    72f4:	90 10 00 12 	mov  %l2, %o0
    72f8:	40 00 6c d7 	call  22654 <fputs@plt>
    72fc:	d2 04 00 00 	ld  [ %l0 ], %o1
    7300:	c2 06 20 14 	ld  [ %i0 + 0x14 ], %g1
    7304:	80 a0 60 00 	cmp  %g1, 0
    7308:	02 80 00 43 	be  7414 <nis_print_directory+0x498>
    730c:	01 00 00 00 	nop 
    7310:	e2 06 20 18 	ld  [ %i0 + 0x18 ], %l1
    7314:	08 80 00 40 	bleu  7414 <nis_print_directory+0x498>
    7318:	a8 10 20 00 	clr  %l4
    731c:	2b 00 00 00 	sethi  %hi(0), %l5
    7320:	27 00 00 00 	sethi  %hi(0), %l3
    7324:	ac 10 00 12 	mov  %l2, %l6
    7328:	aa 15 61 78 	or  %l5, 0x178, %l5
    732c:	a6 14 e1 7c 	or  %l3, 0x17c, %l3
    7330:	a4 10 00 10 	mov  %l0, %l2
    7334:	7f ff fe e5 	call  6ec8 <nis_print_rights>
    7338:	d0 04 40 00 	ld  [ %l1 ], %o0
    733c:	94 10 20 05 	mov  5, %o2
    7340:	d2 05 c0 15 	ld  [ %l7 + %l5 ], %o1
    7344:	40 00 6d 1b 	call  227b0 <__dcgettext@plt>
    7348:	90 10 00 16 	mov  %l6, %o0
    734c:	a0 10 00 08 	mov  %o0, %l0
    7350:	7f ff fe 56 	call  6ca8 <nis_nstype2str>
    7354:	d0 04 60 04 	ld  [ %l1 + 4 ], %o0
    7358:	92 10 00 08 	mov  %o0, %o1
    735c:	40 00 6d 4e 	call  22894 <printf@plt>
    7360:	90 10 00 10 	mov  %l0, %o0
    7364:	94 10 20 05 	mov  5, %o2
    7368:	d2 05 c0 13 	ld  [ %l7 + %l3 ], %o1
    736c:	40 00 6d 11 	call  227b0 <__dcgettext@plt>
    7370:	90 10 00 16 	mov  %l6, %o0
    7374:	40 00 6c b8 	call  22654 <fputs@plt>
    7378:	d2 04 80 00 	ld  [ %l2 ], %o1
    737c:	7f ff fe d3 	call  6ec8 <nis_print_rights>
    7380:	d0 04 40 00 	ld  [ %l1 ], %o0
    7384:	90 10 20 0a 	mov  0xa, %o0
    7388:	40 00 6c ce 	call  226c0 <fputc@plt>
    738c:	d2 04 80 00 	ld  [ %l2 ], %o1
    7390:	a8 05 20 01 	inc  %l4
    7394:	c2 06 20 14 	ld  [ %i0 + 0x14 ], %g1
    7398:	80 a0 40 14 	cmp  %g1, %l4
    739c:	18 bf ff e6 	bgu  7334 <nis_print_directory+0x3b8>
    73a0:	a2 04 60 08 	add  %l1, 8, %l1
    73a4:	30 80 00 1c 	b,a   7414 <nis_print_directory+0x498>
    73a8:	03 00 00 00 	sethi  %hi(0), %g1
    73ac:	82 10 61 80 	or  %g1, 0x180, %g1	! 180 <GLIBC_2.0+0x180>
    73b0:	d2 05 c0 01 	ld  [ %l7 + %g1 ], %o1
    73b4:	90 10 00 10 	mov  %l0, %o0
    73b8:	40 00 6c fe 	call  227b0 <__dcgettext@plt>
    73bc:	94 10 20 05 	mov  5, %o2
    73c0:	d2 04 60 10 	ld  [ %l1 + 0x10 ], %o1
    73c4:	93 2a 60 02 	sll  %o1, 2, %o1
    73c8:	40 00 6d 33 	call  22894 <printf@plt>
    73cc:	92 02 7f fc 	add  %o1, -4, %o1
    73d0:	10 bf ff 46 	b  70e8 <nis_print_directory+0x16c>
    73d4:	c2 04 60 04 	ld  [ %l1 + 4 ], %g1
    73d8:	03 00 00 00 	sethi  %hi(0), %g1
    73dc:	10 bf ff f5 	b  73b0 <nis_print_directory+0x434>
    73e0:	82 10 61 84 	or  %g1, 0x184, %g1	! 184 <GLIBC_2.0+0x184>
    73e4:	03 00 00 00 	sethi  %hi(0), %g1
    73e8:	11 00 00 00 	sethi  %hi(0), %o0
    73ec:	82 10 61 88 	or  %g1, 0x188, %g1
    73f0:	90 12 23 90 	or  %o0, 0x390, %o0
    73f4:	d2 05 c0 01 	ld  [ %l7 + %g1 ], %o1
    73f8:	d0 05 c0 08 	ld  [ %l7 + %o0 ], %o0
    73fc:	40 00 6c ed 	call  227b0 <__dcgettext@plt>
    7400:	94 10 20 05 	mov  5, %o2
    7404:	40 00 6c 94 	call  22654 <fputs@plt>
    7408:	d2 06 40 00 	ld  [ %i1 ], %o1
    740c:	10 bf ff 37 	b  70e8 <nis_print_directory+0x16c>
    7410:	c2 04 60 04 	ld  [ %l1 + 4 ], %g1
    7414:	81 c7 e0 08 	ret 
    7418:	81 e8 00 00 	restore 

0000741c <nis_print_group>:
nis_print_group():
    741c:	9d e3 bf 90 	save  %sp, -112, %sp
    7420:	05 00 00 00 	sethi  %hi(0), %g2
    7424:	2f 00 00 6a 	sethi  %hi(0x1a800), %l7
    7428:	7f ff fe 1e 	call  6ca0 <nis_write_obj+0x8c>
    742c:	ae 05 e3 d8 	add  %l7, 0x3d8, %l7	! 1abd8 <__FRAME_END__+0x9bb0>
    7430:	84 10 a3 90 	or  %g2, 0x390, %g2
    7434:	03 00 00 00 	sethi  %hi(0), %g1
    7438:	e2 05 c0 02 	ld  [ %l7 + %g2 ], %l1
    743c:	82 10 61 8c 	or  %g1, 0x18c, %g1
    7440:	d2 05 c0 01 	ld  [ %l7 + %g1 ], %o1
    7444:	94 10 20 05 	mov  5, %o2
    7448:	40 00 6c da 	call  227b0 <__dcgettext@plt>
    744c:	90 10 00 11 	mov  %l1, %o0
    7450:	03 00 00 00 	sethi  %hi(0), %g1
    7454:	82 10 63 ac 	or  %g1, 0x3ac, %g1	! 3ac <GLIBC_2.0+0x3ac>
    7458:	e0 05 c0 01 	ld  [ %l7 + %g1 ], %l0
    745c:	40 00 6c 7e 	call  22654 <fputs@plt>
    7460:	d2 04 00 00 	ld  [ %l0 ], %o1
    7464:	d2 06 00 00 	ld  [ %i0 ], %o1
    7468:	80 a2 60 00 	cmp  %o1, 0
    746c:	12 80 00 1b 	bne  74d8 <nis_print_group+0xbc>
    7470:	03 00 00 00 	sethi  %hi(0), %g1
    7474:	03 00 00 00 	sethi  %hi(0), %g1
    7478:	82 10 61 94 	or  %g1, 0x194, %g1	! 194 <GLIBC_2.0+0x194>
    747c:	d2 05 c0 01 	ld  [ %l7 + %g1 ], %o1
    7480:	94 10 20 05 	mov  5, %o2
    7484:	40 00 6c cb 	call  227b0 <__dcgettext@plt>
    7488:	90 10 00 11 	mov  %l1, %o0
    748c:	40 00 6c 72 	call  22654 <fputs@plt>
    7490:	d2 04 00 00 	ld  [ %l0 ], %o1
    7494:	c2 06 20 04 	ld  [ %i0 + 4 ], %g1
    7498:	80 a0 60 00 	cmp  %g1, 0
    749c:	08 80 00 14 	bleu  74ec <nis_print_group+0xd0>
    74a0:	a0 10 20 00 	clr  %l0
    74a4:	23 00 00 00 	sethi  %hi(0), %l1
    74a8:	a2 14 61 98 	or  %l1, 0x198, %l1	! 198 <GLIBC_2.0+0x198>
    74ac:	c2 06 20 08 	ld  [ %i0 + 8 ], %g1
    74b0:	85 2c 20 02 	sll  %l0, 2, %g2
    74b4:	d2 00 40 02 	ld  [ %g1 + %g2 ], %o1
    74b8:	40 00 6c f7 	call  22894 <printf@plt>
    74bc:	d0 05 c0 11 	ld  [ %l7 + %l1 ], %o0
    74c0:	a0 04 20 01 	inc  %l0
    74c4:	c2 06 20 04 	ld  [ %i0 + 4 ], %g1
    74c8:	80 a0 40 10 	cmp  %g1, %l0
    74cc:	38 bf ff f9 	bgu,a   74b0 <nis_print_group+0x94>
    74d0:	c2 06 20 08 	ld  [ %i0 + 8 ], %g1
    74d4:	30 80 00 06 	b,a   74ec <nis_print_group+0xd0>
    74d8:	82 10 61 90 	or  %g1, 0x190, %g1
    74dc:	40 00 6c ee 	call  22894 <printf@plt>
    74e0:	d0 05 c0 01 	ld  [ %l7 + %g1 ], %o0
    74e4:	10 bf ff e5 	b  7478 <nis_print_group+0x5c>
    74e8:	03 00 00 00 	sethi  %hi(0), %g1
    74ec:	81 c7 e0 08 	ret 
    74f0:	81 e8 00 00 	restore 

000074f4 <nis_print_table>:
nis_print_table():
    74f4:	9d e3 bf 90 	save  %sp, -112, %sp
    74f8:	03 00 00 00 	sethi  %hi(0), %g1
    74fc:	2f 00 00 6a 	sethi  %hi(0x1a800), %l7
    7500:	7f ff fd e8 	call  6ca0 <nis_write_obj+0x8c>
    7504:	ae 05 e3 00 	add  %l7, 0x300, %l7	! 1ab00 <__FRAME_END__+0x9ad8>
    7508:	82 10 63 90 	or  %g1, 0x390, %g1
    750c:	05 00 00 00 	sethi  %hi(0), %g2
    7510:	84 10 a1 9c 	or  %g2, 0x19c, %g2	! 19c <GLIBC_2.0+0x19c>
    7514:	e0 05 c0 01 	ld  [ %l7 + %g1 ], %l0
    7518:	d2 05 c0 02 	ld  [ %l7 + %g2 ], %o1
    751c:	94 10 20 05 	mov  5, %o2
    7520:	40 00 6c a4 	call  227b0 <__dcgettext@plt>
    7524:	90 10 00 10 	mov  %l0, %o0
    7528:	40 00 6c db 	call  22894 <printf@plt>
    752c:	d2 06 00 00 	ld  [ %i0 ], %o1
    7530:	03 00 00 00 	sethi  %hi(0), %g1
    7534:	82 10 61 a0 	or  %g1, 0x1a0, %g1	! 1a0 <GLIBC_2.0+0x1a0>
    7538:	d2 05 c0 01 	ld  [ %l7 + %g1 ], %o1
    753c:	94 10 20 05 	mov  5, %o2
    7540:	40 00 6c 9c 	call  227b0 <__dcgettext@plt>
    7544:	90 10 00 10 	mov  %l0, %o0
    7548:	40 00 6c d3 	call  22894 <printf@plt>
    754c:	d2 06 20 04 	ld  [ %i0 + 4 ], %o1
    7550:	03 00 00 00 	sethi  %hi(0), %g1
    7554:	82 10 61 a4 	or  %g1, 0x1a4, %g1	! 1a4 <GLIBC_2.0+0x1a4>
    7558:	d2 05 c0 01 	ld  [ %l7 + %g1 ], %o1
    755c:	94 10 20 05 	mov  5, %o2
    7560:	40 00 6c 94 	call  227b0 <__dcgettext@plt>
    7564:	90 10 00 10 	mov  %l0, %o0
    7568:	40 00 6c cb 	call  22894 <printf@plt>
    756c:	d2 0e 20 08 	ldub  [ %i0 + 8 ], %o1
    7570:	03 00 00 00 	sethi  %hi(0), %g1
    7574:	82 10 61 a8 	or  %g1, 0x1a8, %g1	! 1a8 <GLIBC_2.0+0x1a8>
    7578:	d2 05 c0 01 	ld  [ %l7 + %g1 ], %o1
    757c:	94 10 20 05 	mov  5, %o2
    7580:	40 00 6c 8c 	call  227b0 <__dcgettext@plt>
    7584:	90 10 00 10 	mov  %l0, %o0
    7588:	40 00 6c c3 	call  22894 <printf@plt>
    758c:	d2 06 20 14 	ld  [ %i0 + 0x14 ], %o1
    7590:	03 00 00 00 	sethi  %hi(0), %g1
    7594:	82 10 61 ac 	or  %g1, 0x1ac, %g1	! 1ac <GLIBC_2.0+0x1ac>
    7598:	d2 05 c0 01 	ld  [ %l7 + %g1 ], %o1
    759c:	94 10 20 05 	mov  5, %o2
    75a0:	40 00 6c 84 	call  227b0 <__dcgettext@plt>
    75a4:	90 10 00 10 	mov  %l0, %o0
    75a8:	03 00 00 00 	sethi  %hi(0), %g1
    75ac:	82 10 63 ac 	or  %g1, 0x3ac, %g1	! 3ac <GLIBC_2.0+0x3ac>
    75b0:	e2 05 c0 01 	ld  [ %l7 + %g1 ], %l1
    75b4:	40 00 6c 28 	call  22654 <fputs@plt>
    75b8:	d2 04 40 00 	ld  [ %l1 ], %o1
    75bc:	c2 06 20 0c 	ld  [ %i0 + 0xc ], %g1
    75c0:	80 a0 60 00 	cmp  %g1, 0
    75c4:	39 00 00 00 	sethi  %hi(0), %i4
    75c8:	08 80 00 86 	bleu  77e0 <nis_print_table+0x2ec>
    75cc:	a8 10 20 00 	clr  %l4
    75d0:	aa 10 00 10 	mov  %l0, %l5
    75d4:	37 00 00 00 	sethi  %hi(0), %i3
    75d8:	35 00 00 00 	sethi  %hi(0), %i2
    75dc:	2d 00 00 00 	sethi  %hi(0), %l6
    75e0:	3b 00 00 00 	sethi  %hi(0), %i5
    75e4:	10 80 00 2b 	b  7690 <nis_print_table+0x19c>
    75e8:	a6 10 20 00 	clr  %l3
    75ec:	82 10 61 c0 	or  %g1, 0x1c0, %g1
    75f0:	d0 05 c0 01 	ld  [ %l7 + %g1 ], %o0
    75f4:	92 10 20 01 	mov  1, %o1
    75f8:	94 10 20 0b 	mov  0xb, %o2
    75fc:	40 00 6c 97 	call  22858 <fwrite@plt>
    7600:	d6 04 40 00 	ld  [ %l1 ], %o3
    7604:	80 8c 20 04 	btst  4, %l0
    7608:	12 80 00 6e 	bne  77c0 <nis_print_table+0x2cc>
    760c:	03 00 00 00 	sethi  %hi(0), %g1
    7610:	80 8c 20 40 	btst  0x40, %l0
    7614:	12 80 00 63 	bne  77a0 <nis_print_table+0x2ac>
    7618:	03 00 00 00 	sethi  %hi(0), %g1
    761c:	80 8c 20 02 	btst  2, %l0
    7620:	12 80 00 5b 	bne  778c <nis_print_table+0x298>
    7624:	03 00 00 00 	sethi  %hi(0), %g1
    7628:	82 15 a1 b8 	or  %l6, 0x1b8, %g1
    762c:	d6 04 40 00 	ld  [ %l1 ], %o3
    7630:	d0 05 c0 01 	ld  [ %l7 + %g1 ], %o0
    7634:	92 10 20 01 	mov  1, %o1
    7638:	40 00 6c 88 	call  22858 <fwrite@plt>
    763c:	94 10 20 02 	mov  2, %o2
    7640:	84 17 23 90 	or  %i4, 0x390, %g2
    7644:	82 17 61 bc 	or  %i5, 0x1bc, %g1
    7648:	d2 05 c0 01 	ld  [ %l7 + %g1 ], %o1
    764c:	d0 05 c0 02 	ld  [ %l7 + %g2 ], %o0
    7650:	40 00 6c 58 	call  227b0 <__dcgettext@plt>
    7654:	94 10 20 05 	mov  5, %o2
    7658:	40 00 6b ff 	call  22654 <fputs@plt>
    765c:	d2 04 40 00 	ld  [ %l1 ], %o1
    7660:	c2 06 20 10 	ld  [ %i0 + 0x10 ], %g1
    7664:	82 00 40 13 	add  %g1, %l3, %g1
    7668:	7f ff fe 18 	call  6ec8 <nis_print_rights>
    766c:	d0 00 60 08 	ld  [ %g1 + 8 ], %o0
    7670:	90 10 20 0a 	mov  0xa, %o0
    7674:	40 00 6c 13 	call  226c0 <fputc@plt>
    7678:	d2 04 40 00 	ld  [ %l1 ], %o1
    767c:	a8 05 20 01 	inc  %l4
    7680:	c2 06 20 0c 	ld  [ %i0 + 0xc ], %g1
    7684:	80 a0 40 14 	cmp  %g1, %l4
    7688:	08 80 00 56 	bleu  77e0 <nis_print_table+0x2ec>
    768c:	a6 04 e0 0c 	add  %l3, 0xc, %l3
    7690:	82 16 e1 b0 	or  %i3, 0x1b0, %g1
    7694:	d2 05 c0 01 	ld  [ %l7 + %g1 ], %o1
    7698:	94 10 20 05 	mov  5, %o2
    769c:	40 00 6c 45 	call  227b0 <__dcgettext@plt>
    76a0:	90 10 00 15 	mov  %l5, %o0
    76a4:	c2 06 20 10 	ld  [ %i0 + 0x10 ], %g1
    76a8:	d4 00 40 13 	ld  [ %g1 + %l3 ], %o2
    76ac:	40 00 6c 7a 	call  22894 <printf@plt>
    76b0:	92 10 00 14 	mov  %l4, %o1
    76b4:	82 16 a1 b4 	or  %i2, 0x1b4, %g1
    76b8:	d2 05 c0 01 	ld  [ %l7 + %g1 ], %o1
    76bc:	94 10 20 05 	mov  5, %o2
    76c0:	40 00 6c 3c 	call  227b0 <__dcgettext@plt>
    76c4:	90 10 00 15 	mov  %l5, %o0
    76c8:	40 00 6b e3 	call  22654 <fputs@plt>
    76cc:	d2 04 40 00 	ld  [ %l1 ], %o1
    76d0:	c2 06 20 10 	ld  [ %i0 + 0x10 ], %g1
    76d4:	82 00 40 13 	add  %g1, %l3, %g1
    76d8:	e0 00 60 04 	ld  [ %g1 + 4 ], %l0
    76dc:	90 10 20 28 	mov  0x28, %o0
    76e0:	40 00 6b f8 	call  226c0 <fputc@plt>
    76e4:	d2 04 40 00 	ld  [ %l1 ], %o1
    76e8:	a4 8c 20 08 	andcc  %l0, 8, %l2
    76ec:	12 80 00 20 	bne  776c <nis_print_table+0x278>
    76f0:	03 00 00 00 	sethi  %hi(0), %g1
    76f4:	80 8c 20 01 	btst  1, %l0
    76f8:	12 bf ff bd 	bne  75ec <nis_print_table+0xf8>
    76fc:	03 00 00 00 	sethi  %hi(0), %g1
    7700:	03 00 00 00 	sethi  %hi(0), %g1
    7704:	82 10 61 d4 	or  %g1, 0x1d4, %g1	! 1d4 <GLIBC_2.0+0x1d4>
    7708:	d0 05 c0 01 	ld  [ %l7 + %g1 ], %o0
    770c:	92 10 20 01 	mov  1, %o1
    7710:	94 10 20 0c 	mov  0xc, %o2
    7714:	40 00 6c 51 	call  22858 <fwrite@plt>
    7718:	d6 04 40 00 	ld  [ %l1 ], %o3
    771c:	80 a4 a0 00 	cmp  %l2, 0
    7720:	02 bf ff c3 	be  762c <nis_print_table+0x138>
    7724:	82 15 a1 b8 	or  %l6, 0x1b8, %g1
    7728:	80 8c 20 10 	btst  0x10, %l0
    772c:	22 80 00 0b 	be,a   7758 <nis_print_table+0x264>
    7730:	03 00 00 00 	sethi  %hi(0), %g1
    7734:	03 00 00 00 	sethi  %hi(0), %g1
    7738:	82 10 61 dc 	or  %g1, 0x1dc, %g1	! 1dc <GLIBC_2.0+0x1dc>
    773c:	d0 05 c0 01 	ld  [ %l7 + %g1 ], %o0
    7740:	92 10 20 01 	mov  1, %o1
    7744:	94 10 20 12 	mov  0x12, %o2
    7748:	40 00 6c 44 	call  22858 <fwrite@plt>
    774c:	d6 04 40 00 	ld  [ %l1 ], %o3
    7750:	10 bf ff b7 	b  762c <nis_print_table+0x138>
    7754:	82 15 a1 b8 	or  %l6, 0x1b8, %g1
    7758:	82 10 61 d8 	or  %g1, 0x1d8, %g1
    775c:	d0 05 c0 01 	ld  [ %l7 + %g1 ], %o0
    7760:	92 10 20 01 	mov  1, %o1
    7764:	10 bf ff f9 	b  7748 <nis_print_table+0x254>
    7768:	94 10 20 10 	mov  0x10, %o2
    776c:	82 10 61 d0 	or  %g1, 0x1d0, %g1
    7770:	d0 05 c0 01 	ld  [ %l7 + %g1 ], %o0
    7774:	92 10 20 01 	mov  1, %o1
    7778:	94 10 20 0c 	mov  0xc, %o2
    777c:	40 00 6c 37 	call  22858 <fwrite@plt>
    7780:	d6 04 40 00 	ld  [ %l1 ], %o3
    7784:	10 bf ff dd 	b  76f8 <nis_print_table+0x204>
    7788:	80 8c 20 01 	btst  1, %l0
    778c:	82 10 61 cc 	or  %g1, 0x1cc, %g1
    7790:	d0 05 c0 01 	ld  [ %l7 + %g1 ], %o0
    7794:	92 10 20 01 	mov  1, %o1
    7798:	10 bf ff ec 	b  7748 <nis_print_table+0x254>
    779c:	94 10 20 0b 	mov  0xb, %o2
    77a0:	82 10 61 c8 	or  %g1, 0x1c8, %g1
    77a4:	d0 05 c0 01 	ld  [ %l7 + %g1 ], %o0
    77a8:	92 10 20 01 	mov  1, %o1
    77ac:	94 10 20 0f 	mov  0xf, %o2
    77b0:	40 00 6c 2a 	call  22858 <fwrite@plt>
    77b4:	d6 04 40 00 	ld  [ %l1 ], %o3
    77b8:	10 bf ff 9a 	b  7620 <nis_print_table+0x12c>
    77bc:	80 8c 20 02 	btst  2, %l0
    77c0:	82 10 61 c4 	or  %g1, 0x1c4, %g1
    77c4:	d0 05 c0 01 	ld  [ %l7 + %g1 ], %o0
    77c8:	92 10 20 01 	mov  1, %o1
    77cc:	94 10 20 0d 	mov  0xd, %o2
    77d0:	40 00 6c 22 	call  22858 <fwrite@plt>
    77d4:	d6 04 40 00 	ld  [ %l1 ], %o3
    77d8:	10 bf ff 8f 	b  7614 <nis_print_table+0x120>
    77dc:	80 8c 20 40 	btst  0x40, %l0
    77e0:	81 c7 e0 08 	ret 
    77e4:	81 e8 00 00 	restore 

000077e8 <nis_print_link>:
nis_print_link():
    77e8:	9d e3 bf 90 	save  %sp, -112, %sp
    77ec:	03 00 00 00 	sethi  %hi(0), %g1
    77f0:	2f 00 00 6a 	sethi  %hi(0x1a800), %l7
    77f4:	7f ff fd 2b 	call  6ca0 <nis_write_obj+0x8c>
    77f8:	ae 05 e0 0c 	add  %l7, 0xc, %l7	! 1a80c <__FRAME_END__+0x97e4>
    77fc:	82 10 63 90 	or  %g1, 0x390, %g1
    7800:	05 00 00 00 	sethi  %hi(0), %g2
    7804:	e2 05 c0 01 	ld  [ %l7 + %g1 ], %l1
    7808:	84 10 a1 e0 	or  %g2, 0x1e0, %g2
    780c:	94 10 20 05 	mov  5, %o2
    7810:	d2 05 c0 02 	ld  [ %l7 + %g2 ], %o1
    7814:	40 00 6b e7 	call  227b0 <__dcgettext@plt>
    7818:	90 10 00 11 	mov  %l1, %o0
    781c:	03 00 00 00 	sethi  %hi(0), %g1
    7820:	82 10 63 ac 	or  %g1, 0x3ac, %g1	! 3ac <GLIBC_2.0+0x3ac>
    7824:	c4 05 c0 01 	ld  [ %l7 + %g1 ], %g2
    7828:	40 00 6b 8b 	call  22654 <fputs@plt>
    782c:	d2 00 80 00 	ld  [ %g2 ], %o1
    7830:	7f ff fd 63 	call  6dbc <nis_print_objtype>
    7834:	d0 06 00 00 	ld  [ %i0 ], %o0
    7838:	03 00 00 00 	sethi  %hi(0), %g1
    783c:	82 10 61 e4 	or  %g1, 0x1e4, %g1	! 1e4 <GLIBC_2.0+0x1e4>
    7840:	90 10 00 11 	mov  %l1, %o0
    7844:	d2 05 c0 01 	ld  [ %l7 + %g1 ], %o1
    7848:	94 10 20 05 	mov  5, %o2
    784c:	40 00 6b d9 	call  227b0 <__dcgettext@plt>
    7850:	a0 10 00 18 	mov  %i0, %l0
    7854:	f2 04 20 0c 	ld  [ %l0 + 0xc ], %i1
    7858:	10 80 6c 0f 	b  22894 <printf@plt>
    785c:	91 e8 00 08 	restore  %g0, %o0, %o0
    7860:	01 00 00 00 	nop 

00007864 <nis_print_entry>:
nis_print_entry():
    7864:	9d e3 bf 90 	save  %sp, -112, %sp
    7868:	05 00 00 00 	sethi  %hi(0), %g2
    786c:	2f 00 00 69 	sethi  %hi(0x1a400), %l7
    7870:	7f ff fd 0c 	call  6ca0 <nis_write_obj+0x8c>
    7874:	ae 05 e3 90 	add  %l7, 0x390, %l7	! 1a790 <__FRAME_END__+0x9768>
    7878:	84 10 a3 90 	or  %g2, 0x390, %g2
    787c:	03 00 00 00 	sethi  %hi(0), %g1
    7880:	82 10 61 e8 	or  %g1, 0x1e8, %g1	! 1e8 <GLIBC_2.0+0x1e8>
    7884:	e0 05 c0 02 	ld  [ %l7 + %g2 ], %l0
    7888:	d2 05 c0 01 	ld  [ %l7 + %g1 ], %o1
    788c:	94 10 20 05 	mov  5, %o2
    7890:	40 00 6b c8 	call  227b0 <__dcgettext@plt>
    7894:	90 10 00 10 	mov  %l0, %o0
    7898:	40 00 6b ff 	call  22894 <printf@plt>
    789c:	d2 06 00 00 	ld  [ %i0 ], %o1
    78a0:	c2 06 20 04 	ld  [ %i0 + 4 ], %g1
    78a4:	80 a0 60 00 	cmp  %g1, 0
    78a8:	08 80 00 43 	bleu  79b4 <nis_print_entry+0x150>
    78ac:	a2 10 20 00 	clr  %l1
    78b0:	03 00 00 00 	sethi  %hi(0), %g1
    78b4:	82 10 63 ac 	or  %g1, 0x3ac, %g1	! 3ac <GLIBC_2.0+0x3ac>
    78b8:	27 00 00 00 	sethi  %hi(0), %l3
    78bc:	2b 00 00 00 	sethi  %hi(0), %l5
    78c0:	39 00 00 00 	sethi  %hi(0), %i4
    78c4:	3b 00 00 00 	sethi  %hi(0), %i5
    78c8:	2d 00 00 00 	sethi  %hi(0), %l6
    78cc:	a4 10 00 10 	mov  %l0, %l2
    78d0:	a6 14 e1 ec 	or  %l3, 0x1ec, %l3
    78d4:	e8 05 c0 01 	ld  [ %l7 + %g1 ], %l4
    78d8:	aa 15 61 f0 	or  %l5, 0x1f0, %l5
    78dc:	b8 17 21 f4 	or  %i4, 0x1f4, %i4
    78e0:	ba 17 61 f8 	or  %i5, 0x1f8, %i5
    78e4:	ac 15 a1 fc 	or  %l6, 0x1fc, %l6
    78e8:	10 80 00 12 	b  7930 <nis_print_entry+0xcc>
    78ec:	a0 10 20 00 	clr  %l0
    78f0:	80 88 a0 01 	btst  1, %g2
    78f4:	12 80 00 2e 	bne  79ac <nis_print_entry+0x148>
    78f8:	86 00 40 10 	add  %g1, %l0, %g3
    78fc:	c2 00 e0 04 	ld  [ %g3 + 4 ], %g1
    7900:	92 10 20 01 	mov  1, %o1
    7904:	80 a0 60 00 	cmp  %g1, 0
    7908:	12 80 00 23 	bne  7994 <nis_print_entry+0x130>
    790c:	94 10 20 08 	mov  8, %o2
    7910:	d0 05 c0 1d 	ld  [ %l7 + %i5 ], %o0
    7914:	40 00 6b d1 	call  22858 <fwrite@plt>
    7918:	d6 05 00 00 	ld  [ %l4 ], %o3
    791c:	a2 04 60 01 	inc  %l1
    7920:	c2 06 20 04 	ld  [ %i0 + 4 ], %g1
    7924:	80 a0 40 11 	cmp  %g1, %l1
    7928:	08 80 00 23 	bleu  79b4 <nis_print_entry+0x150>
    792c:	a0 04 20 0c 	add  %l0, 0xc, %l0
    7930:	d2 05 c0 13 	ld  [ %l7 + %l3 ], %o1
    7934:	94 10 20 05 	mov  5, %o2
    7938:	40 00 6b 9e 	call  227b0 <__dcgettext@plt>
    793c:	90 10 00 12 	mov  %l2, %o0
    7940:	c2 06 20 08 	ld  [ %i0 + 8 ], %g1
    7944:	82 00 40 10 	add  %g1, %l0, %g1
    7948:	d4 00 60 04 	ld  [ %g1 + 4 ], %o2
    794c:	40 00 6b d2 	call  22894 <printf@plt>
    7950:	92 10 00 11 	mov  %l1, %o1
    7954:	c2 06 20 08 	ld  [ %i0 + 8 ], %g1
    7958:	c4 00 40 10 	ld  [ %g1 + %l0 ], %g2
    795c:	90 10 00 12 	mov  %l2, %o0
    7960:	80 88 a0 02 	btst  2, %g2
    7964:	02 bf ff e3 	be  78f0 <nis_print_entry+0x8c>
    7968:	94 10 20 05 	mov  5, %o2
    796c:	d2 05 c0 15 	ld  [ %l7 + %l5 ], %o1
    7970:	40 00 6b 90 	call  227b0 <__dcgettext@plt>
    7974:	a2 04 60 01 	inc  %l1
    7978:	40 00 6b 37 	call  22654 <fputs@plt>
    797c:	d2 05 00 00 	ld  [ %l4 ], %o1
    7980:	c2 06 20 04 	ld  [ %i0 + 4 ], %g1
    7984:	80 a0 40 11 	cmp  %g1, %l1
    7988:	18 bf ff ea 	bgu  7930 <nis_print_entry+0xcc>
    798c:	a0 04 20 0c 	add  %l0, 0xc, %l0
    7990:	30 80 00 09 	b,a   79b4 <nis_print_entry+0x150>
    7994:	92 10 00 01 	mov  %g1, %o1
    7998:	d4 00 e0 08 	ld  [ %g3 + 8 ], %o2
    799c:	40 00 6b be 	call  22894 <printf@plt>
    79a0:	d0 05 c0 16 	ld  [ %l7 + %l6 ], %o0
    79a4:	10 bf ff df 	b  7920 <nis_print_entry+0xbc>
    79a8:	a2 04 60 01 	inc  %l1
    79ac:	10 bf ff f1 	b  7970 <nis_print_entry+0x10c>
    79b0:	d2 05 c0 1c 	ld  [ %l7 + %i4 ], %o1
    79b4:	81 c7 e0 08 	ret 
    79b8:	81 e8 00 00 	restore 

000079bc <nis_print_object>:
nis_print_object():
    79bc:	9d e3 bf 88 	save  %sp, -120, %sp
    79c0:	03 00 00 00 	sethi  %hi(0), %g1
    79c4:	2f 00 00 69 	sethi  %hi(0x1a400), %l7
    79c8:	7f ff fc b6 	call  6ca0 <nis_write_obj+0x8c>
    79cc:	ae 05 e2 38 	add  %l7, 0x238, %l7	! 1a638 <__FRAME_END__+0x9610>
    79d0:	82 10 63 90 	or  %g1, 0x390, %g1
    79d4:	05 00 00 00 	sethi  %hi(0), %g2
    79d8:	84 10 a2 00 	or  %g2, 0x200, %g2	! 200 <GLIBC_2.0+0x200>
    79dc:	e2 05 c0 01 	ld  [ %l7 + %g1 ], %l1
    79e0:	d2 05 c0 02 	ld  [ %l7 + %g2 ], %o1
    79e4:	94 10 20 05 	mov  5, %o2
    79e8:	40 00 6b 72 	call  227b0 <__dcgettext@plt>
    79ec:	90 10 00 11 	mov  %l1, %o0
    79f0:	40 00 6b a9 	call  22894 <printf@plt>
    79f4:	d2 06 20 08 	ld  [ %i0 + 8 ], %o1
    79f8:	03 00 00 00 	sethi  %hi(0), %g1
    79fc:	82 10 62 04 	or  %g1, 0x204, %g1	! 204 <GLIBC_2.0+0x204>
    7a00:	d2 05 c0 01 	ld  [ %l7 + %g1 ], %o1
    7a04:	94 10 20 05 	mov  5, %o2
    7a08:	40 00 6b 6a 	call  227b0 <__dcgettext@plt>
    7a0c:	90 10 00 11 	mov  %l1, %o0
    7a10:	40 00 6b a1 	call  22894 <printf@plt>
    7a14:	d2 06 20 14 	ld  [ %i0 + 0x14 ], %o1
    7a18:	03 00 00 00 	sethi  %hi(0), %g1
    7a1c:	82 10 62 08 	or  %g1, 0x208, %g1	! 208 <GLIBC_2.0+0x208>
    7a20:	d2 05 c0 01 	ld  [ %l7 + %g1 ], %o1
    7a24:	94 10 20 05 	mov  5, %o2
    7a28:	40 00 6b 62 	call  227b0 <__dcgettext@plt>
    7a2c:	90 10 00 11 	mov  %l1, %o0
    7a30:	40 00 6b 99 	call  22894 <printf@plt>
    7a34:	d2 06 20 0c 	ld  [ %i0 + 0xc ], %o1
    7a38:	03 00 00 00 	sethi  %hi(0), %g1
    7a3c:	82 10 62 0c 	or  %g1, 0x20c, %g1	! 20c <GLIBC_2.0+0x20c>
    7a40:	d2 05 c0 01 	ld  [ %l7 + %g1 ], %o1
    7a44:	94 10 20 05 	mov  5, %o2
    7a48:	40 00 6b 5a 	call  227b0 <__dcgettext@plt>
    7a4c:	90 10 00 11 	mov  %l1, %o0
    7a50:	40 00 6b 91 	call  22894 <printf@plt>
    7a54:	d2 06 20 10 	ld  [ %i0 + 0x10 ], %o1
    7a58:	03 00 00 00 	sethi  %hi(0), %g1
    7a5c:	82 10 62 10 	or  %g1, 0x210, %g1	! 210 <GLIBC_2.0+0x210>
    7a60:	94 10 20 05 	mov  5, %o2
    7a64:	d2 05 c0 01 	ld  [ %l7 + %g1 ], %o1
    7a68:	40 00 6b 52 	call  227b0 <__dcgettext@plt>
    7a6c:	90 10 00 11 	mov  %l1, %o0
    7a70:	03 00 00 00 	sethi  %hi(0), %g1
    7a74:	82 10 63 ac 	or  %g1, 0x3ac, %g1	! 3ac <GLIBC_2.0+0x3ac>
    7a78:	e4 05 c0 01 	ld  [ %l7 + %g1 ], %l2
    7a7c:	40 00 6a f6 	call  22654 <fputs@plt>
    7a80:	d2 04 80 00 	ld  [ %l2 ], %o1
    7a84:	7f ff fd 11 	call  6ec8 <nis_print_rights>
    7a88:	d0 06 20 18 	ld  [ %i0 + 0x18 ], %o0
    7a8c:	03 00 00 00 	sethi  %hi(0), %g1
    7a90:	82 10 62 14 	or  %g1, 0x214, %g1	! 214 <GLIBC_2.0+0x214>
    7a94:	d2 05 c0 01 	ld  [ %l7 + %g1 ], %o1
    7a98:	94 10 20 05 	mov  5, %o2
    7a9c:	40 00 6b 45 	call  227b0 <__dcgettext@plt>
    7aa0:	90 10 00 11 	mov  %l1, %o0
    7aa4:	40 00 6b 7c 	call  22894 <printf@plt>
    7aa8:	01 00 00 00 	nop 
    7aac:	7f ff fc aa 	call  6d54 <print_ttl>
    7ab0:	d0 06 20 1c 	ld  [ %i0 + 0x1c ], %o0
    7ab4:	03 00 00 00 	sethi  %hi(0), %g1
    7ab8:	82 10 62 18 	or  %g1, 0x218, %g1	! 218 <GLIBC_2.0+0x218>
    7abc:	c4 06 00 00 	ld  [ %i0 ], %g2
    7ac0:	d2 05 c0 01 	ld  [ %l7 + %g1 ], %o1
    7ac4:	c4 27 bf ec 	st  %g2, [ %fp + -20 ]
    7ac8:	94 10 20 05 	mov  5, %o2
    7acc:	40 00 6b 39 	call  227b0 <__dcgettext@plt>
    7ad0:	90 10 00 11 	mov  %l1, %o0
    7ad4:	a0 10 00 08 	mov  %o0, %l0
    7ad8:	40 00 6b 27 	call  22774 <ctime@plt>
    7adc:	90 07 bf ec 	add  %fp, -20, %o0
    7ae0:	92 10 00 08 	mov  %o0, %o1
    7ae4:	40 00 6b 6c 	call  22894 <printf@plt>
    7ae8:	90 10 00 10 	mov  %l0, %o0
    7aec:	03 00 00 00 	sethi  %hi(0), %g1
    7af0:	c4 06 20 04 	ld  [ %i0 + 4 ], %g2
    7af4:	82 10 62 1c 	or  %g1, 0x21c, %g1
    7af8:	c4 27 bf ec 	st  %g2, [ %fp + -20 ]
    7afc:	d2 05 c0 01 	ld  [ %l7 + %g1 ], %o1
    7b00:	94 10 20 05 	mov  5, %o2
    7b04:	40 00 6b 2b 	call  227b0 <__dcgettext@plt>
    7b08:	90 10 00 11 	mov  %l1, %o0
    7b0c:	a0 10 00 08 	mov  %o0, %l0
    7b10:	40 00 6b 19 	call  22774 <ctime@plt>
    7b14:	90 07 bf ec 	add  %fp, -20, %o0
    7b18:	92 10 00 08 	mov  %o0, %o1
    7b1c:	40 00 6b 5e 	call  22894 <printf@plt>
    7b20:	90 10 00 10 	mov  %l0, %o0
    7b24:	03 00 00 00 	sethi  %hi(0), %g1
    7b28:	82 10 62 20 	or  %g1, 0x220, %g1	! 220 <GLIBC_2.0+0x220>
    7b2c:	d2 05 c0 01 	ld  [ %l7 + %g1 ], %o1
    7b30:	94 10 20 05 	mov  5, %o2
    7b34:	40 00 6b 1f 	call  227b0 <__dcgettext@plt>
    7b38:	90 10 00 11 	mov  %l1, %o0
    7b3c:	40 00 6a c6 	call  22654 <fputs@plt>
    7b40:	d2 04 80 00 	ld  [ %l2 ], %o1
    7b44:	7f ff fc 9e 	call  6dbc <nis_print_objtype>
    7b48:	d0 06 20 20 	ld  [ %i0 + 0x20 ], %o0
    7b4c:	c4 06 20 20 	ld  [ %i0 + 0x20 ], %g2
    7b50:	80 a0 a0 07 	cmp  %g2, 7
    7b54:	18 80 00 21 	bgu  7bd8 <nis_print_object+0x21c>
    7b58:	03 00 00 6c 	sethi  %hi(0x1b000), %g1
    7b5c:	82 10 63 80 	or  %g1, 0x380, %g1	! 1b380 <__FRAME_END__+0xa358>
    7b60:	86 25 c0 01 	sub  %l7, %g1, %g3
    7b64:	85 28 a0 02 	sll  %g2, 2, %g2
    7b68:	c2 00 c0 02 	ld  [ %g3 + %g2 ], %g1
    7b6c:	81 c0 40 03 	jmp  %g1 + %g3
    7b70:	01 00 00 00 	nop 
    7b74:	05 00 00 00 	sethi  %hi(0), %g2
    7b78:	03 00 00 00 	sethi  %hi(0), %g1
    7b7c:	84 10 a2 24 	or  %g2, 0x224, %g2
    7b80:	82 10 63 90 	or  %g1, 0x390, %g1
    7b84:	d2 05 c0 02 	ld  [ %l7 + %g2 ], %o1
    7b88:	d0 05 c0 01 	ld  [ %l7 + %g1 ], %o0
    7b8c:	40 00 6b 09 	call  227b0 <__dcgettext@plt>
    7b90:	94 10 20 05 	mov  5, %o2
    7b94:	40 00 6b 40 	call  22894 <printf@plt>
    7b98:	d2 06 20 24 	ld  [ %i0 + 0x24 ], %o1
    7b9c:	30 80 00 0f 	b,a   7bd8 <nis_print_object+0x21c>
    7ba0:	7f ff fc f7 	call  6f7c <nis_print_directory>
    7ba4:	90 06 20 24 	add  %i0, 0x24, %o0
    7ba8:	30 80 00 0c 	b,a   7bd8 <nis_print_object+0x21c>
    7bac:	7f ff fe 1c 	call  741c <nis_print_group>
    7bb0:	90 06 20 24 	add  %i0, 0x24, %o0
    7bb4:	30 80 00 09 	b,a   7bd8 <nis_print_object+0x21c>
    7bb8:	7f ff fe 4f 	call  74f4 <nis_print_table>
    7bbc:	90 06 20 24 	add  %i0, 0x24, %o0
    7bc0:	30 80 00 06 	b,a   7bd8 <nis_print_object+0x21c>
    7bc4:	7f ff ff 28 	call  7864 <nis_print_entry>
    7bc8:	90 06 20 24 	add  %i0, 0x24, %o0
    7bcc:	30 80 00 03 	b,a   7bd8 <nis_print_object+0x21c>
    7bd0:	7f ff ff 06 	call  77e8 <nis_print_link>
    7bd4:	90 06 20 24 	add  %i0, 0x24, %o0
    7bd8:	01 00 00 00 	nop 
    7bdc:	81 c7 e0 08 	ret 
    7be0:	81 e8 00 00 	restore 

00007be4 <nis_print_result>:
nis_print_result():
    7be4:	9d e3 bf 90 	save  %sp, -112, %sp
    7be8:	25 00 00 00 	sethi  %hi(0), %l2
    7bec:	2f 00 00 69 	sethi  %hi(0x1a400), %l7
    7bf0:	7f ff fc 2c 	call  6ca0 <nis_write_obj+0x8c>
    7bf4:	ae 05 e0 10 	add  %l7, 0x10, %l7	! 1a410 <__FRAME_END__+0x93e8>
    7bf8:	a4 14 a3 90 	or  %l2, 0x390, %l2
    7bfc:	03 00 00 00 	sethi  %hi(0), %g1
    7c00:	82 10 62 28 	or  %g1, 0x228, %g1	! 228 <GLIBC_2.0+0x228>
    7c04:	e2 05 c0 12 	ld  [ %l7 + %l2 ], %l1
    7c08:	d2 05 c0 01 	ld  [ %l7 + %g1 ], %o1
    7c0c:	94 10 20 05 	mov  5, %o2
    7c10:	40 00 6a e8 	call  227b0 <__dcgettext@plt>
    7c14:	90 10 00 11 	mov  %l1, %o0
    7c18:	a0 10 00 08 	mov  %o0, %l0
    7c1c:	40 00 00 26 	call  7cb4 <nis_sperrno>
    7c20:	d0 06 00 00 	ld  [ %i0 ], %o0
    7c24:	92 10 00 08 	mov  %o0, %o1
    7c28:	40 00 6b 1b 	call  22894 <printf@plt>
    7c2c:	90 10 00 10 	mov  %l0, %o0
    7c30:	03 00 00 00 	sethi  %hi(0), %g1
    7c34:	82 10 62 2c 	or  %g1, 0x22c, %g1	! 22c <GLIBC_2.0+0x22c>
    7c38:	d2 05 c0 01 	ld  [ %l7 + %g1 ], %o1
    7c3c:	94 10 20 05 	mov  5, %o2
    7c40:	40 00 6a dc 	call  227b0 <__dcgettext@plt>
    7c44:	90 10 00 11 	mov  %l1, %o0
    7c48:	40 00 6b 13 	call  22894 <printf@plt>
    7c4c:	d2 06 20 04 	ld  [ %i0 + 4 ], %o1
    7c50:	c2 06 20 04 	ld  [ %i0 + 4 ], %g1
    7c54:	80 a0 60 00 	cmp  %g1, 0
    7c58:	08 80 00 13 	bleu  7ca4 <nis_print_result+0xc0>
    7c5c:	a0 10 20 00 	clr  %l0
    7c60:	23 00 00 00 	sethi  %hi(0), %l1
    7c64:	a2 14 62 30 	or  %l1, 0x230, %l1	! 230 <GLIBC_2.0+0x230>
    7c68:	94 10 20 05 	mov  5, %o2
    7c6c:	d2 05 c0 11 	ld  [ %l7 + %l1 ], %o1
    7c70:	40 00 6a d0 	call  227b0 <__dcgettext@plt>
    7c74:	d0 05 c0 12 	ld  [ %l7 + %l2 ], %o0
    7c78:	40 00 6b 07 	call  22894 <printf@plt>
    7c7c:	92 10 00 10 	mov  %l0, %o1
    7c80:	83 2c 20 06 	sll  %l0, 6, %g1
    7c84:	d0 06 20 08 	ld  [ %i0 + 8 ], %o0
    7c88:	7f ff ff 4d 	call  79bc <nis_print_object>
    7c8c:	90 02 00 01 	add  %o0, %g1, %o0
    7c90:	a0 04 20 01 	inc  %l0
    7c94:	c2 06 20 04 	ld  [ %i0 + 4 ], %g1
    7c98:	80 a0 40 10 	cmp  %g1, %l0
    7c9c:	18 bf ff f4 	bgu  7c6c <nis_print_result+0x88>
    7ca0:	94 10 20 05 	mov  5, %o2
    7ca4:	81 c7 e0 08 	ret 
    7ca8:	81 e8 00 00 	restore 
    7cac:	81 c3 e0 08 	retl 
    7cb0:	ae 03 c0 17 	add  %o7, %l7, %l7

00007cb4 <nis_sperrno>:
nis_sperrno():
    7cb4:	9d e3 bf 90 	save  %sp, -112, %sp
    7cb8:	82 10 00 18 	mov  %i0, %g1
    7cbc:	07 00 00 00 	sethi  %hi(0), %g3
    7cc0:	09 00 00 00 	sethi  %hi(0), %g4
    7cc4:	b2 06 00 18 	add  %i0, %i0, %i1
    7cc8:	05 00 00 00 	sethi  %hi(0), %g2
    7ccc:	2f 00 00 68 	sethi  %hi(0x1a000), %l7
    7cd0:	7f ff ff f7 	call  7cac <nis_print_result+0xc8>
    7cd4:	ae 05 e3 30 	add  %l7, 0x330, %l7	! 1a330 <__FRAME_END__+0x9308>
    7cd8:	86 10 e2 38 	or  %g3, 0x238, %g3
    7cdc:	88 11 22 34 	or  %g4, 0x234, %g4
    7ce0:	b0 10 20 00 	clr  %i0
    7ce4:	b4 10 20 05 	mov  5, %i2
    7ce8:	80 a0 60 2f 	cmp  %g1, 0x2f
    7cec:	18 80 00 07 	bgu  7d08 <nis_sperrno+0x54>
    7cf0:	84 10 a2 40 	or  %g2, 0x240, %g2
    7cf4:	c2 05 c0 03 	ld  [ %l7 + %g3 ], %g1
    7cf8:	c4 10 40 19 	lduh  [ %g1 + %i1 ], %g2
    7cfc:	f2 05 c0 04 	ld  [ %l7 + %g4 ], %i1
    7d00:	10 80 6a 07 	b  2251c <dcgettext@plt>
    7d04:	93 e8 80 19 	restore  %g2, %i1, %o1
    7d08:	f0 05 c0 02 	ld  [ %l7 + %g2 ], %i0
    7d0c:	81 c7 e0 08 	ret 
    7d10:	81 e8 00 00 	restore 

00007d14 <nis_perror>:
nis_perror():
    7d14:	9d e3 bf 90 	save  %sp, -112, %sp
    7d18:	03 00 00 00 	sethi  %hi(0), %g1
    7d1c:	2f 00 00 68 	sethi  %hi(0x1a000), %l7
    7d20:	7f ff ff e3 	call  7cac <nis_print_result+0xc8>
    7d24:	ae 05 e2 e0 	add  %l7, 0x2e0, %l7	! 1a2e0 <__FRAME_END__+0x92b8>
    7d28:	82 10 63 b0 	or  %g1, 0x3b0, %g1
    7d2c:	e0 05 c0 01 	ld  [ %l7 + %g1 ], %l0
    7d30:	7f ff ff e1 	call  7cb4 <nis_sperrno>
    7d34:	90 10 00 18 	mov  %i0, %o0
    7d38:	03 00 00 00 	sethi  %hi(0), %g1
    7d3c:	b4 10 00 19 	mov  %i1, %i2
    7d40:	82 10 62 44 	or  %g1, 0x244, %g1
    7d44:	f0 04 00 00 	ld  [ %l0 ], %i0
    7d48:	f2 05 c0 01 	ld  [ %l7 + %g1 ], %i1
    7d4c:	10 80 6a 69 	b  226f0 <fprintf@plt>
    7d50:	97 e8 00 08 	restore  %g0, %o0, %o3
    7d54:	01 00 00 00 	nop 

00007d58 <nis_lerror>:
nis_lerror():
    7d58:	9d e3 bf 90 	save  %sp, -112, %sp
    7d5c:	2f 00 00 68 	sethi  %hi(0x1a000), %l7
    7d60:	7f ff ff d3 	call  7cac <nis_print_result+0xc8>
    7d64:	ae 05 e2 a0 	add  %l7, 0x2a0, %l7	! 1a2a0 <__FRAME_END__+0x9278>
    7d68:	7f ff ff d3 	call  7cb4 <nis_sperrno>
    7d6c:	90 10 00 18 	mov  %i0, %o0
    7d70:	03 00 00 00 	sethi  %hi(0), %g1
    7d74:	b4 10 00 19 	mov  %i1, %i2
    7d78:	82 10 62 48 	or  %g1, 0x248, %g1
    7d7c:	f2 05 c0 01 	ld  [ %l7 + %g1 ], %i1
    7d80:	b6 10 00 08 	mov  %o0, %i3
    7d84:	10 80 69 f8 	b  22564 <syslog@plt>
    7d88:	91 e8 20 03 	restore  %g0, 3, %o0
    7d8c:	01 00 00 00 	nop 

00007d90 <nis_sperror_r>:
nis_sperror_r():
    7d90:	9d e3 bf 90 	save  %sp, -112, %sp
    7d94:	2f 00 00 68 	sethi  %hi(0x1a000), %l7
    7d98:	7f ff ff c5 	call  7cac <nis_print_result+0xc8>
    7d9c:	ae 05 e2 68 	add  %l7, 0x268, %l7	! 1a268 <__FRAME_END__+0x9240>
    7da0:	7f ff ff c5 	call  7cb4 <nis_sperrno>
    7da4:	90 10 00 18 	mov  %i0, %o0
    7da8:	03 00 00 00 	sethi  %hi(0), %g1
    7dac:	98 10 00 08 	mov  %o0, %o4
    7db0:	82 10 62 48 	or  %g1, 0x248, %g1
    7db4:	90 10 00 1a 	mov  %i2, %o0
    7db8:	92 10 00 1b 	mov  %i3, %o1
    7dbc:	96 10 00 19 	mov  %i1, %o3
    7dc0:	40 00 6a 01 	call  225c4 <snprintf@plt>
    7dc4:	d4 05 c0 01 	ld  [ %l7 + %g1 ], %o2
    7dc8:	80 a2 00 1b 	cmp  %o0, %i3
    7dcc:	0a 80 00 06 	bcs  7de4 <nis_sperror_r+0x54>
    7dd0:	b0 10 00 1a 	mov  %i2, %i0
    7dd4:	40 00 69 ea 	call  2257c <__errno_location@plt>
    7dd8:	b0 10 20 00 	clr  %i0
    7ddc:	82 10 20 22 	mov  0x22, %g1
    7de0:	c2 22 00 00 	st  %g1, [ %o0 ]
    7de4:	81 c7 e0 08 	ret 
    7de8:	81 e8 00 00 	restore 

00007dec <nis_sperror>:
nis_sperror():
    7dec:	9d e3 bf 90 	save  %sp, -112, %sp
    7df0:	03 00 00 00 	sethi  %hi(0), %g1
    7df4:	2f 00 00 68 	sethi  %hi(0x1a000), %l7
    7df8:	7f ff ff ad 	call  7cac <nis_print_result+0xc8>
    7dfc:	ae 05 e2 08 	add  %l7, 0x208, %l7	! 1a208 <__FRAME_END__+0x91e0>
    7e00:	82 10 62 3c 	or  %g1, 0x23c, %g1
    7e04:	f4 05 c0 01 	ld  [ %l7 + %g1 ], %i2
    7e08:	10 bf ff e2 	b  7d90 <nis_sperror_r>
    7e0c:	97 e8 24 01 	restore  %g0, 0x401, %o3
    7e10:	01 00 00 00 	nop 
    7e14:	00 00 06 d4 	unimp  0x6d4
    7e18:	00 00 06 f8 	unimp  0x6f8
    7e1c:	00 00 06 f8 	unimp  0x6f8
    7e20:	00 00 06 f8 	unimp  0x6f8
    7e24:	00 00 06 f8 	unimp  0x6f8
    7e28:	00 00 06 a0 	unimp  0x6a0
    7e2c:	00 00 06 f8 	unimp  0x6f8
    7e30:	00 00 06 f8 	unimp  0x6f8
    7e34:	00 00 06 f8 	unimp  0x6f8
    7e38:	00 00 06 f8 	unimp  0x6f8
    7e3c:	00 00 06 f8 	unimp  0x6f8
    7e40:	00 00 06 d4 	unimp  0x6d4
    7e44:	00 00 06 f8 	unimp  0x6f8
    7e48:	00 00 06 d4 	unimp  0x6d4
    7e4c:	00 00 06 d4 	unimp  0x6d4
    7e50:	00 00 06 f8 	unimp  0x6f8
    7e54:	00 00 06 f8 	unimp  0x6f8
    7e58:	00 00 09 f0 	unimp  0x9f0
    7e5c:	00 00 08 2c 	unimp  0x82c
    7e60:	00 00 08 fc 	unimp  0x8fc
    7e64:	00 00 08 2c 	unimp  0x82c
    7e68:	00 00 08 14 	unimp  0x814

00007e6c <inetstr2int>:
inetstr2int():
    7e6c:	9d e3 bf 90 	save  %sp, -112, %sp
    7e70:	c2 4e 00 00 	ldsb  [ %i0 ], %g1
    7e74:	80 a0 60 00 	cmp  %g1, 0
    7e78:	92 10 00 18 	mov  %i0, %o1
    7e7c:	86 10 20 00 	clr  %g3
    7e80:	84 10 20 00 	clr  %g2
    7e84:	02 80 00 0c 	be  7eb4 <inetstr2int+0x48>
    7e88:	c2 0e 00 00 	ldub  [ %i0 ], %g1
    7e8c:	83 28 60 18 	sll  %g1, 0x18, %g1
    7e90:	83 38 60 18 	sra  %g1, 0x18, %g1
    7e94:	80 a0 60 2e 	cmp  %g1, 0x2e
    7e98:	22 80 00 0a 	be,a   7ec0 <inetstr2int+0x54>
    7e9c:	86 00 e0 01 	inc  %g3
    7ea0:	84 00 a0 01 	inc  %g2
    7ea4:	c2 4a 40 02 	ldsb  [ %o1 + %g2 ], %g1
    7ea8:	80 a0 60 00 	cmp  %g1, 0
    7eac:	12 bf ff f8 	bne  7e8c <inetstr2int+0x20>
    7eb0:	c2 0a 40 02 	ldub  [ %o1 + %g2 ], %g1
    7eb4:	40 00 6a 06 	call  226cc <inet_addr@plt>
    7eb8:	90 10 00 09 	mov  %o1, %o0
    7ebc:	30 80 00 0f 	b,a   7ef8 <inetstr2int+0x8c>
    7ec0:	80 a0 e0 04 	cmp  %g3, 4
    7ec4:	32 bf ff f8 	bne,a   7ea4 <inetstr2int+0x38>
    7ec8:	84 00 a0 01 	inc  %g2
    7ecc:	82 00 a0 08 	add  %g2, 8, %g1
    7ed0:	82 08 7f f8 	and  %g1, -8, %g1
    7ed4:	a0 10 00 0e 	mov  %sp, %l0
    7ed8:	9c 23 80 01 	sub  %sp, %g1, %sp
    7edc:	90 03 a0 60 	add  %sp, 0x60, %o0
    7ee0:	94 10 00 02 	mov  %g2, %o2
    7ee4:	40 00 6a 1b 	call  22750 <memcpy@plt>
    7ee8:	c0 2a 00 02 	clrb  [ %o0 + %g2 ]
    7eec:	40 00 69 f8 	call  226cc <inet_addr@plt>
    7ef0:	01 00 00 00 	nop 
    7ef4:	9c 10 00 10 	mov  %l0, %sp
    7ef8:	81 c7 e0 08 	ret 
    7efc:	91 e8 00 08 	restore  %g0, %o0, %o0

00007f00 <__nisbind_destroy>:
__nisbind_destroy():
    7f00:	9d e3 bf 90 	save  %sp, -112, %sp
    7f04:	d0 06 00 00 	ld  [ %i0 ], %o0
    7f08:	80 a2 20 00 	cmp  %o0, 0
    7f0c:	02 80 00 14 	be  7f5c <__nisbind_destroy+0x5c>
    7f10:	01 00 00 00 	nop 
    7f14:	c2 06 20 20 	ld  [ %i0 + 0x20 ], %g1
    7f18:	80 a0 60 00 	cmp  %g1, 0
    7f1c:	32 80 00 07 	bne,a   7f38 <__nisbind_destroy+0x38>
    7f20:	d0 02 00 00 	ld  [ %o0 ], %o0
    7f24:	c2 02 20 04 	ld  [ %o0 + 4 ], %g1
    7f28:	c4 00 60 10 	ld  [ %g1 + 0x10 ], %g2
    7f2c:	9f c0 80 00 	call  %g2
    7f30:	01 00 00 00 	nop 
    7f34:	30 80 00 0a 	b,a   7f5c <__nisbind_destroy+0x5c>
    7f38:	c4 02 20 20 	ld  [ %o0 + 0x20 ], %g2
    7f3c:	c2 00 a0 10 	ld  [ %g2 + 0x10 ], %g1
    7f40:	9f c0 40 00 	call  %g1
    7f44:	01 00 00 00 	nop 
    7f48:	d0 06 00 00 	ld  [ %i0 ], %o0
    7f4c:	c2 02 20 04 	ld  [ %o0 + 4 ], %g1
    7f50:	c4 00 60 10 	ld  [ %g1 + 0x10 ], %g2
    7f54:	9f c0 80 00 	call  %g2
    7f58:	01 00 00 00 	nop 
    7f5c:	01 00 00 00 	nop 
    7f60:	81 c7 e0 08 	ret 
    7f64:	81 e8 00 00 	restore 
    7f68:	81 c3 e0 08 	retl 
    7f6c:	ae 03 c0 17 	add  %o7, %l7, %l7

00007f70 <__nisbind_next>:
__nisbind_next():
    7f70:	9d e3 bf 90 	save  %sp, -112, %sp
    7f74:	d0 06 00 00 	ld  [ %i0 ], %o0
    7f78:	2f 00 00 68 	sethi  %hi(0x1a000), %l7
    7f7c:	7f ff ff fb 	call  7f68 <__nisbind_destroy+0x68>
    7f80:	ae 05 e0 84 	add  %l7, 0x84, %l7	! 1a084 <__FRAME_END__+0x905c>
    7f84:	80 a2 20 00 	cmp  %o0, 0
    7f88:	02 80 00 0b 	be  7fb4 <__nisbind_next+0x44>
    7f8c:	ba 10 00 18 	mov  %i0, %i5
    7f90:	c2 06 20 20 	ld  [ %i0 + 0x20 ], %g1
    7f94:	80 a0 60 00 	cmp  %g1, 0
    7f98:	32 80 00 5e 	bne,a   8110 <__nisbind_next+0x1a0>
    7f9c:	d0 02 00 00 	ld  [ %o0 ], %o0
    7fa0:	c2 02 20 04 	ld  [ %o0 + 4 ], %g1
    7fa4:	c4 00 60 10 	ld  [ %g1 + 0x10 ], %g2
    7fa8:	9f c0 80 00 	call  %g2
    7fac:	01 00 00 00 	nop 
    7fb0:	c0 27 40 00 	clr  [ %i5 ]
    7fb4:	f8 07 60 14 	ld  [ %i5 + 0x14 ], %i4
    7fb8:	f6 07 60 08 	ld  [ %i5 + 8 ], %i3
    7fbc:	80 a7 00 1b 	cmp  %i4, %i3
    7fc0:	1a 80 00 62 	bcc  8148 <__nisbind_next+0x1d8>
    7fc4:	b0 10 20 28 	mov  0x28, %i0
    7fc8:	ea 07 60 0c 	ld  [ %i5 + 0xc ], %l5
    7fcc:	82 05 40 15 	add  %l5, %l5, %g1
    7fd0:	88 00 40 15 	add  %g1, %l5, %g4
    7fd4:	e8 07 60 04 	ld  [ %i5 + 4 ], %l4
    7fd8:	83 29 20 03 	sll  %g4, 3, %g1
    7fdc:	82 05 00 01 	add  %l4, %g1, %g1
    7fe0:	c4 07 60 10 	ld  [ %i5 + 0x10 ], %g2
    7fe4:	a0 00 a0 01 	add  %g2, 1, %l0
    7fe8:	c6 00 60 04 	ld  [ %g1 + 4 ], %g3
    7fec:	80 a0 c0 10 	cmp  %g3, %l0
    7ff0:	08 80 00 1c 	bleu  8060 <__nisbind_next+0xf0>
    7ff4:	82 04 00 10 	add  %l0, %l0, %g1
    7ff8:	82 00 40 10 	add  %g1, %l0, %g1
    7ffc:	05 00 00 00 	sethi  %hi(0), %g2
    8000:	b0 10 a2 54 	or  %g2, 0x254, %i0	! 254 <GLIBC_2.0+0x254>
    8004:	a3 28 60 02 	sll  %g1, 2, %l1
    8008:	ac 10 00 04 	mov  %g4, %l6
    800c:	83 29 20 03 	sll  %g4, 3, %g1
    8010:	a6 05 00 01 	add  %l4, %g1, %l3
    8014:	c4 04 e0 08 	ld  [ %l3 + 8 ], %g2
    8018:	a4 00 80 11 	add  %g2, %l1, %l2
    801c:	d0 04 a0 04 	ld  [ %l2 + 4 ], %o0
    8020:	40 00 69 2d 	call  224d4 <strcmp@plt>
    8024:	d2 05 c0 18 	ld  [ %l7 + %i0 ], %o1
    8028:	a2 04 60 0c 	add  %l1, 0xc, %l1
    802c:	80 a2 20 00 	cmp  %o0, 0
    8030:	12 80 00 07 	bne  804c <__nisbind_next+0xdc>
    8034:	88 10 00 16 	mov  %l6, %g4
    8038:	c2 04 a0 08 	ld  [ %l2 + 8 ], %g1
    803c:	c4 48 40 00 	ldsb  [ %g1 ], %g2
    8040:	80 a0 a0 2d 	cmp  %g2, 0x2d
    8044:	22 80 00 40 	be,a   8144 <__nisbind_next+0x1d4>
    8048:	e0 27 60 10 	st  %l0, [ %i5 + 0x10 ]
    804c:	a0 04 20 01 	inc  %l0
    8050:	c2 04 e0 04 	ld  [ %l3 + 4 ], %g1
    8054:	80 a0 40 10 	cmp  %g1, %l0
    8058:	18 bf ff ee 	bgu  8010 <__nisbind_next+0xa0>
    805c:	83 29 20 03 	sll  %g4, 3, %g1
    8060:	82 07 20 01 	add  %i4, 1, %g1
    8064:	84 05 60 01 	add  %l5, 1, %g2
    8068:	80 a0 80 1b 	cmp  %g2, %i3
    806c:	0a 80 00 27 	bcs  8108 <__nisbind_next+0x198>
    8070:	c2 27 60 14 	st  %g1, [ %i5 + 0x14 ]
    8074:	c0 27 60 0c 	clr  [ %i5 + 0xc ]
    8078:	ea 07 60 0c 	ld  [ %i5 + 0xc ], %l5
    807c:	82 05 40 15 	add  %l5, %l5, %g1
    8080:	86 00 40 15 	add  %g1, %l5, %g3
    8084:	85 28 e0 03 	sll  %g3, 3, %g2
    8088:	84 05 00 02 	add  %l4, %g2, %g2
    808c:	c2 00 a0 04 	ld  [ %g2 + 4 ], %g1
    8090:	80 a0 60 00 	cmp  %g1, 0
    8094:	08 80 00 1b 	bleu  8100 <__nisbind_next+0x190>
    8098:	a6 10 20 00 	clr  %l3
    809c:	2b 00 00 00 	sethi  %hi(0), %l5
    80a0:	aa 15 62 54 	or  %l5, 0x254, %l5	! 254 <GLIBC_2.0+0x254>
    80a4:	ac 10 00 03 	mov  %g3, %l6
    80a8:	a4 10 20 00 	clr  %l2
    80ac:	83 28 e0 03 	sll  %g3, 3, %g1
    80b0:	a2 05 00 01 	add  %l4, %g1, %l1
    80b4:	c4 04 60 08 	ld  [ %l1 + 8 ], %g2
    80b8:	a0 00 80 12 	add  %g2, %l2, %l0
    80bc:	d0 04 20 04 	ld  [ %l0 + 4 ], %o0
    80c0:	40 00 69 05 	call  224d4 <strcmp@plt>
    80c4:	d2 05 c0 15 	ld  [ %l7 + %l5 ], %o1
    80c8:	a4 04 a0 0c 	add  %l2, 0xc, %l2
    80cc:	80 a2 20 00 	cmp  %o0, 0
    80d0:	12 80 00 07 	bne  80ec <__nisbind_next+0x17c>
    80d4:	86 10 00 16 	mov  %l6, %g3
    80d8:	c2 04 20 08 	ld  [ %l0 + 8 ], %g1
    80dc:	c4 48 40 00 	ldsb  [ %g1 ], %g2
    80e0:	80 a0 a0 2d 	cmp  %g2, 0x2d
    80e4:	22 80 00 16 	be,a   813c <__nisbind_next+0x1cc>
    80e8:	e6 27 60 10 	st  %l3, [ %i5 + 0x10 ]
    80ec:	a6 04 e0 01 	inc  %l3
    80f0:	c2 04 60 04 	ld  [ %l1 + 4 ], %g1
    80f4:	80 a0 40 13 	cmp  %g1, %l3
    80f8:	18 bf ff ee 	bgu  80b0 <__nisbind_next+0x140>
    80fc:	83 28 e0 03 	sll  %g3, 3, %g1
    8100:	10 80 00 12 	b  8148 <__nisbind_next+0x1d8>
    8104:	b0 10 20 28 	mov  0x28, %i0
    8108:	10 bf ff dc 	b  8078 <__nisbind_next+0x108>
    810c:	c4 27 60 0c 	st  %g2, [ %i5 + 0xc ]
    8110:	c2 02 20 20 	ld  [ %o0 + 0x20 ], %g1
    8114:	c4 00 60 10 	ld  [ %g1 + 0x10 ], %g2
    8118:	9f c0 80 00 	call  %g2
    811c:	01 00 00 00 	nop 
    8120:	d0 06 00 00 	ld  [ %i0 ], %o0
    8124:	c2 02 20 04 	ld  [ %o0 + 4 ], %g1
    8128:	c4 00 60 10 	ld  [ %g1 + 0x10 ], %g2
    812c:	9f c0 80 00 	call  %g2
    8130:	01 00 00 00 	nop 
    8134:	10 bf ff a0 	b  7fb4 <__nisbind_next+0x44>
    8138:	c0 27 40 00 	clr  [ %i5 ]
    813c:	10 80 00 03 	b  8148 <__nisbind_next+0x1d8>
    8140:	b0 10 20 00 	clr  %i0
    8144:	b0 10 20 00 	clr  %i0
    8148:	81 c7 e0 08 	ret 
    814c:	81 e8 00 00 	restore 

00008150 <__nisbind_connect>:
__nisbind_connect():
    8150:	9d e3 be 88 	save  %sp, -376, %sp
    8154:	2f 00 00 67 	sethi  %hi(0x19c00), %l7
    8158:	7f ff ff 84 	call  7f68 <__nisbind_destroy+0x68>
    815c:	ae 05 e2 a8 	add  %l7, 0x2a8, %l7	! 19ea8 <__FRAME_END__+0x8e80>
    8160:	80 a6 20 00 	cmp  %i0, 0
    8164:	02 80 00 82 	be  836c <__nisbind_connect+0x21c>
    8168:	82 10 20 28 	mov  0x28, %g1
    816c:	c4 06 20 0c 	ld  [ %i0 + 0xc ], %g2
    8170:	82 00 80 02 	add  %g2, %g2, %g1
    8174:	c8 06 20 10 	ld  [ %i0 + 0x10 ], %g4
    8178:	82 00 40 02 	add  %g1, %g2, %g1
    817c:	c6 06 20 04 	ld  [ %i0 + 4 ], %g3
    8180:	83 28 60 03 	sll  %g1, 3, %g1
    8184:	84 01 00 04 	add  %g4, %g4, %g2
    8188:	c0 26 20 28 	clr  [ %i0 + 0x28 ]
    818c:	c0 26 20 2c 	clr  [ %i0 + 0x2c ]
    8190:	c0 26 20 30 	clr  [ %i0 + 0x30 ]
    8194:	c0 26 20 34 	clr  [ %i0 + 0x34 ]
    8198:	a4 00 c0 01 	add  %g3, %g1, %l2
    819c:	84 00 80 04 	add  %g2, %g4, %g2
    81a0:	82 10 20 02 	mov  2, %g1
    81a4:	85 28 a0 02 	sll  %g2, 2, %g2
    81a8:	c6 04 a0 08 	ld  [ %l2 + 8 ], %g3
    81ac:	c2 36 20 28 	sth  %g1, [ %i0 + 0x28 ]
    81b0:	7f ff ff 2f 	call  7e6c <inetstr2int>
    81b4:	d0 00 c0 02 	ld  [ %g3 + %g2 ], %o0
    81b8:	80 a2 3f ff 	cmp  %o0, -1
    81bc:	d0 26 20 2c 	st  %o0, [ %i0 + 0x2c ]
    81c0:	02 80 00 6b 	be  836c <__nisbind_connect+0x21c>
    81c4:	82 10 20 28 	mov  0x28, %g1
    81c8:	a0 06 20 28 	add  %i0, 0x28, %l0
    81cc:	23 00 00 61 	sethi  %hi(0x18400), %l1
    81d0:	90 10 00 10 	mov  %l0, %o0
    81d4:	92 14 63 cc 	or  %l1, 0x3cc, %o1
    81d8:	94 10 20 03 	mov  3, %o2
    81dc:	40 00 16 b8 	call  dcbc <__pmap_getnisport>
    81e0:	96 10 20 11 	mov  0x11, %o3
    81e4:	91 2a 20 10 	sll  %o0, 0x10, %o0
    81e8:	80 a2 20 00 	cmp  %o0, 0
    81ec:	02 80 00 60 	be  836c <__nisbind_connect+0x21c>
    81f0:	82 10 20 1c 	mov  0x1c, %g1
    81f4:	c4 06 20 24 	ld  [ %i0 + 0x24 ], %g2
    81f8:	82 10 3f ff 	mov  -1, %g1
    81fc:	80 a0 a0 00 	cmp  %g2, 0
    8200:	12 80 00 29 	bne  82a4 <__nisbind_connect+0x154>
    8204:	c2 26 20 38 	st  %g1, [ %i0 + 0x38 ]
    8208:	90 10 00 10 	mov  %l0, %o0
    820c:	92 14 63 cc 	or  %l1, 0x3cc, %o1
    8210:	94 10 20 03 	mov  3, %o2
    8214:	96 06 20 38 	add  %i0, 0x38, %o3
    8218:	98 10 20 00 	clr  %o4
    821c:	40 00 68 8d 	call  22450 <clnttcp_create@plt>
    8220:	9a 10 20 00 	clr  %o5
    8224:	d0 26 00 00 	st  %o0, [ %i0 ]
    8228:	80 a2 20 00 	cmp  %o0, 0
    822c:	02 80 00 50 	be  836c <__nisbind_connect+0x21c>
    8230:	82 10 20 1c 	mov  0x1c, %g1
    8234:	03 00 00 00 	sethi  %hi(0), %g1
    8238:	82 10 62 4c 	or  %g1, 0x24c, %g1	! 24c <GLIBC_2.0+0x24c>
    823c:	c4 02 20 04 	ld  [ %o0 + 4 ], %g2
    8240:	d4 05 c0 01 	ld  [ %l7 + %g1 ], %o2
    8244:	c6 00 a0 14 	ld  [ %g2 + 0x14 ], %g3
    8248:	9f c0 c0 00 	call  %g3
    824c:	92 10 20 01 	mov  1, %o1
    8250:	d0 06 20 38 	ld  [ %i0 + 0x38 ], %o0
    8254:	92 10 20 02 	mov  2, %o1
    8258:	40 00 69 3b 	call  22744 <fcntl@plt>
    825c:	94 10 20 01 	mov  1, %o2
    8260:	80 a2 3f ff 	cmp  %o0, -1
    8264:	02 80 00 1f 	be  82e0 <__nisbind_connect+0x190>
    8268:	03 00 00 00 	sethi  %hi(0), %g1
    826c:	c2 06 20 20 	ld  [ %i0 + 0x20 ], %g1
    8270:	80 a0 60 00 	cmp  %g1, 0
    8274:	02 80 00 3e 	be  836c <__nisbind_connect+0x21c>
    8278:	82 10 20 00 	clr  %g1
    827c:	c2 04 a0 0c 	ld  [ %l2 + 0xc ], %g1
    8280:	80 a0 60 01 	cmp  %g1, 1
    8284:	22 80 00 1c 	be,a   82f4 <__nisbind_connect+0x1a4>
    8288:	03 1d 5b 9a 	sethi  %hi(0x756e6800), %g1
    828c:	e0 06 00 00 	ld  [ %i0 ], %l0
    8290:	40 00 69 1b 	call  226fc <authunix_create_default@plt>
    8294:	01 00 00 00 	nop 
    8298:	d0 24 00 00 	st  %o0, [ %l0 ]
    829c:	10 80 00 34 	b  836c <__nisbind_connect+0x21c>
    82a0:	82 10 20 00 	clr  %g1
    82a4:	03 00 00 00 	sethi  %hi(0), %g1
    82a8:	82 10 62 50 	or  %g1, 0x250, %g1	! 250 <GLIBC_2.0+0x250>
    82ac:	c4 05 c0 01 	ld  [ %l7 + %g1 ], %g2
    82b0:	c6 00 a0 04 	ld  [ %g2 + 4 ], %g3
    82b4:	c2 00 80 00 	ld  [ %g2 ], %g1
    82b8:	c2 27 bf e8 	st  %g1, [ %fp + -24 ]
    82bc:	c6 27 bf ec 	st  %g3, [ %fp + -20 ]
    82c0:	90 10 00 10 	mov  %l0, %o0
    82c4:	92 14 63 cc 	or  %l1, 0x3cc, %o1
    82c8:	94 10 20 03 	mov  3, %o2
    82cc:	96 07 bf e8 	add  %fp, -24, %o3
    82d0:	40 00 68 f9 	call  226b4 <clntudp_create@plt>
    82d4:	98 06 20 38 	add  %i0, 0x38, %o4
    82d8:	10 bf ff d4 	b  8228 <__nisbind_connect+0xd8>
    82dc:	d0 26 00 00 	st  %o0, [ %i0 ]
    82e0:	82 10 62 58 	or  %g1, 0x258, %g1
    82e4:	40 00 68 85 	call  224f8 <perror@plt>
    82e8:	d0 05 c0 01 	ld  [ %l7 + %g1 ], %o0
    82ec:	10 bf ff e1 	b  8270 <__nisbind_connect+0x120>
    82f0:	c2 06 20 20 	ld  [ %i0 + 0x20 ], %g1
    82f4:	05 00 00 0b 	sethi  %hi(0x2c00), %g2
    82f8:	82 10 61 78 	or  %g1, 0x178, %g1
    82fc:	84 10 a2 00 	or  %g2, 0x200, %g2
    8300:	c2 27 be e8 	st  %g1, [ %fp + -280 ]
    8304:	c4 37 be ec 	sth  %g2, [ %fp + -276 ]
    8308:	94 10 20 fa 	mov  0xfa, %o2
    830c:	d2 04 80 00 	ld  [ %l2 ], %o1
    8310:	40 00 69 43 	call  2281c <strncpy@plt>
    8314:	90 07 be ed 	add  %fp, -275, %o0
    8318:	a0 07 be e8 	add  %fp, -280, %l0
    831c:	92 10 20 2e 	mov  0x2e, %o1
    8320:	90 10 00 10 	mov  %l0, %o0
    8324:	40 00 68 51 	call  22468 <strchr@plt>
    8328:	c0 2f bf e7 	clrb  [ %fp + -25 ]
    832c:	82 10 20 40 	mov  0x40, %g1
    8330:	c2 2a 00 00 	stb  %g1, [ %o0 ]
    8334:	90 10 00 10 	mov  %l0, %o0
    8338:	e0 06 00 00 	ld  [ %i0 ], %l0
    833c:	92 04 a0 10 	add  %l2, 0x10, %o1
    8340:	94 10 21 2c 	mov  0x12c, %o2
    8344:	96 10 20 00 	clr  %o3
    8348:	40 00 68 cc 	call  22678 <authdes_pk_create@plt>
    834c:	98 10 20 00 	clr  %o4
    8350:	d0 24 00 00 	st  %o0, [ %l0 ]
    8354:	e0 06 00 00 	ld  [ %i0 ], %l0
    8358:	c2 04 00 00 	ld  [ %l0 ], %g1
    835c:	80 a0 60 00 	cmp  %g1, 0
    8360:	32 80 00 03 	bne,a   836c <__nisbind_connect+0x21c>
    8364:	82 10 20 00 	clr  %g1
    8368:	30 bf ff ca 	b,a   8290 <__nisbind_connect+0x140>
    836c:	81 c7 e0 08 	ret 
    8370:	91 e8 00 01 	restore  %g0, %g1, %o0

00008374 <__nisbind_create>:
__nisbind_create():
    8374:	9d e3 bf 90 	save  %sp, -112, %sp
    8378:	03 00 00 40 	sethi  %hi(0x10000), %g1
    837c:	90 10 00 18 	mov  %i0, %o0
    8380:	f4 26 20 08 	st  %i2, [ %i0 + 8 ]
    8384:	f2 26 20 04 	st  %i1, [ %i0 + 4 ]
    8388:	80 8e c0 01 	btst  %i3, %g1
    838c:	02 80 00 0e 	be  83c4 <__nisbind_create+0x50>
    8390:	c0 26 00 00 	clr  [ %i0 ]
    8394:	82 10 20 01 	mov  1, %g1
    8398:	c2 26 20 24 	st  %g1, [ %i0 + 0x24 ]
    839c:	03 00 00 80 	sethi  %hi(0x20000), %g1
    83a0:	80 8e c0 01 	btst  %i3, %g1
    83a4:	02 80 00 0d 	be  83d8 <__nisbind_create+0x64>
    83a8:	82 10 20 01 	mov  1, %g1
    83ac:	80 8e e0 20 	btst  0x20, %i3
    83b0:	02 80 00 0d 	be  83e4 <__nisbind_create+0x70>
    83b4:	c0 22 20 20 	clr  [ %o0 + 0x20 ]
    83b8:	82 10 20 01 	mov  1, %g1
    83bc:	10 80 00 0c 	b  83ec <__nisbind_create+0x78>
    83c0:	c2 22 20 1c 	st  %g1, [ %o0 + 0x1c ]
    83c4:	03 00 00 80 	sethi  %hi(0x20000), %g1
    83c8:	80 8e c0 01 	btst  %i3, %g1
    83cc:	12 bf ff f8 	bne  83ac <__nisbind_create+0x38>
    83d0:	c0 26 20 24 	clr  [ %i0 + 0x24 ]
    83d4:	82 10 20 01 	mov  1, %g1
    83d8:	80 8e e0 20 	btst  0x20, %i3
    83dc:	12 bf ff f7 	bne  83b8 <__nisbind_create+0x44>
    83e0:	c2 22 20 20 	st  %g1, [ %o0 + 0x20 ]
    83e4:	c0 22 20 1c 	clr  [ %o0 + 0x1c ]
    83e8:	82 10 20 01 	mov  1, %g1
    83ec:	84 10 3f ff 	mov  -1, %g2
    83f0:	c2 22 20 14 	st  %g1, [ %o0 + 0x14 ]
    83f4:	40 00 16 83 	call  de00 <__nis_findfastest>
    83f8:	c4 22 20 18 	st  %g2, [ %o0 + 0x18 ]
    83fc:	b1 3a 20 1f 	sra  %o0, 0x1f, %i0
    8400:	b0 26 00 08 	sub  %i0, %o0, %i0
    8404:	b1 3e 20 1f 	sra  %i0, 0x1f, %i0
    8408:	b0 0e 3f fb 	and  %i0, -5, %i0
    840c:	81 c7 e0 08 	ret 
    8410:	91 ee 20 05 	restore  %i0, 5, %o0

00008414 <__do_niscall3>:
__do_niscall3():
    8414:	9d e3 bf 80 	save  %sp, -128, %sp
    8418:	a0 96 20 00 	orcc  %i0, 0, %l0
    841c:	2f 00 00 66 	sethi  %hi(0x19800), %l7
    8420:	7f ff fe d2 	call  7f68 <__nisbind_destroy+0x68>
    8424:	ae 05 e3 e0 	add  %l7, 0x3e0, %l7	! 19be0 <__FRAME_END__+0x8bb8>
    8428:	e6 07 a0 5c 	ld  [ %fp + 0x5c ], %l3
    842c:	e8 07 a0 60 	ld  [ %fp + 0x60 ], %l4
    8430:	02 80 00 52 	be  8578 <__do_niscall3+0x164>
    8434:	b0 10 20 05 	mov  5, %i0
    8438:	23 00 00 00 	sethi  %hi(0), %l1
    843c:	a4 07 bf e8 	add  %fp, -24, %l2
    8440:	82 14 62 4c 	or  %l1, 0x24c, %g1
    8444:	d0 04 00 00 	ld  [ %l0 ], %o0
    8448:	c4 05 c0 01 	ld  [ %l7 + %g1 ], %g2
    844c:	c8 02 20 04 	ld  [ %o0 + 4 ], %g4
    8450:	c2 00 80 00 	ld  [ %g2 ], %g1
    8454:	c6 00 a0 04 	ld  [ %g2 + 4 ], %g3
    8458:	e4 23 a0 5c 	st  %l2, [ %sp + 0x5c ]
    845c:	c2 27 bf e8 	st  %g1, [ %fp + -24 ]
    8460:	c6 27 bf ec 	st  %g3, [ %fp + -20 ]
    8464:	c2 01 00 00 	ld  [ %g4 ], %g1
    8468:	92 10 00 19 	mov  %i1, %o1
    846c:	94 10 00 1a 	mov  %i2, %o2
    8470:	96 10 00 1b 	mov  %i3, %o3
    8474:	98 10 00 1c 	mov  %i4, %o4
    8478:	9f c0 40 00 	call  %g1
    847c:	9a 10 00 1d 	mov  %i5, %o5
    8480:	80 a2 20 00 	cmp  %o0, 0
    8484:	12 80 00 1a 	bne  84ec <__do_niscall3+0xd8>
    8488:	b0 10 20 1c 	mov  0x1c, %i0
    848c:	80 a6 60 10 	cmp  %i1, 0x10
    8490:	38 80 00 17 	bgu,a   84ec <__do_niscall3+0xd8>
    8494:	b0 10 20 00 	clr  %i0
    8498:	03 00 00 68 	sethi  %hi(0x1a000), %g1
    849c:	82 10 61 ec 	or  %g1, 0x1ec, %g1	! 1a1ec <__FRAME_END__+0x91c4>
    84a0:	86 25 c0 01 	sub  %l7, %g1, %g3
    84a4:	85 2e 60 02 	sll  %i1, 2, %g2
    84a8:	c2 00 c0 02 	ld  [ %g3 + %g2 ], %g1
    84ac:	81 c0 40 03 	jmp  %g1 + %g3
    84b0:	01 00 00 00 	nop 
    84b4:	c8 07 40 00 	ld  [ %i5 ], %g4
    84b8:	82 19 20 13 	xor  %g4, 0x13, %g1
    84bc:	80 a0 00 01 	cmp  %g0, %g1
    84c0:	84 60 3f ff 	subx  %g0, -1, %g2
    84c4:	80 a0 00 14 	cmp  %g0, %l4
    84c8:	82 40 20 00 	addx  %g0, 0, %g1
    84cc:	80 88 80 01 	btst  %g2, %g1
    84d0:	02 80 00 11 	be  8514 <__do_niscall3+0x100>
    84d4:	82 19 20 08 	xor  %g4, 8, %g1
    84d8:	90 10 00 10 	mov  %l0, %o0
    84dc:	92 07 60 0c 	add  %i5, 0xc, %o1
    84e0:	40 00 18 39 	call  e5c4 <__nis_do_callback>
    84e4:	94 10 00 14 	mov  %l4, %o2
    84e8:	b0 10 20 00 	clr  %i0
    84ec:	82 1e 20 1c 	xor  %i0, 0x1c, %g1
    84f0:	80 a0 00 01 	cmp  %g0, %g1
    84f4:	84 60 3f ff 	subx  %g0, -1, %g2
    84f8:	83 34 e0 02 	srl  %l3, 2, %g1
    84fc:	80 88 40 02 	btst  %g1, %g2
    8500:	12 bf ff d1 	bne  8444 <__do_niscall3+0x30>
    8504:	82 14 62 4c 	or  %l1, 0x24c, %g1
    8508:	30 80 00 1c 	b,a   8578 <__do_niscall3+0x164>
    850c:	c8 07 40 00 	ld  [ %i5 ], %g4
    8510:	82 19 20 08 	xor  %g4, 8, %g1
    8514:	80 a0 00 01 	cmp  %g0, %g1
    8518:	86 60 3f ff 	subx  %g0, -1, %g3
    851c:	82 19 20 14 	xor  %g4, 0x14, %g1
    8520:	80 a0 00 01 	cmp  %g0, %g1
    8524:	84 60 3f ff 	subx  %g0, -1, %g2
    8528:	80 90 c0 02 	orcc  %g3, %g2, %g0
    852c:	12 80 00 04 	bne  853c <__do_niscall3+0x128>
    8530:	80 a1 20 0c 	cmp  %g4, 0xc
    8534:	12 bf ff ee 	bne  84ec <__do_niscall3+0xd8>
    8538:	b0 10 20 00 	clr  %i0
    853c:	7f ff fe 8d 	call  7f70 <__nisbind_next>
    8540:	90 10 00 10 	mov  %l0, %o0
    8544:	80 a2 20 00 	cmp  %o0, 0
    8548:	12 bf ff e9 	bne  84ec <__do_niscall3+0xd8>
    854c:	b0 10 20 00 	clr  %i0
    8550:	7f ff ff 00 	call  8150 <__nisbind_connect>
    8554:	90 10 00 10 	mov  %l0, %o0
    8558:	80 a2 20 00 	cmp  %o0, 0
    855c:	02 bf ff ba 	be  8444 <__do_niscall3+0x30>
    8560:	82 14 62 4c 	or  %l1, 0x24c, %g1
    8564:	7f ff fe 83 	call  7f70 <__nisbind_next>
    8568:	90 10 00 10 	mov  %l0, %o0
    856c:	80 a2 20 00 	cmp  %o0, 0
    8570:	02 bf ff f8 	be  8550 <__do_niscall3+0x13c>
    8574:	b0 10 20 00 	clr  %i0
    8578:	81 c7 e0 08 	ret 
    857c:	81 e8 00 00 	restore 

00008580 <__do_niscall2>:
__do_niscall2():
    8580:	9d e3 bf 48 	save  %sp, -184, %sp
    8584:	e2 07 a0 60 	ld  [ %fp + 0x60 ], %l1
    8588:	92 10 00 18 	mov  %i0, %o1
    858c:	80 8c 60 20 	btst  0x20, %l1
    8590:	02 80 00 03 	be  859c <__do_niscall2+0x1c>
    8594:	94 10 00 19 	mov  %i1, %o2
    8598:	94 10 20 01 	mov  1, %o2
    859c:	a0 07 bf b0 	add  %fp, -80, %l0
    85a0:	90 10 00 10 	mov  %l0, %o0
    85a4:	7f ff ff 74 	call  8374 <__nisbind_create>
    85a8:	96 10 00 11 	mov  %l1, %o3
    85ac:	90 92 20 00 	orcc  %o0, 0, %o0
    85b0:	12 80 00 1b 	bne  861c <__do_niscall2+0x9c>
    85b4:	01 00 00 00 	nop 
    85b8:	7f ff fe e6 	call  8150 <__nisbind_connect>
    85bc:	90 10 00 10 	mov  %l0, %o0
    85c0:	80 a2 20 00 	cmp  %o0, 0
    85c4:	02 80 00 09 	be  85e8 <__do_niscall2+0x68>
    85c8:	90 10 00 10 	mov  %l0, %o0
    85cc:	7f ff fe 69 	call  7f70 <__nisbind_next>
    85d0:	01 00 00 00 	nop 
    85d4:	80 a2 20 00 	cmp  %o0, 0
    85d8:	02 bf ff f8 	be  85b8 <__do_niscall2+0x38>
    85dc:	01 00 00 00 	nop 
    85e0:	10 80 00 0f 	b  861c <__do_niscall2+0x9c>
    85e4:	90 10 20 05 	mov  5, %o0	! 5 <GLIBC_2.0+0x5>
    85e8:	c2 07 a0 64 	ld  [ %fp + 0x64 ], %g1
    85ec:	c2 23 a0 60 	st  %g1, [ %sp + 0x60 ]
    85f0:	92 10 00 1a 	mov  %i2, %o1
    85f4:	94 10 00 1b 	mov  %i3, %o2
    85f8:	96 10 00 1c 	mov  %i4, %o3
    85fc:	98 10 00 1d 	mov  %i5, %o4
    8600:	da 07 a0 5c 	ld  [ %fp + 0x5c ], %o5
    8604:	7f ff ff 84 	call  8414 <__do_niscall3>
    8608:	e2 23 a0 5c 	st  %l1, [ %sp + 0x5c ]
    860c:	b0 10 00 08 	mov  %o0, %i0
    8610:	7f ff fe 3c 	call  7f00 <__nisbind_destroy>
    8614:	90 10 00 10 	mov  %l0, %o0
    8618:	90 10 00 18 	mov  %i0, %o0
    861c:	81 c7 e0 08 	ret 
    8620:	91 e8 00 08 	restore  %g0, %o0, %o0

00008624 <rec_dirsearch>:
rec_dirsearch():
    8624:	9d e3 bf 78 	save  %sp, -136, %sp
    8628:	a8 10 00 18 	mov  %i0, %l4
    862c:	2f 00 00 66 	sethi  %hi(0x19800), %l7
    8630:	7f ff fe 4e 	call  7f68 <__nisbind_destroy+0x68>
    8634:	ae 05 e1 d0 	add  %l7, 0x1d0, %l7	! 199d0 <__FRAME_END__+0x89a8>
    8638:	90 10 00 14 	mov  %l4, %o0
    863c:	7f ff f7 82 	call  6444 <nis_dir_cmp>
    8640:	d2 06 40 00 	ld  [ %i1 ], %o1
    8644:	80 a2 20 04 	cmp  %o0, 4
    8648:	18 80 00 a9 	bgu  88ec <rec_dirsearch+0x2c8>
    864c:	b0 10 00 19 	mov  %i1, %i0
    8650:	03 00 00 68 	sethi  %hi(0x1a000), %g1
    8654:	82 10 61 a8 	or  %g1, 0x1a8, %g1	! 1a1a8 <__FRAME_END__+0x9180>
    8658:	86 25 c0 01 	sub  %l7, %g1, %g3
    865c:	85 2a 20 02 	sll  %o0, 2, %g2
    8660:	c2 00 c0 02 	ld  [ %g3 + %g2 ], %g1
    8664:	81 c0 40 03 	jmp  %g1 + %g3
    8668:	01 00 00 00 	nop 
    866c:	7f ff f8 ba 	call  6954 <nis_free_directory>
    8670:	90 10 00 19 	mov  %i1, %o0
    8674:	82 10 20 11 	mov  0x11, %g1
    8678:	c2 26 80 00 	st  %g1, [ %i2 ]
    867c:	10 80 00 bc 	b  896c <rec_dirsearch+0x348>
    8680:	90 10 20 00 	clr  %o0
    8684:	d0 06 40 00 	ld  [ %i1 ], %o0
    8688:	40 00 67 f9 	call  2266c <strlen@plt>
    868c:	a6 10 00 0e 	mov  %sp, %l3
    8690:	82 02 20 0a 	add  %o0, 0xa, %g1
    8694:	82 08 7f f8 	and  %g1, -8, %g1
    8698:	9c 23 80 01 	sub  %sp, %g1, %sp
    869c:	a0 03 a0 60 	add  %sp, 0x60, %l0
    86a0:	94 02 20 03 	add  %o0, 3, %o2
    86a4:	92 10 00 10 	mov  %l0, %o1
    86a8:	40 00 11 0c 	call  cad8 <nis_domain_of_r>
    86ac:	d0 06 40 00 	ld  [ %i1 ], %o0
    86b0:	92 10 00 10 	mov  %l0, %o1
    86b4:	40 00 0d 60 	call  bc34 <__nis_finddirectory>
    86b8:	90 10 00 19 	mov  %i1, %o0
    86bc:	a0 92 20 00 	orcc  %o0, 0, %l0
    86c0:	02 80 00 9c 	be  8930 <rec_dirsearch+0x30c>
    86c4:	01 00 00 00 	nop 
    86c8:	c2 04 00 00 	ld  [ %l0 ], %g1
    86cc:	c2 26 80 00 	st  %g1, [ %i2 ]
    86d0:	c4 04 00 00 	ld  [ %l0 ], %g2
    86d4:	80 a0 a0 00 	cmp  %g2, 0
    86d8:	12 80 00 5f 	bne  8854 <rec_dirsearch+0x230>
    86dc:	01 00 00 00 	nop 
    86e0:	7f ff f8 9d 	call  6954 <nis_free_directory>
    86e4:	90 10 00 19 	mov  %i1, %o0
    86e8:	90 10 20 01 	mov  1, %o0
    86ec:	40 00 68 37 	call  227c8 <calloc@plt>
    86f0:	92 10 20 1c 	mov  0x1c, %o1
    86f4:	a2 92 20 00 	orcc  %o0, 0, %l1
    86f8:	02 80 00 88 	be  8918 <rec_dirsearch+0x2f4>
    86fc:	a4 07 bf d8 	add  %fp, -40, %l2
    8700:	90 10 00 12 	mov  %l2, %o0
    8704:	d2 04 20 0c 	ld  [ %l0 + 0xc ], %o1
    8708:	d4 04 20 08 	ld  [ %l0 + 8 ], %o2
    870c:	40 00 67 f6 	call  226e4 <xdrmem_create@plt>
    8710:	96 10 20 01 	mov  1, %o3
    8714:	90 10 00 12 	mov  %l2, %o0
    8718:	40 00 07 04 	call  a328 <_xdr_directory_obj>
    871c:	92 10 00 11 	mov  %l1, %o1
    8720:	c2 07 bf dc 	ld  [ %fp + -36 ], %g1
    8724:	c2 00 60 1c 	ld  [ %g1 + 0x1c ], %g1
    8728:	80 a0 60 00 	cmp  %g1, 0
    872c:	12 80 00 75 	bne  8900 <rec_dirsearch+0x2dc>
    8730:	01 00 00 00 	nop 
    8734:	7f ff f8 6a 	call  68dc <__free_fdresult>
    8738:	90 10 00 10 	mov  %l0, %o0
    873c:	90 10 00 14 	mov  %l4, %o0
    8740:	92 10 00 11 	mov  %l1, %o1
    8744:	7f ff ff b8 	call  8624 <rec_dirsearch>
    8748:	94 10 00 1a 	mov  %i2, %o2
    874c:	10 80 00 88 	b  896c <rec_dirsearch+0x348>
    8750:	9c 10 00 13 	mov  %l3, %sp
    8754:	b2 10 00 0e 	mov  %sp, %i1
    8758:	40 00 67 c5 	call  2266c <strlen@plt>
    875c:	90 10 00 14 	mov  %l4, %o0
    8760:	82 02 20 0a 	add  %o0, 0xa, %g1
    8764:	82 08 7f f8 	and  %g1, -8, %g1
    8768:	9c 23 80 01 	sub  %sp, %g1, %sp
    876c:	a6 03 a0 60 	add  %sp, 0x60, %l3
    8770:	9c 23 80 01 	sub  %sp, %g1, %sp
    8774:	a2 03 a0 60 	add  %sp, 0x60, %l1
    8778:	a0 10 00 08 	mov  %o0, %l0
    877c:	9c 23 80 01 	sub  %sp, %g1, %sp
    8780:	a4 03 a0 60 	add  %sp, 0x60, %l2
    8784:	90 10 00 11 	mov  %l1, %o0
    8788:	40 00 68 52 	call  228d0 <strcpy@plt>
    878c:	92 10 00 14 	mov  %l4, %o1
    8790:	a0 04 20 03 	add  %l0, 3, %l0
    8794:	c2 4c 40 00 	ldsb  [ %l1 ], %g1
    8798:	80 a0 60 00 	cmp  %g1, 0
    879c:	02 80 00 50 	be  88dc <rec_dirsearch+0x2b8>
    87a0:	92 10 00 13 	mov  %l3, %o1
    87a4:	94 10 00 10 	mov  %l0, %o2
    87a8:	7f ff f5 3d 	call  5c9c <nis_leaf_of_r>
    87ac:	90 10 00 11 	mov  %l1, %o0
    87b0:	94 10 00 10 	mov  %l0, %o2
    87b4:	92 10 00 12 	mov  %l2, %o1
    87b8:	40 00 10 c8 	call  cad8 <nis_domain_of_r>
    87bc:	90 10 00 11 	mov  %l1, %o0
    87c0:	92 10 00 12 	mov  %l2, %o1
    87c4:	40 00 68 43 	call  228d0 <strcpy@plt>
    87c8:	90 10 00 11 	mov  %l1, %o0
    87cc:	90 10 00 11 	mov  %l1, %o0
    87d0:	7f ff f7 1d 	call  6444 <nis_dir_cmp>
    87d4:	d2 06 00 00 	ld  [ %i0 ], %o1
    87d8:	80 a2 20 00 	cmp  %o0, 0
    87dc:	32 bf ff ef 	bne,a   8798 <rec_dirsearch+0x174>
    87e0:	c2 4c 40 00 	ldsb  [ %l1 ], %g1
    87e4:	92 10 20 00 	clr  %o1
    87e8:	40 00 67 50 	call  22528 <rawmemchr@plt>
    87ec:	90 10 00 13 	mov  %l3, %o0
    87f0:	82 10 20 2e 	mov  0x2e, %g1
    87f4:	c2 2a 00 00 	stb  %g1, [ %o0 ]
    87f8:	92 10 00 11 	mov  %l1, %o1
    87fc:	40 00 68 35 	call  228d0 <strcpy@plt>
    8800:	90 02 20 01 	inc  %o0
    8804:	90 10 00 18 	mov  %i0, %o0
    8808:	40 00 0d 0b 	call  bc34 <__nis_finddirectory>
    880c:	92 10 00 13 	mov  %l3, %o1
    8810:	a0 92 20 00 	orcc  %o0, 0, %l0
    8814:	02 80 00 51 	be  8958 <rec_dirsearch+0x334>
    8818:	01 00 00 00 	nop 
    881c:	c2 04 00 00 	ld  [ %l0 ], %g1
    8820:	c2 26 80 00 	st  %g1, [ %i2 ]
    8824:	c4 04 00 00 	ld  [ %l0 ], %g2
    8828:	80 a0 a0 00 	cmp  %g2, 0
    882c:	02 80 00 0f 	be  8868 <rec_dirsearch+0x244>
    8830:	01 00 00 00 	nop 
    8834:	7f ff f8 2a 	call  68dc <__free_fdresult>
    8838:	01 00 00 00 	nop 
    883c:	90 10 00 18 	mov  %i0, %o0
    8840:	10 80 00 4b 	b  896c <rec_dirsearch+0x348>
    8844:	9c 10 00 19 	mov  %i1, %sp
    8848:	c0 26 80 00 	clr  [ %i2 ]
    884c:	10 80 00 48 	b  896c <rec_dirsearch+0x348>
    8850:	90 10 00 19 	mov  %i1, %o0
    8854:	7f ff f8 22 	call  68dc <__free_fdresult>
    8858:	01 00 00 00 	nop 
    885c:	90 10 00 19 	mov  %i1, %o0
    8860:	10 80 00 43 	b  896c <rec_dirsearch+0x348>
    8864:	9c 10 00 13 	mov  %l3, %sp
    8868:	7f ff f8 3b 	call  6954 <nis_free_directory>
    886c:	90 10 00 18 	mov  %i0, %o0
    8870:	90 10 20 01 	mov  1, %o0
    8874:	40 00 67 d5 	call  227c8 <calloc@plt>
    8878:	92 10 20 1c 	mov  0x1c, %o1
    887c:	a2 92 20 00 	orcc  %o0, 0, %l1
    8880:	02 80 00 30 	be  8940 <rec_dirsearch+0x31c>
    8884:	a4 07 bf d8 	add  %fp, -40, %l2
    8888:	90 10 00 12 	mov  %l2, %o0
    888c:	d2 04 20 0c 	ld  [ %l0 + 0xc ], %o1
    8890:	d4 04 20 08 	ld  [ %l0 + 8 ], %o2
    8894:	40 00 67 94 	call  226e4 <xdrmem_create@plt>
    8898:	96 10 20 01 	mov  1, %o3
    889c:	90 10 00 12 	mov  %l2, %o0
    88a0:	40 00 06 a2 	call  a328 <_xdr_directory_obj>
    88a4:	92 10 00 11 	mov  %l1, %o1
    88a8:	c2 07 bf dc 	ld  [ %fp + -36 ], %g1
    88ac:	c2 00 60 1c 	ld  [ %g1 + 0x1c ], %g1
    88b0:	80 a0 60 00 	cmp  %g1, 0
    88b4:	12 80 00 16 	bne  890c <rec_dirsearch+0x2e8>
    88b8:	01 00 00 00 	nop 
    88bc:	7f ff f8 08 	call  68dc <__free_fdresult>
    88c0:	90 10 00 10 	mov  %l0, %o0
    88c4:	90 10 00 14 	mov  %l4, %o0
    88c8:	92 10 00 11 	mov  %l1, %o1
    88cc:	7f ff ff 56 	call  8624 <rec_dirsearch>
    88d0:	94 10 00 1a 	mov  %i2, %o2
    88d4:	10 80 00 26 	b  896c <rec_dirsearch+0x348>
    88d8:	9c 10 00 19 	mov  %i1, %sp
    88dc:	7f ff f8 1e 	call  6954 <nis_free_directory>
    88e0:	90 10 00 18 	mov  %i0, %o0
    88e4:	10 bf ff 66 	b  867c <rec_dirsearch+0x58>
    88e8:	9c 10 00 19 	mov  %i1, %sp
    88ec:	7f ff f8 1a 	call  6954 <nis_free_directory>
    88f0:	90 10 00 19 	mov  %i1, %o0
    88f4:	82 10 20 28 	mov  0x28, %g1
    88f8:	10 bf ff 61 	b  867c <rec_dirsearch+0x58>
    88fc:	c2 26 80 00 	st  %g1, [ %i2 ]
    8900:	9f c0 40 00 	call  %g1
    8904:	90 10 00 12 	mov  %l2, %o0
    8908:	30 bf ff 8b 	b,a   8734 <rec_dirsearch+0x110>
    890c:	9f c0 40 00 	call  %g1
    8910:	90 10 00 12 	mov  %l2, %o0
    8914:	30 bf ff ea 	b,a   88bc <rec_dirsearch+0x298>
    8918:	7f ff f7 f1 	call  68dc <__free_fdresult>
    891c:	90 10 00 10 	mov  %l0, %o0
    8920:	82 10 20 0d 	mov  0xd, %g1
    8924:	c2 26 80 00 	st  %g1, [ %i2 ]
    8928:	10 bf ff 55 	b  867c <rec_dirsearch+0x58>
    892c:	9c 10 00 13 	mov  %l3, %sp
    8930:	7f ff f8 09 	call  6954 <nis_free_directory>
    8934:	90 10 00 19 	mov  %i1, %o0
    8938:	10 bf ff fb 	b  8924 <rec_dirsearch+0x300>
    893c:	82 10 20 0d 	mov  0xd, %g1
    8940:	7f ff f7 e7 	call  68dc <__free_fdresult>
    8944:	90 10 00 10 	mov  %l0, %o0
    8948:	82 10 20 0d 	mov  0xd, %g1
    894c:	c2 26 80 00 	st  %g1, [ %i2 ]
    8950:	10 bf ff 4b 	b  867c <rec_dirsearch+0x58>
    8954:	9c 10 00 19 	mov  %i1, %sp
    8958:	7f ff f7 ff 	call  6954 <nis_free_directory>
    895c:	90 10 00 18 	mov  %i0, %o0
    8960:	82 10 20 0d 	mov  0xd, %g1
    8964:	10 bf ff fb 	b  8950 <rec_dirsearch+0x32c>
    8968:	c2 26 80 00 	st  %g1, [ %i2 ]
    896c:	81 c7 e0 08 	ret 
    8970:	91 e8 00 08 	restore  %g0, %o0, %o0

00008974 <__nisfind_server>:
__nisfind_server():
    8974:	9d e3 bf 70 	save  %sp, -144, %sp
    8978:	a4 96 20 00 	orcc  %i0, 0, %l2
    897c:	02 80 00 69 	be  8b20 <__nisfind_server+0x1ac>
    8980:	b0 10 20 11 	mov  0x11, %i0
    8984:	c2 06 80 00 	ld  [ %i2 ], %g1
    8988:	80 a0 60 00 	cmp  %g1, 0
    898c:	02 80 00 04 	be  899c <__nisfind_server+0x28>
    8990:	a8 10 20 00 	clr  %l4
    8994:	10 80 00 63 	b  8b20 <__nisfind_server+0x1ac>
    8998:	b0 10 00 14 	mov  %l4, %i0
    899c:	7f ff f8 73 	call  6b68 <readColdStartFile>
    89a0:	b0 10 20 29 	mov  0x29, %i0
    89a4:	a0 10 00 08 	mov  %o0, %l0
    89a8:	80 a2 20 00 	cmp  %o0, 0
    89ac:	02 80 00 5d 	be  8b20 <__nisfind_server+0x1ac>
    89b0:	d0 26 80 00 	st  %o0, [ %i2 ]
    89b4:	b0 10 00 0e 	mov  %sp, %i0
    89b8:	40 00 67 2d 	call  2266c <strlen@plt>
    89bc:	90 10 00 12 	mov  %l2, %o0
    89c0:	82 02 20 0a 	add  %o0, 0xa, %g1
    89c4:	82 08 7f f8 	and  %g1, -8, %g1
    89c8:	9c 23 80 01 	sub  %sp, %g1, %sp
    89cc:	80 a6 60 00 	cmp  %i1, 0
    89d0:	a6 10 20 00 	clr  %l3
    89d4:	94 02 20 03 	add  %o0, 3, %o2
    89d8:	a2 03 a0 60 	add  %sp, 0x60, %l1
    89dc:	12 80 00 0e 	bne  8a14 <__nisfind_server+0xa0>
    89e0:	b2 10 00 12 	mov  %l2, %i1
    89e4:	90 10 00 19 	mov  %i1, %o0
    89e8:	7f ff f6 97 	call  6444 <nis_dir_cmp>
    89ec:	d2 04 00 00 	ld  [ %l0 ], %o1
    89f0:	80 a2 20 00 	cmp  %o0, 0
    89f4:	12 80 00 0d 	bne  8a28 <__nisfind_server+0xb4>
    89f8:	90 10 00 10 	mov  %l0, %o0
    89fc:	9c 10 00 18 	mov  %i0, %sp
    8a00:	80 a2 20 00 	cmp  %o0, 0
    8a04:	22 80 00 1c 	be,a   8a74 <__nisfind_server+0x100>
    8a08:	90 10 00 12 	mov  %l2, %o0
    8a0c:	10 bf ff e2 	b  8994 <__nisfind_server+0x20>
    8a10:	d0 26 80 00 	st  %o0, [ %i2 ]
    8a14:	90 10 00 12 	mov  %l2, %o0
    8a18:	40 00 10 30 	call  cad8 <nis_domain_of_r>
    8a1c:	92 10 00 11 	mov  %l1, %o1
    8a20:	10 bf ff f1 	b  89e4 <__nisfind_server+0x70>
    8a24:	b2 10 00 11 	mov  %l1, %i1
    8a28:	92 10 00 19 	mov  %i1, %o1
    8a2c:	40 00 0c 82 	call  bc34 <__nis_finddirectory>
    8a30:	90 10 00 10 	mov  %l0, %o0
    8a34:	a2 92 20 00 	orcc  %o0, 0, %l1
    8a38:	02 80 00 34 	be  8b08 <__nisfind_server+0x194>
    8a3c:	90 10 20 00 	clr  %o0
    8a40:	c2 04 40 00 	ld  [ %l1 ], %g1
    8a44:	80 a0 60 00 	cmp  %g1, 0
    8a48:	02 80 00 14 	be  8a98 <__nisfind_server+0x124>
    8a4c:	90 10 20 01 	mov  1, %o0
    8a50:	7f ff f7 a3 	call  68dc <__free_fdresult>
    8a54:	90 10 00 11 	mov  %l1, %o0
    8a58:	80 a4 e0 00 	cmp  %l3, 0
    8a5c:	22 bf ff e8 	be,a   89fc <__nisfind_server+0x88>
    8a60:	90 10 00 13 	mov  %l3, %o0
    8a64:	7f ff f7 bc 	call  6954 <nis_free_directory>
    8a68:	90 10 00 10 	mov  %l0, %o0
    8a6c:	10 bf ff e4 	b  89fc <__nisfind_server+0x88>
    8a70:	90 10 00 13 	mov  %l3, %o0
    8a74:	d2 06 80 00 	ld  [ %i2 ], %o1
    8a78:	7f ff fe eb 	call  8624 <rec_dirsearch>
    8a7c:	94 07 bf d4 	add  %fp, -44, %o2
    8a80:	80 a2 20 00 	cmp  %o0, 0
    8a84:	32 bf ff c4 	bne,a   8994 <__nisfind_server+0x20>
    8a88:	d0 26 80 00 	st  %o0, [ %i2 ]
    8a8c:	e8 07 bf d4 	ld  [ %fp + -44 ], %l4
    8a90:	10 bf ff c1 	b  8994 <__nisfind_server+0x20>
    8a94:	d0 26 80 00 	st  %o0, [ %i2 ]
    8a98:	40 00 67 4c 	call  227c8 <calloc@plt>
    8a9c:	92 10 20 1c 	mov  0x1c, %o1
    8aa0:	a6 92 20 00 	orcc  %o0, 0, %l3
    8aa4:	02 bf ff eb 	be  8a50 <__nisfind_server+0xdc>
    8aa8:	b2 07 bf d8 	add  %fp, -40, %i1
    8aac:	90 10 00 19 	mov  %i1, %o0
    8ab0:	d2 04 60 0c 	ld  [ %l1 + 0xc ], %o1
    8ab4:	d4 04 60 08 	ld  [ %l1 + 8 ], %o2
    8ab8:	40 00 67 0b 	call  226e4 <xdrmem_create@plt>
    8abc:	96 10 20 01 	mov  1, %o3
    8ac0:	90 10 00 19 	mov  %i1, %o0
    8ac4:	40 00 06 19 	call  a328 <_xdr_directory_obj>
    8ac8:	92 10 00 13 	mov  %l3, %o1
    8acc:	c2 07 bf dc 	ld  [ %fp + -36 ], %g1
    8ad0:	c2 00 60 1c 	ld  [ %g1 + 0x1c ], %g1
    8ad4:	80 a0 60 00 	cmp  %g1, 0
    8ad8:	12 80 00 0e 	bne  8b10 <__nisfind_server+0x19c>
    8adc:	01 00 00 00 	nop 
    8ae0:	d0 04 00 00 	ld  [ %l0 ], %o0
    8ae4:	40 00 66 7c 	call  224d4 <strcmp@plt>
    8ae8:	d2 04 c0 00 	ld  [ %l3 ], %o1
    8aec:	80 a2 20 00 	cmp  %o0, 0
    8af0:	02 bf ff d8 	be  8a50 <__nisfind_server+0xdc>
    8af4:	01 00 00 00 	nop 
    8af8:	7f ff f7 97 	call  6954 <nis_free_directory>
    8afc:	90 10 00 13 	mov  %l3, %o0
    8b00:	10 bf ff d4 	b  8a50 <__nisfind_server+0xdc>
    8b04:	a6 10 20 00 	clr  %l3
    8b08:	10 bf ff be 	b  8a00 <__nisfind_server+0x8c>
    8b0c:	9c 10 00 18 	mov  %i0, %sp
    8b10:	9f c0 40 00 	call  %g1
    8b14:	90 10 00 19 	mov  %i1, %o0
    8b18:	10 bf ff f3 	b  8ae4 <__nisfind_server+0x170>
    8b1c:	d0 04 00 00 	ld  [ %l0 ], %o0
    8b20:	81 c7 e0 08 	ret 
    8b24:	81 e8 00 00 	restore 

00008b28 <__prepare_niscall>:
__prepare_niscall():
    8b28:	9d e3 bf 90 	save  %sp, -112, %sp
    8b2c:	90 10 00 18 	mov  %i0, %o0
    8b30:	92 10 20 01 	mov  1, %o1
    8b34:	7f ff ff 90 	call  8974 <__nisfind_server>
    8b38:	94 10 00 19 	mov  %i1, %o2
    8b3c:	80 a2 20 00 	cmp  %o0, 0
    8b40:	12 80 00 26 	bne  8bd8 <__prepare_niscall+0xb0>
    8b44:	96 10 00 1b 	mov  %i3, %o3
    8b48:	80 8e e0 20 	btst  0x20, %i3
    8b4c:	12 80 00 1f 	bne  8bc8 <__prepare_niscall+0xa0>
    8b50:	c2 06 40 00 	ld  [ %i1 ], %g1
    8b54:	d4 00 60 08 	ld  [ %g1 + 8 ], %o2
    8b58:	d2 00 60 0c 	ld  [ %g1 + 0xc ], %o1
    8b5c:	7f ff fe 06 	call  8374 <__nisbind_create>
    8b60:	90 10 00 1a 	mov  %i2, %o0
    8b64:	b0 92 20 00 	orcc  %o0, 0, %i0
    8b68:	12 80 00 13 	bne  8bb4 <__prepare_niscall+0x8c>
    8b6c:	01 00 00 00 	nop 
    8b70:	7f ff fd 78 	call  8150 <__nisbind_connect>
    8b74:	90 10 00 1a 	mov  %i2, %o0
    8b78:	80 a2 20 00 	cmp  %o0, 0
    8b7c:	02 80 00 16 	be  8bd4 <__prepare_niscall+0xac>
    8b80:	90 10 00 1a 	mov  %i2, %o0
    8b84:	7f ff fc fb 	call  7f70 <__nisbind_next>
    8b88:	01 00 00 00 	nop 
    8b8c:	80 a2 20 00 	cmp  %o0, 0
    8b90:	02 bf ff f8 	be  8b70 <__prepare_niscall+0x48>
    8b94:	01 00 00 00 	nop 
    8b98:	7f ff fc da 	call  7f00 <__nisbind_destroy>
    8b9c:	90 10 00 1a 	mov  %i2, %o0
    8ba0:	90 10 00 1a 	mov  %i2, %o0
    8ba4:	92 10 20 00 	clr  %o1
    8ba8:	40 00 67 17 	call  22804 <memset@plt>
    8bac:	94 10 20 3c 	mov  0x3c, %o2
    8bb0:	b0 10 20 05 	mov  5, %i0
    8bb4:	7f ff f7 68 	call  6954 <nis_free_directory>
    8bb8:	d0 06 40 00 	ld  [ %i1 ], %o0
    8bbc:	c0 26 40 00 	clr  [ %i1 ]
    8bc0:	10 80 00 06 	b  8bd8 <__prepare_niscall+0xb0>
    8bc4:	90 10 00 18 	mov  %i0, %o0
    8bc8:	d2 00 60 0c 	ld  [ %g1 + 0xc ], %o1
    8bcc:	10 bf ff e4 	b  8b5c <__prepare_niscall+0x34>
    8bd0:	94 10 20 01 	mov  1, %o2
    8bd4:	90 10 20 00 	clr  %o0
    8bd8:	81 c7 e0 08 	ret 
    8bdc:	91 e8 00 08 	restore  %g0, %o0, %o0

00008be0 <__do_niscall>:
__do_niscall():
    8be0:	9d e3 bf 40 	save  %sp, -192, %sp
    8be4:	40 00 66 66 	call  2257c <__errno_location@plt>
    8be8:	c0 27 bf ac 	clr  [ %fp + -84 ]
    8bec:	a2 10 00 08 	mov  %o0, %l1
    8bf0:	e6 07 a0 5c 	ld  [ %fp + 0x5c ], %l3
    8bf4:	a0 07 bf b0 	add  %fp, -80, %l0
    8bf8:	90 10 00 18 	mov  %i0, %o0
    8bfc:	92 07 bf ac 	add  %fp, -84, %o1
    8c00:	94 10 00 10 	mov  %l0, %o2
    8c04:	96 10 00 13 	mov  %l3, %o3
    8c08:	7f ff ff c8 	call  8b28 <__prepare_niscall>
    8c0c:	e4 04 40 00 	ld  [ %l1 ], %l2
    8c10:	b0 10 00 08 	mov  %o0, %i0
    8c14:	90 10 00 10 	mov  %l0, %o0
    8c18:	80 a6 20 00 	cmp  %i0, 0
    8c1c:	92 10 00 19 	mov  %i1, %o1
    8c20:	94 10 00 1a 	mov  %i2, %o2
    8c24:	96 10 00 1b 	mov  %i3, %o3
    8c28:	98 10 00 1c 	mov  %i4, %o4
    8c2c:	12 80 00 0b 	bne  8c58 <__do_niscall+0x78>
    8c30:	9a 10 00 1d 	mov  %i5, %o5
    8c34:	c2 07 a0 60 	ld  [ %fp + 0x60 ], %g1
    8c38:	c2 23 a0 60 	st  %g1, [ %sp + 0x60 ]
    8c3c:	7f ff fd f6 	call  8414 <__do_niscall3>
    8c40:	e6 23 a0 5c 	st  %l3, [ %sp + 0x5c ]
    8c44:	b0 10 00 08 	mov  %o0, %i0
    8c48:	7f ff fc ae 	call  7f00 <__nisbind_destroy>
    8c4c:	90 10 00 10 	mov  %l0, %o0
    8c50:	7f ff f7 41 	call  6954 <nis_free_directory>
    8c54:	d0 07 bf ac 	ld  [ %fp + -84 ], %o0
    8c58:	e4 24 40 00 	st  %l2, [ %l1 ]
    8c5c:	81 c7 e0 08 	ret 
    8c60:	81 e8 00 00 	restore 
    8c64:	00 00 04 8c 	unimp  0x48c
    8c68:	00 00 04 8c 	unimp  0x48c
    8c6c:	00 00 04 68 	unimp  0x468
    8c70:	00 00 04 68 	unimp  0x468
    8c74:	00 00 04 68 	unimp  0x468
    8c78:	00 00 04 68 	unimp  0x468
    8c7c:	00 00 04 68 	unimp  0x468
    8c80:	00 00 04 68 	unimp  0x468
    8c84:	00 00 04 68 	unimp  0x468
    8c88:	00 00 04 68 	unimp  0x468
    8c8c:	00 00 04 68 	unimp  0x468
    8c90:	00 00 04 68 	unimp  0x468
    8c94:	00 00 04 68 	unimp  0x468
    8c98:	00 00 04 68 	unimp  0x468
    8c9c:	00 00 04 68 	unimp  0x468
    8ca0:	00 00 04 68 	unimp  0x468
    8ca4:	00 00 04 68 	unimp  0x468
    8ca8:	00 00 04 68 	unimp  0x468
    8cac:	00 00 04 68 	unimp  0x468
    8cb0:	00 00 04 68 	unimp  0x468
    8cb4:	00 00 04 68 	unimp  0x468
    8cb8:	00 00 04 68 	unimp  0x468
    8cbc:	00 00 04 68 	unimp  0x468
    8cc0:	00 00 04 68 	unimp  0x468
    8cc4:	00 00 04 68 	unimp  0x468
    8cc8:	00 00 04 8c 	unimp  0x48c
    8ccc:	00 00 04 8c 	unimp  0x48c
    8cd0:	00 00 04 68 	unimp  0x468
    8cd4:	00 00 04 68 	unimp  0x468
    8cd8:	00 00 04 68 	unimp  0x468
    8cdc:	00 00 04 68 	unimp  0x468
    8ce0:	00 00 04 68 	unimp  0x468
    8ce4:	00 00 04 68 	unimp  0x468
    8ce8:	00 00 04 68 	unimp  0x468
    8cec:	00 00 04 68 	unimp  0x468
    8cf0:	00 00 04 68 	unimp  0x468
    8cf4:	00 00 04 68 	unimp  0x468
    8cf8:	00 00 04 68 	unimp  0x468
    8cfc:	00 00 04 68 	unimp  0x468
    8d00:	00 00 04 68 	unimp  0x468
    8d04:	00 00 04 68 	unimp  0x468
    8d08:	00 00 04 8c 	unimp  0x48c
    8d0c:	81 c3 e0 08 	retl 
    8d10:	ae 03 c0 17 	add  %o7, %l7, %l7

00008d14 <nis_lookup>:
nis_lookup():
    8d14:	9d e3 bf 10 	save  %sp, -240, %sp
    8d18:	2f 00 00 64 	sethi  %hi(0x19000), %l7
    8d1c:	7f ff ff fc 	call  8d0c <__do_niscall+0x12c>
    8d20:	ae 05 e2 e4 	add  %l7, 0x2e4, %l7	! 192e4 <__FRAME_END__+0x82bc>
    8d24:	90 10 20 01 	mov  1, %o0
    8d28:	40 00 66 a8 	call  227c8 <calloc@plt>
    8d2c:	92 10 20 24 	mov  0x24, %o1
    8d30:	84 10 20 00 	clr  %g2
    8d34:	86 10 20 00 	clr  %g3
    8d38:	a0 10 00 18 	mov  %i0, %l0
    8d3c:	a2 10 00 08 	mov  %o0, %l1
    8d40:	c4 3f bf d8 	std  %g2, [ %fp + -40 ]
    8d44:	80 a2 20 00 	cmp  %o0, 0
    8d48:	ba 10 20 00 	clr  %i5
    8d4c:	ac 10 20 00 	clr  %l6
    8d50:	c0 27 bf 88 	clr  [ %fp + -120 ]
    8d54:	c0 27 bf 84 	clr  [ %fp + -124 ]
    8d58:	02 80 01 08 	be  9178 <nis_lookup+0x464>
    8d5c:	b0 10 20 00 	clr  %i0
    8d60:	80 8e 60 40 	btst  0x40, %i1
    8d64:	12 80 00 5e 	bne  8edc <nis_lookup+0x1c8>
    8d68:	a4 07 bf d8 	add  %fp, -40, %l2
    8d6c:	e0 27 bf d8 	st  %l0, [ %fp + -40 ]
    8d70:	e4 27 bf 80 	st  %l2, [ %fp + -128 ]
    8d74:	c2 04 80 00 	ld  [ %l2 ], %g1
    8d78:	c2 27 bf e0 	st  %g1, [ %fp + -32 ]
    8d7c:	b0 07 bf 98 	add  %fp, -104, %i0
    8d80:	c0 27 bf 8c 	clr  [ %fp + -116 ]
    8d84:	c0 27 bf e4 	clr  [ %fp + -28 ]
    8d88:	c0 27 bf e8 	clr  [ %fp + -24 ]
    8d8c:	d0 07 bf e0 	ld  [ %fp + -32 ], %o0
    8d90:	92 07 bf 8c 	add  %fp, -116, %o1
    8d94:	94 10 00 18 	mov  %i0, %o2
    8d98:	7f ff ff 64 	call  8b28 <__prepare_niscall>
    8d9c:	96 10 00 19 	mov  %i1, %o3
    8da0:	a0 92 20 00 	orcc  %o0, 0, %l0
    8da4:	12 80 00 f1 	bne  9168 <nis_lookup+0x454>
    8da8:	03 00 00 00 	sethi  %hi(0), %g1
    8dac:	82 10 63 60 	or  %g1, 0x360, %g1	! 360 <GLIBC_2.0+0x360>
    8db0:	27 00 00 00 	sethi  %hi(0), %l3
    8db4:	84 07 bf 90 	add  %fp, -112, %g2
    8db8:	a6 14 e2 5c 	or  %l3, 0x25c, %l3
    8dbc:	f8 05 c0 01 	ld  [ %l7 + %g1 ], %i4
    8dc0:	b4 07 bf e0 	add  %fp, -32, %i2
    8dc4:	c4 27 bf 7c 	st  %g2, [ %fp + -132 ]
    8dc8:	a8 10 00 0e 	mov  %sp, %l4
    8dcc:	40 00 66 28 	call  2266c <strlen@plt>
    8dd0:	d0 07 bf e0 	ld  [ %fp + -32 ], %o0
    8dd4:	82 02 20 08 	add  %o0, 8, %g1
    8dd8:	82 08 7f f8 	and  %g1, -8, %g1
    8ddc:	9c 23 80 01 	sub  %sp, %g1, %sp
    8de0:	b6 10 00 08 	mov  %o0, %i3
    8de4:	aa 03 a0 68 	add  %sp, 0x68, %l5
    8de8:	c4 05 c0 13 	ld  [ %l7 + %l3 ], %g2
    8dec:	c2 00 80 00 	ld  [ %g2 ], %g1
    8df0:	c6 00 a0 04 	ld  [ %g2 + 4 ], %g3
    8df4:	c2 27 bf 90 	st  %g1, [ %fp + -112 ]
    8df8:	c2 07 bf 98 	ld  [ %fp + -104 ], %g1
    8dfc:	c6 27 bf 94 	st  %g3, [ %fp + -108 ]
    8e00:	c4 00 60 04 	ld  [ %g1 + 4 ], %g2
    8e04:	c6 07 bf 7c 	ld  [ %fp + -132 ], %g3
    8e08:	c6 23 a0 5c 	st  %g3, [ %sp + 0x5c ]
    8e0c:	07 00 00 00 	sethi  %hi(0), %g3
    8e10:	82 10 e3 70 	or  %g3, 0x370, %g1	! 370 <GLIBC_2.0+0x370>
    8e14:	c6 00 80 00 	ld  [ %g2 ], %g3
    8e18:	d4 05 c0 01 	ld  [ %l7 + %g1 ], %o2
    8e1c:	d0 07 bf 98 	ld  [ %fp + -104 ], %o0
    8e20:	92 10 20 01 	mov  1, %o1
    8e24:	96 10 00 1a 	mov  %i2, %o3
    8e28:	98 10 00 1c 	mov  %i4, %o4
    8e2c:	9f c0 c0 00 	call  %g3
    8e30:	9a 10 00 11 	mov  %l1, %o5
    8e34:	80 a2 20 00 	cmp  %o0, 0
    8e38:	12 80 00 bd 	bne  912c <nis_lookup+0x418>
    8e3c:	80 8e 60 04 	btst  4, %i1
    8e40:	c8 04 40 00 	ld  [ %l1 ], %g4
    8e44:	80 a1 20 00 	cmp  %g4, 0
    8e48:	12 80 00 36 	bne  8f20 <nis_lookup+0x20c>
    8e4c:	a0 10 20 00 	clr  %l0
    8e50:	c4 04 60 08 	ld  [ %l1 + 8 ], %g2
    8e54:	c2 00 a0 20 	ld  [ %g2 + 0x20 ], %g1
    8e58:	80 a0 60 06 	cmp  %g1, 6
    8e5c:	12 80 00 90 	bne  909c <nis_lookup+0x388>
    8e60:	80 8e 60 01 	btst  1, %i1
    8e64:	02 80 00 8e 	be  909c <nis_lookup+0x388>
    8e68:	80 a5 a0 10 	cmp  %l6, 0x10
    8e6c:	14 80 00 8b 	bg  9098 <nis_lookup+0x384>
    8e70:	82 10 20 19 	mov  0x19, %g1
    8e74:	e0 00 a0 30 	ld  [ %g2 + 0x30 ], %l0
    8e78:	40 00 65 fd 	call  2266c <strlen@plt>
    8e7c:	90 10 00 10 	mov  %l0, %o0
    8e80:	82 02 20 08 	add  %o0, 8, %g1
    8e84:	82 08 7f f8 	and  %g1, -8, %g1
    8e88:	9c 23 80 01 	sub  %sp, %g1, %sp
    8e8c:	94 02 20 01 	add  %o0, 1, %o2
    8e90:	92 10 00 10 	mov  %l0, %o1
    8e94:	40 00 66 2f 	call  22750 <memcpy@plt>
    8e98:	90 03 a0 68 	add  %sp, 0x68, %o0
    8e9c:	d0 27 bf e0 	st  %o0, [ %fp + -32 ]
    8ea0:	90 10 00 1c 	mov  %i4, %o0
    8ea4:	40 00 65 92 	call  224ec <xdr_free@plt>
    8ea8:	92 10 00 11 	mov  %l1, %o1
    8eac:	ac 05 a0 01 	inc  %l6
    8eb0:	c0 24 40 00 	clr  [ %l1 ]
    8eb4:	c0 24 60 04 	clr  [ %l1 + 4 ]
    8eb8:	c0 24 60 08 	clr  [ %l1 + 8 ]
    8ebc:	c0 24 60 0c 	clr  [ %l1 + 0xc ]
    8ec0:	c0 24 60 10 	clr  [ %l1 + 0x10 ]
    8ec4:	c0 24 60 14 	clr  [ %l1 + 0x14 ]
    8ec8:	c0 24 60 18 	clr  [ %l1 + 0x18 ]
    8ecc:	c0 24 60 1c 	clr  [ %l1 + 0x1c ]
    8ed0:	c0 24 60 20 	clr  [ %l1 + 0x20 ]
    8ed4:	10 bf ff c5 	b  8de8 <nis_lookup+0xd4>
    8ed8:	ba 10 20 01 	mov  1, %i5
    8edc:	40 00 65 e4 	call  2266c <strlen@plt>
    8ee0:	90 10 00 10 	mov  %l0, %o0
    8ee4:	90 02 00 10 	add  %o0, %l0, %o0
    8ee8:	c2 4a 3f ff 	ldsb  [ %o0 + -1 ], %g1
    8eec:	80 a0 60 2e 	cmp  %g1, 0x2e
    8ef0:	02 bf ff 9f 	be  8d6c <nis_lookup+0x58>
    8ef4:	a4 07 bf d8 	add  %fp, -40, %l2
    8ef8:	7f ff f3 cc 	call  5e28 <nis_getnames>
    8efc:	90 10 00 10 	mov  %l0, %o0
    8f00:	82 07 bf d8 	add  %fp, -40, %g1
    8f04:	a4 92 20 00 	orcc  %o0, 0, %l2
    8f08:	12 bf ff 9b 	bne  8d74 <nis_lookup+0x60>
    8f0c:	c2 27 bf 80 	st  %g1, [ %fp + -128 ]
    8f10:	82 10 20 05 	mov  5, %g1
    8f14:	c2 24 40 00 	st  %g1, [ %l1 ]
    8f18:	10 80 00 98 	b  9178 <nis_lookup+0x464>
    8f1c:	b0 10 00 11 	mov  %l1, %i0
    8f20:	82 19 20 08 	xor  %g4, 8, %g1
    8f24:	80 a0 00 01 	cmp  %g0, %g1
    8f28:	86 60 3f ff 	subx  %g0, -1, %g3
    8f2c:	82 19 20 14 	xor  %g4, 0x14, %g1
    8f30:	80 a0 00 01 	cmp  %g0, %g1
    8f34:	84 60 3f ff 	subx  %g0, -1, %g2
    8f38:	80 90 c0 02 	orcc  %g3, %g2, %g0
    8f3c:	12 80 00 05 	bne  8f50 <nis_lookup+0x23c>
    8f40:	80 a7 60 00 	cmp  %i5, 0
    8f44:	80 a1 20 0c 	cmp  %g4, 0xc
    8f48:	12 80 00 55 	bne  909c <nis_lookup+0x388>
    8f4c:	80 a7 60 00 	cmp  %i5, 0
    8f50:	02 80 00 2a 	be  8ff8 <nis_lookup+0x2e4>
    8f54:	01 00 00 00 	nop 
    8f58:	7f ff fb ea 	call  7f00 <__nisbind_destroy>
    8f5c:	90 10 00 18 	mov  %i0, %o0
    8f60:	7f ff f6 7d 	call  6954 <nis_free_directory>
    8f64:	d0 07 bf 8c 	ld  [ %fp + -116 ], %o0
    8f68:	c0 27 bf 8c 	clr  [ %fp + -116 ]
    8f6c:	d0 07 bf e0 	ld  [ %fp + -32 ], %o0
    8f70:	92 10 20 01 	mov  1, %o1
    8f74:	7f ff fe 80 	call  8974 <__nisfind_server>
    8f78:	94 07 bf 8c 	add  %fp, -116, %o2
    8f7c:	80 a2 20 00 	cmp  %o0, 0
    8f80:	12 80 00 15 	bne  8fd4 <nis_lookup+0x2c0>
    8f84:	c2 07 bf 8c 	ld  [ %fp + -116 ], %g1
    8f88:	d4 00 60 08 	ld  [ %g1 + 8 ], %o2
    8f8c:	90 10 00 18 	mov  %i0, %o0
    8f90:	d2 00 60 0c 	ld  [ %g1 + 0xc ], %o1
    8f94:	7f ff fc f8 	call  8374 <__nisbind_create>
    8f98:	96 10 00 19 	mov  %i1, %o3
    8f9c:	10 80 00 0a 	b  8fc4 <nis_lookup+0x2b0>
    8fa0:	80 a2 20 00 	cmp  %o0, 0
    8fa4:	7f ff fc 6b 	call  8150 <__nisbind_connect>
    8fa8:	90 10 00 18 	mov  %i0, %o0
    8fac:	80 a2 20 00 	cmp  %o0, 0
    8fb0:	22 bf ff 8f 	be,a   8dec <nis_lookup+0xd8>
    8fb4:	c4 05 c0 13 	ld  [ %l7 + %l3 ], %g2
    8fb8:	7f ff fb ee 	call  7f70 <__nisbind_next>
    8fbc:	90 10 00 18 	mov  %i0, %o0
    8fc0:	80 a2 20 00 	cmp  %o0, 0
    8fc4:	02 bf ff f8 	be  8fa4 <nis_lookup+0x290>
    8fc8:	01 00 00 00 	nop 
    8fcc:	7f ff f6 62 	call  6954 <nis_free_directory>
    8fd0:	d0 07 bf 8c 	ld  [ %fp + -116 ], %o0
    8fd4:	9c 10 00 14 	mov  %l4, %sp
    8fd8:	c6 07 bf 80 	ld  [ %fp + -128 ], %g3
    8fdc:	80 a0 c0 12 	cmp  %g3, %l2
    8fe0:	22 80 00 66 	be,a   9178 <nis_lookup+0x464>
    8fe4:	b0 10 00 11 	mov  %l1, %i0
    8fe8:	7f ff f5 06 	call  6400 <nis_freenames>
    8fec:	90 10 00 12 	mov  %l2, %o0
    8ff0:	10 80 00 62 	b  9178 <nis_lookup+0x464>
    8ff4:	b0 10 00 11 	mov  %l1, %i0
    8ff8:	7f ff fb de 	call  7f70 <__nisbind_next>
    8ffc:	90 10 00 18 	mov  %i0, %o0
    9000:	80 a2 20 00 	cmp  %o0, 0
    9004:	02 bf ff e8 	be  8fa4 <nis_lookup+0x290>
    9008:	92 10 00 15 	mov  %l5, %o1
    900c:	94 06 e0 01 	add  %i3, 1, %o2
    9010:	40 00 0e b2 	call  cad8 <nis_domain_of_r>
    9014:	d0 07 bf e0 	ld  [ %fp + -32 ], %o0
    9018:	40 00 65 95 	call  2266c <strlen@plt>
    901c:	90 10 00 15 	mov  %l5, %o0
    9020:	82 02 20 08 	add  %o0, 8, %g1
    9024:	82 08 7f f8 	and  %g1, -8, %g1
    9028:	9c 23 80 01 	sub  %sp, %g1, %sp
    902c:	94 02 20 01 	add  %o0, 1, %o2
    9030:	90 03 a0 68 	add  %sp, 0x68, %o0
    9034:	40 00 65 c7 	call  22750 <memcpy@plt>
    9038:	92 10 00 15 	mov  %l5, %o1
    903c:	d0 27 bf e0 	st  %o0, [ %fp + -32 ]
    9040:	c2 0d 40 00 	ldub  [ %l5 ], %g1
    9044:	82 80 7f d2 	addcc  %g1, -46, %g1
    9048:	22 80 00 02 	be,a   9050 <nis_lookup+0x33c>
    904c:	c2 0d 60 01 	ldub  [ %l5 + 1 ], %g1
    9050:	80 a0 60 00 	cmp  %g1, 0
    9054:	02 80 00 47 	be  9170 <nis_lookup+0x45c>
    9058:	82 10 20 05 	mov  5, %g1
    905c:	7f ff fb a9 	call  7f00 <__nisbind_destroy>
    9060:	90 10 00 18 	mov  %i0, %o0
    9064:	7f ff f6 3c 	call  6954 <nis_free_directory>
    9068:	d0 07 bf 8c 	ld  [ %fp + -116 ], %o0
    906c:	c0 27 bf 8c 	clr  [ %fp + -116 ]
    9070:	d0 07 bf e0 	ld  [ %fp + -32 ], %o0
    9074:	92 07 bf 8c 	add  %fp, -116, %o1
    9078:	94 10 00 18 	mov  %i0, %o2
    907c:	7f ff fe ab 	call  8b28 <__prepare_niscall>
    9080:	96 10 00 19 	mov  %i1, %o3
    9084:	a0 92 20 00 	orcc  %o0, 0, %l0
    9088:	22 bf ff 59 	be,a   8dec <nis_lookup+0xd8>
    908c:	c4 05 c0 13 	ld  [ %l7 + %l3 ], %g2
    9090:	10 bf ff d1 	b  8fd4 <nis_lookup+0x2c0>
    9094:	e0 24 40 00 	st  %l0, [ %l1 ]
    9098:	c2 24 40 00 	st  %g1, [ %l1 ]
    909c:	9c 10 00 14 	mov  %l4, %sp
    90a0:	7f ff fb 98 	call  7f00 <__nisbind_destroy>
    90a4:	90 10 00 18 	mov  %i0, %o0
    90a8:	7f ff f6 2b 	call  6954 <nis_free_directory>
    90ac:	d0 07 bf 8c 	ld  [ %fp + -116 ], %o0
    90b0:	80 a4 20 00 	cmp  %l0, 0
    90b4:	32 bf ff c9 	bne,a   8fd8 <nis_lookup+0x2c4>
    90b8:	e0 24 40 00 	st  %l0, [ %l1 ]
    90bc:	c4 04 40 00 	ld  [ %l1 ], %g2
    90c0:	80 a0 a0 29 	cmp  %g2, 0x29
    90c4:	08 80 00 14 	bleu  9114 <nis_lookup+0x400>
    90c8:	03 00 00 64 	sethi  %hi(0x19000), %g1
    90cc:	80 a5 a0 00 	cmp  %l6, 0
    90d0:	12 80 00 1e 	bne  9148 <nis_lookup+0x434>
    90d4:	c6 07 bf 84 	ld  [ %fp + -124 ], %g3
    90d8:	86 00 e0 01 	inc  %g3
    90dc:	83 28 e0 02 	sll  %g3, 2, %g1
    90e0:	c2 04 80 01 	ld  [ %l2 + %g1 ], %g1
    90e4:	80 a0 60 00 	cmp  %g1, 0
    90e8:	12 80 00 16 	bne  9140 <nis_lookup+0x42c>
    90ec:	c6 27 bf 84 	st  %g3, [ %fp + -124 ]
    90f0:	c2 07 bf 88 	ld  [ %fp + -120 ], %g1
    90f4:	82 00 60 01 	inc  %g1
    90f8:	c2 27 bf 88 	st  %g1, [ %fp + -120 ]
    90fc:	c4 07 bf 88 	ld  [ %fp + -120 ], %g2
    9100:	80 a0 a0 00 	cmp  %g2, 0
    9104:	22 bf ff 20 	be,a   8d84 <nis_lookup+0x70>
    9108:	c0 27 bf 8c 	clr  [ %fp + -116 ]
    910c:	10 bf ff b4 	b  8fdc <nis_lookup+0x2c8>
    9110:	c6 07 bf 80 	ld  [ %fp + -128 ], %g3
    9114:	82 10 63 9c 	or  %g1, 0x39c, %g1
    9118:	86 25 c0 01 	sub  %l7, %g1, %g3
    911c:	85 28 a0 02 	sll  %g2, 2, %g2
    9120:	c2 00 c0 02 	ld  [ %g3 + %g2 ], %g1
    9124:	81 c0 40 03 	jmp  %g1 + %g3
    9128:	01 00 00 00 	nop 
    912c:	a0 10 20 1c 	mov  0x1c, %l0	! 1c <GLIBC_2.0+0x1c>
    9130:	9c 10 00 14 	mov  %l4, %sp
    9134:	12 bf ff 25 	bne  8dc8 <nis_lookup+0xb4>
    9138:	ba 10 20 00 	clr  %i5
    913c:	30 bf ff d9 	b,a   90a0 <nis_lookup+0x38c>
    9140:	10 bf ff ef 	b  90fc <nis_lookup+0x3e8>
    9144:	c2 27 bf e0 	st  %g1, [ %fp + -32 ]
    9148:	40 00 65 a6 	call  227e0 <free@plt>
    914c:	d0 07 bf e0 	ld  [ %fp + -32 ], %o0
    9150:	c4 07 bf 88 	ld  [ %fp + -120 ], %g2
    9154:	82 10 20 19 	mov  0x19, %g1
    9158:	84 00 a0 01 	inc  %g2
    915c:	c2 24 40 00 	st  %g1, [ %l1 ]
    9160:	10 bf ff e7 	b  90fc <nis_lookup+0x3e8>
    9164:	c4 27 bf 88 	st  %g2, [ %fp + -120 ]
    9168:	10 bf ff 9c 	b  8fd8 <nis_lookup+0x2c4>
    916c:	e0 24 40 00 	st  %l0, [ %l1 ]
    9170:	10 bf ff 99 	b  8fd4 <nis_lookup+0x2c0>
    9174:	c2 24 40 00 	st  %g1, [ %l1 ]
    9178:	81 c7 e0 08 	ret 
    917c:	81 e8 00 00 	restore 

00009180 <__create_ib_request>:
__create_ib_request():
    9180:	9d e3 bf 90 	save  %sp, -112, %sp
    9184:	90 10 20 01 	mov  1, %o0
    9188:	40 00 65 90 	call  227c8 <calloc@plt>
    918c:	92 10 20 2c 	mov  0x2c, %o1
    9190:	a2 10 00 18 	mov  %i0, %l1
    9194:	a0 10 00 08 	mov  %o0, %l0
    9198:	80 a2 20 00 	cmp  %o0, 0
    919c:	aa 10 20 00 	clr  %l5
    91a0:	a8 10 20 00 	clr  %l4
    91a4:	ba 10 20 00 	clr  %i5
    91a8:	02 80 00 87 	be  93c4 <__create_ib_request+0x244>
    91ac:	b0 10 20 00 	clr  %i0
    91b0:	f2 22 20 0c 	st  %i1, [ %o0 + 0xc ]
    91b4:	40 00 65 2e 	call  2266c <strlen@plt>
    91b8:	90 10 00 11 	mov  %l1, %o0
    91bc:	82 02 20 08 	add  %o0, 8, %g1
    91c0:	82 08 7f f8 	and  %g1, -8, %g1
    91c4:	9c 23 80 01 	sub  %sp, %g1, %sp
    91c8:	94 02 20 01 	add  %o0, 1, %o2
    91cc:	92 10 00 11 	mov  %l1, %o1
    91d0:	40 00 65 60 	call  22750 <memcpy@plt>
    91d4:	90 03 a0 60 	add  %sp, 0x60, %o0
    91d8:	c2 4a 00 00 	ldsb  [ %o0 ], %g1
    91dc:	80 a0 60 5b 	cmp  %g1, 0x5b
    91e0:	02 80 00 08 	be  9200 <__create_ib_request+0x80>
    91e4:	b2 10 00 08 	mov  %o0, %i1
    91e8:	40 00 65 66 	call  22780 <__strdup@plt>
    91ec:	b0 10 00 10 	mov  %l0, %i0
    91f0:	80 a2 20 00 	cmp  %o0, 0
    91f4:	12 80 00 74 	bne  93c4 <__create_ib_request+0x244>
    91f8:	d0 24 00 00 	st  %o0, [ %l0 ]
    91fc:	30 80 00 0a 	b,a   9224 <__create_ib_request+0xa4>
    9200:	40 00 64 9a 	call  22468 <strchr@plt>
    9204:	92 10 20 5d 	mov  0x5d, %o1
    9208:	80 a2 20 00 	cmp  %o0, 0
    920c:	02 80 00 06 	be  9224 <__create_ib_request+0xa4>
    9210:	d0 24 00 00 	st  %o0, [ %l0 ]
    9214:	c2 4a 20 01 	ldsb  [ %o0 + 1 ], %g1
    9218:	80 a0 60 2c 	cmp  %g1, 0x2c
    921c:	22 80 00 06 	be,a   9234 <__create_ib_request+0xb4>
    9220:	c2 4a 3f ff 	ldsb  [ %o0 + -1 ], %g1
    9224:	40 00 65 6f 	call  227e0 <free@plt>
    9228:	90 10 00 10 	mov  %l0, %o0
    922c:	10 80 00 66 	b  93c4 <__create_ib_request+0x244>
    9230:	b0 10 20 00 	clr  %i0
    9234:	80 a0 60 2c 	cmp  %g1, 0x2c
    9238:	22 80 00 03 	be,a   9244 <__create_ib_request+0xc4>
    923c:	c0 2a 3f ff 	clrb  [ %o0 + -1 ]
    9240:	c0 2a 00 00 	clrb  [ %o0 ]
    9244:	d0 04 00 00 	ld  [ %l0 ], %o0
    9248:	90 02 20 02 	add  %o0, 2, %o0
    924c:	40 00 65 4d 	call  22780 <__strdup@plt>
    9250:	d0 24 00 00 	st  %o0, [ %l0 ]
    9254:	80 a2 20 00 	cmp  %o0, 0
    9258:	02 80 00 47 	be  9374 <__create_ib_request+0x1f4>
    925c:	d0 24 00 00 	st  %o0, [ %l0 ]
    9260:	b2 86 60 01 	inccc  %i1
    9264:	22 80 00 3f 	be,a   9360 <__create_ib_request+0x1e0>
    9268:	ea 24 20 08 	st  %l5, [ %l0 + 8 ]
    926c:	c2 4e 40 00 	ldsb  [ %i1 ], %g1
    9270:	80 a0 60 00 	cmp  %g1, 0
    9274:	22 80 00 3b 	be,a   9360 <__create_ib_request+0x1e0>
    9278:	ea 24 20 08 	st  %l5, [ %l0 + 8 ]
    927c:	b8 10 20 00 	clr  %i4
    9280:	92 10 20 3d 	mov  0x3d, %o1
    9284:	40 00 64 79 	call  22468 <strchr@plt>
    9288:	90 10 00 19 	mov  %i1, %o0
    928c:	b0 10 00 08 	mov  %o0, %i0
    9290:	90 10 00 19 	mov  %i1, %o0
    9294:	40 00 64 75 	call  22468 <strchr@plt>
    9298:	92 10 20 2c 	mov  0x2c, %o1
    929c:	a4 10 00 19 	mov  %i1, %l2
    92a0:	b2 10 00 08 	mov  %o0, %i1
    92a4:	90 10 00 15 	mov  %l5, %o0
    92a8:	80 a6 60 00 	cmp  %i1, 0
    92ac:	02 80 00 04 	be  92bc <__create_ib_request+0x13c>
    92b0:	ac 05 20 01 	add  %l4, 1, %l6
    92b4:	c0 2e 40 00 	clrb  [ %i1 ]
    92b8:	b2 06 60 01 	inc  %i1
    92bc:	80 a6 20 00 	cmp  %i0, 0
    92c0:	02 80 00 3e 	be  93b8 <__create_ib_request+0x238>
    92c4:	80 a5 80 1d 	cmp  %l6, %i5
    92c8:	c0 2e 00 00 	clrb  [ %i0 ]
    92cc:	0a 80 00 09 	bcs  92f0 <__create_ib_request+0x170>
    92d0:	b0 06 20 01 	inc  %i0
    92d4:	b8 07 20 0c 	add  %i4, 0xc, %i4
    92d8:	40 00 65 15 	call  2272c <realloc@plt>
    92dc:	92 10 00 1c 	mov  %i4, %o1
    92e0:	80 a2 20 00 	cmp  %o0, 0
    92e4:	02 80 00 24 	be  9374 <__create_ib_request+0x1f4>
    92e8:	ba 07 60 01 	inc  %i5
    92ec:	aa 10 00 08 	mov  %o0, %l5
    92f0:	82 05 00 14 	add  %l4, %l4, %g1
    92f4:	82 00 40 14 	add  %g1, %l4, %g1
    92f8:	a3 28 60 02 	sll  %g1, 2, %l1
    92fc:	40 00 65 21 	call  22780 <__strdup@plt>
    9300:	90 10 00 12 	mov  %l2, %o0
    9304:	82 10 00 08 	mov  %o0, %g1
    9308:	a6 05 40 11 	add  %l5, %l1, %l3
    930c:	90 10 00 18 	mov  %i0, %o0
    9310:	80 a0 60 00 	cmp  %g1, 0
    9314:	02 80 00 18 	be  9374 <__create_ib_request+0x1f4>
    9318:	c2 25 40 11 	st  %g1, [ %l5 + %l1 ]
    931c:	40 00 64 d4 	call  2266c <strlen@plt>
    9320:	01 00 00 00 	nop 
    9324:	90 02 20 01 	inc  %o0
    9328:	d0 24 e0 04 	st  %o0, [ %l3 + 4 ]
    932c:	40 00 65 15 	call  22780 <__strdup@plt>
    9330:	90 10 00 18 	mov  %i0, %o0
    9334:	80 a2 20 00 	cmp  %o0, 0
    9338:	02 80 00 0d 	be  936c <__create_ib_request+0x1ec>
    933c:	d0 24 e0 08 	st  %o0, [ %l3 + 8 ]
    9340:	80 a6 60 00 	cmp  %i1, 0
    9344:	02 80 00 06 	be  935c <__create_ib_request+0x1dc>
    9348:	a8 10 00 16 	mov  %l6, %l4
    934c:	c2 4e 40 00 	ldsb  [ %i1 ], %g1
    9350:	80 a0 60 00 	cmp  %g1, 0
    9354:	12 bf ff cc 	bne  9284 <__create_ib_request+0x104>
    9358:	92 10 20 3d 	mov  0x3d, %o1
    935c:	ea 24 20 08 	st  %l5, [ %l0 + 8 ]
    9360:	e8 24 20 04 	st  %l4, [ %l0 + 4 ]
    9364:	10 80 00 18 	b  93c4 <__create_ib_request+0x244>
    9368:	b0 10 00 10 	mov  %l0, %i0
    936c:	40 00 65 1d 	call  227e0 <free@plt>
    9370:	d0 05 40 11 	ld  [ %l5 + %l1 ], %o0
    9374:	a8 05 3f ff 	add  %l4, -1, %l4
    9378:	80 a5 3f ff 	cmp  %l4, -1
    937c:	02 80 00 0d 	be  93b0 <__create_ib_request+0x230>
    9380:	82 05 00 14 	add  %l4, %l4, %g1
    9384:	82 00 40 14 	add  %g1, %l4, %g1
    9388:	a3 28 60 02 	sll  %g1, 2, %l1
    938c:	40 00 65 15 	call  227e0 <free@plt>
    9390:	d0 04 40 15 	ld  [ %l1 + %l5 ], %o0
    9394:	82 05 40 11 	add  %l5, %l1, %g1
    9398:	40 00 65 12 	call  227e0 <free@plt>
    939c:	d0 00 60 08 	ld  [ %g1 + 8 ], %o0
    93a0:	a8 05 3f ff 	add  %l4, -1, %l4
    93a4:	80 a5 3f ff 	cmp  %l4, -1
    93a8:	12 bf ff f9 	bne  938c <__create_ib_request+0x20c>
    93ac:	a2 04 7f f4 	add  %l1, -12, %l1
    93b0:	40 00 65 0c 	call  227e0 <free@plt>
    93b4:	90 10 00 15 	mov  %l5, %o0
    93b8:	7f ff f5 58 	call  6918 <nis_free_request>
    93bc:	90 10 00 10 	mov  %l0, %o0
    93c0:	b0 10 20 00 	clr  %i0
    93c4:	81 c7 e0 08 	ret 
    93c8:	81 e8 00 00 	restore 
    93cc:	81 c3 e0 08 	retl 
    93d0:	ae 03 c0 17 	add  %o7, %l7, %l7

000093d4 <__follow_path>:
__follow_path():
    93d4:	9d e3 bf 48 	save  %sp, -184, %sp
    93d8:	c2 06 00 00 	ld  [ %i0 ], %g1
    93dc:	2f 00 00 63 	sethi  %hi(0x18c00), %l7
    93e0:	7f ff ff fb 	call  93cc <__create_ib_request+0x24c>
    93e4:	ae 05 e0 20 	add  %l7, 0x20, %l7	! 18c20 <__FRAME_END__+0x7bf8>
    93e8:	80 a0 60 00 	cmp  %g1, 0
    93ec:	02 80 00 1d 	be  9460 <__follow_path+0x8c>
    93f0:	03 00 00 00 	sethi  %hi(0), %g1
    93f4:	d0 06 40 00 	ld  [ %i1 ], %o0
    93f8:	b6 92 20 00 	orcc  %o0, 0, %i3
    93fc:	02 80 00 5c 	be  956c <__follow_path+0x198>
    9400:	b0 10 20 02 	mov  2, %i0
    9404:	90 10 00 1b 	mov  %i3, %o0
    9408:	40 00 64 18 	call  22468 <strchr@plt>
    940c:	92 10 20 3a 	mov  0x3a, %o1
    9410:	80 a2 20 00 	cmp  %o0, 0
    9414:	02 80 00 05 	be  9428 <__follow_path+0x54>
    9418:	d0 26 40 00 	st  %o0, [ %i1 ]
    941c:	c0 2a 00 00 	clrb  [ %o0 ]
    9420:	82 02 20 01 	add  %o0, 1, %g1
    9424:	c2 26 40 00 	st  %g1, [ %i1 ]
    9428:	c2 4e c0 00 	ldsb  [ %i3 ], %g1
    942c:	80 a0 60 00 	cmp  %g1, 0
    9430:	02 80 00 4f 	be  956c <__follow_path+0x198>
    9434:	b0 10 20 02 	mov  2, %i0
    9438:	40 00 64 d2 	call  22780 <__strdup@plt>
    943c:	90 10 00 1b 	mov  %i3, %o0
    9440:	b6 92 20 00 	orcc  %o0, 0, %i3
    9444:	02 80 00 4a 	be  956c <__follow_path+0x198>
    9448:	b0 10 20 0d 	mov  0xd, %i0
    944c:	40 00 64 e5 	call  227e0 <free@plt>
    9450:	d0 06 80 00 	ld  [ %i2 ], %o0
    9454:	f6 26 80 00 	st  %i3, [ %i2 ]
    9458:	10 80 00 45 	b  956c <__follow_path+0x198>
    945c:	b0 10 20 00 	clr  %i0
    9460:	82 10 62 60 	or  %g1, 0x260, %g1
    9464:	d8 05 c0 01 	ld  [ %l7 + %g1 ], %o4
    9468:	d0 06 c0 00 	ld  [ %i3 ], %o0
    946c:	d4 02 20 04 	ld  [ %o0 + 4 ], %o2
    9470:	82 07 bf b0 	add  %fp, -80, %g1
    9474:	c2 23 a0 5c 	st  %g1, [ %sp + 0x5c ]
    9478:	c2 06 80 00 	ld  [ %i2 ], %g1
    947c:	c2 27 bf b8 	st  %g1, [ %fp + -72 ]
    9480:	1b 00 00 00 	sethi  %hi(0), %o5
    9484:	25 00 00 00 	sethi  %hi(0), %l2
    9488:	d6 03 20 04 	ld  [ %o4 + 4 ], %o3
    948c:	c8 03 00 00 	ld  [ %o4 ], %g4
    9490:	9a 13 63 70 	or  %o5, 0x370, %o5
    9494:	92 14 a3 60 	or  %l2, 0x360, %o1
    9498:	c2 02 80 00 	ld  [ %o2 ], %g1
    949c:	84 10 20 00 	clr  %g2
    94a0:	86 10 20 00 	clr  %g3
    94a4:	d6 27 bf b4 	st  %o3, [ %fp + -76 ]
    94a8:	d4 05 c0 0d 	ld  [ %l7 + %o5 ], %o2
    94ac:	d8 05 c0 09 	ld  [ %l7 + %o1 ], %o4
    94b0:	a2 07 bf c8 	add  %fp, -56, %l1
    94b4:	c4 3f bf e0 	std  %g2, [ %fp + -32 ]
    94b8:	c8 27 bf b0 	st  %g4, [ %fp + -80 ]
    94bc:	c4 3f bf c8 	std  %g2, [ %fp + -56 ]
    94c0:	c4 3f bf d0 	std  %g2, [ %fp + -48 ]
    94c4:	c4 3f bf d8 	std  %g2, [ %fp + -40 ]
    94c8:	c0 27 bf e8 	clr  [ %fp + -24 ]
    94cc:	c0 27 bf bc 	clr  [ %fp + -68 ]
    94d0:	c0 27 bf c0 	clr  [ %fp + -64 ]
    94d4:	92 10 20 01 	mov  1, %o1
    94d8:	96 07 bf b8 	add  %fp, -72, %o3
    94dc:	9f c0 40 00 	call  %g1
    94e0:	9a 10 00 11 	mov  %l1, %o5
    94e4:	a0 92 20 00 	orcc  %o0, 0, %l0
    94e8:	02 80 00 11 	be  952c <__follow_path+0x158>
    94ec:	c2 07 bf c8 	ld  [ %fp + -56 ], %g1
    94f0:	03 00 00 00 	sethi  %hi(0), %g1
    94f4:	82 10 62 68 	or  %g1, 0x268, %g1	! 268 <GLIBC_2.0+0x268>
    94f8:	d0 05 c0 01 	ld  [ %l7 + %g1 ], %o0
    94fc:	40 00 64 a1 	call  22780 <__strdup@plt>
    9500:	01 00 00 00 	nop 
    9504:	80 a4 20 00 	cmp  %l0, 0
    9508:	02 80 00 13 	be  9554 <__follow_path+0x180>
    950c:	b6 10 00 08 	mov  %o0, %i3
    9510:	f6 26 00 00 	st  %i3, [ %i0 ]
    9514:	80 a6 e0 00 	cmp  %i3, 0
    9518:	02 80 00 15 	be  956c <__follow_path+0x198>
    951c:	b0 10 20 0d 	mov  0xd, %i0
    9520:	90 10 00 1b 	mov  %i3, %o0
    9524:	10 bf ff b5 	b  93f8 <__follow_path+0x24>
    9528:	f6 26 40 00 	st  %i3, [ %i1 ]
    952c:	80 a0 60 00 	cmp  %g1, 0
    9530:	12 bf ff f1 	bne  94f4 <__follow_path+0x120>
    9534:	03 00 00 00 	sethi  %hi(0), %g1
    9538:	d0 07 bf d0 	ld  [ %fp + -48 ], %o0
    953c:	c2 02 20 20 	ld  [ %o0 + 0x20 ], %g1
    9540:	80 a0 60 04 	cmp  %g1, 4
    9544:	12 bf ff ec 	bne  94f4 <__follow_path+0x120>
    9548:	03 00 00 00 	sethi  %hi(0), %g1
    954c:	10 bf ff ec 	b  94fc <__follow_path+0x128>
    9550:	d0 02 20 38 	ld  [ %o0 + 0x38 ], %o0
    9554:	82 14 a3 60 	or  %l2, 0x360, %g1
    9558:	d0 05 c0 01 	ld  [ %l7 + %g1 ], %o0
    955c:	40 00 63 e4 	call  224ec <xdr_free@plt>
    9560:	92 10 00 11 	mov  %l1, %o1
    9564:	10 bf ff ec 	b  9514 <__follow_path+0x140>
    9568:	f6 26 00 00 	st  %i3, [ %i0 ]
    956c:	81 c7 e0 08 	ret 
    9570:	81 e8 00 00 	restore 

00009574 <nis_list>:
nis_list():
    9574:	9d e3 bf 28 	save  %sp, -216, %sp
    9578:	2f 00 00 62 	sethi  %hi(0x18800), %l7
    957c:	7f ff ff 94 	call  93cc <__create_ib_request+0x24c>
    9580:	ae 05 e2 84 	add  %l7, 0x284, %l7	! 18a84 <__FRAME_END__+0x7a5c>
    9584:	40 00 64 13 	call  225d0 <malloc@plt>
    9588:	90 10 20 24 	mov  0x24, %o0
    958c:	a0 10 00 08 	mov  %o0, %l0
    9590:	84 10 20 00 	clr  %g2
    9594:	86 10 20 00 	clr  %g3
    9598:	90 10 00 18 	mov  %i0, %o0
    959c:	c4 3f bf e8 	std  %g2, [ %fp + -24 ]
    95a0:	f4 27 a0 4c 	st  %i2, [ %fp + 0x4c ]
    95a4:	f6 27 a0 50 	st  %i3, [ %fp + 0x50 ]
    95a8:	c0 27 bf 98 	clr  [ %fp + -104 ]
    95ac:	80 a4 20 00 	cmp  %l0, 0
    95b0:	ba 10 20 00 	clr  %i5
    95b4:	ac 10 20 00 	clr  %l6
    95b8:	a8 10 20 00 	clr  %l4
    95bc:	a4 10 20 00 	clr  %l2
    95c0:	02 80 01 62 	be  9b48 <nis_list+0x5d4>
    95c4:	b0 10 20 00 	clr  %i0
    95c8:	80 a2 20 00 	cmp  %o0, 0
    95cc:	22 80 00 c7 	be,a   98e8 <nis_list+0x374>
    95d0:	90 10 20 11 	mov  0x11, %o0
    95d4:	7f ff fe eb 	call  9180 <__create_ib_request>
    95d8:	92 10 00 19 	mov  %i1, %o1
    95dc:	b0 92 20 00 	orcc  %o0, 0, %i0
    95e0:	02 80 00 b4 	be  98b0 <nis_list+0x33c>
    95e4:	90 10 20 11 	mov  0x11, %o0
    95e8:	80 8e 60 40 	btst  0x40, %i1
    95ec:	22 80 00 90 	be,a   982c <nis_list+0x2b8>
    95f0:	c4 06 00 00 	ld  [ %i0 ], %g2
    95f4:	40 00 64 1e 	call  2266c <strlen@plt>
    95f8:	d0 06 00 00 	ld  [ %i0 ], %o0
    95fc:	c4 06 00 00 	ld  [ %i0 ], %g2
    9600:	90 00 80 08 	add  %g2, %o0, %o0
    9604:	c2 4a 3f ff 	ldsb  [ %o0 + -1 ], %g1
    9608:	80 a0 60 2e 	cmp  %g1, 0x2e
    960c:	22 80 00 89 	be,a   9830 <nis_list+0x2bc>
    9610:	c4 27 bf e8 	st  %g2, [ %fp + -24 ]
    9614:	7f ff f2 05 	call  5e28 <nis_getnames>
    9618:	90 10 00 02 	mov  %g2, %o0
    961c:	a6 10 00 08 	mov  %o0, %l3
    9620:	40 00 64 70 	call  227e0 <free@plt>
    9624:	d0 06 00 00 	ld  [ %i0 ], %o0
    9628:	80 a4 e0 00 	cmp  %l3, 0
    962c:	02 80 00 ac 	be  98dc <nis_list+0x368>
    9630:	c0 26 00 00 	clr  [ %i0 ]
    9634:	40 00 64 53 	call  22780 <__strdup@plt>
    9638:	d0 04 c0 00 	ld  [ %l3 ], %o0
    963c:	80 a2 20 00 	cmp  %o0, 0
    9640:	02 80 00 97 	be  989c <nis_list+0x328>
    9644:	d0 26 00 00 	st  %o0, [ %i0 ]
    9648:	c0 27 bf 90 	clr  [ %fp + -112 ]
    964c:	a2 07 bf a8 	add  %fp, -88, %l1
    9650:	c0 24 00 00 	clr  [ %l0 ]
    9654:	c0 24 20 04 	clr  [ %l0 + 4 ]
    9658:	c0 24 20 08 	clr  [ %l0 + 8 ]
    965c:	c0 24 20 0c 	clr  [ %l0 + 0xc ]
    9660:	c0 24 20 10 	clr  [ %l0 + 0x10 ]
    9664:	c0 24 20 14 	clr  [ %l0 + 0x14 ]
    9668:	c0 24 20 18 	clr  [ %l0 + 0x18 ]
    966c:	c0 24 20 1c 	clr  [ %l0 + 0x1c ]
    9670:	c0 24 20 20 	clr  [ %l0 + 0x20 ]
    9674:	c2 06 20 08 	ld  [ %i0 + 8 ], %g1
    9678:	80 a0 00 01 	cmp  %g0, %g1
    967c:	92 40 20 00 	addx  %g0, 0, %o1
    9680:	c0 27 bf 9c 	clr  [ %fp + -100 ]
    9684:	d0 06 00 00 	ld  [ %i0 ], %o0
    9688:	7f ff fc bb 	call  8974 <__nisfind_server>
    968c:	94 07 bf 9c 	add  %fp, -100, %o2
    9690:	80 a2 20 00 	cmp  %o0, 0
    9694:	12 80 01 1e 	bne  9b0c <nis_list+0x598>
    9698:	c2 07 bf 9c 	ld  [ %fp + -100 ], %g1
    969c:	d4 00 60 08 	ld  [ %g1 + 8 ], %o2
    96a0:	90 10 00 11 	mov  %l1, %o0
    96a4:	d2 00 60 0c 	ld  [ %g1 + 0xc ], %o1
    96a8:	7f ff fb 33 	call  8374 <__nisbind_create>
    96ac:	96 10 00 19 	mov  %i1, %o3
    96b0:	80 a2 20 00 	cmp  %o0, 0
    96b4:	02 80 00 09 	be  96d8 <nis_list+0x164>
    96b8:	01 00 00 00 	nop 
    96bc:	10 80 00 62 	b  9844 <nis_list+0x2d0>
    96c0:	d0 24 00 00 	st  %o0, [ %l0 ]
    96c4:	7f ff fa 2b 	call  7f70 <__nisbind_next>
    96c8:	01 00 00 00 	nop 
    96cc:	80 a2 20 00 	cmp  %o0, 0
    96d0:	32 80 00 5a 	bne,a   9838 <nis_list+0x2c4>
    96d4:	90 10 20 05 	mov  5, %o0
    96d8:	7f ff fa 9e 	call  8150 <__nisbind_connect>
    96dc:	90 10 00 11 	mov  %l1, %o0
    96e0:	80 a2 20 00 	cmp  %o0, 0
    96e4:	12 bf ff f8 	bne  96c4 <nis_list+0x150>
    96e8:	90 10 00 11 	mov  %l1, %o0
    96ec:	c2 07 a0 4c 	ld  [ %fp + 0x4c ], %g1
    96f0:	80 a0 60 00 	cmp  %g1, 0
    96f4:	02 80 00 0d 	be  9728 <nis_list+0x1b4>
    96f8:	c2 07 bf 90 	ld  [ %fp + -112 ], %g1
    96fc:	80 a0 60 00 	cmp  %g1, 0
    9700:	12 80 01 05 	bne  9b14 <nis_list+0x5a0>
    9704:	d2 07 a0 50 	ld  [ %fp + 0x50 ], %o1
    9708:	d0 07 a0 4c 	ld  [ %fp + 0x4c ], %o0
    970c:	40 00 14 34 	call  e7dc <__nis_create_callback>
    9710:	94 10 00 19 	mov  %i1, %o2
    9714:	c4 02 00 00 	ld  [ %o0 ], %g2
    9718:	82 10 20 01 	mov  1, %g1
    971c:	d0 27 bf 90 	st  %o0, [ %fp + -112 ]
    9720:	c2 26 20 18 	st  %g1, [ %i0 + 0x18 ]
    9724:	c4 26 20 1c 	st  %g2, [ %i0 + 0x1c ]
    9728:	37 00 00 00 	sethi  %hi(0), %i3
    972c:	b4 07 bf a0 	add  %fp, -96, %i2
    9730:	39 00 00 00 	sethi  %hi(0), %i4
    9734:	2b 00 00 00 	sethi  %hi(0), %l5
    9738:	82 16 e2 60 	or  %i3, 0x260, %g1
    973c:	c4 05 c0 01 	ld  [ %l7 + %g1 ], %g2
    9740:	d0 07 bf a8 	ld  [ %fp + -88 ], %o0
    9744:	da 02 20 04 	ld  [ %o0 + 4 ], %o5
    9748:	c2 00 80 00 	ld  [ %g2 ], %g1
    974c:	c6 00 a0 04 	ld  [ %g2 + 4 ], %g3
    9750:	f4 23 a0 5c 	st  %i2, [ %sp + 0x5c ]
    9754:	c2 27 bf a0 	st  %g1, [ %fp + -96 ]
    9758:	88 17 23 50 	or  %i4, 0x350, %g4
    975c:	84 15 63 60 	or  %l5, 0x360, %g2
    9760:	c2 03 40 00 	ld  [ %o5 ], %g1
    9764:	c6 27 bf a4 	st  %g3, [ %fp + -92 ]
    9768:	d4 05 c0 04 	ld  [ %l7 + %g4 ], %o2
    976c:	d8 05 c0 02 	ld  [ %l7 + %g2 ], %o4
    9770:	92 10 20 05 	mov  5, %o1
    9774:	96 10 00 18 	mov  %i0, %o3
    9778:	9f c0 40 00 	call  %g1
    977c:	9a 10 00 10 	mov  %l0, %o5
    9780:	80 a2 20 00 	cmp  %o0, 0
    9784:	12 80 00 ca 	bne  9aac <nis_list+0x538>
    9788:	90 10 20 1c 	mov  0x1c, %o0
    978c:	d0 04 00 00 	ld  [ %l0 ], %o0
    9790:	80 a2 20 1a 	cmp  %o0, 0x1a
    9794:	18 80 00 12 	bgu  97dc <nis_list+0x268>
    9798:	80 a4 a0 00 	cmp  %l2, 0
    979c:	84 10 20 01 	mov  1, %g2
    97a0:	03 00 04 04 	sethi  %hi(0x101000), %g1
    97a4:	85 28 80 08 	sll  %g2, %o0, %g2
    97a8:	82 10 61 00 	or  %g1, 0x100, %g1
    97ac:	80 88 80 01 	btst  %g2, %g1
    97b0:	12 80 00 58 	bne  9910 <nis_list+0x39c>
    97b4:	80 a4 a0 00 	cmp  %l2, 0
    97b8:	03 01 00 00 	sethi  %hi(0x4000000), %g1
    97bc:	82 10 60 03 	or  %g1, 3, %g1	! 4000003 <_end+0x3fdb22b>
    97c0:	80 88 80 01 	btst  %g2, %g1
    97c4:	32 80 00 66 	bne,a   995c <nis_list+0x3e8>
    97c8:	c2 04 20 08 	ld  [ %l0 + 8 ], %g1
    97cc:	03 00 02 00 	sethi  %hi(0x80000), %g1
    97d0:	80 88 80 01 	btst  %g2, %g1
    97d4:	12 80 00 b8 	bne  9ab4 <nis_list+0x540>
    97d8:	80 a4 a0 00 	cmp  %l2, 0
    97dc:	12 80 00 a1 	bne  9a60 <nis_list+0x4ec>
    97e0:	c2 07 bf 90 	ld  [ %fp + -112 ], %g1
    97e4:	40 00 63 ff 	call  227e0 <free@plt>
    97e8:	d0 06 00 00 	ld  [ %i0 ], %o0
    97ec:	80 a7 60 00 	cmp  %i5, 0
    97f0:	12 80 00 98 	bne  9a50 <nis_list+0x4dc>
    97f4:	c0 26 00 00 	clr  [ %i0 ]
    97f8:	a8 05 20 01 	inc  %l4
    97fc:	83 2d 20 02 	sll  %l4, 2, %g1
    9800:	d0 04 c0 01 	ld  [ %l3 + %g1 ], %o0
    9804:	80 a2 20 00 	cmp  %o0, 0
    9808:	22 80 00 95 	be,a   9a5c <nis_list+0x4e8>
    980c:	ac 05 a0 01 	inc  %l6
    9810:	40 00 63 dc 	call  22780 <__strdup@plt>
    9814:	01 00 00 00 	nop 
    9818:	80 a2 20 00 	cmp  %o0, 0
    981c:	02 80 00 8a 	be  9a44 <nis_list+0x4d0>
    9820:	d0 26 00 00 	st  %o0, [ %i0 ]
    9824:	10 bf ff c5 	b  9738 <nis_list+0x1c4>
    9828:	a4 10 20 01 	mov  1, %l2
    982c:	c4 27 bf e8 	st  %g2, [ %fp + -24 ]
    9830:	10 bf ff 86 	b  9648 <nis_list+0xd4>
    9834:	a6 07 bf e8 	add  %fp, -24, %l3
    9838:	d0 24 00 00 	st  %o0, [ %l0 ]
    983c:	7f ff f9 b1 	call  7f00 <__nisbind_destroy>
    9840:	90 10 00 11 	mov  %l1, %o0
    9844:	7f ff f4 44 	call  6954 <nis_free_directory>
    9848:	d0 07 bf 9c 	ld  [ %fp + -100 ], %o0
    984c:	40 00 63 e5 	call  227e0 <free@plt>
    9850:	d0 07 bf 98 	ld  [ %fp + -104 ], %o0
    9854:	c2 07 bf 90 	ld  [ %fp + -112 ], %g1
    9858:	80 a0 60 00 	cmp  %g1, 0
    985c:	22 80 00 07 	be,a   9878 <nis_list+0x304>
    9860:	82 07 bf e8 	add  %fp, -24, %g1
    9864:	40 00 14 af 	call  eb20 <__nis_destroy_callback>
    9868:	90 10 00 01 	mov  %g1, %o0
    986c:	c0 26 20 18 	clr  [ %i0 + 0x18 ]
    9870:	c0 26 20 1c 	clr  [ %i0 + 0x1c ]
    9874:	82 07 bf e8 	add  %fp, -24, %g1
    9878:	80 a0 40 13 	cmp  %g1, %l3
    987c:	02 80 00 04 	be  988c <nis_list+0x318>
    9880:	01 00 00 00 	nop 
    9884:	7f ff f2 df 	call  6400 <nis_freenames>
    9888:	90 10 00 13 	mov  %l3, %o0
    988c:	7f ff f4 23 	call  6918 <nis_free_request>
    9890:	90 10 00 18 	mov  %i0, %o0
    9894:	10 80 00 ad 	b  9b48 <nis_list+0x5d4>
    9898:	b0 10 00 10 	mov  %l0, %i0
    989c:	7f ff f2 d9 	call  6400 <nis_freenames>
    98a0:	90 10 00 13 	mov  %l3, %o0
    98a4:	7f ff f4 1d 	call  6918 <nis_free_request>
    98a8:	90 10 00 18 	mov  %i0, %o0
    98ac:	90 10 20 0d 	mov  0xd, %o0
    98b0:	d0 24 00 00 	st  %o0, [ %l0 ]
    98b4:	c0 24 20 04 	clr  [ %l0 + 4 ]
    98b8:	c0 24 20 08 	clr  [ %l0 + 8 ]
    98bc:	c0 24 20 0c 	clr  [ %l0 + 0xc ]
    98c0:	c0 24 20 10 	clr  [ %l0 + 0x10 ]
    98c4:	c0 24 20 14 	clr  [ %l0 + 0x14 ]
    98c8:	c0 24 20 18 	clr  [ %l0 + 0x18 ]
    98cc:	c0 24 20 1c 	clr  [ %l0 + 0x1c ]
    98d0:	c0 24 20 20 	clr  [ %l0 + 0x20 ]
    98d4:	10 80 00 9d 	b  9b48 <nis_list+0x5d4>
    98d8:	b0 10 00 10 	mov  %l0, %i0
    98dc:	7f ff f4 0f 	call  6918 <nis_free_request>
    98e0:	90 10 00 18 	mov  %i0, %o0
    98e4:	90 10 20 11 	mov  0x11, %o0
    98e8:	d0 24 00 00 	st  %o0, [ %l0 ]
    98ec:	c0 24 20 04 	clr  [ %l0 + 4 ]
    98f0:	c0 24 20 08 	clr  [ %l0 + 8 ]
    98f4:	c0 24 20 0c 	clr  [ %l0 + 0xc ]
    98f8:	c0 24 20 10 	clr  [ %l0 + 0x10 ]
    98fc:	c0 24 20 14 	clr  [ %l0 + 0x14 ]
    9900:	c0 24 20 18 	clr  [ %l0 + 0x18 ]
    9904:	c0 24 20 1c 	clr  [ %l0 + 0x1c ]
    9908:	10 bf ff f3 	b  98d4 <nis_list+0x360>
    990c:	c0 24 20 20 	clr  [ %l0 + 0x20 ]
    9910:	12 80 00 54 	bne  9a60 <nis_list+0x4ec>
    9914:	c2 07 bf 90 	ld  [ %fp + -112 ], %g1
    9918:	7f ff f9 96 	call  7f70 <__nisbind_next>
    991c:	90 10 00 11 	mov  %l1, %o0
    9920:	80 a2 20 00 	cmp  %o0, 0
    9924:	32 80 00 4e 	bne,a   9a5c <nis_list+0x4e8>
    9928:	ac 05 a0 01 	inc  %l6
    992c:	7f ff fa 09 	call  8150 <__nisbind_connect>
    9930:	90 10 00 11 	mov  %l1, %o0
    9934:	80 a2 20 00 	cmp  %o0, 0
    9938:	02 bf ff 80 	be  9738 <nis_list+0x1c4>
    993c:	90 10 00 11 	mov  %l1, %o0
    9940:	7f ff f9 8c 	call  7f70 <__nisbind_next>
    9944:	01 00 00 00 	nop 
    9948:	80 a2 20 00 	cmp  %o0, 0
    994c:	02 bf ff f8 	be  992c <nis_list+0x3b8>
    9950:	01 00 00 00 	nop 
    9954:	10 bf ff 79 	b  9738 <nis_list+0x1c4>
    9958:	ac 05 a0 01 	inc  %l6
    995c:	c4 00 60 20 	ld  [ %g1 + 0x20 ], %g2
    9960:	80 a0 a0 06 	cmp  %g2, 6
    9964:	02 80 00 1d 	be  99d8 <nis_list+0x464>
    9968:	80 8e 60 01 	btst  1, %i1
    996c:	80 8e 60 02 	btst  2, %i1
    9970:	02 80 00 3a 	be  9a58 <nis_list+0x4e4>
    9974:	80 a2 20 1a 	cmp  %o0, 0x1a
    9978:	12 80 00 38 	bne  9a58 <nis_list+0x4e4>
    997c:	90 07 bf 98 	add  %fp, -104, %o0
    9980:	92 07 bf 94 	add  %fp, -108, %o1
    9984:	94 10 00 18 	mov  %i0, %o2
    9988:	7f ff fe 93 	call  93d4 <__follow_path>
    998c:	96 10 00 11 	mov  %l1, %o3
    9990:	80 a2 20 00 	cmp  %o0, 0
    9994:	32 80 00 31 	bne,a   9a58 <nis_list+0x4e4>
    9998:	d0 24 00 00 	st  %o0, [ %l0 ]
    999c:	82 15 63 60 	or  %l5, 0x360, %g1
    99a0:	d0 05 c0 01 	ld  [ %l7 + %g1 ], %o0
    99a4:	40 00 62 d2 	call  224ec <xdr_free@plt>
    99a8:	92 10 00 10 	mov  %l0, %o1
    99ac:	c0 24 00 00 	clr  [ %l0 ]
    99b0:	c0 24 20 04 	clr  [ %l0 + 4 ]
    99b4:	c0 24 20 08 	clr  [ %l0 + 8 ]
    99b8:	c0 24 20 0c 	clr  [ %l0 + 0xc ]
    99bc:	c0 24 20 10 	clr  [ %l0 + 0x10 ]
    99c0:	c0 24 20 14 	clr  [ %l0 + 0x14 ]
    99c4:	c0 24 20 18 	clr  [ %l0 + 0x18 ]
    99c8:	c0 24 20 1c 	clr  [ %l0 + 0x1c ]
    99cc:	c0 24 20 20 	clr  [ %l0 + 0x20 ]
    99d0:	10 bf ff 5a 	b  9738 <nis_list+0x1c4>
    99d4:	a4 10 20 01 	mov  1, %l2
    99d8:	02 bf ff e6 	be  9970 <nis_list+0x3fc>
    99dc:	80 8e 60 02 	btst  2, %i1
    99e0:	40 00 63 80 	call  227e0 <free@plt>
    99e4:	d0 06 00 00 	ld  [ %i0 ], %o0
    99e8:	80 a7 60 10 	cmp  %i5, 0x10
    99ec:	14 80 00 19 	bg  9a50 <nis_list+0x4dc>
    99f0:	c0 26 00 00 	clr  [ %i0 ]
    99f4:	c2 04 20 08 	ld  [ %l0 + 8 ], %g1
    99f8:	40 00 63 62 	call  22780 <__strdup@plt>
    99fc:	d0 00 60 30 	ld  [ %g1 + 0x30 ], %o0
    9a00:	80 a2 20 00 	cmp  %o0, 0
    9a04:	ba 07 60 01 	inc  %i5
    9a08:	02 80 00 4e 	be  9b40 <nis_list+0x5cc>
    9a0c:	d0 26 00 00 	st  %o0, [ %i0 ]
    9a10:	c6 04 20 08 	ld  [ %l0 + 8 ], %g3
    9a14:	c4 00 e0 28 	ld  [ %g3 + 0x28 ], %g2
    9a18:	80 a0 a0 00 	cmp  %g2, 0
    9a1c:	02 bf ff e1 	be  99a0 <nis_list+0x42c>
    9a20:	82 15 63 60 	or  %l5, 0x360, %g1
    9a24:	c2 06 20 04 	ld  [ %i0 + 4 ], %g1
    9a28:	80 a0 60 00 	cmp  %g1, 0
    9a2c:	12 bf ff dd 	bne  99a0 <nis_list+0x42c>
    9a30:	82 15 63 60 	or  %l5, 0x360, %g1
    9a34:	c4 26 20 04 	st  %g2, [ %i0 + 4 ]
    9a38:	c2 00 e0 2c 	ld  [ %g3 + 0x2c ], %g1
    9a3c:	10 bf ff d8 	b  999c <nis_list+0x428>
    9a40:	c2 26 20 08 	st  %g1, [ %i0 + 8 ]
    9a44:	82 10 20 0d 	mov  0xd, %g1
    9a48:	10 bf ff 7d 	b  983c <nis_list+0x2c8>
    9a4c:	c2 24 00 00 	st  %g1, [ %l0 ]
    9a50:	90 10 20 19 	mov  0x19, %o0
    9a54:	d0 24 00 00 	st  %o0, [ %l0 ]
    9a58:	ac 05 a0 01 	inc  %l6
    9a5c:	c2 07 bf 90 	ld  [ %fp + -112 ], %g1
    9a60:	80 a0 60 00 	cmp  %g1, 0
    9a64:	02 80 00 07 	be  9a80 <nis_list+0x50c>
    9a68:	a4 10 20 00 	clr  %l2
    9a6c:	40 00 14 2d 	call  eb20 <__nis_destroy_callback>
    9a70:	90 10 00 01 	mov  %g1, %o0
    9a74:	c0 26 20 18 	clr  [ %i0 + 0x18 ]
    9a78:	c0 26 20 1c 	clr  [ %i0 + 0x1c ]
    9a7c:	c0 27 bf 90 	clr  [ %fp + -112 ]
    9a80:	7f ff f9 20 	call  7f00 <__nisbind_destroy>
    9a84:	90 10 00 11 	mov  %l1, %o0
    9a88:	7f ff f3 b3 	call  6954 <nis_free_directory>
    9a8c:	d0 07 bf 9c 	ld  [ %fp + -100 ], %o0
    9a90:	80 a5 a0 00 	cmp  %l6, 0
    9a94:	22 bf fe f0 	be,a   9654 <nis_list+0xe0>
    9a98:	c0 24 00 00 	clr  [ %l0 ]
    9a9c:	40 00 63 51 	call  227e0 <free@plt>
    9aa0:	d0 07 bf 98 	ld  [ %fp + -104 ], %o0
    9aa4:	10 bf ff 75 	b  9878 <nis_list+0x304>
    9aa8:	82 07 bf e8 	add  %fp, -24, %g1
    9aac:	10 bf ff ec 	b  9a5c <nis_list+0x4e8>
    9ab0:	d0 24 00 00 	st  %o0, [ %l0 ]
    9ab4:	c2 07 bf 90 	ld  [ %fp + -112 ], %g1
    9ab8:	80 a0 60 00 	cmp  %g1, 0
    9abc:	02 bf ff ea 	be  9a64 <nis_list+0x4f0>
    9ac0:	94 10 00 01 	mov  %g1, %o2
    9ac4:	90 10 00 11 	mov  %l1, %o0
    9ac8:	40 00 12 bf 	call  e5c4 <__nis_do_callback>
    9acc:	92 04 20 0c 	add  %l0, 0xc, %o1
    9ad0:	c2 07 bf 90 	ld  [ %fp + -112 ], %g1
    9ad4:	d0 00 60 10 	ld  [ %g1 + 0x10 ], %o0
    9ad8:	80 8e 60 08 	btst  8, %i1
    9adc:	02 bf ff df 	be  9a58 <nis_list+0x4e4>
    9ae0:	d0 24 00 00 	st  %o0, [ %l0 ]
    9ae4:	90 07 bf 98 	add  %fp, -104, %o0
    9ae8:	92 07 bf 94 	add  %fp, -108, %o1
    9aec:	94 10 00 18 	mov  %i0, %o2
    9af0:	7f ff fe 39 	call  93d4 <__follow_path>
    9af4:	96 10 00 11 	mov  %l1, %o3
    9af8:	80 a2 20 00 	cmp  %o0, 0
    9afc:	02 bf ff d8 	be  9a5c <nis_list+0x4e8>
    9b00:	d0 24 00 00 	st  %o0, [ %l0 ]
    9b04:	10 bf ff d6 	b  9a5c <nis_list+0x4e8>
    9b08:	ac 05 a0 01 	inc  %l6
    9b0c:	10 bf ff 50 	b  984c <nis_list+0x2d8>
    9b10:	d0 24 00 00 	st  %o0, [ %l0 ]
    9b14:	03 00 00 00 	sethi  %hi(0), %g1
    9b18:	05 00 00 00 	sethi  %hi(0), %g2
    9b1c:	07 00 00 00 	sethi  %hi(0), %g3
    9b20:	82 10 62 6c 	or  %g1, 0x26c, %g1
    9b24:	84 10 a2 70 	or  %g2, 0x270, %g2
    9b28:	86 10 e2 64 	or  %g3, 0x264, %g3
    9b2c:	d0 05 c0 01 	ld  [ %l7 + %g1 ], %o0
    9b30:	d2 05 c0 02 	ld  [ %l7 + %g2 ], %o1
    9b34:	d6 05 c0 03 	ld  [ %l7 + %g3 ], %o3
    9b38:	40 00 62 85 	call  2254c <__assert_fail@plt>
    9b3c:	94 10 21 2b 	mov  0x12b, %o2
    9b40:	10 bf ff 3e 	b  9838 <nis_list+0x2c4>
    9b44:	90 10 20 0d 	mov  0xd, %o0
    9b48:	81 c7 e0 08 	ret 
    9b4c:	81 e8 00 00 	restore 

00009b50 <nis_add_entry>:
nis_add_entry():
    9b50:	9d e3 bf 48 	save  %sp, -184, %sp
    9b54:	2f 00 00 61 	sethi  %hi(0x18400), %l7
    9b58:	7f ff fe 1d 	call  93cc <__create_ib_request+0x24c>
    9b5c:	ae 05 e0 a8 	add  %l7, 0xa8, %l7	! 184a8 <__FRAME_END__+0x7480>
    9b60:	92 10 20 24 	mov  0x24, %o1
    9b64:	a4 10 00 0e 	mov  %sp, %l2
    9b68:	40 00 63 18 	call  227c8 <calloc@plt>
    9b6c:	90 10 20 01 	mov  1, %o0
    9b70:	a2 10 00 18 	mov  %i0, %l1
    9b74:	a0 10 00 08 	mov  %o0, %l0
    9b78:	92 10 00 1a 	mov  %i2, %o1
    9b7c:	80 a2 20 00 	cmp  %o0, 0
    9b80:	02 80 00 65 	be  9d14 <nis_add_entry+0x1c4>
    9b84:	b0 10 20 00 	clr  %i0
    9b88:	80 a4 60 00 	cmp  %l1, 0
    9b8c:	02 80 00 45 	be  9ca0 <nis_add_entry+0x150>
    9b90:	82 10 20 11 	mov  0x11, %g1
    9b94:	7f ff fd 7b 	call  9180 <__create_ib_request>
    9b98:	90 10 00 11 	mov  %l1, %o0
    9b9c:	b4 92 20 00 	orcc  %o0, 0, %i2
    9ba0:	02 80 00 3f 	be  9c9c <nis_add_entry+0x14c>
    9ba4:	a6 07 bf b0 	add  %fp, -80, %l3
    9ba8:	92 10 00 19 	mov  %i1, %o1
    9bac:	94 10 20 40 	mov  0x40, %o2
    9bb0:	40 00 62 e8 	call  22750 <memcpy@plt>
    9bb4:	90 10 00 13 	mov  %l3, %o0
    9bb8:	40 00 62 ad 	call  2266c <strlen@plt>
    9bbc:	90 10 00 11 	mov  %l1, %o0
    9bc0:	82 02 20 1b 	add  %o0, 0x1b, %g1
    9bc4:	82 08 7f f8 	and  %g1, -8, %g1
    9bc8:	9c 23 80 01 	sub  %sp, %g1, %sp
    9bcc:	92 03 a0 68 	add  %sp, 0x68, %o1
    9bd0:	9c 23 80 01 	sub  %sp, %g1, %sp
    9bd4:	c2 07 bf b8 	ld  [ %fp + -72 ], %g1
    9bd8:	80 a0 60 00 	cmp  %g1, 0
    9bdc:	b0 02 20 13 	add  %o0, 0x13, %i0
    9be0:	94 02 20 14 	add  %o0, 0x14, %o2
    9be4:	02 80 00 32 	be  9cac <nis_add_entry+0x15c>
    9be8:	b2 03 a0 68 	add  %sp, 0x68, %i1
    9bec:	c2 48 40 00 	ldsb  [ %g1 ], %g1
    9bf0:	80 a0 60 00 	cmp  %g1, 0
    9bf4:	02 80 00 2e 	be  9cac <nis_add_entry+0x15c>
    9bf8:	01 00 00 00 	nop 
    9bfc:	c2 07 bf bc 	ld  [ %fp + -68 ], %g1
    9c00:	80 a0 60 00 	cmp  %g1, 0
    9c04:	02 80 00 06 	be  9c1c <nis_add_entry+0xcc>
    9c08:	01 00 00 00 	nop 
    9c0c:	c2 48 40 00 	ldsb  [ %g1 ], %g1
    9c10:	80 a0 60 00 	cmp  %g1, 0
    9c14:	12 80 00 06 	bne  9c2c <nis_add_entry+0xdc>
    9c18:	c2 07 bf c0 	ld  [ %fp + -64 ], %g1
    9c1c:	7f ff f2 c8 	call  673c <nis_local_principal>
    9c20:	01 00 00 00 	nop 
    9c24:	d0 27 bf bc 	st  %o0, [ %fp + -68 ]
    9c28:	c2 07 bf c0 	ld  [ %fp + -64 ], %g1
    9c2c:	80 a0 60 00 	cmp  %g1, 0
    9c30:	02 80 00 06 	be  9c48 <nis_add_entry+0xf8>
    9c34:	01 00 00 00 	nop 
    9c38:	c2 48 40 00 	ldsb  [ %g1 ], %g1
    9c3c:	80 a0 60 00 	cmp  %g1, 0
    9c40:	32 80 00 06 	bne,a   9c58 <nis_add_entry+0x108>
    9c44:	92 10 00 19 	mov  %i1, %o1
    9c48:	7f ff f2 56 	call  65a0 <nis_local_group>
    9c4c:	01 00 00 00 	nop 
    9c50:	d0 27 bf c0 	st  %o0, [ %fp + -64 ]
    9c54:	92 10 00 19 	mov  %i1, %o1
    9c58:	94 06 20 01 	add  %i0, 1, %o2
    9c5c:	40 00 0b 9f 	call  cad8 <nis_domain_of_r>
    9c60:	90 10 00 11 	mov  %l1, %o0
    9c64:	d0 27 bf c4 	st  %o0, [ %fp + -60 ]
    9c68:	90 10 00 13 	mov  %l3, %o0
    9c6c:	40 00 14 29 	call  ed10 <nis_clone_object>
    9c70:	92 10 20 00 	clr  %o1
    9c74:	80 a2 20 00 	cmp  %o0, 0
    9c78:	12 80 00 11 	bne  9cbc <nis_add_entry+0x16c>
    9c7c:	d0 26 a0 14 	st  %o0, [ %i2 + 0x14 ]
    9c80:	7f ff f3 26 	call  6918 <nis_free_request>
    9c84:	90 10 00 1a 	mov  %i2, %o0
    9c88:	82 10 20 0d 	mov  0xd, %g1
    9c8c:	c2 24 00 00 	st  %g1, [ %l0 ]
    9c90:	b0 10 00 10 	mov  %l0, %i0
    9c94:	10 80 00 20 	b  9d14 <nis_add_entry+0x1c4>
    9c98:	9c 10 00 12 	mov  %l2, %sp
    9c9c:	82 10 20 11 	mov  0x11, %g1
    9ca0:	c2 24 00 00 	st  %g1, [ %l0 ]
    9ca4:	10 80 00 1c 	b  9d14 <nis_add_entry+0x1c4>
    9ca8:	b0 10 00 10 	mov  %l0, %i0
    9cac:	7f ff ef fc 	call  5c9c <nis_leaf_of_r>
    9cb0:	90 10 00 11 	mov  %l1, %o0
    9cb4:	10 bf ff d2 	b  9bfc <nis_add_entry+0xac>
    9cb8:	d0 27 bf b8 	st  %o0, [ %fp + -72 ]
    9cbc:	82 10 20 01 	mov  1, %g1
    9cc0:	c2 26 a0 10 	st  %g1, [ %i2 + 0x10 ]
    9cc4:	05 00 00 00 	sethi  %hi(0), %g2
    9cc8:	03 00 00 00 	sethi  %hi(0), %g1
    9ccc:	c0 23 a0 5c 	clr  [ %sp + 0x5c ]
    9cd0:	c0 23 a0 60 	clr  [ %sp + 0x60 ]
    9cd4:	84 10 a3 50 	or  %g2, 0x350, %g2
    9cd8:	82 10 63 60 	or  %g1, 0x360, %g1
    9cdc:	d4 05 c0 02 	ld  [ %l7 + %g2 ], %o2
    9ce0:	d8 05 c0 01 	ld  [ %l7 + %g1 ], %o4
    9ce4:	d0 06 80 00 	ld  [ %i2 ], %o0
    9ce8:	92 10 20 06 	mov  6, %o1
    9cec:	96 10 00 1a 	mov  %i2, %o3
    9cf0:	7f ff fb bc 	call  8be0 <__do_niscall>
    9cf4:	9a 10 00 10 	mov  %l0, %o5
    9cf8:	80 a2 20 00 	cmp  %o0, 0
    9cfc:	32 80 00 02 	bne,a   9d04 <nis_add_entry+0x1b4>
    9d00:	d0 24 00 00 	st  %o0, [ %l0 ]
    9d04:	7f ff f3 05 	call  6918 <nis_free_request>
    9d08:	90 10 00 1a 	mov  %i2, %o0
    9d0c:	b0 10 00 10 	mov  %l0, %i0
    9d10:	9c 10 00 12 	mov  %l2, %sp
    9d14:	81 c7 e0 08 	ret 
    9d18:	81 e8 00 00 	restore 

00009d1c <nis_modify_entry>:
nis_modify_entry():
    9d1c:	9d e3 bf 48 	save  %sp, -184, %sp
    9d20:	2f 00 00 60 	sethi  %hi(0x18000), %l7
    9d24:	7f ff fd aa 	call  93cc <__create_ib_request+0x24c>
    9d28:	ae 05 e2 dc 	add  %l7, 0x2dc, %l7	! 182dc <__FRAME_END__+0x72b4>
    9d2c:	90 10 00 18 	mov  %i0, %o0
    9d30:	40 00 62 4f 	call  2266c <strlen@plt>
    9d34:	a6 10 00 0e 	mov  %sp, %l3
    9d38:	82 02 20 1b 	add  %o0, 0x1b, %g1
    9d3c:	82 08 7f f8 	and  %g1, -8, %g1
    9d40:	9c 23 80 01 	sub  %sp, %g1, %sp
    9d44:	a4 03 a0 68 	add  %sp, 0x68, %l2
    9d48:	9c 23 80 01 	sub  %sp, %g1, %sp
    9d4c:	aa 02 20 13 	add  %o0, 0x13, %l5
    9d50:	a2 02 20 14 	add  %o0, 0x14, %l1
    9d54:	92 10 20 24 	mov  0x24, %o1
    9d58:	a8 03 a0 68 	add  %sp, 0x68, %l4
    9d5c:	40 00 62 9b 	call  227c8 <calloc@plt>
    9d60:	90 10 20 01 	mov  1, %o0
    9d64:	a0 10 00 18 	mov  %i0, %l0
    9d68:	b0 10 00 08 	mov  %o0, %i0
    9d6c:	80 a2 20 00 	cmp  %o0, 0
    9d70:	02 80 00 57 	be  9ecc <nis_modify_entry+0x1b0>
    9d74:	92 10 00 1a 	mov  %i2, %o1
    9d78:	7f ff fd 02 	call  9180 <__create_ib_request>
    9d7c:	90 10 00 10 	mov  %l0, %o0
    9d80:	b4 92 20 00 	orcc  %o0, 0, %i2
    9d84:	02 80 00 38 	be  9e64 <nis_modify_entry+0x148>
    9d88:	82 10 20 11 	mov  0x11, %g1
    9d8c:	ac 07 bf b0 	add  %fp, -80, %l6
    9d90:	92 10 00 19 	mov  %i1, %o1
    9d94:	90 10 00 16 	mov  %l6, %o0
    9d98:	40 00 62 6e 	call  22750 <memcpy@plt>
    9d9c:	94 10 20 40 	mov  0x40, %o2
    9da0:	c2 07 bf b8 	ld  [ %fp + -72 ], %g1
    9da4:	80 a0 60 00 	cmp  %g1, 0
    9da8:	02 80 00 07 	be  9dc4 <nis_modify_entry+0xa8>
    9dac:	92 10 00 12 	mov  %l2, %o1
    9db0:	c2 48 40 00 	ldsb  [ %g1 ], %g1
    9db4:	80 a0 60 00 	cmp  %g1, 0
    9db8:	12 80 00 08 	bne  9dd8 <nis_modify_entry+0xbc>
    9dbc:	c2 07 bf bc 	ld  [ %fp + -68 ], %g1
    9dc0:	92 10 00 12 	mov  %l2, %o1
    9dc4:	94 10 00 11 	mov  %l1, %o2
    9dc8:	7f ff ef b5 	call  5c9c <nis_leaf_of_r>
    9dcc:	90 10 00 10 	mov  %l0, %o0
    9dd0:	d0 27 bf b8 	st  %o0, [ %fp + -72 ]
    9dd4:	c2 07 bf bc 	ld  [ %fp + -68 ], %g1
    9dd8:	80 a0 60 00 	cmp  %g1, 0
    9ddc:	02 80 00 06 	be  9df4 <nis_modify_entry+0xd8>
    9de0:	01 00 00 00 	nop 
    9de4:	c2 48 40 00 	ldsb  [ %g1 ], %g1
    9de8:	80 a0 60 00 	cmp  %g1, 0
    9dec:	12 80 00 06 	bne  9e04 <nis_modify_entry+0xe8>
    9df0:	c2 07 bf c0 	ld  [ %fp + -64 ], %g1
    9df4:	7f ff f2 52 	call  673c <nis_local_principal>
    9df8:	01 00 00 00 	nop 
    9dfc:	d0 27 bf bc 	st  %o0, [ %fp + -68 ]
    9e00:	c2 07 bf c0 	ld  [ %fp + -64 ], %g1
    9e04:	80 a0 60 00 	cmp  %g1, 0
    9e08:	02 80 00 06 	be  9e20 <nis_modify_entry+0x104>
    9e0c:	01 00 00 00 	nop 
    9e10:	c2 48 40 00 	ldsb  [ %g1 ], %g1
    9e14:	80 a0 60 00 	cmp  %g1, 0
    9e18:	32 80 00 06 	bne,a   9e30 <nis_modify_entry+0x114>
    9e1c:	92 10 00 14 	mov  %l4, %o1
    9e20:	7f ff f1 e0 	call  65a0 <nis_local_group>
    9e24:	01 00 00 00 	nop 
    9e28:	d0 27 bf c0 	st  %o0, [ %fp + -64 ]
    9e2c:	92 10 00 14 	mov  %l4, %o1
    9e30:	94 05 60 01 	add  %l5, 1, %o2
    9e34:	40 00 0b 29 	call  cad8 <nis_domain_of_r>
    9e38:	90 10 00 10 	mov  %l0, %o0
    9e3c:	d0 27 bf c4 	st  %o0, [ %fp + -60 ]
    9e40:	90 10 00 16 	mov  %l6, %o0
    9e44:	40 00 13 b3 	call  ed10 <nis_clone_object>
    9e48:	92 10 20 00 	clr  %o1
    9e4c:	80 a2 20 00 	cmp  %o0, 0
    9e50:	12 80 00 09 	bne  9e74 <nis_modify_entry+0x158>
    9e54:	d0 26 a0 14 	st  %o0, [ %i2 + 0x14 ]
    9e58:	7f ff f2 b0 	call  6918 <nis_free_request>
    9e5c:	90 10 00 1a 	mov  %i2, %o0
    9e60:	82 10 20 0d 	mov  0xd, %g1
    9e64:	c2 26 00 00 	st  %g1, [ %i0 ]
    9e68:	90 10 00 18 	mov  %i0, %o0
    9e6c:	10 80 00 1a 	b  9ed4 <nis_modify_entry+0x1b8>
    9e70:	9c 10 00 13 	mov  %l3, %sp
    9e74:	82 10 20 01 	mov  1, %g1
    9e78:	c2 26 a0 10 	st  %g1, [ %i2 + 0x10 ]
    9e7c:	05 00 00 00 	sethi  %hi(0), %g2
    9e80:	03 00 00 00 	sethi  %hi(0), %g1
    9e84:	c0 23 a0 5c 	clr  [ %sp + 0x5c ]
    9e88:	c0 23 a0 60 	clr  [ %sp + 0x60 ]
    9e8c:	84 10 a3 50 	or  %g2, 0x350, %g2
    9e90:	82 10 63 60 	or  %g1, 0x360, %g1
    9e94:	d4 05 c0 02 	ld  [ %l7 + %g2 ], %o2
    9e98:	d8 05 c0 01 	ld  [ %l7 + %g1 ], %o4
    9e9c:	d0 06 80 00 	ld  [ %i2 ], %o0
    9ea0:	92 10 20 07 	mov  7, %o1
    9ea4:	96 10 00 1a 	mov  %i2, %o3
    9ea8:	7f ff fb 4e 	call  8be0 <__do_niscall>
    9eac:	9a 10 00 18 	mov  %i0, %o5
    9eb0:	80 a2 20 00 	cmp  %o0, 0
    9eb4:	32 80 00 02 	bne,a   9ebc <nis_modify_entry+0x1a0>
    9eb8:	d0 26 00 00 	st  %o0, [ %i0 ]
    9ebc:	7f ff f2 97 	call  6918 <nis_free_request>
    9ec0:	90 10 00 1a 	mov  %i2, %o0
    9ec4:	10 bf ff ea 	b  9e6c <nis_modify_entry+0x150>
    9ec8:	90 10 00 18 	mov  %i0, %o0
    9ecc:	90 10 20 00 	clr  %o0
    9ed0:	9c 10 00 13 	mov  %l3, %sp
    9ed4:	81 c7 e0 08 	ret 
    9ed8:	91 e8 00 08 	restore  %g0, %o0, %o0

00009edc <nis_remove_entry>:
nis_remove_entry():
    9edc:	9d e3 bf 88 	save  %sp, -120, %sp
    9ee0:	2f 00 00 60 	sethi  %hi(0x18000), %l7
    9ee4:	7f ff fd 3a 	call  93cc <__create_ib_request+0x24c>
    9ee8:	ae 05 e1 1c 	add  %l7, 0x11c, %l7	! 1811c <__FRAME_END__+0x70f4>
    9eec:	92 10 20 24 	mov  0x24, %o1
    9ef0:	40 00 62 36 	call  227c8 <calloc@plt>
    9ef4:	90 10 20 01 	mov  1, %o0
    9ef8:	a0 10 00 08 	mov  %o0, %l0
    9efc:	90 10 00 18 	mov  %i0, %o0
    9f00:	92 10 00 1a 	mov  %i2, %o1
    9f04:	80 a4 20 00 	cmp  %l0, 0
    9f08:	02 80 00 30 	be  9fc8 <nis_remove_entry+0xec>
    9f0c:	b0 10 20 00 	clr  %i0
    9f10:	80 a2 20 00 	cmp  %o0, 0
    9f14:	02 80 00 25 	be  9fa8 <nis_remove_entry+0xcc>
    9f18:	82 10 20 11 	mov  0x11, %g1
    9f1c:	7f ff fc 99 	call  9180 <__create_ib_request>
    9f20:	01 00 00 00 	nop 
    9f24:	b4 92 20 00 	orcc  %o0, 0, %i2
    9f28:	02 80 00 1f 	be  9fa4 <nis_remove_entry+0xc8>
    9f2c:	80 a6 60 00 	cmp  %i1, 0
    9f30:	02 80 00 09 	be  9f54 <nis_remove_entry+0x78>
    9f34:	90 10 00 19 	mov  %i1, %o0
    9f38:	40 00 13 76 	call  ed10 <nis_clone_object>
    9f3c:	92 10 20 00 	clr  %o1
    9f40:	80 a2 20 00 	cmp  %o0, 0
    9f44:	02 80 00 1c 	be  9fb4 <nis_remove_entry+0xd8>
    9f48:	d0 26 a0 14 	st  %o0, [ %i2 + 0x14 ]
    9f4c:	82 10 20 01 	mov  1, %g1
    9f50:	c2 26 a0 10 	st  %g1, [ %i2 + 0x10 ]
    9f54:	03 00 00 00 	sethi  %hi(0), %g1
    9f58:	05 00 00 00 	sethi  %hi(0), %g2
    9f5c:	c0 23 a0 5c 	clr  [ %sp + 0x5c ]
    9f60:	c0 23 a0 60 	clr  [ %sp + 0x60 ]
    9f64:	82 10 63 50 	or  %g1, 0x350, %g1
    9f68:	84 10 a3 60 	or  %g2, 0x360, %g2
    9f6c:	d4 05 c0 01 	ld  [ %l7 + %g1 ], %o2
    9f70:	d8 05 c0 02 	ld  [ %l7 + %g2 ], %o4
    9f74:	d0 06 80 00 	ld  [ %i2 ], %o0
    9f78:	92 10 20 08 	mov  8, %o1
    9f7c:	96 10 00 1a 	mov  %i2, %o3
    9f80:	7f ff fb 18 	call  8be0 <__do_niscall>
    9f84:	9a 10 00 10 	mov  %l0, %o5
    9f88:	80 a2 20 00 	cmp  %o0, 0
    9f8c:	32 80 00 02 	bne,a   9f94 <nis_remove_entry+0xb8>
    9f90:	d0 24 00 00 	st  %o0, [ %l0 ]
    9f94:	7f ff f2 61 	call  6918 <nis_free_request>
    9f98:	90 10 00 1a 	mov  %i2, %o0
    9f9c:	10 80 00 0b 	b  9fc8 <nis_remove_entry+0xec>
    9fa0:	b0 10 00 10 	mov  %l0, %i0
    9fa4:	82 10 20 11 	mov  0x11, %g1
    9fa8:	c2 24 00 00 	st  %g1, [ %l0 ]
    9fac:	10 80 00 07 	b  9fc8 <nis_remove_entry+0xec>
    9fb0:	b0 10 00 10 	mov  %l0, %i0
    9fb4:	7f ff f2 59 	call  6918 <nis_free_request>
    9fb8:	90 10 00 1a 	mov  %i2, %o0
    9fbc:	82 10 20 0d 	mov  0xd, %g1
    9fc0:	10 bf ff fb 	b  9fac <nis_remove_entry+0xd0>
    9fc4:	c2 24 00 00 	st  %g1, [ %l0 ]
    9fc8:	81 c7 e0 08 	ret 
    9fcc:	81 e8 00 00 	restore 

00009fd0 <nis_first_entry>:
nis_first_entry():
    9fd0:	9d e3 bf 88 	save  %sp, -120, %sp
    9fd4:	2f 00 00 60 	sethi  %hi(0x18000), %l7
    9fd8:	7f ff fc fd 	call  93cc <__create_ib_request+0x24c>
    9fdc:	ae 05 e0 28 	add  %l7, 0x28, %l7	! 18028 <__FRAME_END__+0x7000>
    9fe0:	92 10 20 24 	mov  0x24, %o1
    9fe4:	40 00 61 f9 	call  227c8 <calloc@plt>
    9fe8:	90 10 20 01 	mov  1, %o0
    9fec:	82 10 00 18 	mov  %i0, %g1
    9ff0:	a0 10 00 08 	mov  %o0, %l0
    9ff4:	80 a2 20 00 	cmp  %o0, 0
    9ff8:	02 80 00 25 	be  a08c <nis_first_entry+0xbc>
    9ffc:	b0 10 20 00 	clr  %i0
    a000:	90 10 00 01 	mov  %g1, %o0
    a004:	92 10 20 00 	clr  %o1
    a008:	80 a0 60 00 	cmp  %g1, 0
    a00c:	02 80 00 1b 	be  a078 <nis_first_entry+0xa8>
    a010:	b0 10 00 10 	mov  %l0, %i0
    a014:	7f ff fc 5b 	call  9180 <__create_ib_request>
    a018:	01 00 00 00 	nop 
    a01c:	03 00 00 00 	sethi  %hi(0), %g1
    a020:	05 00 00 00 	sethi  %hi(0), %g2
    a024:	a2 10 00 08 	mov  %o0, %l1
    a028:	82 10 63 50 	or  %g1, 0x350, %g1
    a02c:	84 10 a3 60 	or  %g2, 0x360, %g2
    a030:	92 10 20 09 	mov  9, %o1
    a034:	96 10 00 08 	mov  %o0, %o3
    a038:	80 a2 20 00 	cmp  %o0, 0
    a03c:	02 80 00 0f 	be  a078 <nis_first_entry+0xa8>
    a040:	9a 10 00 10 	mov  %l0, %o5
    a044:	c0 23 a0 5c 	clr  [ %sp + 0x5c ]
    a048:	c0 23 a0 60 	clr  [ %sp + 0x60 ]
    a04c:	d4 05 c0 01 	ld  [ %l7 + %g1 ], %o2
    a050:	d8 05 c0 02 	ld  [ %l7 + %g2 ], %o4
    a054:	7f ff fa e3 	call  8be0 <__do_niscall>
    a058:	d0 02 00 00 	ld  [ %o0 ], %o0
    a05c:	82 10 00 08 	mov  %o0, %g1
    a060:	80 a0 60 00 	cmp  %g1, 0
    a064:	12 80 00 08 	bne  a084 <nis_first_entry+0xb4>
    a068:	90 10 00 11 	mov  %l1, %o0
    a06c:	7f ff f2 2b 	call  6918 <nis_free_request>
    a070:	b0 10 00 10 	mov  %l0, %i0
    a074:	30 80 00 06 	b,a   a08c <nis_first_entry+0xbc>
    a078:	82 10 20 11 	mov  0x11, %g1
    a07c:	10 80 00 04 	b  a08c <nis_first_entry+0xbc>
    a080:	c2 24 00 00 	st  %g1, [ %l0 ]
    a084:	10 bf ff fa 	b  a06c <nis_first_entry+0x9c>
    a088:	c2 24 00 00 	st  %g1, [ %l0 ]
    a08c:	81 c7 e0 08 	ret 
    a090:	81 e8 00 00 	restore 

0000a094 <nis_next_entry>:
nis_next_entry():
    a094:	9d e3 bf 88 	save  %sp, -120, %sp
    a098:	2f 00 00 5f 	sethi  %hi(0x17c00), %l7
    a09c:	7f ff fc cc 	call  93cc <__create_ib_request+0x24c>
    a0a0:	ae 05 e3 64 	add  %l7, 0x364, %l7	! 17f64 <__FRAME_END__+0x6f3c>
    a0a4:	90 10 20 01 	mov  1, %o0
    a0a8:	40 00 61 c8 	call  227c8 <calloc@plt>
    a0ac:	92 10 20 24 	mov  0x24, %o1
    a0b0:	a0 10 00 08 	mov  %o0, %l0
    a0b4:	90 10 00 18 	mov  %i0, %o0
    a0b8:	80 a4 20 00 	cmp  %l0, 0
    a0bc:	02 80 00 2c 	be  a16c <nis_next_entry+0xd8>
    a0c0:	b0 10 20 00 	clr  %i0
    a0c4:	80 a2 20 00 	cmp  %o0, 0
    a0c8:	02 80 00 27 	be  a164 <nis_next_entry+0xd0>
    a0cc:	82 10 20 11 	mov  0x11, %g1
    a0d0:	7f ff fc 2c 	call  9180 <__create_ib_request>
    a0d4:	92 10 20 00 	clr  %o1
    a0d8:	b0 92 20 00 	orcc  %o0, 0, %i0
    a0dc:	02 80 00 21 	be  a160 <nis_next_entry+0xcc>
    a0e0:	80 a6 60 00 	cmp  %i1, 0
    a0e4:	02 80 00 07 	be  a100 <nis_next_entry+0x6c>
    a0e8:	03 00 00 00 	sethi  %hi(0), %g1
    a0ec:	c2 06 60 04 	ld  [ %i1 + 4 ], %g1
    a0f0:	c4 06 40 00 	ld  [ %i1 ], %g2
    a0f4:	c2 26 20 28 	st  %g1, [ %i0 + 0x28 ]
    a0f8:	c4 26 20 24 	st  %g2, [ %i0 + 0x24 ]
    a0fc:	03 00 00 00 	sethi  %hi(0), %g1
    a100:	05 00 00 00 	sethi  %hi(0), %g2
    a104:	c0 23 a0 5c 	clr  [ %sp + 0x5c ]
    a108:	c0 23 a0 60 	clr  [ %sp + 0x60 ]
    a10c:	82 10 63 50 	or  %g1, 0x350, %g1
    a110:	84 10 a3 60 	or  %g2, 0x360, %g2
    a114:	d4 05 c0 01 	ld  [ %l7 + %g1 ], %o2
    a118:	d8 05 c0 02 	ld  [ %l7 + %g2 ], %o4
    a11c:	d0 06 00 00 	ld  [ %i0 ], %o0
    a120:	92 10 20 0a 	mov  0xa, %o1
    a124:	96 10 00 18 	mov  %i0, %o3
    a128:	7f ff fa ae 	call  8be0 <__do_niscall>
    a12c:	9a 10 00 10 	mov  %l0, %o5
    a130:	80 a2 20 00 	cmp  %o0, 0
    a134:	32 80 00 02 	bne,a   a13c <nis_next_entry+0xa8>
    a138:	d0 24 00 00 	st  %o0, [ %l0 ]
    a13c:	80 a6 60 00 	cmp  %i1, 0
    a140:	02 80 00 04 	be  a150 <nis_next_entry+0xbc>
    a144:	01 00 00 00 	nop 
    a148:	c0 26 20 28 	clr  [ %i0 + 0x28 ]
    a14c:	c0 26 20 24 	clr  [ %i0 + 0x24 ]
    a150:	7f ff f1 f2 	call  6918 <nis_free_request>
    a154:	90 10 00 18 	mov  %i0, %o0
    a158:	10 80 00 05 	b  a16c <nis_next_entry+0xd8>
    a15c:	b0 10 00 10 	mov  %l0, %i0
    a160:	82 10 20 11 	mov  0x11, %g1
    a164:	10 bf ff fd 	b  a158 <nis_next_entry+0xc4>
    a168:	c2 24 00 00 	st  %g1, [ %l0 ]
    a16c:	81 c7 e0 08 	ret 
    a170:	81 e8 00 00 	restore 
    a174:	00 00 04 10 	unimp  0x410
    a178:	00 00 04 10 	unimp  0x410
    a17c:	00 00 05 98 	unimp  0x598
    a180:	00 00 05 5c 	unimp  0x55c
    a184:	00 00 04 dc 	unimp  0x4dc
    a188:	00 00 04 9c 	unimp  0x49c
    a18c:	00 00 04 48 	unimp  0x448
    a190:	00 00 04 30 	unimp  0x430

0000a194 <xdr_nis_attr>:
xdr_nis_attr():
    a194:	9d e3 bf 90 	save  %sp, -112, %sp
    a198:	92 10 00 19 	mov  %i1, %o1
    a19c:	94 10 3f ff 	mov  -1, %o2
    a1a0:	40 00 61 c3 	call  228ac <xdr_string@plt>
    a1a4:	90 10 00 18 	mov  %i0, %o0
    a1a8:	82 10 00 08 	mov  %o0, %g1
    a1ac:	90 10 00 18 	mov  %i0, %o0
    a1b0:	94 06 60 04 	add  %i1, 4, %o2
    a1b4:	92 06 60 08 	add  %i1, 8, %o1
    a1b8:	80 a0 60 00 	cmp  %g1, 0
    a1bc:	02 80 00 05 	be  a1d0 <xdr_nis_attr+0x3c>
    a1c0:	96 10 3f ff 	mov  -1, %o3
    a1c4:	40 00 61 0f 	call  22600 <xdr_bytes@plt>
    a1c8:	01 00 00 00 	nop 
    a1cc:	82 10 00 08 	mov  %o0, %g1
    a1d0:	81 c7 e0 08 	ret 
    a1d4:	91 e8 00 01 	restore  %g0, %g1, %o0

0000a1d8 <_xdr_nis_name>:
_xdr_nis_name():
    a1d8:	94 10 3f ff 	mov  -1, %o2
    a1dc:	82 13 c0 00 	mov  %o7, %g1
    a1e0:	10 80 61 b3 	b  228ac <xdr_string@plt>
    a1e4:	01 00 00 00 	nop 
    a1e8:	01 00 00 00 	nop 

0000a1ec <xdr_oar_mask>:
xdr_oar_mask():
    a1ec:	9d e3 bf 90 	save  %sp, -112, %sp
    a1f0:	92 10 00 19 	mov  %i1, %o1
    a1f4:	40 00 60 e5 	call  22588 <xdr_u_int@plt>
    a1f8:	90 10 00 18 	mov  %i0, %o0
    a1fc:	82 10 00 08 	mov  %o0, %g1
    a200:	90 10 00 18 	mov  %i0, %o0
    a204:	80 a0 60 00 	cmp  %g1, 0
    a208:	02 80 00 05 	be  a21c <xdr_oar_mask+0x30>
    a20c:	92 06 60 04 	add  %i1, 4, %o1
    a210:	40 00 61 32 	call  226d8 <xdr_enum@plt>
    a214:	01 00 00 00 	nop 
    a218:	82 10 00 08 	mov  %o0, %g1
    a21c:	81 c7 e0 08 	ret 
    a220:	91 e8 00 01 	restore  %g0, %g1, %o0

0000a224 <xdr_endpoint>:
xdr_endpoint():
    a224:	9d e3 bf 90 	save  %sp, -112, %sp
    a228:	92 10 00 19 	mov  %i1, %o1
    a22c:	94 10 3f ff 	mov  -1, %o2
    a230:	40 00 61 9f 	call  228ac <xdr_string@plt>
    a234:	90 10 00 18 	mov  %i0, %o0
    a238:	a0 10 00 18 	mov  %i0, %l0
    a23c:	b0 10 00 08 	mov  %o0, %i0
    a240:	92 06 60 04 	add  %i1, 4, %o1
    a244:	94 10 3f ff 	mov  -1, %o2
    a248:	80 a6 20 00 	cmp  %i0, 0
    a24c:	02 80 00 0d 	be  a280 <xdr_endpoint+0x5c>
    a250:	90 10 00 10 	mov  %l0, %o0
    a254:	40 00 61 96 	call  228ac <xdr_string@plt>
    a258:	01 00 00 00 	nop 
    a25c:	b0 10 00 08 	mov  %o0, %i0
    a260:	90 10 00 10 	mov  %l0, %o0
    a264:	92 06 60 08 	add  %i1, 8, %o1
    a268:	80 a6 20 00 	cmp  %i0, 0
    a26c:	02 80 00 05 	be  a280 <xdr_endpoint+0x5c>
    a270:	94 10 3f ff 	mov  -1, %o2
    a274:	40 00 61 8e 	call  228ac <xdr_string@plt>
    a278:	01 00 00 00 	nop 
    a27c:	b0 10 00 08 	mov  %o0, %i0
    a280:	81 c7 e0 08 	ret 
    a284:	81 e8 00 00 	restore 
    a288:	81 c3 e0 08 	retl 
    a28c:	ae 03 c0 17 	add  %o7, %l7, %l7

0000a290 <_xdr_nis_server>:
_xdr_nis_server():
    a290:	9d e3 bf 90 	save  %sp, -112, %sp
    a294:	2f 00 00 5f 	sethi  %hi(0x17c00), %l7
    a298:	7f ff ff fc 	call  a288 <xdr_endpoint+0x64>
    a29c:	ae 05 e1 68 	add  %l7, 0x168, %l7	! 17d68 <__FRAME_END__+0x6d40>
    a2a0:	92 10 00 19 	mov  %i1, %o1
    a2a4:	94 10 3f ff 	mov  -1, %o2
    a2a8:	40 00 61 81 	call  228ac <xdr_string@plt>
    a2ac:	90 10 00 18 	mov  %i0, %o0
    a2b0:	a0 10 00 18 	mov  %i0, %l0
    a2b4:	b0 10 00 08 	mov  %o0, %i0
    a2b8:	03 00 00 00 	sethi  %hi(0), %g1
    a2bc:	82 10 62 7c 	or  %g1, 0x27c, %g1	! 27c <GLIBC_2.0+0x27c>
    a2c0:	94 06 60 04 	add  %i1, 4, %o2
    a2c4:	96 10 3f ff 	mov  -1, %o3
    a2c8:	98 10 20 0c 	mov  0xc, %o4
    a2cc:	92 06 60 08 	add  %i1, 8, %o1
    a2d0:	80 a6 20 00 	cmp  %i0, 0
    a2d4:	02 80 00 13 	be  a320 <_xdr_nis_server+0x90>
    a2d8:	90 10 00 10 	mov  %l0, %o0
    a2dc:	40 00 61 47 	call  227f8 <xdr_array@plt>
    a2e0:	da 05 c0 01 	ld  [ %l7 + %g1 ], %o5
    a2e4:	b0 10 00 08 	mov  %o0, %i0
    a2e8:	92 06 60 0c 	add  %i1, 0xc, %o1
    a2ec:	80 a6 20 00 	cmp  %i0, 0
    a2f0:	02 80 00 0c 	be  a320 <_xdr_nis_server+0x90>
    a2f4:	90 10 00 10 	mov  %l0, %o0
    a2f8:	40 00 60 a4 	call  22588 <xdr_u_int@plt>
    a2fc:	01 00 00 00 	nop 
    a300:	b0 10 00 08 	mov  %o0, %i0
    a304:	90 10 00 10 	mov  %l0, %o0
    a308:	80 a6 20 00 	cmp  %i0, 0
    a30c:	02 80 00 05 	be  a320 <_xdr_nis_server+0x90>
    a310:	92 06 60 10 	add  %i1, 0x10, %o1
    a314:	40 00 61 03 	call  22720 <xdr_netobj@plt>
    a318:	01 00 00 00 	nop 
    a31c:	b0 10 00 08 	mov  %o0, %i0
    a320:	81 c7 e0 08 	ret 
    a324:	81 e8 00 00 	restore 

0000a328 <_xdr_directory_obj>:
_xdr_directory_obj():
    a328:	9d e3 bf 90 	save  %sp, -112, %sp
    a32c:	2f 00 00 5f 	sethi  %hi(0x17c00), %l7
    a330:	7f ff ff d6 	call  a288 <xdr_endpoint+0x64>
    a334:	ae 05 e0 d0 	add  %l7, 0xd0, %l7	! 17cd0 <__FRAME_END__+0x6ca8>
    a338:	92 10 00 19 	mov  %i1, %o1
    a33c:	90 10 00 18 	mov  %i0, %o0
    a340:	40 00 61 5b 	call  228ac <xdr_string@plt>
    a344:	94 10 3f ff 	mov  -1, %o2
    a348:	a0 10 00 18 	mov  %i0, %l0
    a34c:	b0 10 00 08 	mov  %o0, %i0
    a350:	92 06 60 04 	add  %i1, 4, %o1
    a354:	80 a6 20 00 	cmp  %i0, 0
    a358:	02 80 00 24 	be  a3e8 <_xdr_directory_obj+0xc0>
    a35c:	90 10 00 10 	mov  %l0, %o0
    a360:	40 00 60 de 	call  226d8 <xdr_enum@plt>
    a364:	01 00 00 00 	nop 
    a368:	b0 10 00 08 	mov  %o0, %i0
    a36c:	03 00 00 00 	sethi  %hi(0), %g1
    a370:	82 10 63 64 	or  %g1, 0x364, %g1	! 364 <GLIBC_2.0+0x364>
    a374:	94 06 60 08 	add  %i1, 8, %o2
    a378:	96 10 3f ff 	mov  -1, %o3
    a37c:	98 10 20 18 	mov  0x18, %o4
    a380:	92 06 60 0c 	add  %i1, 0xc, %o1
    a384:	80 a6 20 00 	cmp  %i0, 0
    a388:	02 80 00 18 	be  a3e8 <_xdr_directory_obj+0xc0>
    a38c:	90 10 00 10 	mov  %l0, %o0
    a390:	40 00 61 1a 	call  227f8 <xdr_array@plt>
    a394:	da 05 c0 01 	ld  [ %l7 + %g1 ], %o5
    a398:	b0 10 00 08 	mov  %o0, %i0
    a39c:	92 06 60 10 	add  %i1, 0x10, %o1
    a3a0:	80 a6 20 00 	cmp  %i0, 0
    a3a4:	02 80 00 11 	be  a3e8 <_xdr_directory_obj+0xc0>
    a3a8:	90 10 00 10 	mov  %l0, %o0
    a3ac:	40 00 61 19 	call  22810 <xdr_uint32_t@plt>
    a3b0:	01 00 00 00 	nop 
    a3b4:	b0 10 00 08 	mov  %o0, %i0
    a3b8:	03 00 00 00 	sethi  %hi(0), %g1
    a3bc:	82 10 62 78 	or  %g1, 0x278, %g1	! 278 <GLIBC_2.0+0x278>
    a3c0:	90 10 00 10 	mov  %l0, %o0
    a3c4:	94 06 60 14 	add  %i1, 0x14, %o2
    a3c8:	92 06 60 18 	add  %i1, 0x18, %o1
    a3cc:	96 10 3f ff 	mov  -1, %o3
    a3d0:	80 a6 20 00 	cmp  %i0, 0
    a3d4:	02 80 00 05 	be  a3e8 <_xdr_directory_obj+0xc0>
    a3d8:	98 10 20 08 	mov  8, %o4
    a3dc:	40 00 61 07 	call  227f8 <xdr_array@plt>
    a3e0:	da 05 c0 01 	ld  [ %l7 + %g1 ], %o5
    a3e4:	b0 10 00 08 	mov  %o0, %i0
    a3e8:	81 c7 e0 08 	ret 
    a3ec:	81 e8 00 00 	restore 

0000a3f0 <xdr_entry_col>:
xdr_entry_col():
    a3f0:	9d e3 bf 90 	save  %sp, -112, %sp
    a3f4:	92 10 00 19 	mov  %i1, %o1
    a3f8:	40 00 60 64 	call  22588 <xdr_u_int@plt>
    a3fc:	90 10 00 18 	mov  %i0, %o0
    a400:	82 10 00 08 	mov  %o0, %g1
    a404:	90 10 00 18 	mov  %i0, %o0
    a408:	94 06 60 04 	add  %i1, 4, %o2
    a40c:	92 06 60 08 	add  %i1, 8, %o1
    a410:	80 a0 60 00 	cmp  %g1, 0
    a414:	02 80 00 05 	be  a428 <xdr_entry_col+0x38>
    a418:	96 10 3f ff 	mov  -1, %o3
    a41c:	40 00 60 79 	call  22600 <xdr_bytes@plt>
    a420:	01 00 00 00 	nop 
    a424:	82 10 00 08 	mov  %o0, %g1
    a428:	81 c7 e0 08 	ret 
    a42c:	91 e8 00 01 	restore  %g0, %g1, %o0

0000a430 <xdr_table_col>:
xdr_table_col():
    a430:	9d e3 bf 90 	save  %sp, -112, %sp
    a434:	92 10 00 19 	mov  %i1, %o1
    a438:	90 10 00 18 	mov  %i0, %o0
    a43c:	40 00 61 1c 	call  228ac <xdr_string@plt>
    a440:	94 10 20 40 	mov  0x40, %o2
    a444:	a0 10 00 18 	mov  %i0, %l0
    a448:	b0 10 00 08 	mov  %o0, %i0
    a44c:	92 06 60 04 	add  %i1, 4, %o1
    a450:	80 a6 20 00 	cmp  %i0, 0
    a454:	02 80 00 0c 	be  a484 <xdr_table_col+0x54>
    a458:	90 10 00 10 	mov  %l0, %o0
    a45c:	40 00 60 4b 	call  22588 <xdr_u_int@plt>
    a460:	01 00 00 00 	nop 
    a464:	b0 10 00 08 	mov  %o0, %i0
    a468:	90 10 00 10 	mov  %l0, %o0
    a46c:	80 a6 20 00 	cmp  %i0, 0
    a470:	02 80 00 05 	be  a484 <xdr_table_col+0x54>
    a474:	92 06 60 08 	add  %i1, 8, %o1
    a478:	40 00 60 44 	call  22588 <xdr_u_int@plt>
    a47c:	01 00 00 00 	nop 
    a480:	b0 10 00 08 	mov  %o0, %i0
    a484:	81 c7 e0 08 	ret 
    a488:	81 e8 00 00 	restore 

0000a48c <_xdr_nis_object>:
_xdr_nis_object():
    a48c:	9d e3 bf 90 	save  %sp, -112, %sp
    a490:	2f 00 00 5e 	sethi  %hi(0x17800), %l7
    a494:	7f ff ff 7d 	call  a288 <xdr_endpoint+0x64>
    a498:	ae 05 e3 6c 	add  %l7, 0x36c, %l7	! 17b6c <__FRAME_END__+0x6b44>
    a49c:	90 10 00 18 	mov  %i0, %o0
    a4a0:	40 00 60 dc 	call  22810 <xdr_uint32_t@plt>
    a4a4:	92 10 00 19 	mov  %i1, %o1
    a4a8:	80 a2 20 00 	cmp  %o0, 0
    a4ac:	02 80 00 9b 	be  a718 <_xdr_nis_object+0x28c>
    a4b0:	92 06 60 08 	add  %i1, 8, %o1
    a4b4:	90 10 00 18 	mov  %i0, %o0
    a4b8:	40 00 60 d6 	call  22810 <xdr_uint32_t@plt>
    a4bc:	92 06 60 04 	add  %i1, 4, %o1
    a4c0:	80 a2 20 00 	cmp  %o0, 0
    a4c4:	02 80 00 95 	be  a718 <_xdr_nis_object+0x28c>
    a4c8:	92 06 60 08 	add  %i1, 8, %o1
    a4cc:	90 10 00 18 	mov  %i0, %o0
    a4d0:	40 00 60 f7 	call  228ac <xdr_string@plt>
    a4d4:	94 10 3f ff 	mov  -1, %o2
    a4d8:	80 a2 20 00 	cmp  %o0, 0
    a4dc:	02 80 00 8f 	be  a718 <_xdr_nis_object+0x28c>
    a4e0:	92 06 60 0c 	add  %i1, 0xc, %o1
    a4e4:	90 10 00 18 	mov  %i0, %o0
    a4e8:	40 00 60 f1 	call  228ac <xdr_string@plt>
    a4ec:	94 10 3f ff 	mov  -1, %o2
    a4f0:	80 a2 20 00 	cmp  %o0, 0
    a4f4:	02 80 00 89 	be  a718 <_xdr_nis_object+0x28c>
    a4f8:	92 06 60 10 	add  %i1, 0x10, %o1
    a4fc:	90 10 00 18 	mov  %i0, %o0
    a500:	40 00 60 eb 	call  228ac <xdr_string@plt>
    a504:	94 10 3f ff 	mov  -1, %o2
    a508:	80 a2 20 00 	cmp  %o0, 0
    a50c:	02 80 00 83 	be  a718 <_xdr_nis_object+0x28c>
    a510:	92 06 60 14 	add  %i1, 0x14, %o1
    a514:	90 10 00 18 	mov  %i0, %o0
    a518:	40 00 60 e5 	call  228ac <xdr_string@plt>
    a51c:	94 10 3f ff 	mov  -1, %o2
    a520:	80 a2 20 00 	cmp  %o0, 0
    a524:	02 80 00 7d 	be  a718 <_xdr_nis_object+0x28c>
    a528:	01 00 00 00 	nop 
    a52c:	90 10 00 18 	mov  %i0, %o0
    a530:	40 00 60 16 	call  22588 <xdr_u_int@plt>
    a534:	92 06 60 18 	add  %i1, 0x18, %o1
    a538:	80 a2 20 00 	cmp  %o0, 0
    a53c:	02 80 00 77 	be  a718 <_xdr_nis_object+0x28c>
    a540:	01 00 00 00 	nop 
    a544:	90 10 00 18 	mov  %i0, %o0
    a548:	40 00 60 b2 	call  22810 <xdr_uint32_t@plt>
    a54c:	92 06 60 1c 	add  %i1, 0x1c, %o1
    a550:	80 a2 20 00 	cmp  %o0, 0
    a554:	02 80 00 71 	be  a718 <_xdr_nis_object+0x28c>
    a558:	a0 06 60 20 	add  %i1, 0x20, %l0
    a55c:	90 10 00 18 	mov  %i0, %o0
    a560:	40 00 60 5e 	call  226d8 <xdr_enum@plt>
    a564:	92 10 00 10 	mov  %l0, %o1
    a568:	80 a2 20 00 	cmp  %o0, 0
    a56c:	02 80 00 6b 	be  a718 <_xdr_nis_object+0x28c>
    a570:	90 10 20 00 	clr  %o0
    a574:	c4 06 60 20 	ld  [ %i1 + 0x20 ], %g2
    a578:	80 a0 a0 07 	cmp  %g2, 7
    a57c:	08 80 00 04 	bleu  a58c <_xdr_nis_object+0x100>
    a580:	03 00 00 5f 	sethi  %hi(0x17c00), %g1
    a584:	10 80 00 65 	b  a718 <_xdr_nis_object+0x28c>
    a588:	90 10 20 01 	mov  1, %o0
    a58c:	82 10 62 8c 	or  %g1, 0x28c, %g1
    a590:	86 25 c0 01 	sub  %l7, %g1, %g3
    a594:	85 28 a0 02 	sll  %g2, 2, %g2
    a598:	c2 00 c0 02 	ld  [ %g3 + %g2 ], %g1
    a59c:	81 c0 40 03 	jmp  %g1 + %g3
    a5a0:	01 00 00 00 	nop 
    a5a4:	90 10 00 18 	mov  %i0, %o0
    a5a8:	94 04 20 04 	add  %l0, 4, %o2
    a5ac:	92 04 20 08 	add  %l0, 8, %o1
    a5b0:	40 00 60 14 	call  22600 <xdr_bytes@plt>
    a5b4:	96 10 3f ff 	mov  -1, %o3
    a5b8:	30 80 00 58 	b,a   a718 <_xdr_nis_object+0x28c>
    a5bc:	90 10 00 18 	mov  %i0, %o0
    a5c0:	40 00 60 46 	call  226d8 <xdr_enum@plt>
    a5c4:	92 04 20 04 	add  %l0, 4, %o1
    a5c8:	80 a2 20 00 	cmp  %o0, 0
    a5cc:	02 80 00 53 	be  a718 <_xdr_nis_object+0x28c>
    a5d0:	03 00 00 00 	sethi  %hi(0), %g1
    a5d4:	82 10 62 74 	or  %g1, 0x274, %g1	! 274 <GLIBC_2.0+0x274>
    a5d8:	da 05 c0 01 	ld  [ %l7 + %g1 ], %o5
    a5dc:	90 10 00 18 	mov  %i0, %o0
    a5e0:	92 04 20 0c 	add  %l0, 0xc, %o1
    a5e4:	94 04 20 08 	add  %l0, 8, %o2
    a5e8:	96 10 3f ff 	mov  -1, %o3
    a5ec:	40 00 60 83 	call  227f8 <xdr_array@plt>
    a5f0:	98 10 20 0c 	mov  0xc, %o4
    a5f4:	80 a2 20 00 	cmp  %o0, 0
    a5f8:	02 80 00 48 	be  a718 <_xdr_nis_object+0x28c>
    a5fc:	92 04 20 10 	add  %l0, 0x10, %o1
    a600:	90 10 00 18 	mov  %i0, %o0
    a604:	40 00 60 aa 	call  228ac <xdr_string@plt>
    a608:	94 10 3f ff 	mov  -1, %o2
    a60c:	30 80 00 43 	b,a   a718 <_xdr_nis_object+0x28c>
    a610:	90 10 00 18 	mov  %i0, %o0
    a614:	92 04 20 04 	add  %l0, 4, %o1
    a618:	40 00 60 a5 	call  228ac <xdr_string@plt>
    a61c:	94 10 3f ff 	mov  -1, %o2
    a620:	80 a2 20 00 	cmp  %o0, 0
    a624:	02 80 00 3d 	be  a718 <_xdr_nis_object+0x28c>
    a628:	03 00 00 00 	sethi  %hi(0), %g1
    a62c:	82 10 62 80 	or  %g1, 0x280, %g1	! 280 <GLIBC_2.0+0x280>
    a630:	90 10 00 18 	mov  %i0, %o0
    a634:	94 04 20 08 	add  %l0, 8, %o2
    a638:	da 05 c0 01 	ld  [ %l7 + %g1 ], %o5
    a63c:	92 04 20 0c 	add  %l0, 0xc, %o1
    a640:	96 10 3f ff 	mov  -1, %o3
    a644:	40 00 60 6d 	call  227f8 <xdr_array@plt>
    a648:	98 10 20 0c 	mov  0xc, %o4
    a64c:	30 80 00 33 	b,a   a718 <_xdr_nis_object+0x28c>
    a650:	90 10 00 18 	mov  %i0, %o0
    a654:	92 04 20 04 	add  %l0, 4, %o1
    a658:	40 00 60 95 	call  228ac <xdr_string@plt>
    a65c:	94 10 20 40 	mov  0x40, %o2
    a660:	80 a2 20 00 	cmp  %o0, 0
    a664:	02 80 00 2d 	be  a718 <_xdr_nis_object+0x28c>
    a668:	01 00 00 00 	nop 
    a66c:	90 10 00 18 	mov  %i0, %o0
    a670:	40 00 60 77 	call  2284c <xdr_int@plt>
    a674:	92 04 20 08 	add  %l0, 8, %o1
    a678:	80 a2 20 00 	cmp  %o0, 0
    a67c:	02 80 00 27 	be  a718 <_xdr_nis_object+0x28c>
    a680:	01 00 00 00 	nop 
    a684:	90 10 00 18 	mov  %i0, %o0
    a688:	40 00 60 80 	call  22888 <xdr_u_char@plt>
    a68c:	92 04 20 0c 	add  %l0, 0xc, %o1
    a690:	80 a2 20 00 	cmp  %o0, 0
    a694:	02 80 00 21 	be  a718 <_xdr_nis_object+0x28c>
    a698:	03 00 00 00 	sethi  %hi(0), %g1
    a69c:	82 10 62 84 	or  %g1, 0x284, %g1	! 284 <GLIBC_2.0+0x284>
    a6a0:	da 05 c0 01 	ld  [ %l7 + %g1 ], %o5
    a6a4:	90 10 00 18 	mov  %i0, %o0
    a6a8:	92 04 20 14 	add  %l0, 0x14, %o1
    a6ac:	94 04 20 10 	add  %l0, 0x10, %o2
    a6b0:	96 10 3f ff 	mov  -1, %o3
    a6b4:	40 00 60 51 	call  227f8 <xdr_array@plt>
    a6b8:	98 10 20 0c 	mov  0xc, %o4
    a6bc:	80 a2 20 00 	cmp  %o0, 0
    a6c0:	02 80 00 16 	be  a718 <_xdr_nis_object+0x28c>
    a6c4:	92 04 20 18 	add  %l0, 0x18, %o1
    a6c8:	10 bf ff cf 	b  a604 <_xdr_nis_object+0x178>
    a6cc:	90 10 00 18 	mov  %i0, %o0
    a6d0:	90 10 00 18 	mov  %i0, %o0
    a6d4:	40 00 5f ad 	call  22588 <xdr_u_int@plt>
    a6d8:	92 04 20 04 	add  %l0, 4, %o1
    a6dc:	80 a2 20 00 	cmp  %o0, 0
    a6e0:	02 80 00 0e 	be  a718 <_xdr_nis_object+0x28c>
    a6e4:	03 00 00 00 	sethi  %hi(0), %g1
    a6e8:	82 10 63 cc 	or  %g1, 0x3cc, %g1	! 3cc <GLIBC_2.0+0x3cc>
    a6ec:	90 10 00 18 	mov  %i0, %o0
    a6f0:	94 04 20 08 	add  %l0, 8, %o2
    a6f4:	da 05 c0 01 	ld  [ %l7 + %g1 ], %o5
    a6f8:	92 04 20 0c 	add  %l0, 0xc, %o1
    a6fc:	96 10 3f ff 	mov  -1, %o3
    a700:	40 00 60 3e 	call  227f8 <xdr_array@plt>
    a704:	98 10 20 04 	mov  4, %o4
    a708:	30 80 00 04 	b,a   a718 <_xdr_nis_object+0x28c>
    a70c:	90 10 00 18 	mov  %i0, %o0
    a710:	7f ff ff 06 	call  a328 <_xdr_directory_obj>
    a714:	92 04 20 04 	add  %l0, 4, %o1
    a718:	81 c7 e0 08 	ret 
    a71c:	91 e8 00 08 	restore  %g0, %o0, %o0

0000a720 <_xdr_nis_error>:
_xdr_nis_error():
    a720:	82 13 c0 00 	mov  %o7, %g1
    a724:	10 80 5f ed 	b  226d8 <xdr_enum@plt>
    a728:	01 00 00 00 	nop 
    a72c:	01 00 00 00 	nop 

0000a730 <_xdr_nis_result>:
_xdr_nis_result():
    a730:	9d e3 bf 90 	save  %sp, -112, %sp
    a734:	2f 00 00 5e 	sethi  %hi(0x17800), %l7
    a738:	7f ff fe d4 	call  a288 <xdr_endpoint+0x64>
    a73c:	ae 05 e0 c8 	add  %l7, 0xc8, %l7	! 178c8 <__FRAME_END__+0x68a0>
    a740:	92 10 00 19 	mov  %i1, %o1
    a744:	40 00 5f e5 	call  226d8 <xdr_enum@plt>
    a748:	90 10 00 18 	mov  %i0, %o0
    a74c:	a0 10 00 18 	mov  %i0, %l0
    a750:	b0 10 00 08 	mov  %o0, %i0
    a754:	03 00 00 00 	sethi  %hi(0), %g1
    a758:	82 10 63 80 	or  %g1, 0x380, %g1	! 380 <GLIBC_2.0+0x380>
    a75c:	94 06 60 04 	add  %i1, 4, %o2
    a760:	96 10 3f ff 	mov  -1, %o3
    a764:	98 10 20 40 	mov  0x40, %o4
    a768:	92 06 60 08 	add  %i1, 8, %o1
    a76c:	80 a6 20 00 	cmp  %i0, 0
    a770:	02 80 00 28 	be  a810 <_xdr_nis_result+0xe0>
    a774:	90 10 00 10 	mov  %l0, %o0
    a778:	40 00 60 20 	call  227f8 <xdr_array@plt>
    a77c:	da 05 c0 01 	ld  [ %l7 + %g1 ], %o5
    a780:	b0 10 00 08 	mov  %o0, %i0
    a784:	92 06 60 0c 	add  %i1, 0xc, %o1
    a788:	80 a6 20 00 	cmp  %i0, 0
    a78c:	02 80 00 21 	be  a810 <_xdr_nis_result+0xe0>
    a790:	90 10 00 10 	mov  %l0, %o0
    a794:	40 00 5f e3 	call  22720 <xdr_netobj@plt>
    a798:	01 00 00 00 	nop 
    a79c:	b0 10 00 08 	mov  %o0, %i0
    a7a0:	92 06 60 14 	add  %i1, 0x14, %o1
    a7a4:	80 a6 20 00 	cmp  %i0, 0
    a7a8:	02 80 00 1a 	be  a810 <_xdr_nis_result+0xe0>
    a7ac:	90 10 00 10 	mov  %l0, %o0
    a7b0:	40 00 60 18 	call  22810 <xdr_uint32_t@plt>
    a7b4:	01 00 00 00 	nop 
    a7b8:	b0 10 00 08 	mov  %o0, %i0
    a7bc:	92 06 60 18 	add  %i1, 0x18, %o1
    a7c0:	80 a6 20 00 	cmp  %i0, 0
    a7c4:	02 80 00 13 	be  a810 <_xdr_nis_result+0xe0>
    a7c8:	90 10 00 10 	mov  %l0, %o0
    a7cc:	40 00 60 11 	call  22810 <xdr_uint32_t@plt>
    a7d0:	01 00 00 00 	nop 
    a7d4:	b0 10 00 08 	mov  %o0, %i0
    a7d8:	92 06 60 1c 	add  %i1, 0x1c, %o1
    a7dc:	80 a6 20 00 	cmp  %i0, 0
    a7e0:	02 80 00 0c 	be  a810 <_xdr_nis_result+0xe0>
    a7e4:	90 10 00 10 	mov  %l0, %o0
    a7e8:	40 00 60 0a 	call  22810 <xdr_uint32_t@plt>
    a7ec:	01 00 00 00 	nop 
    a7f0:	b0 10 00 08 	mov  %o0, %i0
    a7f4:	90 10 00 10 	mov  %l0, %o0
    a7f8:	80 a6 20 00 	cmp  %i0, 0
    a7fc:	02 80 00 05 	be  a810 <_xdr_nis_result+0xe0>
    a800:	92 06 60 20 	add  %i1, 0x20, %o1
    a804:	40 00 60 03 	call  22810 <xdr_uint32_t@plt>
    a808:	01 00 00 00 	nop 
    a80c:	b0 10 00 08 	mov  %o0, %i0
    a810:	81 c7 e0 08 	ret 
    a814:	81 e8 00 00 	restore 

0000a818 <_xdr_ns_request>:
_xdr_ns_request():
    a818:	9d e3 bf 90 	save  %sp, -112, %sp
    a81c:	2f 00 00 5d 	sethi  %hi(0x17400), %l7
    a820:	7f ff fe 9a 	call  a288 <xdr_endpoint+0x64>
    a824:	ae 05 e3 e0 	add  %l7, 0x3e0, %l7	! 177e0 <__FRAME_END__+0x67b8>
    a828:	92 10 00 19 	mov  %i1, %o1
    a82c:	94 10 3f ff 	mov  -1, %o2
    a830:	40 00 60 1f 	call  228ac <xdr_string@plt>
    a834:	90 10 00 18 	mov  %i0, %o0
    a838:	82 10 00 08 	mov  %o0, %g1
    a83c:	05 00 00 00 	sethi  %hi(0), %g2
    a840:	84 10 a3 80 	or  %g2, 0x380, %g2	! 380 <GLIBC_2.0+0x380>
    a844:	90 10 00 18 	mov  %i0, %o0
    a848:	94 06 60 04 	add  %i1, 4, %o2
    a84c:	92 06 60 08 	add  %i1, 8, %o1
    a850:	96 10 20 01 	mov  1, %o3
    a854:	80 a0 60 00 	cmp  %g1, 0
    a858:	02 80 00 05 	be  a86c <_xdr_ns_request+0x54>
    a85c:	98 10 20 40 	mov  0x40, %o4
    a860:	40 00 5f e6 	call  227f8 <xdr_array@plt>
    a864:	da 05 c0 02 	ld  [ %l7 + %g2 ], %o5
    a868:	82 10 00 08 	mov  %o0, %g1
    a86c:	81 c7 e0 08 	ret 
    a870:	91 e8 00 01 	restore  %g0, %g1, %o0

0000a874 <_xdr_ib_request>:
_xdr_ib_request():
    a874:	9d e3 bf 90 	save  %sp, -112, %sp
    a878:	2f 00 00 5d 	sethi  %hi(0x17400), %l7
    a87c:	7f ff fe 83 	call  a288 <xdr_endpoint+0x64>
    a880:	ae 05 e3 84 	add  %l7, 0x384, %l7	! 17784 <__FRAME_END__+0x675c>
    a884:	92 10 00 19 	mov  %i1, %o1
    a888:	94 10 3f ff 	mov  -1, %o2
    a88c:	40 00 60 08 	call  228ac <xdr_string@plt>
    a890:	90 10 00 18 	mov  %i0, %o0
    a894:	a0 10 00 18 	mov  %i0, %l0
    a898:	b0 10 00 08 	mov  %o0, %i0
    a89c:	03 00 00 00 	sethi  %hi(0), %g1
    a8a0:	82 10 62 74 	or  %g1, 0x274, %g1	! 274 <GLIBC_2.0+0x274>
    a8a4:	94 06 60 04 	add  %i1, 4, %o2
    a8a8:	96 10 3f ff 	mov  -1, %o3
    a8ac:	98 10 20 0c 	mov  0xc, %o4
    a8b0:	92 06 60 08 	add  %i1, 8, %o1
    a8b4:	80 a6 20 00 	cmp  %i0, 0
    a8b8:	02 80 00 32 	be  a980 <_xdr_ib_request+0x10c>
    a8bc:	90 10 00 10 	mov  %l0, %o0
    a8c0:	40 00 5f ce 	call  227f8 <xdr_array@plt>
    a8c4:	da 05 c0 01 	ld  [ %l7 + %g1 ], %o5
    a8c8:	b0 10 00 08 	mov  %o0, %i0
    a8cc:	92 06 60 0c 	add  %i1, 0xc, %o1
    a8d0:	80 a6 20 00 	cmp  %i0, 0
    a8d4:	02 80 00 2b 	be  a980 <_xdr_ib_request+0x10c>
    a8d8:	90 10 00 10 	mov  %l0, %o0
    a8dc:	40 00 5f 2b 	call  22588 <xdr_u_int@plt>
    a8e0:	01 00 00 00 	nop 
    a8e4:	b0 10 00 08 	mov  %o0, %i0
    a8e8:	03 00 00 00 	sethi  %hi(0), %g1
    a8ec:	82 10 63 80 	or  %g1, 0x380, %g1	! 380 <GLIBC_2.0+0x380>
    a8f0:	92 06 60 14 	add  %i1, 0x14, %o1
    a8f4:	94 06 60 10 	add  %i1, 0x10, %o2
    a8f8:	96 10 20 01 	mov  1, %o3
    a8fc:	98 10 20 40 	mov  0x40, %o4
    a900:	80 a6 20 00 	cmp  %i0, 0
    a904:	02 80 00 1f 	be  a980 <_xdr_ib_request+0x10c>
    a908:	90 10 00 10 	mov  %l0, %o0
    a90c:	40 00 5f bb 	call  227f8 <xdr_array@plt>
    a910:	da 05 c0 01 	ld  [ %l7 + %g1 ], %o5
    a914:	b0 10 00 08 	mov  %o0, %i0
    a918:	03 00 00 00 	sethi  %hi(0), %g1
    a91c:	82 10 63 64 	or  %g1, 0x364, %g1	! 364 <GLIBC_2.0+0x364>
    a920:	94 06 60 18 	add  %i1, 0x18, %o2
    a924:	96 10 20 01 	mov  1, %o3
    a928:	98 10 20 18 	mov  0x18, %o4
    a92c:	92 06 60 1c 	add  %i1, 0x1c, %o1
    a930:	80 a6 20 00 	cmp  %i0, 0
    a934:	02 80 00 13 	be  a980 <_xdr_ib_request+0x10c>
    a938:	90 10 00 10 	mov  %l0, %o0
    a93c:	40 00 5f af 	call  227f8 <xdr_array@plt>
    a940:	da 05 c0 01 	ld  [ %l7 + %g1 ], %o5
    a944:	b0 10 00 08 	mov  %o0, %i0
    a948:	92 06 60 20 	add  %i1, 0x20, %o1
    a94c:	80 a6 20 00 	cmp  %i0, 0
    a950:	02 80 00 0c 	be  a980 <_xdr_ib_request+0x10c>
    a954:	90 10 00 10 	mov  %l0, %o0
    a958:	40 00 5f 0c 	call  22588 <xdr_u_int@plt>
    a95c:	01 00 00 00 	nop 
    a960:	b0 10 00 08 	mov  %o0, %i0
    a964:	90 10 00 10 	mov  %l0, %o0
    a968:	80 a6 20 00 	cmp  %i0, 0
    a96c:	02 80 00 05 	be  a980 <_xdr_ib_request+0x10c>
    a970:	92 06 60 24 	add  %i1, 0x24, %o1
    a974:	40 00 5f 6b 	call  22720 <xdr_netobj@plt>
    a978:	01 00 00 00 	nop 
    a97c:	b0 10 00 08 	mov  %o0, %i0
    a980:	81 c7 e0 08 	ret 
    a984:	81 e8 00 00 	restore 

0000a988 <_xdr_ping_args>:
_xdr_ping_args():
    a988:	9d e3 bf 90 	save  %sp, -112, %sp
    a98c:	92 10 00 19 	mov  %i1, %o1
    a990:	94 10 3f ff 	mov  -1, %o2
    a994:	40 00 5f c6 	call  228ac <xdr_string@plt>
    a998:	90 10 00 18 	mov  %i0, %o0
    a99c:	82 10 00 08 	mov  %o0, %g1
    a9a0:	90 10 00 18 	mov  %i0, %o0
    a9a4:	80 a0 60 00 	cmp  %g1, 0
    a9a8:	02 80 00 05 	be  a9bc <_xdr_ping_args+0x34>
    a9ac:	92 06 60 04 	add  %i1, 4, %o1
    a9b0:	40 00 5f 98 	call  22810 <xdr_uint32_t@plt>
    a9b4:	01 00 00 00 	nop 
    a9b8:	82 10 00 08 	mov  %o0, %g1
    a9bc:	81 c7 e0 08 	ret 
    a9c0:	91 e8 00 01 	restore  %g0, %g1, %o0

0000a9c4 <_xdr_cp_result>:
_xdr_cp_result():
    a9c4:	9d e3 bf 90 	save  %sp, -112, %sp
    a9c8:	92 10 00 19 	mov  %i1, %o1
    a9cc:	40 00 5f 43 	call  226d8 <xdr_enum@plt>
    a9d0:	90 10 00 18 	mov  %i0, %o0
    a9d4:	a0 10 00 18 	mov  %i0, %l0
    a9d8:	b0 10 00 08 	mov  %o0, %i0
    a9dc:	92 06 60 04 	add  %i1, 4, %o1
    a9e0:	80 a6 20 00 	cmp  %i0, 0
    a9e4:	02 80 00 0c 	be  aa14 <_xdr_cp_result+0x50>
    a9e8:	90 10 00 10 	mov  %l0, %o0
    a9ec:	40 00 5f 89 	call  22810 <xdr_uint32_t@plt>
    a9f0:	01 00 00 00 	nop 
    a9f4:	b0 10 00 08 	mov  %o0, %i0
    a9f8:	90 10 00 10 	mov  %l0, %o0
    a9fc:	80 a6 20 00 	cmp  %i0, 0
    aa00:	02 80 00 05 	be  aa14 <_xdr_cp_result+0x50>
    aa04:	92 06 60 08 	add  %i1, 8, %o1
    aa08:	40 00 5f 82 	call  22810 <xdr_uint32_t@plt>
    aa0c:	01 00 00 00 	nop 
    aa10:	b0 10 00 08 	mov  %o0, %i0
    aa14:	81 c7 e0 08 	ret 
    aa18:	81 e8 00 00 	restore 

0000aa1c <_xdr_nis_tag>:
_xdr_nis_tag():
    aa1c:	9d e3 bf 90 	save  %sp, -112, %sp
    aa20:	92 10 00 19 	mov  %i1, %o1
    aa24:	40 00 5e d9 	call  22588 <xdr_u_int@plt>
    aa28:	90 10 00 18 	mov  %i0, %o0
    aa2c:	82 10 00 08 	mov  %o0, %g1
    aa30:	90 10 00 18 	mov  %i0, %o0
    aa34:	92 06 60 04 	add  %i1, 4, %o1
    aa38:	80 a0 60 00 	cmp  %g1, 0
    aa3c:	02 80 00 05 	be  aa50 <_xdr_nis_tag+0x34>
    aa40:	94 10 3f ff 	mov  -1, %o2
    aa44:	40 00 5f 9a 	call  228ac <xdr_string@plt>
    aa48:	01 00 00 00 	nop 
    aa4c:	82 10 00 08 	mov  %o0, %g1
    aa50:	81 c7 e0 08 	ret 
    aa54:	91 e8 00 01 	restore  %g0, %g1, %o0

0000aa58 <_xdr_nis_taglist>:
_xdr_nis_taglist():
    aa58:	9d e3 bf 90 	save  %sp, -112, %sp
    aa5c:	03 00 00 00 	sethi  %hi(0), %g1
    aa60:	2f 00 00 5d 	sethi  %hi(0x17400), %l7
    aa64:	7f ff fe 09 	call  a288 <xdr_endpoint+0x64>
    aa68:	ae 05 e1 9c 	add  %l7, 0x19c, %l7	! 1759c <__FRAME_END__+0x6574>
    aa6c:	82 10 63 e4 	or  %g1, 0x3e4, %g1
    aa70:	b4 10 00 19 	mov  %i1, %i2
    aa74:	fa 05 c0 01 	ld  [ %l7 + %g1 ], %i5
    aa78:	b2 06 60 04 	add  %i1, 4, %i1
    aa7c:	b6 10 3f ff 	mov  -1, %i3
    aa80:	10 80 5f 5e 	b  227f8 <xdr_array@plt>
    aa84:	99 e8 20 08 	restore  %g0, 8, %o4
    aa88:	01 00 00 00 	nop 

0000aa8c <_xdr_fd_args>:
_xdr_fd_args():
    aa8c:	9d e3 bf 90 	save  %sp, -112, %sp
    aa90:	92 10 00 19 	mov  %i1, %o1
    aa94:	94 10 3f ff 	mov  -1, %o2
    aa98:	40 00 5f 85 	call  228ac <xdr_string@plt>
    aa9c:	90 10 00 18 	mov  %i0, %o0
    aaa0:	82 10 00 08 	mov  %o0, %g1
    aaa4:	90 10 00 18 	mov  %i0, %o0
    aaa8:	92 06 60 04 	add  %i1, 4, %o1
    aaac:	80 a0 60 00 	cmp  %g1, 0
    aab0:	02 80 00 05 	be  aac4 <_xdr_fd_args+0x38>
    aab4:	94 10 3f ff 	mov  -1, %o2
    aab8:	40 00 5f 7d 	call  228ac <xdr_string@plt>
    aabc:	01 00 00 00 	nop 
    aac0:	82 10 00 08 	mov  %o0, %g1
    aac4:	81 c7 e0 08 	ret 
    aac8:	91 e8 00 01 	restore  %g0, %g1, %o0

0000aacc <_xdr_fd_result>:
_xdr_fd_result():
    aacc:	9d e3 bf 90 	save  %sp, -112, %sp
    aad0:	92 10 00 19 	mov  %i1, %o1
    aad4:	40 00 5f 01 	call  226d8 <xdr_enum@plt>
    aad8:	90 10 00 18 	mov  %i0, %o0
    aadc:	a0 10 00 18 	mov  %i0, %l0
    aae0:	b0 10 00 08 	mov  %o0, %i0
    aae4:	92 06 60 04 	add  %i1, 4, %o1
    aae8:	94 10 3f ff 	mov  -1, %o2
    aaec:	80 a6 20 00 	cmp  %i0, 0
    aaf0:	02 80 00 17 	be  ab4c <_xdr_fd_result+0x80>
    aaf4:	90 10 00 10 	mov  %l0, %o0
    aaf8:	40 00 5f 6d 	call  228ac <xdr_string@plt>
    aafc:	01 00 00 00 	nop 
    ab00:	b0 10 00 08 	mov  %o0, %i0
    ab04:	92 06 60 0c 	add  %i1, 0xc, %o1
    ab08:	94 06 60 08 	add  %i1, 8, %o2
    ab0c:	96 10 3f ff 	mov  -1, %o3
    ab10:	80 a6 20 00 	cmp  %i0, 0
    ab14:	02 80 00 0e 	be  ab4c <_xdr_fd_result+0x80>
    ab18:	90 10 00 10 	mov  %l0, %o0
    ab1c:	40 00 5e b9 	call  22600 <xdr_bytes@plt>
    ab20:	01 00 00 00 	nop 
    ab24:	b0 10 00 08 	mov  %o0, %i0
    ab28:	90 10 00 10 	mov  %l0, %o0
    ab2c:	94 06 60 10 	add  %i1, 0x10, %o2
    ab30:	92 06 60 14 	add  %i1, 0x14, %o1
    ab34:	80 a6 20 00 	cmp  %i0, 0
    ab38:	02 80 00 05 	be  ab4c <_xdr_fd_result+0x80>
    ab3c:	96 10 3f ff 	mov  -1, %o3
    ab40:	40 00 5e b0 	call  22600 <xdr_bytes@plt>
    ab44:	01 00 00 00 	nop 
    ab48:	b0 10 00 08 	mov  %o0, %i0
    ab4c:	81 c7 e0 08 	ret 
    ab50:	81 e8 00 00 	restore 

0000ab54 <xdr_obj_p>:
xdr_obj_p():
    ab54:	9d e3 bf 90 	save  %sp, -112, %sp
    ab58:	03 00 00 00 	sethi  %hi(0), %g1
    ab5c:	2f 00 00 5d 	sethi  %hi(0x17400), %l7
    ab60:	7f ff fd ca 	call  a288 <xdr_endpoint+0x64>
    ab64:	ae 05 e0 a0 	add  %l7, 0xa0, %l7	! 174a0 <__FRAME_END__+0x6478>
    ab68:	82 10 63 80 	or  %g1, 0x380, %g1
    ab6c:	f6 05 c0 01 	ld  [ %l7 + %g1 ], %i3
    ab70:	10 80 5f 2e 	b  22828 <xdr_pointer@plt>
    ab74:	95 e8 20 40 	restore  %g0, 0x40, %o2
    ab78:	01 00 00 00 	nop 

0000ab7c <xdr_cback_data>:
xdr_cback_data():
    ab7c:	9d e3 bf 90 	save  %sp, -112, %sp
    ab80:	03 00 00 00 	sethi  %hi(0), %g1
    ab84:	2f 00 00 5d 	sethi  %hi(0x17400), %l7
    ab88:	7f ff fd c0 	call  a288 <xdr_endpoint+0x64>
    ab8c:	ae 05 e0 78 	add  %l7, 0x78, %l7	! 17478 <__FRAME_END__+0x6450>
    ab90:	82 10 63 f8 	or  %g1, 0x3f8, %g1
    ab94:	b4 10 00 19 	mov  %i1, %i2
    ab98:	fa 05 c0 01 	ld  [ %l7 + %g1 ], %i5
    ab9c:	b2 06 60 04 	add  %i1, 4, %i1
    aba0:	b6 10 3f ff 	mov  -1, %i3
    aba4:	10 80 5f 15 	b  227f8 <xdr_array@plt>
    aba8:	99 e8 20 04 	restore  %g0, 4, %o4
    abac:	01 00 00 00 	nop 
    abb0:	81 c3 e0 08 	retl 
    abb4:	ae 03 c0 17 	add  %o7, %l7, %l7

0000abb8 <nis_servstate>:
nis_servstate():
    abb8:	9d e3 bf 70 	save  %sp, -144, %sp
    abbc:	03 00 00 00 	sethi  %hi(0), %g1
    abc0:	90 10 00 18 	mov  %i0, %o0
    abc4:	80 a6 20 00 	cmp  %i0, 0
    abc8:	2f 00 00 5d 	sethi  %hi(0x17400), %l7
    abcc:	7f ff ff f9 	call  abb0 <xdr_cback_data+0x34>
    abd0:	ae 05 e0 34 	add  %l7, 0x34, %l7	! 17434 <__FRAME_END__+0x640c>
    abd4:	82 10 63 c8 	or  %g1, 0x3c8, %g1
    abd8:	92 10 20 01 	mov  1, %o1
    abdc:	94 10 20 15 	mov  0x15, %o2
    abe0:	98 07 bf e8 	add  %fp, -24, %o4
    abe4:	f4 27 bf e8 	st  %i2, [ %fp + -24 ]
    abe8:	f2 27 bf ec 	st  %i1, [ %fp + -20 ]
    abec:	c0 26 c0 00 	clr  [ %i3 ]
    abf0:	c0 27 bf e0 	clr  [ %fp + -32 ]
    abf4:	c0 27 bf e4 	clr  [ %fp + -28 ]
    abf8:	02 80 00 0f 	be  ac34 <nis_servstate+0x7c>
    abfc:	b0 10 20 21 	mov  0x21, %i0
    ac00:	d6 05 c0 01 	ld  [ %l7 + %g1 ], %o3
    ac04:	82 07 bf e0 	add  %fp, -32, %g1
    ac08:	c2 23 a0 5c 	st  %g1, [ %sp + 0x5c ]
    ac0c:	c0 23 a0 60 	clr  [ %sp + 0x60 ]
    ac10:	c0 23 a0 64 	clr  [ %sp + 0x64 ]
    ac14:	7f ff f6 5b 	call  8580 <__do_niscall2>
    ac18:	9a 10 00 0b 	mov  %o3, %o5
    ac1c:	80 a2 20 00 	cmp  %o0, 0
    ac20:	12 80 00 05 	bne  ac34 <nis_servstate+0x7c>
    ac24:	b0 10 20 1c 	mov  0x1c, %i0
    ac28:	c2 07 bf e4 	ld  [ %fp + -28 ], %g1
    ac2c:	c2 26 c0 00 	st  %g1, [ %i3 ]
    ac30:	b0 10 20 00 	clr  %i0
    ac34:	81 c7 e0 08 	ret 
    ac38:	81 e8 00 00 	restore 

0000ac3c <nis_stats>:
nis_stats():
    ac3c:	9d e3 bf 70 	save  %sp, -144, %sp
    ac40:	03 00 00 00 	sethi  %hi(0), %g1
    ac44:	90 10 00 18 	mov  %i0, %o0
    ac48:	80 a6 20 00 	cmp  %i0, 0
    ac4c:	2f 00 00 5c 	sethi  %hi(0x17000), %l7
    ac50:	7f ff ff d8 	call  abb0 <xdr_cback_data+0x34>
    ac54:	ae 05 e3 b0 	add  %l7, 0x3b0, %l7	! 173b0 <__FRAME_END__+0x6388>
    ac58:	82 10 63 c8 	or  %g1, 0x3c8, %g1
    ac5c:	92 10 20 01 	mov  1, %o1
    ac60:	94 10 20 0e 	mov  0xe, %o2
    ac64:	98 07 bf e8 	add  %fp, -24, %o4
    ac68:	f4 27 bf e8 	st  %i2, [ %fp + -24 ]
    ac6c:	f2 27 bf ec 	st  %i1, [ %fp + -20 ]
    ac70:	c0 26 c0 00 	clr  [ %i3 ]
    ac74:	c0 27 bf e0 	clr  [ %fp + -32 ]
    ac78:	c0 27 bf e4 	clr  [ %fp + -28 ]
    ac7c:	02 80 00 0f 	be  acb8 <nis_stats+0x7c>
    ac80:	b0 10 20 21 	mov  0x21, %i0
    ac84:	d6 05 c0 01 	ld  [ %l7 + %g1 ], %o3
    ac88:	82 07 bf e0 	add  %fp, -32, %g1
    ac8c:	c2 23 a0 5c 	st  %g1, [ %sp + 0x5c ]
    ac90:	c0 23 a0 60 	clr  [ %sp + 0x60 ]
    ac94:	c0 23 a0 64 	clr  [ %sp + 0x64 ]
    ac98:	7f ff f6 3a 	call  8580 <__do_niscall2>
    ac9c:	9a 10 00 0b 	mov  %o3, %o5
    aca0:	80 a2 20 00 	cmp  %o0, 0
    aca4:	12 80 00 05 	bne  acb8 <nis_stats+0x7c>
    aca8:	b0 10 20 1c 	mov  0x1c, %i0
    acac:	c2 07 bf e4 	ld  [ %fp + -28 ], %g1
    acb0:	c2 26 c0 00 	st  %g1, [ %i3 ]
    acb4:	b0 10 20 00 	clr  %i0
    acb8:	81 c7 e0 08 	ret 
    acbc:	81 e8 00 00 	restore 

0000acc0 <nis_freetags>:
nis_freetags():
    acc0:	9d e3 bf 90 	save  %sp, -112, %sp
    acc4:	80 a6 60 00 	cmp  %i1, 0
    acc8:	04 80 00 08 	ble  ace8 <nis_freetags+0x28>
    accc:	01 00 00 00 	nop 
    acd0:	a0 06 20 04 	add  %i0, 4, %l0
    acd4:	40 00 5e c3 	call  227e0 <free@plt>
    acd8:	d0 04 00 00 	ld  [ %l0 ], %o0
    acdc:	b2 86 7f ff 	addcc  %i1, -1, %i1
    ace0:	12 bf ff fd 	bne  acd4 <nis_freetags+0x14>
    ace4:	a0 04 20 08 	add  %l0, 8, %l0
    ace8:	10 80 5e be 	b  227e0 <free@plt>
    acec:	81 e8 00 00 	restore 
    acf0:	01 00 00 00 	nop 
    acf4:	81 c3 e0 08 	retl 
    acf8:	ae 03 c0 17 	add  %o7, %l7, %l7

0000acfc <nis_ping>:
nis_ping():
    acfc:	9d e3 bf 78 	save  %sp, -136, %sp
    ad00:	2f 00 00 5c 	sethi  %hi(0x17000), %l7
    ad04:	7f ff ff fc 	call  acf4 <nis_freetags+0x34>
    ad08:	ae 05 e2 fc 	add  %l7, 0x2fc, %l7	! 172fc <__FRAME_END__+0x62d4>
    ad0c:	80 96 00 1a 	orcc  %i0, %i2, %g0
    ad10:	02 80 00 38 	be  adf0 <nis_ping+0xf4>
    ad14:	a6 10 20 00 	clr  %l3
    ad18:	80 a6 a0 00 	cmp  %i2, 0
    ad1c:	02 80 00 28 	be  adbc <nis_ping+0xc0>
    ad20:	90 10 00 18 	mov  %i0, %o0
    ad24:	c2 06 a0 20 	ld  [ %i2 + 0x20 ], %g1
    ad28:	80 a0 60 02 	cmp  %g1, 2
    ad2c:	02 80 00 04 	be  ad3c <nis_ping+0x40>
    ad30:	80 a6 20 00 	cmp  %i0, 0
    ad34:	10 80 00 31 	b  adf8 <nis_ping+0xfc>
    ad38:	90 10 00 13 	mov  %l3, %o0
    ad3c:	22 80 00 2b 	be,a   ade8 <nis_ping+0xec>
    ad40:	c2 06 a0 24 	ld  [ %i2 + 0x24 ], %g1
    ad44:	f0 27 bf e8 	st  %i0, [ %fp + -24 ]
    ad48:	f2 27 bf ec 	st  %i1, [ %fp + -20 ]
    ad4c:	c2 06 a0 2c 	ld  [ %i2 + 0x2c ], %g1
    ad50:	80 a0 60 01 	cmp  %g1, 1
    ad54:	08 bf ff f8 	bleu  ad34 <nis_ping+0x38>
    ad58:	b0 10 20 01 	mov  1, %i0
    ad5c:	23 00 00 00 	sethi  %hi(0), %l1
    ad60:	21 00 00 00 	sethi  %hi(0), %l0
    ad64:	a2 14 63 b8 	or  %l1, 0x3b8, %l1
    ad68:	a0 14 23 8c 	or  %l0, 0x38c, %l0
    ad6c:	a4 07 bf e8 	add  %fp, -24, %l2
    ad70:	b2 10 20 18 	mov  0x18, %i1
    ad74:	d0 06 a0 30 	ld  [ %i2 + 0x30 ], %o0
    ad78:	90 02 00 19 	add  %o0, %i1, %o0
    ad7c:	c0 23 a0 5c 	clr  [ %sp + 0x5c ]
    ad80:	c0 23 a0 60 	clr  [ %sp + 0x60 ]
    ad84:	c0 23 a0 64 	clr  [ %sp + 0x64 ]
    ad88:	92 10 20 01 	mov  1, %o1
    ad8c:	94 10 20 14 	mov  0x14, %o2
    ad90:	d6 05 c0 11 	ld  [ %l7 + %l1 ], %o3
    ad94:	98 10 00 12 	mov  %l2, %o4
    ad98:	7f ff f5 fa 	call  8580 <__do_niscall2>
    ad9c:	da 05 c0 10 	ld  [ %l7 + %l0 ], %o5
    ada0:	b0 06 20 01 	inc  %i0
    ada4:	c2 06 a0 2c 	ld  [ %i2 + 0x2c ], %g1
    ada8:	80 a0 40 18 	cmp  %g1, %i0
    adac:	18 bf ff f2 	bgu  ad74 <nis_ping+0x78>
    adb0:	b2 06 60 18 	add  %i1, 0x18, %i1
    adb4:	10 80 00 11 	b  adf8 <nis_ping+0xfc>
    adb8:	90 10 00 13 	mov  %l3, %o0
    adbc:	7f ff f7 d6 	call  8d14 <nis_lookup>
    adc0:	92 10 20 20 	mov  0x20, %o1
    adc4:	a6 92 20 00 	orcc  %o0, 0, %l3
    adc8:	02 80 00 0c 	be  adf8 <nis_ping+0xfc>
    adcc:	01 00 00 00 	nop 
    add0:	c2 04 c0 00 	ld  [ %l3 ], %g1
    add4:	80 a0 60 00 	cmp  %g1, 0
    add8:	12 80 00 08 	bne  adf8 <nis_ping+0xfc>
    addc:	01 00 00 00 	nop 
    ade0:	10 bf ff d1 	b  ad24 <nis_ping+0x28>
    ade4:	f4 04 e0 08 	ld  [ %l3 + 8 ], %i2
    ade8:	10 bf ff d8 	b  ad48 <nis_ping+0x4c>
    adec:	c2 27 bf e8 	st  %g1, [ %fp + -24 ]
    adf0:	40 00 5e 07 	call  2260c <abort@plt>
    adf4:	01 00 00 00 	nop 
    adf8:	7f ff ee f5 	call  69cc <nis_freeresult>
    adfc:	01 00 00 00 	nop 
    ae00:	01 00 00 00 	nop 
    ae04:	81 c7 e0 08 	ret 
    ae08:	81 e8 00 00 	restore 
    ae0c:	81 c3 e0 08 	retl 
    ae10:	ae 03 c0 17 	add  %o7, %l7, %l7

0000ae14 <nis_checkpoint>:
nis_checkpoint():
    ae14:	9d e3 bf 70 	save  %sp, -144, %sp
    ae18:	2f 00 00 5c 	sethi  %hi(0x17000), %l7
    ae1c:	7f ff ff fc 	call  ae0c <nis_ping+0x110>
    ae20:	ae 05 e1 e4 	add  %l7, 0x1e4, %l7	! 171e4 <__FRAME_END__+0x61bc>
    ae24:	f0 27 a0 44 	st  %i0, [ %fp + 0x44 ]
    ae28:	90 10 20 01 	mov  1, %o0
    ae2c:	40 00 5e 67 	call  227c8 <calloc@plt>
    ae30:	92 10 20 24 	mov  0x24, %o1
    ae34:	a0 92 20 00 	orcc  %o0, 0, %l0
    ae38:	02 80 00 4e 	be  af70 <nis_checkpoint+0x15c>
    ae3c:	90 10 20 00 	clr  %o0
    ae40:	d0 07 a0 44 	ld  [ %fp + 0x44 ], %o0
    ae44:	80 a2 20 00 	cmp  %o0, 0
    ae48:	12 80 00 05 	bne  ae5c <nis_checkpoint+0x48>
    ae4c:	82 10 20 14 	mov  0x14, %g1
    ae50:	c2 24 00 00 	st  %g1, [ %l0 ]
    ae54:	10 80 00 47 	b  af70 <nis_checkpoint+0x15c>
    ae58:	90 10 00 10 	mov  %l0, %o0
    ae5c:	7f ff f7 ae 	call  8d14 <nis_lookup>
    ae60:	92 10 20 40 	mov  0x40, %o1
    ae64:	c2 02 00 00 	ld  [ %o0 ], %g1
    ae68:	80 a0 60 00 	cmp  %g1, 0
    ae6c:	12 80 00 3a 	bne  af54 <nis_checkpoint+0x140>
    ae70:	b0 10 00 08 	mov  %o0, %i0
    ae74:	c8 02 20 08 	ld  [ %o0 + 8 ], %g4
    ae78:	c2 01 20 20 	ld  [ %g4 + 0x20 ], %g1
    ae7c:	80 a0 60 02 	cmp  %g1, 2
    ae80:	22 80 00 07 	be,a   ae9c <nis_checkpoint+0x88>
    ae84:	c2 01 20 2c 	ld  [ %g4 + 0x2c ], %g1
    ae88:	7f ff ee d1 	call  69cc <nis_freeresult>
    ae8c:	01 00 00 00 	nop 
    ae90:	82 10 20 10 	mov  0x10, %g1	! 10 <GLIBC_2.0+0x10>
    ae94:	10 bf ff f0 	b  ae54 <nis_checkpoint+0x40>
    ae98:	c2 24 00 00 	st  %g1, [ %l0 ]
    ae9c:	80 a0 60 00 	cmp  %g1, 0
    aea0:	08 80 00 31 	bleu  af64 <nis_checkpoint+0x150>
    aea4:	a4 10 20 00 	clr  %l2
    aea8:	29 00 00 00 	sethi  %hi(0), %l4
    aeac:	27 00 00 01 	sethi  %hi(0x400), %l3
    aeb0:	a8 15 23 cc 	or  %l4, 0x3cc, %l4
    aeb4:	a6 14 e0 00 	mov  %l3, %l3
    aeb8:	aa 07 bf e0 	add  %fp, -32, %l5
    aebc:	10 80 00 09 	b  aee0 <nis_checkpoint+0xcc>
    aec0:	a2 10 20 00 	clr  %l1
    aec4:	c2 24 00 00 	st  %g1, [ %l0 ]
    aec8:	c8 06 20 08 	ld  [ %i0 + 8 ], %g4
    aecc:	a4 04 a0 01 	inc  %l2
    aed0:	c2 01 20 2c 	ld  [ %g4 + 0x2c ], %g1
    aed4:	80 a0 40 12 	cmp  %g1, %l2
    aed8:	08 80 00 23 	bleu  af64 <nis_checkpoint+0x150>
    aedc:	a2 04 60 18 	add  %l1, 0x18, %l1
    aee0:	84 10 20 00 	clr  %g2
    aee4:	86 10 20 00 	clr  %g3
    aee8:	c4 3f bf e0 	std  %g2, [ %fp + -32 ]
    aeec:	c0 27 bf e8 	clr  [ %fp + -24 ]
    aef0:	d0 01 20 30 	ld  [ %g4 + 0x30 ], %o0
    aef4:	90 02 00 11 	add  %o0, %l1, %o0
    aef8:	ea 23 a0 5c 	st  %l5, [ %sp + 0x5c ]
    aefc:	c0 23 a0 60 	clr  [ %sp + 0x60 ]
    af00:	c0 23 a0 64 	clr  [ %sp + 0x64 ]
    af04:	92 10 20 01 	mov  1, %o1
    af08:	94 10 20 13 	mov  0x13, %o2
    af0c:	d6 05 c0 14 	ld  [ %l7 + %l4 ], %o3
    af10:	98 07 a0 44 	add  %fp, 0x44, %o4
    af14:	7f ff f5 9b 	call  8580 <__do_niscall2>
    af18:	da 05 c0 13 	ld  [ %l7 + %l3 ], %o5
    af1c:	80 a2 20 00 	cmp  %o0, 0
    af20:	12 bf ff e9 	bne  aec4 <nis_checkpoint+0xb0>
    af24:	82 10 20 1c 	mov  0x1c, %g1
    af28:	c2 07 bf e4 	ld  [ %fp + -28 ], %g1
    af2c:	c6 04 20 14 	ld  [ %l0 + 0x14 ], %g3
    af30:	c4 07 bf e8 	ld  [ %fp + -24 ], %g2
    af34:	c8 04 20 18 	ld  [ %l0 + 0x18 ], %g4
    af38:	86 00 c0 01 	add  %g3, %g1, %g3
    af3c:	88 01 00 02 	add  %g4, %g2, %g4
    af40:	c2 07 bf e0 	ld  [ %fp + -32 ], %g1
    af44:	c2 24 00 00 	st  %g1, [ %l0 ]
    af48:	c6 24 20 14 	st  %g3, [ %l0 + 0x14 ]
    af4c:	10 bf ff df 	b  aec8 <nis_checkpoint+0xb4>
    af50:	c8 24 20 18 	st  %g4, [ %l0 + 0x18 ]
    af54:	40 00 5e 23 	call  227e0 <free@plt>
    af58:	90 10 00 10 	mov  %l0, %o0
    af5c:	10 80 00 05 	b  af70 <nis_checkpoint+0x15c>
    af60:	90 10 00 18 	mov  %i0, %o0
    af64:	7f ff ee 9a 	call  69cc <nis_freeresult>
    af68:	90 10 00 18 	mov  %i0, %o0
    af6c:	90 10 00 10 	mov  %l0, %o0
    af70:	81 c7 e0 08 	ret 
    af74:	91 e8 00 08 	restore  %g0, %o0, %o0
    af78:	81 c3 e0 08 	retl 
    af7c:	ae 03 c0 17 	add  %o7, %l7, %l7

0000af80 <nis_mkdir>:
nis_mkdir():
    af80:	9d e3 bf 78 	save  %sp, -136, %sp
    af84:	03 00 00 00 	sethi  %hi(0), %g1
    af88:	09 00 00 00 	sethi  %hi(0), %g4
    af8c:	82 10 63 cc 	or  %g1, 0x3cc, %g1
    af90:	96 07 a0 44 	add  %fp, 0x44, %o3
    af94:	2f 00 00 5c 	sethi  %hi(0x17000), %l7
    af98:	7f ff ff f8 	call  af78 <nis_checkpoint+0x164>
    af9c:	ae 05 e0 68 	add  %l7, 0x68, %l7	! 17068 <__FRAME_END__+0x6040>
    afa0:	88 11 23 94 	or  %g4, 0x394, %g4
    afa4:	90 10 00 18 	mov  %i0, %o0
    afa8:	84 10 00 01 	mov  %g1, %g2
    afac:	92 10 20 16 	mov  0x16, %o1
    afb0:	9a 07 bf ec 	add  %fp, -20, %o5
    afb4:	94 10 20 16 	mov  0x16, %o2
    afb8:	98 10 00 0b 	mov  %o3, %o4
    afbc:	80 a6 60 00 	cmp  %i1, 0
    afc0:	02 80 00 0f 	be  affc <nis_mkdir+0x7c>
    afc4:	f0 27 a0 44 	st  %i0, [ %fp + 0x44 ]
    afc8:	82 07 bf ec 	add  %fp, -20, %g1
    afcc:	c2 23 a0 5c 	st  %g1, [ %sp + 0x5c ]
    afd0:	c0 23 a0 60 	clr  [ %sp + 0x60 ]
    afd4:	c0 23 a0 64 	clr  [ %sp + 0x64 ]
    afd8:	90 10 00 19 	mov  %i1, %o0
    afdc:	d6 05 c0 02 	ld  [ %l7 + %g2 ], %o3
    afe0:	da 05 c0 04 	ld  [ %l7 + %g4 ], %o5
    afe4:	7f ff f5 67 	call  8580 <__do_niscall2>
    afe8:	92 10 20 01 	mov  1, %o1
    afec:	80 a2 20 00 	cmp  %o0, 0
    aff0:	22 80 00 0a 	be,a   b018 <nis_mkdir+0x98>
    aff4:	d0 07 bf ec 	ld  [ %fp + -20 ], %o0
    aff8:	30 80 00 08 	b,a   b018 <nis_mkdir+0x98>
    affc:	d4 05 c0 01 	ld  [ %l7 + %g1 ], %o2
    b000:	d8 05 c0 04 	ld  [ %l7 + %g4 ], %o4
    b004:	c0 23 a0 5c 	clr  [ %sp + 0x5c ]
    b008:	7f ff f6 f6 	call  8be0 <__do_niscall>
    b00c:	c0 23 a0 60 	clr  [ %sp + 0x60 ]
    b010:	10 bf ff f8 	b  aff0 <nis_mkdir+0x70>
    b014:	80 a2 20 00 	cmp  %o0, 0
    b018:	81 c7 e0 08 	ret 
    b01c:	91 e8 00 08 	restore  %g0, %o0, %o0
    b020:	81 c3 e0 08 	retl 
    b024:	ae 03 c0 17 	add  %o7, %l7, %l7

0000b028 <nis_rmdir>:
nis_rmdir():
    b028:	9d e3 bf 78 	save  %sp, -136, %sp
    b02c:	05 00 00 00 	sethi  %hi(0), %g2
    b030:	07 00 00 00 	sethi  %hi(0), %g3
    b034:	f0 27 a0 44 	st  %i0, [ %fp + 0x44 ]
    b038:	2f 00 00 5b 	sethi  %hi(0x16c00), %l7
    b03c:	7f ff ff f9 	call  b020 <nis_mkdir+0xa0>
    b040:	ae 05 e3 c4 	add  %l7, 0x3c4, %l7	! 16fc4 <__FRAME_END__+0x5f9c>
    b044:	84 10 a3 cc 	or  %g2, 0x3cc, %g2
    b048:	86 10 e3 94 	or  %g3, 0x394, %g3
    b04c:	92 10 20 01 	mov  1, %o1
    b050:	94 10 20 17 	mov  0x17, %o2
    b054:	98 07 a0 44 	add  %fp, 0x44, %o4
    b058:	90 10 00 19 	mov  %i1, %o0
    b05c:	80 a6 60 00 	cmp  %i1, 0
    b060:	02 80 00 0c 	be  b090 <nis_rmdir+0x68>
    b064:	b0 10 20 08 	mov  8, %i0
    b068:	82 07 bf ec 	add  %fp, -20, %g1
    b06c:	c2 23 a0 5c 	st  %g1, [ %sp + 0x5c ]
    b070:	c0 23 a0 60 	clr  [ %sp + 0x60 ]
    b074:	c0 23 a0 64 	clr  [ %sp + 0x64 ]
    b078:	d6 05 c0 02 	ld  [ %l7 + %g2 ], %o3
    b07c:	7f ff f5 41 	call  8580 <__do_niscall2>
    b080:	da 05 c0 03 	ld  [ %l7 + %g3 ], %o5
    b084:	b0 92 20 00 	orcc  %o0, 0, %i0
    b088:	22 80 00 02 	be,a   b090 <nis_rmdir+0x68>
    b08c:	f0 07 bf ec 	ld  [ %fp + -20 ], %i0
    b090:	81 c7 e0 08 	ret 
    b094:	81 e8 00 00 	restore 

0000b098 <nis_getservlist>:
nis_getservlist():
    b098:	9d e3 bf 90 	save  %sp, -112, %sp
    b09c:	90 10 00 18 	mov  %i0, %o0
    b0a0:	7f ff f7 1d 	call  8d14 <nis_lookup>
    b0a4:	92 10 20 01 	mov  1, %o1
    b0a8:	aa 92 20 00 	orcc  %o0, 0, %l5
    b0ac:	02 80 00 06 	be  b0c4 <nis_getservlist+0x2c>
    b0b0:	01 00 00 00 	nop 
    b0b4:	c2 05 40 00 	ld  [ %l5 ], %g1
    b0b8:	80 a0 60 00 	cmp  %g1, 0
    b0bc:	22 80 00 0b 	be,a   b0e8 <nis_getservlist+0x50>
    b0c0:	c2 05 60 08 	ld  [ %l5 + 8 ], %g1
    b0c4:	40 00 5d 43 	call  225d0 <malloc@plt>
    b0c8:	90 10 20 04 	mov  4, %o0
    b0cc:	b0 92 20 00 	orcc  %o0, 0, %i0
    b0d0:	32 80 00 02 	bne,a   b0d8 <nis_getservlist+0x40>
    b0d4:	c0 26 00 00 	clr  [ %i0 ]
    b0d8:	7f ff ee 3d 	call  69cc <nis_freeresult>
    b0dc:	90 10 00 15 	mov  %l5, %o0
    b0e0:	10 80 00 c8 	b  b400 <nis_getservlist+0x368>
    b0e4:	90 10 00 18 	mov  %i0, %o0
    b0e8:	d0 00 60 2c 	ld  [ %g1 + 0x2c ], %o0
    b0ec:	91 2a 20 02 	sll  %o0, 2, %o0
    b0f0:	40 00 5d 38 	call  225d0 <malloc@plt>
    b0f4:	90 02 20 04 	add  %o0, 4, %o0
    b0f8:	b0 92 20 00 	orcc  %o0, 0, %i0
    b0fc:	02 80 00 be 	be  b3f4 <nis_getservlist+0x35c>
    b100:	01 00 00 00 	nop 
    b104:	c4 05 60 08 	ld  [ %l5 + 8 ], %g2
    b108:	c2 00 a0 2c 	ld  [ %g2 + 0x2c ], %g1
    b10c:	80 a0 60 00 	cmp  %g1, 0
    b110:	08 80 00 26 	bleu  b1a8 <nis_getservlist+0x110>
    b114:	ac 10 20 00 	clr  %l6
    b118:	82 05 80 16 	add  %l6, %l6, %g1
    b11c:	82 00 40 16 	add  %g1, %l6, %g1
    b120:	a9 28 60 03 	sll  %g1, 3, %l4
    b124:	e2 00 a0 30 	ld  [ %g2 + 0x30 ], %l1
    b128:	90 10 20 01 	mov  1, %o0
    b12c:	40 00 5d a7 	call  227c8 <calloc@plt>
    b130:	92 10 20 18 	mov  0x18, %o1
    b134:	a5 2d a0 02 	sll  %l6, 2, %l2
    b138:	a0 10 00 08 	mov  %o0, %l0
    b13c:	d0 26 00 12 	st  %o0, [ %i0 + %l2 ]
    b140:	80 a2 20 00 	cmp  %o0, 0
    b144:	02 80 00 25 	be  b1d8 <nis_getservlist+0x140>
    b148:	a6 04 40 14 	add  %l1, %l4, %l3
    b14c:	d0 04 40 14 	ld  [ %l1 + %l4 ], %o0
    b150:	80 a2 20 00 	cmp  %o0, 0
    b154:	12 80 00 18 	bne  b1b4 <nis_getservlist+0x11c>
    b158:	01 00 00 00 	nop 
    b15c:	c2 04 e0 04 	ld  [ %l3 + 4 ], %g1
    b160:	e0 06 00 12 	ld  [ %i0 + %l2 ], %l0
    b164:	80 a0 60 00 	cmp  %g1, 0
    b168:	12 80 00 4a 	bne  b290 <nis_getservlist+0x1f8>
    b16c:	c2 24 20 04 	st  %g1, [ %l0 + 4 ]
    b170:	e0 06 00 12 	ld  [ %i0 + %l2 ], %l0
    b174:	c2 04 e0 10 	ld  [ %l3 + 0x10 ], %g1
    b178:	c2 24 20 10 	st  %g1, [ %l0 + 0x10 ]
    b17c:	c4 04 e0 0c 	ld  [ %l3 + 0xc ], %g2
    b180:	d0 04 e0 10 	ld  [ %l3 + 0x10 ], %o0
    b184:	80 a2 20 00 	cmp  %o0, 0
    b188:	12 80 00 8c 	bne  b3b8 <nis_getservlist+0x320>
    b18c:	c4 24 20 0c 	st  %g2, [ %l0 + 0xc ]
    b190:	c4 05 60 08 	ld  [ %l5 + 8 ], %g2
    b194:	ac 05 a0 01 	inc  %l6
    b198:	c2 00 a0 2c 	ld  [ %g2 + 0x2c ], %g1
    b19c:	80 a0 40 16 	cmp  %g1, %l6
    b1a0:	18 bf ff df 	bgu  b11c <nis_getservlist+0x84>
    b1a4:	82 05 80 16 	add  %l6, %l6, %g1
    b1a8:	83 2d a0 02 	sll  %l6, 2, %g1
    b1ac:	10 bf ff cb 	b  b0d8 <nis_getservlist+0x40>
    b1b0:	c0 26 00 01 	clr  [ %i0 + %g1 ]
    b1b4:	40 00 5d 73 	call  22780 <__strdup@plt>
    b1b8:	01 00 00 00 	nop 
    b1bc:	d0 24 00 00 	st  %o0, [ %l0 ]
    b1c0:	c2 06 00 12 	ld  [ %i0 + %l2 ], %g1
    b1c4:	c4 00 40 00 	ld  [ %g1 ], %g2
    b1c8:	80 a0 a0 00 	cmp  %g2, 0
    b1cc:	32 bf ff e5 	bne,a   b160 <nis_getservlist+0xc8>
    b1d0:	c2 04 e0 04 	ld  [ %l3 + 4 ], %g1
    b1d4:	ac 05 a0 01 	inc  %l6
    b1d8:	ac 05 bf ff 	add  %l6, -1, %l6
    b1dc:	80 a5 bf ff 	cmp  %l6, -1
    b1e0:	02 80 00 83 	be  b3ec <nis_getservlist+0x354>
    b1e4:	a5 2d a0 02 	sll  %l6, 2, %l2
    b1e8:	c2 06 00 12 	ld  [ %i0 + %l2 ], %g1
    b1ec:	40 00 5d 7d 	call  227e0 <free@plt>
    b1f0:	d0 00 60 14 	ld  [ %g1 + 0x14 ], %o0
    b1f4:	c4 06 00 12 	ld  [ %i0 + %l2 ], %g2
    b1f8:	c2 00 a0 08 	ld  [ %g2 + 8 ], %g1
    b1fc:	80 a0 60 00 	cmp  %g1, 0
    b200:	22 80 00 1e 	be,a   b278 <nis_getservlist+0x1e0>
    b204:	c2 06 00 12 	ld  [ %i0 + %l2 ], %g1
    b208:	c2 00 a0 04 	ld  [ %g2 + 4 ], %g1
    b20c:	80 a0 60 00 	cmp  %g1, 0
    b210:	08 80 00 16 	bleu  b268 <nis_getservlist+0x1d0>
    b214:	a2 10 20 00 	clr  %l1
    b218:	a0 10 20 00 	clr  %l0
    b21c:	c2 00 a0 08 	ld  [ %g2 + 8 ], %g1
    b220:	82 00 40 10 	add  %g1, %l0, %g1
    b224:	40 00 5d 6f 	call  227e0 <free@plt>
    b228:	d0 00 60 08 	ld  [ %g1 + 8 ], %o0
    b22c:	c4 06 00 12 	ld  [ %i0 + %l2 ], %g2
    b230:	c2 00 a0 08 	ld  [ %g2 + 8 ], %g1
    b234:	82 00 40 10 	add  %g1, %l0, %g1
    b238:	40 00 5d 6a 	call  227e0 <free@plt>
    b23c:	d0 00 60 04 	ld  [ %g1 + 4 ], %o0
    b240:	c2 06 00 12 	ld  [ %i0 + %l2 ], %g1
    b244:	c4 00 60 08 	ld  [ %g1 + 8 ], %g2
    b248:	40 00 5d 66 	call  227e0 <free@plt>
    b24c:	d0 00 80 10 	ld  [ %g2 + %l0 ], %o0
    b250:	c4 06 00 12 	ld  [ %i0 + %l2 ], %g2
    b254:	a2 04 60 01 	inc  %l1
    b258:	c2 00 a0 04 	ld  [ %g2 + 4 ], %g1
    b25c:	80 a0 40 11 	cmp  %g1, %l1
    b260:	18 bf ff ef 	bgu  b21c <nis_getservlist+0x184>
    b264:	a0 04 20 0c 	add  %l0, 0xc, %l0
    b268:	c2 06 00 12 	ld  [ %i0 + %l2 ], %g1
    b26c:	40 00 5d 5d 	call  227e0 <free@plt>
    b270:	d0 00 60 08 	ld  [ %g1 + 8 ], %o0
    b274:	c2 06 00 12 	ld  [ %i0 + %l2 ], %g1
    b278:	40 00 5d 5a 	call  227e0 <free@plt>
    b27c:	d0 00 40 00 	ld  [ %g1 ], %o0
    b280:	40 00 5d 58 	call  227e0 <free@plt>
    b284:	d0 06 00 12 	ld  [ %i0 + %l2 ], %o0
    b288:	10 bf ff d5 	b  b1dc <nis_getservlist+0x144>
    b28c:	ac 05 bf ff 	add  %l6, -1, %l6
    b290:	c2 04 e0 04 	ld  [ %l3 + 4 ], %g1
    b294:	90 00 40 01 	add  %g1, %g1, %o0
    b298:	90 02 00 01 	add  %o0, %g1, %o0
    b29c:	40 00 5c cd 	call  225d0 <malloc@plt>
    b2a0:	91 2a 20 02 	sll  %o0, 2, %o0
    b2a4:	d0 24 20 08 	st  %o0, [ %l0 + 8 ]
    b2a8:	c4 06 00 12 	ld  [ %i0 + %l2 ], %g2
    b2ac:	c2 00 a0 08 	ld  [ %g2 + 8 ], %g1
    b2b0:	80 a0 60 00 	cmp  %g1, 0
    b2b4:	22 bf ff c9 	be,a   b1d8 <nis_getservlist+0x140>
    b2b8:	ac 05 a0 01 	inc  %l6
    b2bc:	c2 00 a0 04 	ld  [ %g2 + 4 ], %g1
    b2c0:	80 a0 60 00 	cmp  %g1, 0
    b2c4:	08 bf ff ab 	bleu  b170 <nis_getservlist+0xd8>
    b2c8:	a8 10 20 00 	clr  %l4
    b2cc:	10 80 00 1c 	b  b33c <nis_getservlist+0x2a4>
    b2d0:	a2 10 20 00 	clr  %l1
    b2d4:	c4 00 60 08 	ld  [ %g1 + 8 ], %g2
    b2d8:	c0 20 80 11 	clr  [ %g2 + %l1 ]
    b2dc:	82 00 c0 11 	add  %g3, %l1, %g1
    b2e0:	c4 00 60 04 	ld  [ %g1 + 4 ], %g2
    b2e4:	90 90 a0 00 	orcc  %g2, 0, %o0
    b2e8:	32 80 00 24 	bne,a   b378 <nis_getservlist+0x2e0>
    b2ec:	c2 06 00 12 	ld  [ %i0 + %l2 ], %g1
    b2f0:	c4 06 00 12 	ld  [ %i0 + %l2 ], %g2
    b2f4:	c2 00 a0 08 	ld  [ %g2 + 8 ], %g1
    b2f8:	82 00 40 11 	add  %g1, %l1, %g1
    b2fc:	c0 20 60 04 	clr  [ %g1 + 4 ]
    b300:	82 00 c0 11 	add  %g3, %l1, %g1
    b304:	c4 00 60 08 	ld  [ %g1 + 8 ], %g2
    b308:	90 90 a0 00 	orcc  %g2, 0, %o0
    b30c:	32 80 00 26 	bne,a   b3a4 <nis_getservlist+0x30c>
    b310:	c2 06 00 12 	ld  [ %i0 + %l2 ], %g1
    b314:	c4 06 00 12 	ld  [ %i0 + %l2 ], %g2
    b318:	c2 00 a0 08 	ld  [ %g2 + 8 ], %g1
    b31c:	82 00 40 11 	add  %g1, %l1, %g1
    b320:	c0 20 60 08 	clr  [ %g1 + 8 ]
    b324:	c4 06 00 12 	ld  [ %i0 + %l2 ], %g2
    b328:	a8 05 20 01 	inc  %l4
    b32c:	c2 00 a0 04 	ld  [ %g2 + 4 ], %g1
    b330:	80 a0 40 14 	cmp  %g1, %l4
    b334:	08 bf ff 8f 	bleu  b170 <nis_getservlist+0xd8>
    b338:	a2 04 60 0c 	add  %l1, 0xc, %l1
    b33c:	c6 04 e0 08 	ld  [ %l3 + 8 ], %g3
    b340:	c2 00 c0 11 	ld  [ %g3 + %l1 ], %g1
    b344:	90 90 60 00 	orcc  %g1, 0, %o0
    b348:	02 bf ff e3 	be  b2d4 <nis_getservlist+0x23c>
    b34c:	c2 06 00 12 	ld  [ %i0 + %l2 ], %g1
    b350:	40 00 5d 0c 	call  22780 <__strdup@plt>
    b354:	e0 00 60 08 	ld  [ %g1 + 8 ], %l0
    b358:	c6 04 e0 08 	ld  [ %l3 + 8 ], %g3
    b35c:	82 00 c0 11 	add  %g3, %l1, %g1
    b360:	d0 24 00 11 	st  %o0, [ %l0 + %l1 ]
    b364:	c4 00 60 04 	ld  [ %g1 + 4 ], %g2
    b368:	90 90 a0 00 	orcc  %g2, 0, %o0
    b36c:	22 bf ff e2 	be,a   b2f4 <nis_getservlist+0x25c>
    b370:	c4 06 00 12 	ld  [ %i0 + %l2 ], %g2
    b374:	c2 06 00 12 	ld  [ %i0 + %l2 ], %g1
    b378:	40 00 5d 02 	call  22780 <__strdup@plt>
    b37c:	e0 00 60 08 	ld  [ %g1 + 8 ], %l0
    b380:	c6 04 e0 08 	ld  [ %l3 + 8 ], %g3
    b384:	a0 04 00 11 	add  %l0, %l1, %l0
    b388:	82 00 c0 11 	add  %g3, %l1, %g1
    b38c:	d0 24 20 04 	st  %o0, [ %l0 + 4 ]
    b390:	c4 00 60 08 	ld  [ %g1 + 8 ], %g2
    b394:	90 90 a0 00 	orcc  %g2, 0, %o0
    b398:	22 bf ff e0 	be,a   b318 <nis_getservlist+0x280>
    b39c:	c4 06 00 12 	ld  [ %i0 + %l2 ], %g2
    b3a0:	c2 06 00 12 	ld  [ %i0 + %l2 ], %g1
    b3a4:	e0 00 60 08 	ld  [ %g1 + 8 ], %l0
    b3a8:	40 00 5c f6 	call  22780 <__strdup@plt>
    b3ac:	a0 04 00 11 	add  %l0, %l1, %l0
    b3b0:	10 bf ff dd 	b  b324 <nis_getservlist+0x28c>
    b3b4:	d0 24 20 08 	st  %o0, [ %l0 + 8 ]
    b3b8:	40 00 5c 86 	call  225d0 <malloc@plt>
    b3bc:	01 00 00 00 	nop 
    b3c0:	d0 24 20 14 	st  %o0, [ %l0 + 0x14 ]
    b3c4:	c2 06 00 12 	ld  [ %i0 + %l2 ], %g1
    b3c8:	d0 00 60 14 	ld  [ %g1 + 0x14 ], %o0
    b3cc:	80 a2 20 00 	cmp  %o0, 0
    b3d0:	22 bf ff 82 	be,a   b1d8 <nis_getservlist+0x140>
    b3d4:	ac 05 a0 01 	inc  %l6
    b3d8:	d4 04 e0 10 	ld  [ %l3 + 0x10 ], %o2
    b3dc:	40 00 5c dd 	call  22750 <memcpy@plt>
    b3e0:	d2 04 e0 14 	ld  [ %l3 + 0x14 ], %o1
    b3e4:	10 bf ff 6c 	b  b194 <nis_getservlist+0xfc>
    b3e8:	c4 05 60 08 	ld  [ %l5 + 8 ], %g2
    b3ec:	40 00 5c fd 	call  227e0 <free@plt>
    b3f0:	90 10 00 18 	mov  %i0, %o0
    b3f4:	7f ff ed 76 	call  69cc <nis_freeresult>
    b3f8:	90 10 00 15 	mov  %l5, %o0
    b3fc:	90 10 20 00 	clr  %o0
    b400:	81 c7 e0 08 	ret 
    b404:	91 e8 00 08 	restore  %g0, %o0, %o0
    b408:	81 c3 e0 08 	retl 
    b40c:	ae 03 c0 17 	add  %o7, %l7, %l7

0000b410 <nis_freeservlist>:
nis_freeservlist():
    b410:	9d e3 bf 90 	save  %sp, -112, %sp
    b414:	2f 00 00 5a 	sethi  %hi(0x16800), %l7
    b418:	7f ff ff fc 	call  b408 <nis_getservlist+0x370>
    b41c:	ae 05 e3 e8 	add  %l7, 0x3e8, %l7	! 16be8 <__FRAME_END__+0x5bc0>
    b420:	80 a6 20 00 	cmp  %i0, 0
    b424:	02 80 00 18 	be  b484 <nis_freeservlist+0x74>
    b428:	01 00 00 00 	nop 
    b42c:	c2 06 00 00 	ld  [ %i0 ], %g1
    b430:	80 a0 60 00 	cmp  %g1, 0
    b434:	12 80 00 04 	bne  b444 <nis_freeservlist+0x34>
    b438:	a2 10 20 00 	clr  %l1
    b43c:	10 80 5c e9 	b  227e0 <free@plt>
    b440:	81 e8 00 00 	restore 
    b444:	25 00 00 00 	sethi  %hi(0), %l2
    b448:	a4 14 a3 64 	or  %l2, 0x364, %l2	! 364 <GLIBC_2.0+0x364>
    b44c:	a0 10 20 00 	clr  %l0
    b450:	d2 06 00 10 	ld  [ %i0 + %l0 ], %o1
    b454:	40 00 5c 26 	call  224ec <xdr_free@plt>
    b458:	d0 05 c0 12 	ld  [ %l7 + %l2 ], %o0
    b45c:	d0 06 00 10 	ld  [ %i0 + %l0 ], %o0
    b460:	40 00 5c e0 	call  227e0 <free@plt>
    b464:	a2 04 60 01 	inc  %l1
    b468:	a1 2c 60 02 	sll  %l1, 2, %l0
    b46c:	c2 06 00 10 	ld  [ %i0 + %l0 ], %g1
    b470:	80 a0 60 00 	cmp  %g1, 0
    b474:	32 bf ff f8 	bne,a   b454 <nis_freeservlist+0x44>
    b478:	d2 06 00 10 	ld  [ %i0 + %l0 ], %o1
    b47c:	10 80 5c d9 	b  227e0 <free@plt>
    b480:	81 e8 00 00 	restore 
    b484:	01 00 00 00 	nop 
    b488:	81 c7 e0 08 	ret 
    b48c:	81 e8 00 00 	restore 

0000b490 <nis_verifygroup>:
nis_verifygroup():
    b490:	9d e3 bf 90 	save  %sp, -112, %sp
    b494:	80 a6 20 00 	cmp  %i0, 0
    b498:	02 80 00 47 	be  b5b4 <nis_verifygroup+0x124>
    b49c:	a0 10 20 28 	mov  0x28, %l0
    b4a0:	c2 4e 00 00 	ldsb  [ %i0 ], %g1
    b4a4:	a6 10 00 0e 	mov  %sp, %l3
    b4a8:	90 10 00 18 	mov  %i0, %o0
    b4ac:	80 a0 60 00 	cmp  %g1, 0
    b4b0:	02 80 00 41 	be  b5b4 <nis_verifygroup+0x124>
    b4b4:	aa 10 20 2e 	mov  0x2e, %l5
    b4b8:	40 00 5c 6d 	call  2266c <strlen@plt>
    b4bc:	01 00 00 00 	nop 
    b4c0:	82 02 20 39 	add  %o0, 0x39, %g1
    b4c4:	82 08 7f f8 	and  %g1, -8, %g1
    b4c8:	9c 23 80 01 	sub  %sp, %g1, %sp
    b4cc:	84 02 20 09 	add  %o0, 9, %g2
    b4d0:	84 08 bf f8 	and  %g2, -8, %g2
    b4d4:	a8 03 a0 60 	add  %sp, 0x60, %l4
    b4d8:	9c 23 80 02 	sub  %sp, %g2, %sp
    b4dc:	92 03 a0 60 	add  %sp, 0x60, %o1
    b4e0:	9c 23 80 02 	sub  %sp, %g2, %sp
    b4e4:	a0 02 20 01 	add  %o0, 1, %l0
    b4e8:	94 10 00 10 	mov  %l0, %o2
    b4ec:	a2 03 a0 60 	add  %sp, 0x60, %l1
    b4f0:	7f ff e9 eb 	call  5c9c <nis_leaf_of_r>
    b4f4:	90 10 00 18 	mov  %i0, %o0
    b4f8:	92 10 00 08 	mov  %o0, %o1
    b4fc:	40 00 5c 65 	call  22690 <stpcpy@plt>
    b500:	90 10 00 14 	mov  %l4, %o0
    b504:	82 10 20 67 	mov  0x67, %g1
    b508:	84 10 20 6f 	mov  0x6f, %g2
    b50c:	c2 2a 20 01 	stb  %g1, [ %o0 + 1 ]
    b510:	c4 2a 20 03 	stb  %g2, [ %o0 + 3 ]
    b514:	82 10 20 75 	mov  0x75, %g1
    b518:	84 10 20 70 	mov  0x70, %g2
    b51c:	c2 2a 20 04 	stb  %g1, [ %o0 + 4 ]
    b520:	c4 2a 20 05 	stb  %g2, [ %o0 + 5 ]
    b524:	82 10 20 73 	mov  0x73, %g1
    b528:	84 10 20 5f 	mov  0x5f, %g2
    b52c:	c2 2a 20 06 	stb  %g1, [ %o0 + 6 ]
    b530:	c4 2a 20 07 	stb  %g2, [ %o0 + 7 ]
    b534:	86 10 20 72 	mov  0x72, %g3
    b538:	82 10 20 64 	mov  0x64, %g1
    b53c:	84 10 20 69 	mov  0x69, %g2
    b540:	c2 2a 20 08 	stb  %g1, [ %o0 + 8 ]
    b544:	c4 2a 20 09 	stb  %g2, [ %o0 + 9 ]
    b548:	c6 2a 20 0a 	stb  %g3, [ %o0 + 0xa ]
    b54c:	ea 2a 00 00 	stb  %l5, [ %o0 ]
    b550:	c6 2a 20 02 	stb  %g3, [ %o0 + 2 ]
    b554:	c0 2a 20 0b 	clrb  [ %o0 + 0xb ]
    b558:	a4 10 00 08 	mov  %o0, %l2
    b55c:	94 10 00 10 	mov  %l0, %o2
    b560:	92 10 00 11 	mov  %l1, %o1
    b564:	40 00 05 5d 	call  cad8 <nis_domain_of_r>
    b568:	90 10 00 18 	mov  %i0, %o0
    b56c:	80 a2 20 00 	cmp  %o0, 0
    b570:	02 80 00 06 	be  b588 <nis_verifygroup+0xf8>
    b574:	92 10 00 08 	mov  %o0, %o1
    b578:	c2 4a 00 00 	ldsb  [ %o0 ], %g1
    b57c:	80 a0 60 00 	cmp  %g1, 0
    b580:	12 80 00 09 	bne  b5a4 <nis_verifygroup+0x114>
    b584:	90 04 a0 0c 	add  %l2, 0xc, %o0
    b588:	92 10 20 00 	clr  %o1
    b58c:	7f ff f5 e2 	call  8d14 <nis_lookup>
    b590:	90 10 00 14 	mov  %l4, %o0
    b594:	7f ff ed 0e 	call  69cc <nis_freeresult>
    b598:	e0 02 00 00 	ld  [ %o0 ], %l0
    b59c:	10 80 00 06 	b  b5b4 <nis_verifygroup+0x124>
    b5a0:	9c 10 00 13 	mov  %l3, %sp
    b5a4:	40 00 5c cb 	call  228d0 <strcpy@plt>
    b5a8:	ea 2c a0 0b 	stb  %l5, [ %l2 + 0xb ]
    b5ac:	10 bf ff f8 	b  b58c <nis_verifygroup+0xfc>
    b5b0:	92 10 20 00 	clr  %o1
    b5b4:	81 c7 e0 08 	ret 
    b5b8:	91 e8 00 10 	restore  %g0, %l0, %o0

0000b5bc <internal_ismember>:
internal_ismember():
    b5bc:	9d e3 bf 90 	save  %sp, -112, %sp
    b5c0:	aa 10 00 0e 	mov  %sp, %l5
    b5c4:	40 00 5c 2a 	call  2266c <strlen@plt>
    b5c8:	90 10 00 19 	mov  %i1, %o0
    b5cc:	82 02 20 39 	add  %o0, 0x39, %g1
    b5d0:	82 08 7f f8 	and  %g1, -8, %g1
    b5d4:	9c 23 80 01 	sub  %sp, %g1, %sp
    b5d8:	84 02 20 09 	add  %o0, 9, %g2
    b5dc:	84 08 bf f8 	and  %g2, -8, %g2
    b5e0:	a4 03 a0 60 	add  %sp, 0x60, %l2
    b5e4:	9c 23 80 02 	sub  %sp, %g2, %sp
    b5e8:	92 03 a0 60 	add  %sp, 0x60, %o1
    b5ec:	9c 23 80 02 	sub  %sp, %g2, %sp
    b5f0:	a0 02 20 01 	add  %o0, 1, %l0
    b5f4:	94 10 00 10 	mov  %l0, %o2
    b5f8:	a2 03 a0 60 	add  %sp, 0x60, %l1
    b5fc:	7f ff e9 a8 	call  5c9c <nis_leaf_of_r>
    b600:	90 10 00 19 	mov  %i1, %o0
    b604:	92 10 00 08 	mov  %o0, %o1
    b608:	40 00 5c 22 	call  22690 <stpcpy@plt>
    b60c:	90 10 00 12 	mov  %l2, %o0
    b610:	82 10 20 67 	mov  0x67, %g1
    b614:	84 10 20 6f 	mov  0x6f, %g2
    b618:	c2 2a 20 01 	stb  %g1, [ %o0 + 1 ]
    b61c:	c4 2a 20 03 	stb  %g2, [ %o0 + 3 ]
    b620:	82 10 20 75 	mov  0x75, %g1
    b624:	84 10 20 70 	mov  0x70, %g2
    b628:	c2 2a 20 04 	stb  %g1, [ %o0 + 4 ]
    b62c:	c4 2a 20 05 	stb  %g2, [ %o0 + 5 ]
    b630:	82 10 20 73 	mov  0x73, %g1
    b634:	84 10 20 5f 	mov  0x5f, %g2
    b638:	c2 2a 20 06 	stb  %g1, [ %o0 + 6 ]
    b63c:	c4 2a 20 07 	stb  %g2, [ %o0 + 7 ]
    b640:	86 10 20 72 	mov  0x72, %g3
    b644:	82 10 20 64 	mov  0x64, %g1
    b648:	84 10 20 69 	mov  0x69, %g2
    b64c:	a8 10 20 2e 	mov  0x2e, %l4
    b650:	a6 10 00 08 	mov  %o0, %l3
    b654:	c2 2a 20 08 	stb  %g1, [ %o0 + 8 ]
    b658:	c4 2a 20 09 	stb  %g2, [ %o0 + 9 ]
    b65c:	c6 2a 20 0a 	stb  %g3, [ %o0 + 0xa ]
    b660:	e8 2a 00 00 	stb  %l4, [ %o0 ]
    b664:	c6 2a 20 02 	stb  %g3, [ %o0 + 2 ]
    b668:	c0 2a 20 0b 	clrb  [ %o0 + 0xb ]
    b66c:	92 10 00 11 	mov  %l1, %o1
    b670:	90 10 00 19 	mov  %i1, %o0
    b674:	40 00 05 19 	call  cad8 <nis_domain_of_r>
    b678:	94 10 00 10 	mov  %l0, %o2
    b67c:	92 10 00 08 	mov  %o0, %o1
    b680:	80 a2 20 00 	cmp  %o0, 0
    b684:	02 80 00 06 	be  b69c <internal_ismember+0xe0>
    b688:	a6 04 e0 0b 	add  %l3, 0xb, %l3
    b68c:	c2 4a 00 00 	ldsb  [ %o0 ], %g1
    b690:	80 a0 60 00 	cmp  %g1, 0
    b694:	32 80 00 1e 	bne,a   b70c <internal_ismember+0x150>
    b698:	e8 2c c0 00 	stb  %l4, [ %l3 ]
    b69c:	90 10 00 12 	mov  %l2, %o0
    b6a0:	7f ff f5 9d 	call  8d14 <nis_lookup>
    b6a4:	92 10 20 41 	mov  0x41, %o1
    b6a8:	b2 92 20 00 	orcc  %o0, 0, %i1
    b6ac:	02 80 00 06 	be  b6c4 <internal_ismember+0x108>
    b6b0:	01 00 00 00 	nop 
    b6b4:	c2 06 40 00 	ld  [ %i1 ], %g1
    b6b8:	80 a0 60 00 	cmp  %g1, 0
    b6bc:	22 80 00 06 	be,a   b6d4 <internal_ismember+0x118>
    b6c0:	c2 06 60 04 	ld  [ %i1 + 4 ], %g1
    b6c4:	7f ff ec c2 	call  69cc <nis_freeresult>
    b6c8:	b0 10 20 00 	clr  %i0
    b6cc:	10 80 00 9b 	b  b938 <internal_ismember+0x37c>
    b6d0:	9c 10 00 15 	mov  %l5, %sp
    b6d4:	80 a0 60 01 	cmp  %g1, 1
    b6d8:	12 bf ff fb 	bne  b6c4 <internal_ismember+0x108>
    b6dc:	01 00 00 00 	nop 
    b6e0:	e2 06 60 08 	ld  [ %i1 + 8 ], %l1
    b6e4:	c2 04 60 20 	ld  [ %l1 + 0x20 ], %g1
    b6e8:	80 a0 60 03 	cmp  %g1, 3
    b6ec:	12 bf ff f6 	bne  b6c4 <internal_ismember+0x108>
    b6f0:	01 00 00 00 	nop 
    b6f4:	c2 04 60 28 	ld  [ %l1 + 0x28 ], %g1
    b6f8:	80 a0 60 00 	cmp  %g1, 0
    b6fc:	18 80 00 36 	bgu  b7d4 <internal_ismember+0x218>
    b700:	a8 10 20 00 	clr  %l4
    b704:	10 bf ff f0 	b  b6c4 <internal_ismember+0x108>
    b708:	90 10 00 19 	mov  %i1, %o0
    b70c:	40 00 5c 71 	call  228d0 <strcpy@plt>
    b710:	90 04 e0 01 	add  %l3, 1, %o0
    b714:	10 bf ff e3 	b  b6a0 <internal_ismember+0xe4>
    b718:	90 10 00 12 	mov  %l2, %o0
    b71c:	40 00 5b 6e 	call  224d4 <strcmp@plt>
    b720:	01 00 00 00 	nop 
    b724:	80 a2 20 00 	cmp  %o0, 0
    b728:	92 04 e0 02 	add  %l3, 2, %o1
    b72c:	02 80 00 7f 	be  b928 <internal_ismember+0x36c>
    b730:	90 10 00 18 	mov  %i0, %o0
    b734:	c2 4c e0 01 	ldsb  [ %l3 + 1 ], %g1
    b738:	80 a0 60 40 	cmp  %g1, 0x40
    b73c:	02 80 00 52 	be  b884 <internal_ismember+0x2c8>
    b740:	ac 10 00 0e 	mov  %sp, %l6
    b744:	80 a0 60 2a 	cmp  %g1, 0x2a
    b748:	32 80 00 1f 	bne,a   b7c4 <internal_ismember+0x208>
    b74c:	a8 05 20 01 	inc  %l4
    b750:	40 00 5b c7 	call  2266c <strlen@plt>
    b754:	01 00 00 00 	nop 
    b758:	82 02 20 09 	add  %o0, 9, %g1
    b75c:	82 08 7f f8 	and  %g1, -8, %g1
    b760:	9c 23 80 01 	sub  %sp, %g1, %sp
    b764:	a0 02 20 02 	add  %o0, 2, %l0
    b768:	a4 03 a0 60 	add  %sp, 0x60, %l2
    b76c:	40 00 5b c0 	call  2266c <strlen@plt>
    b770:	90 10 00 13 	mov  %l3, %o0
    b774:	82 02 20 09 	add  %o0, 9, %g1
    b778:	82 08 7f f8 	and  %g1, -8, %g1
    b77c:	9c 23 80 01 	sub  %sp, %g1, %sp
    b780:	94 02 20 02 	add  %o0, 2, %o2
    b784:	92 03 a0 60 	add  %sp, 0x60, %o1
    b788:	40 00 04 d4 	call  cad8 <nis_domain_of_r>
    b78c:	90 10 00 13 	mov  %l3, %o0
    b790:	a2 10 00 08 	mov  %o0, %l1
    b794:	92 10 00 12 	mov  %l2, %o1
    b798:	94 10 00 10 	mov  %l0, %o2
    b79c:	40 00 04 cf 	call  cad8 <nis_domain_of_r>
    b7a0:	90 10 00 18 	mov  %i0, %o0
    b7a4:	40 00 5b 4c 	call  224d4 <strcmp@plt>
    b7a8:	92 10 00 11 	mov  %l1, %o1
    b7ac:	80 a2 20 00 	cmp  %o0, 0
    b7b0:	02 80 00 5e 	be  b928 <internal_ismember+0x36c>
    b7b4:	01 00 00 00 	nop 
    b7b8:	9c 10 00 16 	mov  %l6, %sp
    b7bc:	e2 06 60 08 	ld  [ %i1 + 8 ], %l1
    b7c0:	a8 05 20 01 	inc  %l4
    b7c4:	c2 04 60 28 	ld  [ %l1 + 0x28 ], %g1
    b7c8:	80 a0 40 14 	cmp  %g1, %l4
    b7cc:	08 80 00 0b 	bleu  b7f8 <internal_ismember+0x23c>
    b7d0:	80 a0 60 00 	cmp  %g1, 0
    b7d4:	c2 04 60 2c 	ld  [ %l1 + 0x2c ], %g1
    b7d8:	85 2d 20 02 	sll  %l4, 2, %g2
    b7dc:	e6 00 40 02 	ld  [ %g1 + %g2 ], %l3
    b7e0:	c2 4c c0 00 	ldsb  [ %l3 ], %g1
    b7e4:	92 10 00 18 	mov  %i0, %o1
    b7e8:	80 a0 60 2d 	cmp  %g1, 0x2d
    b7ec:	12 bf ff f5 	bne  b7c0 <internal_ismember+0x204>
    b7f0:	90 04 e0 01 	add  %l3, 1, %o0
    b7f4:	30 bf ff ca 	b,a   b71c <internal_ismember+0x160>
    b7f8:	a8 10 20 00 	clr  %l4
    b7fc:	08 bf ff c2 	bleu  b704 <internal_ismember+0x148>
    b800:	83 2d 20 02 	sll  %l4, 2, %g1
    b804:	c4 04 60 2c 	ld  [ %l1 + 0x2c ], %g2
    b808:	e6 00 80 01 	ld  [ %g2 + %g1 ], %l3
    b80c:	e0 4c c0 00 	ldsb  [ %l3 ], %l0
    b810:	92 10 00 18 	mov  %i0, %o1
    b814:	80 a4 20 2d 	cmp  %l0, 0x2d
    b818:	02 80 00 0e 	be  b850 <internal_ismember+0x294>
    b81c:	90 10 00 13 	mov  %l3, %o0
    b820:	40 00 5b 2d 	call  224d4 <strcmp@plt>
    b824:	01 00 00 00 	nop 
    b828:	80 a2 20 00 	cmp  %o0, 0
    b82c:	92 04 e0 01 	add  %l3, 1, %o1
    b830:	02 80 00 1c 	be  b8a0 <internal_ismember+0x2e4>
    b834:	90 10 00 18 	mov  %i0, %o0
    b838:	80 a4 20 40 	cmp  %l0, 0x40
    b83c:	02 80 00 09 	be  b860 <internal_ismember+0x2a4>
    b840:	ac 10 00 0e 	mov  %sp, %l6
    b844:	80 a4 20 2a 	cmp  %l0, 0x2a
    b848:	02 80 00 1b 	be  b8b4 <internal_ismember+0x2f8>
    b84c:	01 00 00 00 	nop 
    b850:	a8 05 20 01 	inc  %l4
    b854:	c2 04 60 28 	ld  [ %l1 + 0x28 ], %g1
    b858:	10 bf ff e9 	b  b7fc <internal_ismember+0x240>
    b85c:	80 a0 40 14 	cmp  %g1, %l4
    b860:	7f ff ff 57 	call  b5bc <internal_ismember>
    b864:	01 00 00 00 	nop 
    b868:	80 a2 3f ff 	cmp  %o0, -1
    b86c:	02 80 00 2f 	be  b928 <internal_ismember+0x36c>
    b870:	80 a2 20 01 	cmp  %o0, 1
    b874:	02 80 00 0b 	be  b8a0 <internal_ismember+0x2e4>
    b878:	01 00 00 00 	nop 
    b87c:	10 bf ff f5 	b  b850 <internal_ismember+0x294>
    b880:	e2 06 60 08 	ld  [ %i1 + 8 ], %l1
    b884:	7f ff ff 4e 	call  b5bc <internal_ismember>
    b888:	01 00 00 00 	nop 
    b88c:	80 a2 3f ff 	cmp  %o0, -1
    b890:	02 80 00 26 	be  b928 <internal_ismember+0x36c>
    b894:	80 a2 20 01 	cmp  %o0, 1
    b898:	32 bf ff ca 	bne,a   b7c0 <internal_ismember+0x204>
    b89c:	e2 06 60 08 	ld  [ %i1 + 8 ], %l1
    b8a0:	7f ff ec 4b 	call  69cc <nis_freeresult>
    b8a4:	90 10 00 19 	mov  %i1, %o0
    b8a8:	b0 10 20 01 	mov  1, %i0
    b8ac:	10 80 00 23 	b  b938 <internal_ismember+0x37c>
    b8b0:	9c 10 00 15 	mov  %l5, %sp
    b8b4:	40 00 5b 6e 	call  2266c <strlen@plt>
    b8b8:	01 00 00 00 	nop 
    b8bc:	82 02 20 09 	add  %o0, 9, %g1
    b8c0:	82 08 7f f8 	and  %g1, -8, %g1
    b8c4:	9c 23 80 01 	sub  %sp, %g1, %sp
    b8c8:	a0 02 20 02 	add  %o0, 2, %l0
    b8cc:	a4 03 a0 60 	add  %sp, 0x60, %l2
    b8d0:	40 00 5b 67 	call  2266c <strlen@plt>
    b8d4:	90 10 00 13 	mov  %l3, %o0
    b8d8:	82 02 20 09 	add  %o0, 9, %g1
    b8dc:	82 08 7f f8 	and  %g1, -8, %g1
    b8e0:	9c 23 80 01 	sub  %sp, %g1, %sp
    b8e4:	94 02 20 02 	add  %o0, 2, %o2
    b8e8:	92 03 a0 60 	add  %sp, 0x60, %o1
    b8ec:	40 00 04 7b 	call  cad8 <nis_domain_of_r>
    b8f0:	90 10 00 13 	mov  %l3, %o0
    b8f4:	a2 10 00 08 	mov  %o0, %l1
    b8f8:	92 10 00 12 	mov  %l2, %o1
    b8fc:	94 10 00 10 	mov  %l0, %o2
    b900:	40 00 04 76 	call  cad8 <nis_domain_of_r>
    b904:	90 10 00 18 	mov  %i0, %o0
    b908:	40 00 5a f3 	call  224d4 <strcmp@plt>
    b90c:	92 10 00 11 	mov  %l1, %o1
    b910:	80 a2 20 00 	cmp  %o0, 0
    b914:	02 bf ff e3 	be  b8a0 <internal_ismember+0x2e4>
    b918:	01 00 00 00 	nop 
    b91c:	9c 10 00 16 	mov  %l6, %sp
    b920:	10 bf ff cc 	b  b850 <internal_ismember+0x294>
    b924:	e2 06 60 08 	ld  [ %i1 + 8 ], %l1
    b928:	7f ff ec 29 	call  69cc <nis_freeresult>
    b92c:	90 10 00 19 	mov  %i1, %o0
    b930:	b0 10 3f ff 	mov  -1, %i0
    b934:	9c 10 00 15 	mov  %l5, %sp
    b938:	81 c7 e0 08 	ret 
    b93c:	81 e8 00 00 	restore 

0000b940 <nis_ismember>:
nis_ismember():
    b940:	9d e3 bf 90 	save  %sp, -112, %sp
    b944:	92 96 60 00 	orcc  %i1, 0, %o1
    b948:	22 80 00 11 	be,a   b98c <nis_ismember+0x4c>
    b94c:	b0 10 20 00 	clr  %i0
    b950:	c2 4a 40 00 	ldsb  [ %o1 ], %g1
    b954:	80 a0 00 01 	cmp  %g0, %g1
    b958:	84 40 20 00 	addx  %g0, 0, %g2
    b95c:	80 a0 00 18 	cmp  %g0, %i0
    b960:	82 40 20 00 	addx  %g0, 0, %g1
    b964:	80 88 80 01 	btst  %g2, %g1
    b968:	12 80 00 04 	bne  b978 <nis_ismember+0x38>
    b96c:	90 10 00 18 	mov  %i0, %o0
    b970:	10 80 00 07 	b  b98c <nis_ismember+0x4c>
    b974:	b0 10 20 00 	clr  %i0
    b978:	7f ff ff 11 	call  b5bc <internal_ismember>
    b97c:	01 00 00 00 	nop 
    b980:	90 1a 20 01 	xor  %o0, 1, %o0
    b984:	80 a0 00 08 	cmp  %g0, %o0
    b988:	b0 60 3f ff 	subx  %g0, -1, %i0
    b98c:	81 c7 e0 08 	ret 
    b990:	81 e8 00 00 	restore 
    b994:	81 c3 e0 08 	retl 
    b998:	ae 03 c0 17 	add  %o7, %l7, %l7

0000b99c <nis_addmember>:
nis_addmember():
    b99c:	9d e3 bf 90 	save  %sp, -112, %sp
    b9a0:	2f 00 00 59 	sethi  %hi(0x16400), %l7
    b9a4:	7f ff ff fc 	call  b994 <nis_ismember+0x54>
    b9a8:	ae 05 e2 5c 	add  %l7, 0x25c, %l7	! 1665c <__FRAME_END__+0x5634>
    b9ac:	80 a6 60 00 	cmp  %i1, 0
    b9b0:	22 80 00 95 	be,a   bc04 <nis_addmember+0x268>
    b9b4:	b0 10 20 28 	mov  0x28, %i0
    b9b8:	c2 4e 40 00 	ldsb  [ %i1 ], %g1
    b9bc:	80 a0 60 00 	cmp  %g1, 0
    b9c0:	12 80 00 04 	bne  b9d0 <nis_addmember+0x34>
    b9c4:	aa 10 00 0e 	mov  %sp, %l5
    b9c8:	10 80 00 8f 	b  bc04 <nis_addmember+0x268>
    b9cc:	b0 10 20 28 	mov  0x28, %i0
    b9d0:	40 00 5b 27 	call  2266c <strlen@plt>
    b9d4:	90 10 00 19 	mov  %i1, %o0
    b9d8:	82 02 24 15 	add  %o0, 0x415, %g1
    b9dc:	82 08 7f f8 	and  %g1, -8, %g1
    b9e0:	9c 23 80 01 	sub  %sp, %g1, %sp
    b9e4:	84 02 20 09 	add  %o0, 9, %g2
    b9e8:	84 08 bf f8 	and  %g2, -8, %g2
    b9ec:	a6 03 a0 60 	add  %sp, 0x60, %l3
    b9f0:	9c 23 80 02 	sub  %sp, %g2, %sp
    b9f4:	94 02 24 0d 	add  %o0, 0x40d, %o2
    b9f8:	a4 10 00 08 	mov  %o0, %l2
    b9fc:	a0 03 a0 60 	add  %sp, 0x60, %l0
    ba00:	92 10 00 13 	mov  %l3, %o1
    ba04:	7f ff e8 a6 	call  5c9c <nis_leaf_of_r>
    ba08:	90 10 00 19 	mov  %i1, %o0
    ba0c:	40 00 5a c7 	call  22528 <rawmemchr@plt>
    ba10:	92 10 20 00 	clr  %o1
    ba14:	82 10 20 67 	mov  0x67, %g1
    ba18:	84 10 20 6f 	mov  0x6f, %g2
    ba1c:	c2 2a 20 01 	stb  %g1, [ %o0 + 1 ]
    ba20:	c4 2a 20 03 	stb  %g2, [ %o0 + 3 ]
    ba24:	82 10 20 75 	mov  0x75, %g1
    ba28:	84 10 20 70 	mov  0x70, %g2
    ba2c:	c2 2a 20 04 	stb  %g1, [ %o0 + 4 ]
    ba30:	c4 2a 20 05 	stb  %g2, [ %o0 + 5 ]
    ba34:	82 10 20 73 	mov  0x73, %g1
    ba38:	84 10 20 5f 	mov  0x5f, %g2
    ba3c:	c2 2a 20 06 	stb  %g1, [ %o0 + 6 ]
    ba40:	c4 2a 20 07 	stb  %g2, [ %o0 + 7 ]
    ba44:	86 10 20 72 	mov  0x72, %g3
    ba48:	82 10 20 64 	mov  0x64, %g1
    ba4c:	84 10 20 69 	mov  0x69, %g2
    ba50:	a8 10 20 2e 	mov  0x2e, %l4
    ba54:	a2 10 00 08 	mov  %o0, %l1
    ba58:	c2 2a 20 08 	stb  %g1, [ %o0 + 8 ]
    ba5c:	c4 2a 20 09 	stb  %g2, [ %o0 + 9 ]
    ba60:	c6 2a 20 0a 	stb  %g3, [ %o0 + 0xa ]
    ba64:	e8 2a 00 00 	stb  %l4, [ %o0 ]
    ba68:	c6 2a 20 02 	stb  %g3, [ %o0 + 2 ]
    ba6c:	c0 2a 20 0b 	clrb  [ %o0 + 0xb ]
    ba70:	92 10 00 10 	mov  %l0, %o1
    ba74:	94 04 a0 01 	add  %l2, 1, %o2
    ba78:	40 00 04 18 	call  cad8 <nis_domain_of_r>
    ba7c:	90 10 00 19 	mov  %i1, %o0
    ba80:	92 10 00 08 	mov  %o0, %o1
    ba84:	80 a2 20 00 	cmp  %o0, 0
    ba88:	02 80 00 06 	be  baa0 <nis_addmember+0x104>
    ba8c:	a2 04 60 0b 	add  %l1, 0xb, %l1
    ba90:	c2 4a 00 00 	ldsb  [ %o0 ], %g1
    ba94:	80 a0 60 00 	cmp  %g1, 0
    ba98:	32 80 00 16 	bne,a   baf0 <nis_addmember+0x154>
    ba9c:	e8 2c 40 00 	stb  %l4, [ %l1 ]
    baa0:	90 10 00 13 	mov  %l3, %o0
    baa4:	7f ff f4 9c 	call  8d14 <nis_lookup>
    baa8:	92 10 20 41 	mov  0x41, %o1
    baac:	e0 02 00 00 	ld  [ %o0 ], %l0
    bab0:	80 a4 20 00 	cmp  %l0, 0
    bab4:	12 80 00 13 	bne  bb00 <nis_addmember+0x164>
    bab8:	b2 10 00 08 	mov  %o0, %i1
    babc:	c2 02 20 04 	ld  [ %o0 + 4 ], %g1
    bac0:	80 a0 60 01 	cmp  %g1, 1
    bac4:	12 80 00 07 	bne  bae0 <nis_addmember+0x144>
    bac8:	01 00 00 00 	nop 
    bacc:	c4 02 20 08 	ld  [ %o0 + 8 ], %g2
    bad0:	c2 00 a0 20 	ld  [ %g2 + 0x20 ], %g1
    bad4:	80 a0 60 03 	cmp  %g1, 3
    bad8:	22 80 00 0f 	be,a   bb14 <nis_addmember+0x178>
    badc:	c2 00 a0 28 	ld  [ %g2 + 0x28 ], %g1
    bae0:	7f ff eb bb 	call  69cc <nis_freeresult>
    bae4:	b0 10 20 10 	mov  0x10, %i0
    bae8:	10 80 00 47 	b  bc04 <nis_addmember+0x268>
    baec:	9c 10 00 15 	mov  %l5, %sp
    baf0:	40 00 5b 78 	call  228d0 <strcpy@plt>
    baf4:	90 04 60 01 	add  %l1, 1, %o0
    baf8:	10 bf ff eb 	b  baa4 <nis_addmember+0x108>
    bafc:	90 10 00 13 	mov  %l3, %o0
    bb00:	b0 10 00 10 	mov  %l0, %i0
    bb04:	7f ff eb b2 	call  69cc <nis_freeresult>
    bb08:	01 00 00 00 	nop 
    bb0c:	10 80 00 3e 	b  bc04 <nis_addmember+0x268>
    bb10:	9c 10 00 15 	mov  %l5, %sp
    bb14:	a3 28 60 02 	sll  %g1, 2, %l1
    bb18:	d0 00 a0 2c 	ld  [ %g2 + 0x2c ], %o0
    bb1c:	40 00 5b 04 	call  2272c <realloc@plt>
    bb20:	92 04 60 04 	add  %l1, 4, %o1
    bb24:	a0 92 20 00 	orcc  %o0, 0, %l0
    bb28:	02 80 00 28 	be  bbc8 <nis_addmember+0x22c>
    bb2c:	01 00 00 00 	nop 
    bb30:	c2 06 60 08 	ld  [ %i1 + 8 ], %g1
    bb34:	e0 20 60 2c 	st  %l0, [ %g1 + 0x2c ]
    bb38:	40 00 5b 12 	call  22780 <__strdup@plt>
    bb3c:	90 10 00 18 	mov  %i0, %o0
    bb40:	80 a2 20 00 	cmp  %o0, 0
    bb44:	02 80 00 21 	be  bbc8 <nis_addmember+0x22c>
    bb48:	d0 24 00 11 	st  %o0, [ %l0 + %l1 ]
    bb4c:	c4 06 60 08 	ld  [ %i1 + 8 ], %g2
    bb50:	c2 00 a0 28 	ld  [ %g2 + 0x28 ], %g1
    bb54:	82 00 60 01 	inc  %g1
    bb58:	c2 20 a0 28 	st  %g1, [ %g2 + 0x28 ]
    bb5c:	e0 06 60 08 	ld  [ %i1 + 8 ], %l0
    bb60:	40 00 5a c3 	call  2266c <strlen@plt>
    bb64:	d0 04 20 08 	ld  [ %l0 + 8 ], %o0
    bb68:	90 02 20 01 	inc  %o0
    bb6c:	82 04 a0 0e 	add  %l2, 0xe, %g1
    bb70:	80 a2 00 01 	cmp  %o0, %g1
    bb74:	1a 80 00 1a 	bcc  bbdc <nis_addmember+0x240>
    bb78:	03 00 00 00 	sethi  %hi(0), %g1
    bb7c:	d2 04 20 08 	ld  [ %l0 + 8 ], %o1
    bb80:	40 00 5a c4 	call  22690 <stpcpy@plt>
    bb84:	90 10 00 13 	mov  %l3, %o0
    bb88:	82 10 20 2e 	mov  0x2e, %g1
    bb8c:	c2 2a 00 00 	stb  %g1, [ %o0 ]
    bb90:	c4 06 60 08 	ld  [ %i1 + 8 ], %g2
    bb94:	d2 00 a0 14 	ld  [ %g2 + 0x14 ], %o1
    bb98:	94 10 24 00 	mov  0x400, %o2
    bb9c:	40 00 5b 20 	call  2281c <strncpy@plt>
    bba0:	90 02 20 01 	inc  %o0
    bba4:	d2 06 60 08 	ld  [ %i1 + 8 ], %o1
    bba8:	40 00 03 f1 	call  cb6c <nis_modify>
    bbac:	90 10 00 13 	mov  %l3, %o0
    bbb0:	a0 10 00 08 	mov  %o0, %l0
    bbb4:	90 10 00 19 	mov  %i1, %o0
    bbb8:	7f ff eb 85 	call  69cc <nis_freeresult>
    bbbc:	f0 04 00 00 	ld  [ %l0 ], %i0
    bbc0:	10 bf ff d1 	b  bb04 <nis_addmember+0x168>
    bbc4:	90 10 00 10 	mov  %l0, %o0
    bbc8:	7f ff eb 81 	call  69cc <nis_freeresult>
    bbcc:	90 10 00 19 	mov  %i1, %o0
    bbd0:	b0 10 20 0d 	mov  0xd, %i0
    bbd4:	10 80 00 0c 	b  bc04 <nis_addmember+0x268>
    bbd8:	9c 10 00 15 	mov  %l5, %sp
    bbdc:	05 00 00 00 	sethi  %hi(0), %g2
    bbe0:	07 00 00 00 	sethi  %hi(0), %g3
    bbe4:	82 10 62 8c 	or  %g1, 0x28c, %g1
    bbe8:	84 10 a2 90 	or  %g2, 0x290, %g2
    bbec:	86 10 e2 88 	or  %g3, 0x288, %g3
    bbf0:	d0 05 c0 01 	ld  [ %l7 + %g1 ], %o0
    bbf4:	d2 05 c0 02 	ld  [ %l7 + %g2 ], %o1
    bbf8:	d6 05 c0 03 	ld  [ %l7 + %g3 ], %o3
    bbfc:	40 00 5a 54 	call  2254c <__assert_fail@plt>
    bc00:	94 10 20 50 	mov  0x50, %o2
    bc04:	81 c7 e0 08 	ret 
    bc08:	81 e8 00 00 	restore 
    bc0c:	00 00 01 d4 	unimp  0x1d4
    bc10:	00 00 01 b0 	unimp  0x1b0
    bc14:	00 00 01 94 	unimp  0x194
    bc18:	00 00 01 78 	unimp  0x178
    bc1c:	00 00 01 5c 	unimp  0x15c
    bc20:	00 00 01 40 	unimp  0x140
    bc24:	00 00 01 24 	unimp  0x124
    bc28:	00 00 01 08 	unimp  0x108
    bc2c:	81 c3 e0 08 	retl 
    bc30:	ae 03 c0 17 	add  %o7, %l7, %l7

0000bc34 <__nis_finddirectory>:
__nis_finddirectory():
    bc34:	9d e3 bf 78 	save  %sp, -136, %sp
    bc38:	2f 00 00 58 	sethi  %hi(0x16000), %l7
    bc3c:	7f ff ff fc 	call  bc2c <nis_addmember+0x290>
    bc40:	ae 05 e3 c4 	add  %l7, 0x3c4, %l7	! 163c4 <__FRAME_END__+0x539c>
    bc44:	7f ff ea 89 	call  6668 <nis_local_host>
    bc48:	f2 27 bf e8 	st  %i1, [ %fp + -24 ]
    bc4c:	d0 27 bf ec 	st  %o0, [ %fp + -20 ]
    bc50:	92 10 20 18 	mov  0x18, %o1
    bc54:	40 00 5a dd 	call  227c8 <calloc@plt>
    bc58:	90 10 20 01 	mov  1, %o0
    bc5c:	05 00 00 00 	sethi  %hi(0), %g2
    bc60:	07 00 00 00 	sethi  %hi(0), %g3
    bc64:	88 10 00 18 	mov  %i0, %g4
    bc68:	b2 10 00 08 	mov  %o0, %i1
    bc6c:	84 10 a3 ec 	or  %g2, 0x3ec, %g2
    bc70:	86 10 e3 74 	or  %g3, 0x374, %g3
    bc74:	94 10 20 0c 	mov  0xc, %o2
    bc78:	98 07 bf e8 	add  %fp, -24, %o4
    bc7c:	80 a2 20 00 	cmp  %o0, 0
    bc80:	02 80 00 0f 	be  bcbc <__nis_finddirectory+0x88>
    bc84:	b0 10 20 00 	clr  %i0
    bc88:	03 00 00 c0 	sethi  %hi(0x30000), %g1
    bc8c:	c2 23 a0 60 	st  %g1, [ %sp + 0x60 ]
    bc90:	d0 23 a0 5c 	st  %o0, [ %sp + 0x5c ]
    bc94:	c0 23 a0 64 	clr  [ %sp + 0x64 ]
    bc98:	d2 01 20 08 	ld  [ %g4 + 8 ], %o1
    bc9c:	d6 05 c0 02 	ld  [ %l7 + %g2 ], %o3
    bca0:	da 05 c0 03 	ld  [ %l7 + %g3 ], %o5
    bca4:	7f ff f2 37 	call  8580 <__do_niscall2>
    bca8:	d0 01 20 0c 	ld  [ %g4 + 0xc ], %o0
    bcac:	80 a2 20 00 	cmp  %o0, 0
    bcb0:	32 80 00 02 	bne,a   bcb8 <__nis_finddirectory+0x84>
    bcb4:	d0 26 40 00 	st  %o0, [ %i1 ]
    bcb8:	b0 10 00 19 	mov  %i1, %i0
    bcbc:	81 c7 e0 08 	ret 
    bcc0:	81 e8 00 00 	restore 

0000bcc4 <__nis_hash>:
__nis_hash():
    bcc4:	9d e3 bf 90 	save  %sp, -112, %sp
    bcc8:	88 10 00 18 	mov  %i0, %g4
    bccc:	2f 00 00 58 	sethi  %hi(0x16000), %l7
    bcd0:	7f ff ff d7 	call  bc2c <nis_addmember+0x290>
    bcd4:	ae 05 e3 30 	add  %l7, 0x330, %l7	! 16330 <__FRAME_END__+0x5308>
    bcd8:	80 a6 60 00 	cmp  %i1, 0
    bcdc:	02 80 00 49 	be  be00 <__nis_hash+0x13c>
    bce0:	b0 10 20 00 	clr  %i0
    bce4:	84 0e 60 07 	and  %i1, 7, %g2
    bce8:	82 06 60 07 	add  %i1, 7, %g1
    bcec:	80 a0 a0 07 	cmp  %g2, 7
    bcf0:	18 80 00 44 	bgu  be00 <__nis_hash+0x13c>
    bcf4:	b3 30 60 03 	srl  %g1, 3, %i1
    bcf8:	03 00 00 58 	sethi  %hi(0x16000), %g1
    bcfc:	82 10 63 f4 	or  %g1, 0x3f4, %g1	! 163f4 <__FRAME_END__+0x53cc>
    bd00:	86 25 c0 01 	sub  %l7, %g1, %g3
    bd04:	85 28 a0 02 	sll  %g2, 2, %g2
    bd08:	c2 00 c0 02 	ld  [ %g3 + %g2 ], %g1
    bd0c:	81 c0 40 03 	jmp  %g1 + %g3
    bd10:	01 00 00 00 	nop 
    bd14:	83 2e 20 0a 	sll  %i0, 0xa, %g1
    bd18:	82 00 40 18 	add  %g1, %i0, %g1
    bd1c:	83 28 60 06 	sll  %g1, 6, %g1
    bd20:	c4 09 00 00 	ldub  [ %g4 ], %g2
    bd24:	82 20 40 18 	sub  %g1, %i0, %g1
    bd28:	b0 00 80 01 	add  %g2, %g1, %i0
    bd2c:	88 01 20 01 	inc  %g4
    bd30:	83 2e 20 0a 	sll  %i0, 0xa, %g1
    bd34:	82 00 40 18 	add  %g1, %i0, %g1
    bd38:	83 28 60 06 	sll  %g1, 6, %g1
    bd3c:	c4 09 00 00 	ldub  [ %g4 ], %g2
    bd40:	82 20 40 18 	sub  %g1, %i0, %g1
    bd44:	b0 00 80 01 	add  %g2, %g1, %i0
    bd48:	88 01 20 01 	inc  %g4
    bd4c:	83 2e 20 0a 	sll  %i0, 0xa, %g1
    bd50:	82 00 40 18 	add  %g1, %i0, %g1
    bd54:	83 28 60 06 	sll  %g1, 6, %g1
    bd58:	c4 09 00 00 	ldub  [ %g4 ], %g2
    bd5c:	82 20 40 18 	sub  %g1, %i0, %g1
    bd60:	b0 00 80 01 	add  %g2, %g1, %i0
    bd64:	88 01 20 01 	inc  %g4
    bd68:	83 2e 20 0a 	sll  %i0, 0xa, %g1
    bd6c:	82 00 40 18 	add  %g1, %i0, %g1
    bd70:	83 28 60 06 	sll  %g1, 6, %g1
    bd74:	c4 09 00 00 	ldub  [ %g4 ], %g2
    bd78:	82 20 40 18 	sub  %g1, %i0, %g1
    bd7c:	b0 00 80 01 	add  %g2, %g1, %i0
    bd80:	88 01 20 01 	inc  %g4
    bd84:	83 2e 20 0a 	sll  %i0, 0xa, %g1
    bd88:	82 00 40 18 	add  %g1, %i0, %g1
    bd8c:	83 28 60 06 	sll  %g1, 6, %g1
    bd90:	c4 09 00 00 	ldub  [ %g4 ], %g2
    bd94:	82 20 40 18 	sub  %g1, %i0, %g1
    bd98:	b0 00 80 01 	add  %g2, %g1, %i0
    bd9c:	88 01 20 01 	inc  %g4
    bda0:	83 2e 20 0a 	sll  %i0, 0xa, %g1
    bda4:	82 00 40 18 	add  %g1, %i0, %g1
    bda8:	83 28 60 06 	sll  %g1, 6, %g1
    bdac:	c4 09 00 00 	ldub  [ %g4 ], %g2
    bdb0:	82 20 40 18 	sub  %g1, %i0, %g1
    bdb4:	b0 00 80 01 	add  %g2, %g1, %i0
    bdb8:	88 01 20 01 	inc  %g4
    bdbc:	83 2e 20 0a 	sll  %i0, 0xa, %g1
    bdc0:	82 00 40 18 	add  %g1, %i0, %g1
    bdc4:	83 28 60 06 	sll  %g1, 6, %g1
    bdc8:	c4 09 00 00 	ldub  [ %g4 ], %g2
    bdcc:	82 20 40 18 	sub  %g1, %i0, %g1
    bdd0:	b0 00 80 01 	add  %g2, %g1, %i0
    bdd4:	b2 86 7f ff 	addcc  %i1, -1, %i1
    bdd8:	02 80 00 0a 	be  be00 <__nis_hash+0x13c>
    bddc:	88 01 20 01 	inc  %g4
    bde0:	83 2e 20 0a 	sll  %i0, 0xa, %g1
    bde4:	82 00 40 18 	add  %g1, %i0, %g1
    bde8:	83 28 60 06 	sll  %g1, 6, %g1
    bdec:	c4 09 00 00 	ldub  [ %g4 ], %g2
    bdf0:	82 20 40 18 	sub  %g1, %i0, %g1
    bdf4:	b0 00 80 01 	add  %g2, %g1, %i0
    bdf8:	10 bf ff c7 	b  bd14 <__nis_hash+0x50>
    bdfc:	88 01 20 01 	inc  %g4
    be00:	81 c7 e0 08 	ret 
    be04:	81 e8 00 00 	restore 

0000be08 <nis_removemember>:
nis_removemember():
    be08:	9d e3 bf 90 	save  %sp, -112, %sp
    be0c:	80 a6 60 00 	cmp  %i1, 0
    be10:	22 80 00 89 	be,a   c034 <nis_removemember+0x22c>
    be14:	b0 10 20 28 	mov  0x28, %i0
    be18:	c2 4e 40 00 	ldsb  [ %i1 ], %g1
    be1c:	80 a0 60 00 	cmp  %g1, 0
    be20:	12 80 00 04 	bne  be30 <nis_removemember+0x28>
    be24:	ac 10 00 0e 	mov  %sp, %l6
    be28:	10 80 00 83 	b  c034 <nis_removemember+0x22c>
    be2c:	b0 10 20 28 	mov  0x28, %i0
    be30:	40 00 5a 0f 	call  2266c <strlen@plt>
    be34:	90 10 00 19 	mov  %i1, %o0
    be38:	82 02 24 15 	add  %o0, 0x415, %g1
    be3c:	82 08 7f f8 	and  %g1, -8, %g1
    be40:	9c 23 80 01 	sub  %sp, %g1, %sp
    be44:	84 02 20 09 	add  %o0, 9, %g2
    be48:	84 08 bf f8 	and  %g2, -8, %g2
    be4c:	aa 03 a0 60 	add  %sp, 0x60, %l5
    be50:	9c 23 80 02 	sub  %sp, %g2, %sp
    be54:	94 02 24 0d 	add  %o0, 0x40d, %o2
    be58:	a0 02 20 01 	add  %o0, 1, %l0
    be5c:	a2 03 a0 60 	add  %sp, 0x60, %l1
    be60:	92 10 00 15 	mov  %l5, %o1
    be64:	7f ff e7 8e 	call  5c9c <nis_leaf_of_r>
    be68:	90 10 00 19 	mov  %i1, %o0
    be6c:	40 00 59 af 	call  22528 <rawmemchr@plt>
    be70:	92 10 20 00 	clr  %o1
    be74:	82 10 20 67 	mov  0x67, %g1
    be78:	84 10 20 6f 	mov  0x6f, %g2
    be7c:	c2 2a 20 01 	stb  %g1, [ %o0 + 1 ]
    be80:	c4 2a 20 03 	stb  %g2, [ %o0 + 3 ]
    be84:	82 10 20 75 	mov  0x75, %g1
    be88:	84 10 20 70 	mov  0x70, %g2
    be8c:	c2 2a 20 04 	stb  %g1, [ %o0 + 4 ]
    be90:	c4 2a 20 05 	stb  %g2, [ %o0 + 5 ]
    be94:	82 10 20 73 	mov  0x73, %g1
    be98:	84 10 20 5f 	mov  0x5f, %g2
    be9c:	c2 2a 20 06 	stb  %g1, [ %o0 + 6 ]
    bea0:	c4 2a 20 07 	stb  %g2, [ %o0 + 7 ]
    bea4:	86 10 20 72 	mov  0x72, %g3
    bea8:	82 10 20 64 	mov  0x64, %g1
    beac:	84 10 20 69 	mov  0x69, %g2
    beb0:	a6 10 20 2e 	mov  0x2e, %l3
    beb4:	a4 10 00 08 	mov  %o0, %l2
    beb8:	c2 2a 20 08 	stb  %g1, [ %o0 + 8 ]
    bebc:	c4 2a 20 09 	stb  %g2, [ %o0 + 9 ]
    bec0:	c6 2a 20 0a 	stb  %g3, [ %o0 + 0xa ]
    bec4:	e6 2a 00 00 	stb  %l3, [ %o0 ]
    bec8:	c6 2a 20 02 	stb  %g3, [ %o0 + 2 ]
    becc:	c0 2a 20 0b 	clrb  [ %o0 + 0xb ]
    bed0:	92 10 00 11 	mov  %l1, %o1
    bed4:	90 10 00 19 	mov  %i1, %o0
    bed8:	40 00 03 00 	call  cad8 <nis_domain_of_r>
    bedc:	94 10 00 10 	mov  %l0, %o2
    bee0:	92 10 00 08 	mov  %o0, %o1
    bee4:	80 a2 20 00 	cmp  %o0, 0
    bee8:	02 80 00 06 	be  bf00 <nis_removemember+0xf8>
    beec:	a4 04 a0 0b 	add  %l2, 0xb, %l2
    bef0:	c2 4a 00 00 	ldsb  [ %o0 ], %g1
    bef4:	80 a0 60 00 	cmp  %g1, 0
    bef8:	32 80 00 19 	bne,a   bf5c <nis_removemember+0x154>
    befc:	e6 2c 80 00 	stb  %l3, [ %l2 ]
    bf00:	90 10 00 15 	mov  %l5, %o0
    bf04:	7f ff f3 84 	call  8d14 <nis_lookup>
    bf08:	92 10 20 41 	mov  0x41, %o1
    bf0c:	b2 92 20 00 	orcc  %o0, 0, %i1
    bf10:	22 80 00 48 	be,a   c030 <nis_removemember+0x228>
    bf14:	b0 10 20 0d 	mov  0xd, %i0
    bf18:	e0 06 40 00 	ld  [ %i1 ], %l0
    bf1c:	80 a4 20 00 	cmp  %l0, 0
    bf20:	32 80 00 14 	bne,a   bf70 <nis_removemember+0x168>
    bf24:	b0 10 00 10 	mov  %l0, %i0
    bf28:	c2 06 60 04 	ld  [ %i1 + 4 ], %g1
    bf2c:	80 a0 60 01 	cmp  %g1, 1
    bf30:	12 80 00 07 	bne  bf4c <nis_removemember+0x144>
    bf34:	01 00 00 00 	nop 
    bf38:	c4 06 60 08 	ld  [ %i1 + 8 ], %g2
    bf3c:	c2 00 a0 20 	ld  [ %g2 + 0x20 ], %g1
    bf40:	80 a0 60 03 	cmp  %g1, 3
    bf44:	22 80 00 0f 	be,a   bf80 <nis_removemember+0x178>
    bf48:	e8 00 a0 28 	ld  [ %g2 + 0x28 ], %l4
    bf4c:	7f ff ea a0 	call  69cc <nis_freeresult>
    bf50:	b0 10 20 10 	mov  0x10, %i0
    bf54:	10 80 00 38 	b  c034 <nis_removemember+0x22c>
    bf58:	9c 10 00 16 	mov  %l6, %sp
    bf5c:	c0 2c a0 01 	clrb  [ %l2 + 1 ]
    bf60:	40 00 5a 5c 	call  228d0 <strcpy@plt>
    bf64:	90 04 a0 01 	add  %l2, 1, %o0
    bf68:	10 bf ff e7 	b  bf04 <nis_removemember+0xfc>
    bf6c:	90 10 00 15 	mov  %l5, %o0
    bf70:	7f ff ea 97 	call  69cc <nis_freeresult>
    bf74:	01 00 00 00 	nop 
    bf78:	10 80 00 2f 	b  c034 <nis_removemember+0x22c>
    bf7c:	9c 10 00 16 	mov  %l6, %sp
    bf80:	a6 10 20 00 	clr  %l3
    bf84:	80 a4 c0 14 	cmp  %l3, %l4
    bf88:	e2 00 a0 2c 	ld  [ %g2 + 0x2c ], %l1
    bf8c:	0a 80 00 1e 	bcs  c004 <nis_removemember+0x1fc>
    bf90:	a4 10 20 00 	clr  %l2
    bf94:	e6 20 a0 28 	st  %l3, [ %g2 + 0x28 ]
    bf98:	c2 06 60 08 	ld  [ %i1 + 8 ], %g1
    bf9c:	d2 00 60 08 	ld  [ %g1 + 8 ], %o1
    bfa0:	40 00 59 bc 	call  22690 <stpcpy@plt>
    bfa4:	90 10 00 15 	mov  %l5, %o0
    bfa8:	82 10 20 2e 	mov  0x2e, %g1
    bfac:	c2 2a 00 00 	stb  %g1, [ %o0 ]
    bfb0:	c4 06 60 08 	ld  [ %i1 + 8 ], %g2
    bfb4:	d2 00 a0 14 	ld  [ %g2 + 0x14 ], %o1
    bfb8:	94 10 24 00 	mov  0x400, %o2
    bfbc:	40 00 5a 18 	call  2281c <strncpy@plt>
    bfc0:	90 02 20 01 	inc  %o0
    bfc4:	d2 06 60 08 	ld  [ %i1 + 8 ], %o1
    bfc8:	40 00 02 e9 	call  cb6c <nis_modify>
    bfcc:	90 10 00 15 	mov  %l5, %o0
    bfd0:	a0 10 00 08 	mov  %o0, %l0
    bfd4:	90 10 00 19 	mov  %i1, %o0
    bfd8:	7f ff ea 7d 	call  69cc <nis_freeresult>
    bfdc:	f0 04 00 00 	ld  [ %l0 ], %i0
    bfe0:	10 bf ff e4 	b  bf70 <nis_removemember+0x168>
    bfe4:	90 10 00 10 	mov  %l0, %o0
    bfe8:	c2 04 40 10 	ld  [ %l1 + %l0 ], %g1
    bfec:	c2 24 40 02 	st  %g1, [ %l1 + %g2 ]
    bff0:	a6 04 e0 01 	inc  %l3
    bff4:	a4 04 a0 01 	inc  %l2
    bff8:	80 a4 80 14 	cmp  %l2, %l4
    bffc:	3a bf ff e6 	bcc,a   bf94 <nis_removemember+0x18c>
    c000:	c4 06 60 08 	ld  [ %i1 + 8 ], %g2
    c004:	a1 2c a0 02 	sll  %l2, 2, %l0
    c008:	d0 04 40 10 	ld  [ %l1 + %l0 ], %o0
    c00c:	40 00 59 32 	call  224d4 <strcmp@plt>
    c010:	92 10 00 18 	mov  %i0, %o1
    c014:	80 a2 20 00 	cmp  %o0, 0
    c018:	12 bf ff f4 	bne  bfe8 <nis_removemember+0x1e0>
    c01c:	85 2c e0 02 	sll  %l3, 2, %g2
    c020:	40 00 59 f0 	call  227e0 <free@plt>
    c024:	d0 04 40 10 	ld  [ %l1 + %l0 ], %o0
    c028:	10 bf ff f4 	b  bff8 <nis_removemember+0x1f0>
    c02c:	a4 04 a0 01 	inc  %l2
    c030:	9c 10 00 16 	mov  %l6, %sp
    c034:	81 c7 e0 08 	ret 
    c038:	81 e8 00 00 	restore 

0000c03c <nis_creategroup>:
nis_creategroup():
    c03c:	9d e3 bf 90 	save  %sp, -112, %sp
    c040:	80 a6 20 00 	cmp  %i0, 0
    c044:	02 80 00 87 	be  c260 <nis_creategroup+0x224>
    c048:	a0 10 20 28 	mov  0x28, %l0
    c04c:	c2 4e 00 00 	ldsb  [ %i0 ], %g1
    c050:	80 a0 60 00 	cmp  %g1, 0
    c054:	02 80 00 83 	be  c260 <nis_creategroup+0x224>
    c058:	aa 10 00 0e 	mov  %sp, %l5
    c05c:	40 00 59 84 	call  2266c <strlen@plt>
    c060:	90 10 00 18 	mov  %i0, %o0
    c064:	82 02 20 39 	add  %o0, 0x39, %g1
    c068:	82 08 7f f8 	and  %g1, -8, %g1
    c06c:	9c 23 80 01 	sub  %sp, %g1, %sp
    c070:	84 02 20 09 	add  %o0, 9, %g2
    c074:	84 08 bf f8 	and  %g2, -8, %g2
    c078:	ac 03 a0 60 	add  %sp, 0x60, %l6
    c07c:	9c 23 80 02 	sub  %sp, %g2, %sp
    c080:	a4 03 a0 60 	add  %sp, 0x60, %l2
    c084:	9c 23 80 02 	sub  %sp, %g2, %sp
    c088:	a0 02 20 01 	add  %o0, 1, %l0
    c08c:	94 10 00 10 	mov  %l0, %o2
    c090:	a8 03 a0 60 	add  %sp, 0x60, %l4
    c094:	92 10 00 12 	mov  %l2, %o1
    c098:	7f ff e7 01 	call  5c9c <nis_leaf_of_r>
    c09c:	90 10 00 18 	mov  %i0, %o0
    c0a0:	92 10 00 08 	mov  %o0, %o1
    c0a4:	40 00 59 7b 	call  22690 <stpcpy@plt>
    c0a8:	90 10 00 16 	mov  %l6, %o0
    c0ac:	82 10 20 67 	mov  0x67, %g1
    c0b0:	84 10 20 6f 	mov  0x6f, %g2
    c0b4:	c2 2a 20 01 	stb  %g1, [ %o0 + 1 ]
    c0b8:	c4 2a 20 03 	stb  %g2, [ %o0 + 3 ]
    c0bc:	82 10 20 75 	mov  0x75, %g1
    c0c0:	84 10 20 70 	mov  0x70, %g2
    c0c4:	c2 2a 20 04 	stb  %g1, [ %o0 + 4 ]
    c0c8:	c4 2a 20 05 	stb  %g2, [ %o0 + 5 ]
    c0cc:	82 10 20 73 	mov  0x73, %g1
    c0d0:	84 10 20 5f 	mov  0x5f, %g2
    c0d4:	c2 2a 20 06 	stb  %g1, [ %o0 + 6 ]
    c0d8:	c4 2a 20 07 	stb  %g2, [ %o0 + 7 ]
    c0dc:	86 10 20 72 	mov  0x72, %g3
    c0e0:	82 10 20 64 	mov  0x64, %g1
    c0e4:	84 10 20 69 	mov  0x69, %g2
    c0e8:	a6 10 20 2e 	mov  0x2e, %l3
    c0ec:	a2 10 00 08 	mov  %o0, %l1
    c0f0:	c2 2a 20 08 	stb  %g1, [ %o0 + 8 ]
    c0f4:	c4 2a 20 09 	stb  %g2, [ %o0 + 9 ]
    c0f8:	c6 2a 20 0a 	stb  %g3, [ %o0 + 0xa ]
    c0fc:	e6 2a 00 00 	stb  %l3, [ %o0 ]
    c100:	c6 2a 20 02 	stb  %g3, [ %o0 + 2 ]
    c104:	c0 2a 20 0b 	clrb  [ %o0 + 0xb ]
    c108:	90 10 00 18 	mov  %i0, %o0
    c10c:	94 10 00 10 	mov  %l0, %o2
    c110:	40 00 02 72 	call  cad8 <nis_domain_of_r>
    c114:	92 10 00 14 	mov  %l4, %o1
    c118:	80 a2 20 00 	cmp  %o0, 0
    c11c:	02 80 00 06 	be  c134 <nis_creategroup+0xf8>
    c120:	a2 04 60 0b 	add  %l1, 0xb, %l1
    c124:	c2 4a 00 00 	ldsb  [ %o0 ], %g1
    c128:	80 a0 60 00 	cmp  %g1, 0
    c12c:	32 80 00 05 	bne,a   c140 <nis_creategroup+0x104>
    c130:	92 10 00 08 	mov  %o0, %o1
    c134:	a0 10 20 11 	mov  0x11, %l0
    c138:	10 80 00 4a 	b  c260 <nis_creategroup+0x224>
    c13c:	9c 10 00 15 	mov  %l5, %sp
    c140:	e6 2c 40 00 	stb  %l3, [ %l1 ]
    c144:	40 00 59 e3 	call  228d0 <strcpy@plt>
    c148:	90 04 60 01 	add  %l1, 1, %o0
    c14c:	90 10 20 01 	mov  1, %o0
    c150:	40 00 59 9e 	call  227c8 <calloc@plt>
    c154:	92 10 20 40 	mov  0x40, %o1
    c158:	a2 92 20 00 	orcc  %o0, 0, %l1
    c15c:	02 80 00 40 	be  c25c <nis_creategroup+0x220>
    c160:	a0 10 20 0d 	mov  0xd, %l0
    c164:	40 00 59 36 	call  2263c <time@plt>
    c168:	90 10 20 00 	clr  %o0
    c16c:	d0 24 40 00 	st  %o0, [ %l1 ]
    c170:	d0 24 60 04 	st  %o0, [ %l1 + 4 ]
    c174:	40 00 59 83 	call  22780 <__strdup@plt>
    c178:	90 10 00 12 	mov  %l2, %o0
    c17c:	d0 24 60 08 	st  %o0, [ %l1 + 8 ]
    c180:	40 00 06 1a 	call  d9e8 <__nis_default_owner>
    c184:	90 10 20 00 	clr  %o0
    c188:	d0 24 60 0c 	st  %o0, [ %l1 + 0xc ]
    c18c:	40 00 06 49 	call  dab0 <__nis_default_group>
    c190:	90 10 20 00 	clr  %o0
    c194:	d0 24 60 10 	st  %o0, [ %l1 + 0x10 ]
    c198:	40 00 59 7a 	call  22780 <__strdup@plt>
    c19c:	90 10 00 14 	mov  %l4, %o0
    c1a0:	c2 04 60 08 	ld  [ %l1 + 8 ], %g1
    c1a4:	80 a0 60 00 	cmp  %g1, 0
    c1a8:	02 80 00 24 	be  c238 <nis_creategroup+0x1fc>
    c1ac:	d0 24 60 14 	st  %o0, [ %l1 + 0x14 ]
    c1b0:	c2 04 60 0c 	ld  [ %l1 + 0xc ], %g1
    c1b4:	80 a0 60 00 	cmp  %g1, 0
    c1b8:	02 80 00 20 	be  c238 <nis_creategroup+0x1fc>
    c1bc:	01 00 00 00 	nop 
    c1c0:	c2 04 60 10 	ld  [ %l1 + 0x10 ], %g1
    c1c4:	80 a0 60 00 	cmp  %g1, 0
    c1c8:	02 80 00 1c 	be  c238 <nis_creategroup+0x1fc>
    c1cc:	80 a2 20 00 	cmp  %o0, 0
    c1d0:	02 80 00 1a 	be  c238 <nis_creategroup+0x1fc>
    c1d4:	92 10 20 00 	clr  %o1
    c1d8:	40 00 06 8a 	call  dc00 <__nis_default_access>
    c1dc:	90 10 20 00 	clr  %o0
    c1e0:	82 10 2e 10 	mov  0xe10, %g1
    c1e4:	84 10 20 03 	mov  3, %g2
    c1e8:	d0 24 60 18 	st  %o0, [ %l1 + 0x18 ]
    c1ec:	c2 24 60 1c 	st  %g1, [ %l1 + 0x1c ]
    c1f0:	c4 24 60 20 	st  %g2, [ %l1 + 0x20 ]
    c1f4:	92 10 00 11 	mov  %l1, %o1
    c1f8:	f2 24 60 24 	st  %i1, [ %l1 + 0x24 ]
    c1fc:	c0 24 60 28 	clr  [ %l1 + 0x28 ]
    c200:	c0 24 60 2c 	clr  [ %l1 + 0x2c ]
    c204:	40 00 02 f9 	call  cde8 <nis_add>
    c208:	90 10 00 16 	mov  %l6, %o0
    c20c:	a0 10 00 08 	mov  %o0, %l0
    c210:	7f ff e9 e0 	call  6990 <nis_free_object>
    c214:	90 10 00 11 	mov  %l1, %o0
    c218:	80 a4 20 00 	cmp  %l0, 0
    c21c:	22 80 00 10 	be,a   c25c <nis_creategroup+0x220>
    c220:	a0 10 20 0d 	mov  0xd, %l0
    c224:	90 10 00 10 	mov  %l0, %o0
    c228:	7f ff e9 e9 	call  69cc <nis_freeresult>
    c22c:	e0 04 00 00 	ld  [ %l0 ], %l0
    c230:	10 80 00 0c 	b  c260 <nis_creategroup+0x224>
    c234:	9c 10 00 15 	mov  %l5, %sp
    c238:	40 00 59 6a 	call  227e0 <free@plt>
    c23c:	d0 04 60 10 	ld  [ %l1 + 0x10 ], %o0
    c240:	40 00 59 68 	call  227e0 <free@plt>
    c244:	d0 04 60 0c 	ld  [ %l1 + 0xc ], %o0
    c248:	40 00 59 66 	call  227e0 <free@plt>
    c24c:	d0 04 60 08 	ld  [ %l1 + 8 ], %o0
    c250:	40 00 59 64 	call  227e0 <free@plt>
    c254:	90 10 00 11 	mov  %l1, %o0
    c258:	a0 10 20 0d 	mov  0xd, %l0
    c25c:	9c 10 00 15 	mov  %l5, %sp
    c260:	81 c7 e0 08 	ret 
    c264:	91 e8 00 10 	restore  %g0, %l0, %o0

0000c268 <nis_destroygroup>:
nis_destroygroup():
    c268:	9d e3 bf 90 	save  %sp, -112, %sp
    c26c:	80 a6 20 00 	cmp  %i0, 0
    c270:	02 80 00 47 	be  c38c <nis_destroygroup+0x124>
    c274:	a0 10 20 28 	mov  0x28, %l0
    c278:	c2 4e 00 00 	ldsb  [ %i0 ], %g1
    c27c:	a6 10 00 0e 	mov  %sp, %l3
    c280:	90 10 00 18 	mov  %i0, %o0
    c284:	80 a0 60 00 	cmp  %g1, 0
    c288:	02 80 00 41 	be  c38c <nis_destroygroup+0x124>
    c28c:	aa 10 20 2e 	mov  0x2e, %l5
    c290:	40 00 58 f7 	call  2266c <strlen@plt>
    c294:	01 00 00 00 	nop 
    c298:	82 02 20 39 	add  %o0, 0x39, %g1
    c29c:	82 08 7f f8 	and  %g1, -8, %g1
    c2a0:	9c 23 80 01 	sub  %sp, %g1, %sp
    c2a4:	84 02 20 0a 	add  %o0, 0xa, %g2
    c2a8:	84 08 bf f8 	and  %g2, -8, %g2
    c2ac:	a8 03 a0 60 	add  %sp, 0x60, %l4
    c2b0:	9c 23 80 02 	sub  %sp, %g2, %sp
    c2b4:	92 03 a0 60 	add  %sp, 0x60, %o1
    c2b8:	9c 23 80 02 	sub  %sp, %g2, %sp
    c2bc:	a0 02 20 02 	add  %o0, 2, %l0
    c2c0:	94 10 00 10 	mov  %l0, %o2
    c2c4:	a2 03 a0 60 	add  %sp, 0x60, %l1
    c2c8:	7f ff e6 75 	call  5c9c <nis_leaf_of_r>
    c2cc:	90 10 00 18 	mov  %i0, %o0
    c2d0:	92 10 00 08 	mov  %o0, %o1
    c2d4:	40 00 58 ef 	call  22690 <stpcpy@plt>
    c2d8:	90 10 00 14 	mov  %l4, %o0
    c2dc:	82 10 20 67 	mov  0x67, %g1
    c2e0:	84 10 20 6f 	mov  0x6f, %g2
    c2e4:	c2 2a 20 01 	stb  %g1, [ %o0 + 1 ]
    c2e8:	c4 2a 20 03 	stb  %g2, [ %o0 + 3 ]
    c2ec:	82 10 20 75 	mov  0x75, %g1
    c2f0:	84 10 20 70 	mov  0x70, %g2
    c2f4:	c2 2a 20 04 	stb  %g1, [ %o0 + 4 ]
    c2f8:	c4 2a 20 05 	stb  %g2, [ %o0 + 5 ]
    c2fc:	82 10 20 73 	mov  0x73, %g1
    c300:	84 10 20 5f 	mov  0x5f, %g2
    c304:	c2 2a 20 06 	stb  %g1, [ %o0 + 6 ]
    c308:	c4 2a 20 07 	stb  %g2, [ %o0 + 7 ]
    c30c:	86 10 20 72 	mov  0x72, %g3
    c310:	82 10 20 64 	mov  0x64, %g1
    c314:	84 10 20 69 	mov  0x69, %g2
    c318:	c2 2a 20 08 	stb  %g1, [ %o0 + 8 ]
    c31c:	c4 2a 20 09 	stb  %g2, [ %o0 + 9 ]
    c320:	c6 2a 20 0a 	stb  %g3, [ %o0 + 0xa ]
    c324:	ea 2a 00 00 	stb  %l5, [ %o0 ]
    c328:	c6 2a 20 02 	stb  %g3, [ %o0 + 2 ]
    c32c:	c0 2a 20 0b 	clrb  [ %o0 + 0xb ]
    c330:	a4 10 00 08 	mov  %o0, %l2
    c334:	94 10 00 10 	mov  %l0, %o2
    c338:	92 10 00 11 	mov  %l1, %o1
    c33c:	40 00 01 e7 	call  cad8 <nis_domain_of_r>
    c340:	90 10 00 18 	mov  %i0, %o0
    c344:	80 a2 20 00 	cmp  %o0, 0
    c348:	02 80 00 06 	be  c360 <nis_destroygroup+0xf8>
    c34c:	92 10 00 08 	mov  %o0, %o1
    c350:	c2 4a 00 00 	ldsb  [ %o0 ], %g1
    c354:	80 a0 60 00 	cmp  %g1, 0
    c358:	12 80 00 09 	bne  c37c <nis_destroygroup+0x114>
    c35c:	90 04 a0 0c 	add  %l2, 0xc, %o0
    c360:	92 10 20 00 	clr  %o1
    c364:	40 00 02 6e 	call  cd1c <nis_remove>
    c368:	90 10 00 14 	mov  %l4, %o0
    c36c:	7f ff e9 98 	call  69cc <nis_freeresult>
    c370:	e0 02 00 00 	ld  [ %o0 ], %l0
    c374:	10 80 00 06 	b  c38c <nis_destroygroup+0x124>
    c378:	9c 10 00 13 	mov  %l3, %sp
    c37c:	40 00 59 55 	call  228d0 <strcpy@plt>
    c380:	ea 2c a0 0b 	stb  %l5, [ %l2 + 0xb ]
    c384:	10 bf ff f8 	b  c364 <nis_destroygroup+0xfc>
    c388:	92 10 20 00 	clr  %o1
    c38c:	81 c7 e0 08 	ret 
    c390:	91 e8 00 10 	restore  %g0, %l0, %o0
    c394:	81 c3 e0 08 	retl 
    c398:	ae 03 c0 17 	add  %o7, %l7, %l7

0000c39c <nis_print_group_entry>:
nis_print_group_entry():
    c39c:	9d e3 bf 78 	save  %sp, -136, %sp
    c3a0:	2f 00 00 57 	sethi  %hi(0x15c00), %l7
    c3a4:	7f ff ff fc 	call  c394 <nis_destroygroup+0x12c>
    c3a8:	ae 05 e0 5c 	add  %l7, 0x5c, %l7	! 15c5c <__FRAME_END__+0x4c34>
    c3ac:	80 a6 20 00 	cmp  %i0, 0
    c3b0:	02 80 01 bc 	be  caa0 <nis_print_group_entry+0x704>
    c3b4:	01 00 00 00 	nop 
    c3b8:	c2 4e 00 00 	ldsb  [ %i0 ], %g1
    c3bc:	80 a0 60 00 	cmp  %g1, 0
    c3c0:	02 80 01 b8 	be  caa0 <nis_print_group_entry+0x704>
    c3c4:	aa 10 00 0e 	mov  %sp, %l5
    c3c8:	40 00 58 a9 	call  2266c <strlen@plt>
    c3cc:	90 10 00 18 	mov  %i0, %o0
    c3d0:	82 02 20 39 	add  %o0, 0x39, %g1
    c3d4:	82 08 7f f8 	and  %g1, -8, %g1
    c3d8:	9c 23 80 01 	sub  %sp, %g1, %sp
    c3dc:	84 02 20 0a 	add  %o0, 0xa, %g2
    c3e0:	84 08 bf f8 	and  %g2, -8, %g2
    c3e4:	a6 03 a0 60 	add  %sp, 0x60, %l3
    c3e8:	9c 23 80 02 	sub  %sp, %g2, %sp
    c3ec:	92 03 a0 60 	add  %sp, 0x60, %o1
    c3f0:	9c 23 80 02 	sub  %sp, %g2, %sp
    c3f4:	a0 02 20 02 	add  %o0, 2, %l0
    c3f8:	94 10 00 10 	mov  %l0, %o2
    c3fc:	a2 03 a0 60 	add  %sp, 0x60, %l1
    c400:	7f ff e6 27 	call  5c9c <nis_leaf_of_r>
    c404:	90 10 00 18 	mov  %i0, %o0
    c408:	92 10 00 08 	mov  %o0, %o1
    c40c:	40 00 58 a1 	call  22690 <stpcpy@plt>
    c410:	90 10 00 13 	mov  %l3, %o0
    c414:	82 10 20 67 	mov  0x67, %g1
    c418:	84 10 20 6f 	mov  0x6f, %g2
    c41c:	c2 2a 20 01 	stb  %g1, [ %o0 + 1 ]
    c420:	c4 2a 20 03 	stb  %g2, [ %o0 + 3 ]
    c424:	82 10 20 75 	mov  0x75, %g1
    c428:	84 10 20 70 	mov  0x70, %g2
    c42c:	c2 2a 20 04 	stb  %g1, [ %o0 + 4 ]
    c430:	c4 2a 20 05 	stb  %g2, [ %o0 + 5 ]
    c434:	82 10 20 73 	mov  0x73, %g1
    c438:	84 10 20 5f 	mov  0x5f, %g2
    c43c:	c2 2a 20 06 	stb  %g1, [ %o0 + 6 ]
    c440:	c4 2a 20 07 	stb  %g2, [ %o0 + 7 ]
    c444:	86 10 20 72 	mov  0x72, %g3
    c448:	82 10 20 64 	mov  0x64, %g1
    c44c:	84 10 20 69 	mov  0x69, %g2
    c450:	a8 10 20 2e 	mov  0x2e, %l4
    c454:	c2 2a 20 08 	stb  %g1, [ %o0 + 8 ]
    c458:	c4 2a 20 09 	stb  %g2, [ %o0 + 9 ]
    c45c:	c6 2a 20 0a 	stb  %g3, [ %o0 + 0xa ]
    c460:	e8 2a 00 00 	stb  %l4, [ %o0 ]
    c464:	c6 2a 20 02 	stb  %g3, [ %o0 + 2 ]
    c468:	c0 2a 20 0b 	clrb  [ %o0 + 0xb ]
    c46c:	a4 10 00 08 	mov  %o0, %l2
    c470:	92 10 00 11 	mov  %l1, %o1
    c474:	90 10 00 18 	mov  %i0, %o0
    c478:	40 00 01 98 	call  cad8 <nis_domain_of_r>
    c47c:	94 10 00 10 	mov  %l0, %o2
    c480:	92 92 20 00 	orcc  %o0, 0, %o1
    c484:	02 80 00 06 	be  c49c <nis_print_group_entry+0x100>
    c488:	90 10 00 13 	mov  %l3, %o0
    c48c:	c2 4a 40 00 	ldsb  [ %o1 ], %g1
    c490:	80 a0 60 00 	cmp  %g1, 0
    c494:	32 80 00 13 	bne,a   c4e0 <nis_print_group_entry+0x144>
    c498:	e8 2c a0 0b 	stb  %l4, [ %l2 + 0xb ]
    c49c:	7f ff f2 1e 	call  8d14 <nis_lookup>
    c4a0:	92 10 20 41 	mov  0x41, %o1
    c4a4:	b0 92 20 00 	orcc  %o0, 0, %i0
    c4a8:	22 80 01 7e 	be,a   caa0 <nis_print_group_entry+0x704>
    c4ac:	9c 10 00 15 	mov  %l5, %sp
    c4b0:	c2 06 00 00 	ld  [ %i0 ], %g1
    c4b4:	80 a0 60 00 	cmp  %g1, 0
    c4b8:	12 80 00 06 	bne  c4d0 <nis_print_group_entry+0x134>
    c4bc:	01 00 00 00 	nop 
    c4c0:	c2 06 20 04 	ld  [ %i0 + 4 ], %g1
    c4c4:	80 a0 60 01 	cmp  %g1, 1
    c4c8:	22 80 00 0a 	be,a   c4f0 <nis_print_group_entry+0x154>
    c4cc:	c8 06 20 08 	ld  [ %i0 + 8 ], %g4
    c4d0:	7f ff e9 3f 	call  69cc <nis_freeresult>
    c4d4:	90 10 00 18 	mov  %i0, %o0
    c4d8:	10 80 01 72 	b  caa0 <nis_print_group_entry+0x704>
    c4dc:	9c 10 00 15 	mov  %l5, %sp
    c4e0:	40 00 58 fc 	call  228d0 <strcpy@plt>
    c4e4:	90 04 a0 0c 	add  %l2, 0xc, %o0
    c4e8:	10 bf ff ed 	b  c49c <nis_print_group_entry+0x100>
    c4ec:	90 10 00 13 	mov  %l3, %o0
    c4f0:	c2 01 20 20 	ld  [ %g4 + 0x20 ], %g1
    c4f4:	80 a0 60 03 	cmp  %g1, 3
    c4f8:	12 bf ff f6 	bne  c4d0 <nis_print_group_entry+0x134>
    c4fc:	b8 10 20 00 	clr  %i4
    c500:	9c 03 bf f8 	add  %sp, -8, %sp
    c504:	b6 03 a0 60 	add  %sp, 0x60, %i3
    c508:	9c 03 bf f8 	add  %sp, -8, %sp
    c50c:	ba 03 a0 60 	add  %sp, 0x60, %i5
    c510:	9c 03 bf f8 	add  %sp, -8, %sp
    c514:	82 03 a0 60 	add  %sp, 0x60, %g1
    c518:	9c 03 bf f8 	add  %sp, -8, %sp
    c51c:	84 03 a0 60 	add  %sp, 0x60, %g2
    c520:	9c 03 bf f8 	add  %sp, -8, %sp
    c524:	9a 03 a0 60 	add  %sp, 0x60, %o5
    c528:	c2 27 bf ec 	st  %g1, [ %fp + -20 ]
    c52c:	c4 27 bf e8 	st  %g2, [ %fp + -24 ]
    c530:	9c 03 bf f8 	add  %sp, -8, %sp
    c534:	c2 01 20 28 	ld  [ %g4 + 0x28 ], %g1
    c538:	86 03 a0 60 	add  %sp, 0x60, %g3
    c53c:	80 a0 60 00 	cmp  %g1, 0
    c540:	c6 27 bf e4 	st  %g3, [ %fp + -28 ]
    c544:	a8 10 20 00 	clr  %l4
    c548:	b4 10 20 00 	clr  %i2
    c54c:	b2 10 20 00 	clr  %i1
    c550:	c0 27 bf e0 	clr  [ %fp + -32 ]
    c554:	c0 27 bf dc 	clr  [ %fp + -36 ]
    c558:	a0 10 20 00 	clr  %l0
    c55c:	08 80 00 2e 	bleu  c614 <nis_print_group_entry+0x278>
    c560:	85 2c 20 02 	sll  %l0, 2, %g2
    c564:	c6 01 20 2c 	ld  [ %g4 + 0x2c ], %g3
    c568:	c6 00 c0 02 	ld  [ %g3 + %g2 ], %g3
    c56c:	c2 48 c0 00 	ldsb  [ %g3 ], %g1
    c570:	82 18 60 2d 	xor  %g1, 0x2d, %g1
    c574:	80 a0 00 01 	cmp  %g0, %g1
    c578:	84 60 3f ff 	subx  %g0, -1, %g2
    c57c:	c2 48 c0 02 	ldsb  [ %g3 + %g2 ], %g1
    c580:	80 a0 60 2a 	cmp  %g1, 0x2a
    c584:	02 80 00 0e 	be  c5bc <nis_print_group_entry+0x220>
    c588:	80 a0 60 40 	cmp  %g1, 0x40
    c58c:	02 80 00 18 	be  c5ec <nis_print_group_entry+0x250>
    c590:	80 a0 a0 00 	cmp  %g2, 0
    c594:	02 80 00 13 	be  c5e0 <nis_print_group_entry+0x244>
    c598:	83 2d 20 02 	sll  %l4, 2, %g1
    c59c:	83 2e 60 02 	sll  %i1, 2, %g1
    c5a0:	c4 07 bf e8 	ld  [ %fp + -24 ], %g2
    c5a4:	c6 20 80 01 	st  %g3, [ %g2 + %g1 ]
    c5a8:	b2 06 60 01 	inc  %i1
    c5ac:	a0 04 20 01 	inc  %l0
    c5b0:	c2 01 20 28 	ld  [ %g4 + 0x28 ], %g1
    c5b4:	10 bf ff ea 	b  c55c <nis_print_group_entry+0x1c0>
    c5b8:	80 a0 40 10 	cmp  %g1, %l0
    c5bc:	80 a0 a0 00 	cmp  %g2, 0
    c5c0:	02 80 00 e4 	be  c950 <nis_print_group_entry+0x5b4>
    c5c4:	83 2f 20 02 	sll  %i4, 2, %g1
    c5c8:	c4 07 bf e0 	ld  [ %fp + -32 ], %g2
    c5cc:	83 28 a0 02 	sll  %g2, 2, %g1
    c5d0:	84 00 a0 01 	inc  %g2
    c5d4:	c6 23 40 01 	st  %g3, [ %o5 + %g1 ]
    c5d8:	10 bf ff f5 	b  c5ac <nis_print_group_entry+0x210>
    c5dc:	c4 27 bf e0 	st  %g2, [ %fp + -32 ]
    c5e0:	c6 26 c0 01 	st  %g3, [ %i3 + %g1 ]
    c5e4:	10 bf ff f2 	b  c5ac <nis_print_group_entry+0x210>
    c5e8:	a8 05 20 01 	inc  %l4
    c5ec:	02 80 00 dc 	be  c95c <nis_print_group_entry+0x5c0>
    c5f0:	83 2e a0 02 	sll  %i2, 2, %g1
    c5f4:	c4 07 bf dc 	ld  [ %fp + -36 ], %g2
    c5f8:	83 28 a0 02 	sll  %g2, 2, %g1
    c5fc:	c4 07 bf e4 	ld  [ %fp + -28 ], %g2
    c600:	c6 20 80 01 	st  %g3, [ %g2 + %g1 ]
    c604:	c6 07 bf dc 	ld  [ %fp + -36 ], %g3
    c608:	86 00 e0 01 	inc  %g3
    c60c:	10 bf ff e8 	b  c5ac <nis_print_group_entry+0x210>
    c610:	c6 27 bf dc 	st  %g3, [ %fp + -36 ]
    c614:	d0 01 20 14 	ld  [ %g4 + 0x14 ], %o0
    c618:	40 00 58 15 	call  2266c <strlen@plt>
    c61c:	a6 10 00 0e 	mov  %sp, %l3
    c620:	07 00 00 00 	sethi  %hi(0), %g3
    c624:	90 02 20 11 	add  %o0, 0x11, %o0
    c628:	84 10 e3 90 	or  %g3, 0x390, %g2
    c62c:	90 0a 3f f8 	and  %o0, -8, %o0
    c630:	03 00 00 00 	sethi  %hi(0), %g1
    c634:	ec 05 c0 02 	ld  [ %l7 + %g2 ], %l6
    c638:	82 10 62 94 	or  %g1, 0x294, %g1
    c63c:	9c 23 80 08 	sub  %sp, %o0, %sp
    c640:	d2 05 c0 01 	ld  [ %l7 + %g1 ], %o1
    c644:	94 10 20 05 	mov  5, %o2
    c648:	a2 03 a0 60 	add  %sp, 0x60, %l1
    c64c:	40 00 58 59 	call  227b0 <__dcgettext@plt>
    c650:	90 10 00 16 	mov  %l6, %o0
    c654:	e0 06 20 08 	ld  [ %i0 + 8 ], %l0
    c658:	a4 10 00 08 	mov  %o0, %l2
    c65c:	40 00 58 04 	call  2266c <strlen@plt>
    c660:	d0 04 20 14 	ld  [ %l0 + 0x14 ], %o0
    c664:	94 02 20 0a 	add  %o0, 0xa, %o2
    c668:	92 10 00 11 	mov  %l1, %o1
    c66c:	40 00 01 1b 	call  cad8 <nis_domain_of_r>
    c670:	d0 04 20 14 	ld  [ %l0 + 0x14 ], %o0
    c674:	94 10 00 08 	mov  %o0, %o2
    c678:	c2 06 20 08 	ld  [ %i0 + 8 ], %g1
    c67c:	90 10 00 12 	mov  %l2, %o0
    c680:	40 00 58 85 	call  22894 <printf@plt>
    c684:	d2 00 60 08 	ld  [ %g1 + 8 ], %o1
    c688:	80 a5 20 00 	cmp  %l4, 0
    c68c:	02 80 00 f8 	be  ca6c <nis_print_group_entry+0x6d0>
    c690:	9c 10 00 13 	mov  %l3, %sp
    c694:	03 00 00 00 	sethi  %hi(0), %g1
    c698:	82 10 62 98 	or  %g1, 0x298, %g1	! 298 <GLIBC_2.0+0x298>
    c69c:	d2 05 c0 01 	ld  [ %l7 + %g1 ], %o1
    c6a0:	94 10 20 05 	mov  5, %o2
    c6a4:	40 00 58 43 	call  227b0 <__dcgettext@plt>
    c6a8:	90 10 00 16 	mov  %l6, %o0
    c6ac:	25 00 00 00 	sethi  %hi(0), %l2
    c6b0:	82 14 a3 ac 	or  %l2, 0x3ac, %g1	! 3ac <GLIBC_2.0+0x3ac>
    c6b4:	c4 05 c0 01 	ld  [ %l7 + %g1 ], %g2
    c6b8:	40 00 57 e7 	call  22654 <fputs@plt>
    c6bc:	d2 00 80 00 	ld  [ %g2 ], %o1
    c6c0:	a0 10 20 00 	clr  %l0
    c6c4:	80 a4 00 14 	cmp  %l0, %l4
    c6c8:	1a 80 00 0b 	bcc  c6f4 <nis_print_group_entry+0x358>
    c6cc:	03 00 00 00 	sethi  %hi(0), %g1
    c6d0:	a2 10 62 9c 	or  %g1, 0x29c, %l1	! 29c <GLIBC_2.0+0x29c>
    c6d4:	83 2c 20 02 	sll  %l0, 2, %g1
    c6d8:	d2 06 c0 01 	ld  [ %i3 + %g1 ], %o1
    c6dc:	40 00 58 6e 	call  22894 <printf@plt>
    c6e0:	d0 05 c0 11 	ld  [ %l7 + %l1 ], %o0
    c6e4:	a0 04 20 01 	inc  %l0
    c6e8:	80 a4 00 14 	cmp  %l0, %l4
    c6ec:	0a bf ff fb 	bcs  c6d8 <nis_print_group_entry+0x33c>
    c6f0:	83 2c 20 02 	sll  %l0, 2, %g1
    c6f4:	80 a7 20 00 	cmp  %i4, 0
    c6f8:	02 80 00 d0 	be  ca38 <nis_print_group_entry+0x69c>
    c6fc:	07 00 00 00 	sethi  %hi(0), %g3
    c700:	03 00 00 00 	sethi  %hi(0), %g1
    c704:	84 10 e3 90 	or  %g3, 0x390, %g2
    c708:	82 10 62 a0 	or  %g1, 0x2a0, %g1
    c70c:	d2 05 c0 01 	ld  [ %l7 + %g1 ], %o1
    c710:	d0 05 c0 02 	ld  [ %l7 + %g2 ], %o0
    c714:	40 00 58 27 	call  227b0 <__dcgettext@plt>
    c718:	94 10 20 05 	mov  5, %o2
    c71c:	82 14 a3 ac 	or  %l2, 0x3ac, %g1
    c720:	c4 05 c0 01 	ld  [ %l7 + %g1 ], %g2
    c724:	40 00 57 cc 	call  22654 <fputs@plt>
    c728:	d2 00 80 00 	ld  [ %g2 ], %o1
    c72c:	a0 10 20 00 	clr  %l0
    c730:	80 a4 00 1c 	cmp  %l0, %i4
    c734:	1a 80 00 0c 	bcc  c764 <nis_print_group_entry+0x3c8>
    c738:	03 00 00 00 	sethi  %hi(0), %g1
    c73c:	a2 10 62 9c 	or  %g1, 0x29c, %l1	! 29c <GLIBC_2.0+0x29c>
    c740:	83 2c 20 02 	sll  %l0, 2, %g1
    c744:	d2 07 40 01 	ld  [ %i5 + %g1 ], %o1
    c748:	92 02 60 02 	add  %o1, 2, %o1
    c74c:	40 00 58 52 	call  22894 <printf@plt>
    c750:	d0 05 c0 11 	ld  [ %l7 + %l1 ], %o0
    c754:	a0 04 20 01 	inc  %l0
    c758:	80 a4 00 1c 	cmp  %l0, %i4
    c75c:	0a bf ff fa 	bcs  c744 <nis_print_group_entry+0x3a8>
    c760:	83 2c 20 02 	sll  %l0, 2, %g1
    c764:	80 a6 a0 00 	cmp  %i2, 0
    c768:	02 80 00 8e 	be  c9a0 <nis_print_group_entry+0x604>
    c76c:	07 00 00 00 	sethi  %hi(0), %g3
    c770:	03 00 00 00 	sethi  %hi(0), %g1
    c774:	84 10 e3 90 	or  %g3, 0x390, %g2
    c778:	82 10 62 a4 	or  %g1, 0x2a4, %g1
    c77c:	d2 05 c0 01 	ld  [ %l7 + %g1 ], %o1
    c780:	d0 05 c0 02 	ld  [ %l7 + %g2 ], %o0
    c784:	40 00 58 0b 	call  227b0 <__dcgettext@plt>
    c788:	94 10 20 05 	mov  5, %o2
    c78c:	82 14 a3 ac 	or  %l2, 0x3ac, %g1
    c790:	c4 05 c0 01 	ld  [ %l7 + %g1 ], %g2
    c794:	40 00 57 b0 	call  22654 <fputs@plt>
    c798:	d2 00 80 00 	ld  [ %g2 ], %o1
    c79c:	a0 10 20 00 	clr  %l0
    c7a0:	80 a4 00 1a 	cmp  %l0, %i2
    c7a4:	1a 80 00 0d 	bcc  c7d8 <nis_print_group_entry+0x43c>
    c7a8:	03 00 00 00 	sethi  %hi(0), %g1
    c7ac:	a2 10 62 9c 	or  %g1, 0x29c, %l1	! 29c <GLIBC_2.0+0x29c>
    c7b0:	83 2c 20 02 	sll  %l0, 2, %g1
    c7b4:	c4 07 bf ec 	ld  [ %fp + -20 ], %g2
    c7b8:	d2 00 80 01 	ld  [ %g2 + %g1 ], %o1
    c7bc:	92 02 60 01 	inc  %o1
    c7c0:	40 00 58 35 	call  22894 <printf@plt>
    c7c4:	d0 05 c0 11 	ld  [ %l7 + %l1 ], %o0
    c7c8:	a0 04 20 01 	inc  %l0
    c7cc:	80 a4 00 1a 	cmp  %l0, %i2
    c7d0:	0a bf ff f9 	bcs  c7b4 <nis_print_group_entry+0x418>
    c7d4:	83 2c 20 02 	sll  %l0, 2, %g1
    c7d8:	80 a6 60 00 	cmp  %i1, 0
    c7dc:	02 80 00 64 	be  c96c <nis_print_group_entry+0x5d0>
    c7e0:	07 00 00 00 	sethi  %hi(0), %g3
    c7e4:	03 00 00 00 	sethi  %hi(0), %g1
    c7e8:	84 10 e3 90 	or  %g3, 0x390, %g2
    c7ec:	82 10 62 a8 	or  %g1, 0x2a8, %g1
    c7f0:	d2 05 c0 01 	ld  [ %l7 + %g1 ], %o1
    c7f4:	d0 05 c0 02 	ld  [ %l7 + %g2 ], %o0
    c7f8:	40 00 57 ee 	call  227b0 <__dcgettext@plt>
    c7fc:	94 10 20 05 	mov  5, %o2
    c800:	82 14 a3 ac 	or  %l2, 0x3ac, %g1
    c804:	c4 05 c0 01 	ld  [ %l7 + %g1 ], %g2
    c808:	40 00 57 93 	call  22654 <fputs@plt>
    c80c:	d2 00 80 00 	ld  [ %g2 ], %o1
    c810:	a0 10 20 00 	clr  %l0
    c814:	80 a4 00 19 	cmp  %l0, %i1
    c818:	1a 80 00 0d 	bcc  c84c <nis_print_group_entry+0x4b0>
    c81c:	03 00 00 00 	sethi  %hi(0), %g1
    c820:	a2 10 62 9c 	or  %g1, 0x29c, %l1	! 29c <GLIBC_2.0+0x29c>
    c824:	83 2c 20 02 	sll  %l0, 2, %g1
    c828:	c4 07 bf e8 	ld  [ %fp + -24 ], %g2
    c82c:	d2 00 80 01 	ld  [ %g2 + %g1 ], %o1
    c830:	92 02 60 01 	inc  %o1
    c834:	40 00 58 18 	call  22894 <printf@plt>
    c838:	d0 05 c0 11 	ld  [ %l7 + %l1 ], %o0
    c83c:	a0 04 20 01 	inc  %l0
    c840:	80 a4 00 19 	cmp  %l0, %i1
    c844:	0a bf ff f9 	bcs  c828 <nis_print_group_entry+0x48c>
    c848:	83 2c 20 02 	sll  %l0, 2, %g1
    c84c:	c2 07 bf e0 	ld  [ %fp + -32 ], %g1
    c850:	80 a0 60 00 	cmp  %g1, 0
    c854:	02 80 00 60 	be  c9d4 <nis_print_group_entry+0x638>
    c858:	07 00 00 00 	sethi  %hi(0), %g3
    c85c:	03 00 00 00 	sethi  %hi(0), %g1
    c860:	84 10 e3 90 	or  %g3, 0x390, %g2
    c864:	82 10 62 ac 	or  %g1, 0x2ac, %g1
    c868:	d2 05 c0 01 	ld  [ %l7 + %g1 ], %o1
    c86c:	d0 05 c0 02 	ld  [ %l7 + %g2 ], %o0
    c870:	40 00 57 d0 	call  227b0 <__dcgettext@plt>
    c874:	94 10 20 05 	mov  5, %o2
    c878:	82 14 a3 ac 	or  %l2, 0x3ac, %g1
    c87c:	c4 05 c0 01 	ld  [ %l7 + %g1 ], %g2
    c880:	40 00 57 75 	call  22654 <fputs@plt>
    c884:	d2 00 80 00 	ld  [ %g2 ], %o1
    c888:	a0 10 20 00 	clr  %l0
    c88c:	c2 07 bf e0 	ld  [ %fp + -32 ], %g1
    c890:	80 a4 00 01 	cmp  %l0, %g1
    c894:	1a 80 00 0f 	bcc  c8d0 <nis_print_group_entry+0x534>
    c898:	c2 07 bf dc 	ld  [ %fp + -36 ], %g1
    c89c:	23 00 00 00 	sethi  %hi(0), %l1
    c8a0:	a2 14 62 9c 	or  %l1, 0x29c, %l1	! 29c <GLIBC_2.0+0x29c>
    c8a4:	83 2c 20 02 	sll  %l0, 2, %g1
    c8a8:	d2 07 40 01 	ld  [ %i5 + %g1 ], %o1
    c8ac:	92 02 60 03 	add  %o1, 3, %o1
    c8b0:	40 00 57 f9 	call  22894 <printf@plt>
    c8b4:	d0 05 c0 11 	ld  [ %l7 + %l1 ], %o0
    c8b8:	a0 04 20 01 	inc  %l0
    c8bc:	c4 07 bf e0 	ld  [ %fp + -32 ], %g2
    c8c0:	80 a4 00 02 	cmp  %l0, %g2
    c8c4:	0a bf ff f9 	bcs  c8a8 <nis_print_group_entry+0x50c>
    c8c8:	83 2c 20 02 	sll  %l0, 2, %g1
    c8cc:	c2 07 bf dc 	ld  [ %fp + -36 ], %g1
    c8d0:	80 a0 60 00 	cmp  %g1, 0
    c8d4:	02 80 00 4d 	be  ca08 <nis_print_group_entry+0x66c>
    c8d8:	07 00 00 00 	sethi  %hi(0), %g3
    c8dc:	03 00 00 00 	sethi  %hi(0), %g1
    c8e0:	84 10 e3 90 	or  %g3, 0x390, %g2
    c8e4:	82 10 62 a8 	or  %g1, 0x2a8, %g1
    c8e8:	d2 05 c0 01 	ld  [ %l7 + %g1 ], %o1
    c8ec:	d0 05 c0 02 	ld  [ %l7 + %g2 ], %o0
    c8f0:	40 00 57 b0 	call  227b0 <__dcgettext@plt>
    c8f4:	94 10 20 05 	mov  5, %o2
    c8f8:	82 14 a3 ac 	or  %l2, 0x3ac, %g1
    c8fc:	c4 05 c0 01 	ld  [ %l7 + %g1 ], %g2
    c900:	40 00 57 55 	call  22654 <fputs@plt>
    c904:	d2 00 80 00 	ld  [ %g2 ], %o1
    c908:	a0 10 20 00 	clr  %l0
    c90c:	c2 07 bf dc 	ld  [ %fp + -36 ], %g1
    c910:	80 a4 00 01 	cmp  %l0, %g1
    c914:	1a bf fe ef 	bcc  c4d0 <nis_print_group_entry+0x134>
    c918:	23 00 00 00 	sethi  %hi(0), %l1
    c91c:	a2 14 62 b0 	or  %l1, 0x2b0, %l1	! 2b0 <GLIBC_2.0+0x2b0>
    c920:	83 2c 20 02 	sll  %l0, 2, %g1
    c924:	c4 07 bf e4 	ld  [ %fp + -28 ], %g2
    c928:	d2 00 80 01 	ld  [ %g2 + %g1 ], %o1
    c92c:	92 02 60 02 	add  %o1, 2, %o1
    c930:	40 00 57 d9 	call  22894 <printf@plt>
    c934:	d0 05 c0 11 	ld  [ %l7 + %l1 ], %o0
    c938:	a0 04 20 01 	inc  %l0
    c93c:	c6 07 bf dc 	ld  [ %fp + -36 ], %g3
    c940:	80 a4 00 03 	cmp  %l0, %g3
    c944:	0a bf ff f8 	bcs  c924 <nis_print_group_entry+0x588>
    c948:	83 2c 20 02 	sll  %l0, 2, %g1
    c94c:	30 bf fe e1 	b,a   c4d0 <nis_print_group_entry+0x134>
    c950:	c6 27 40 01 	st  %g3, [ %i5 + %g1 ]
    c954:	10 bf ff 16 	b  c5ac <nis_print_group_entry+0x210>
    c958:	b8 07 20 01 	inc  %i4
    c95c:	c4 07 bf ec 	ld  [ %fp + -20 ], %g2
    c960:	c6 20 80 01 	st  %g3, [ %g2 + %g1 ]
    c964:	10 bf ff 12 	b  c5ac <nis_print_group_entry+0x210>
    c968:	b4 06 a0 01 	inc  %i2
    c96c:	03 00 00 00 	sethi  %hi(0), %g1
    c970:	84 10 e3 90 	or  %g3, 0x390, %g2
    c974:	82 10 62 b4 	or  %g1, 0x2b4, %g1
    c978:	d2 05 c0 01 	ld  [ %l7 + %g1 ], %o1
    c97c:	d0 05 c0 02 	ld  [ %l7 + %g2 ], %o0
    c980:	40 00 57 8c 	call  227b0 <__dcgettext@plt>
    c984:	94 10 20 05 	mov  5, %o2
    c988:	82 14 a3 ac 	or  %l2, 0x3ac, %g1
    c98c:	c4 05 c0 01 	ld  [ %l7 + %g1 ], %g2
    c990:	40 00 57 31 	call  22654 <fputs@plt>
    c994:	d2 00 80 00 	ld  [ %g2 ], %o1
    c998:	10 bf ff ae 	b  c850 <nis_print_group_entry+0x4b4>
    c99c:	c2 07 bf e0 	ld  [ %fp + -32 ], %g1
    c9a0:	03 00 00 00 	sethi  %hi(0), %g1
    c9a4:	84 10 e3 90 	or  %g3, 0x390, %g2
    c9a8:	82 10 62 b8 	or  %g1, 0x2b8, %g1
    c9ac:	d2 05 c0 01 	ld  [ %l7 + %g1 ], %o1
    c9b0:	d0 05 c0 02 	ld  [ %l7 + %g2 ], %o0
    c9b4:	40 00 57 7f 	call  227b0 <__dcgettext@plt>
    c9b8:	94 10 20 05 	mov  5, %o2
    c9bc:	82 14 a3 ac 	or  %l2, 0x3ac, %g1
    c9c0:	c4 05 c0 01 	ld  [ %l7 + %g1 ], %g2
    c9c4:	40 00 57 24 	call  22654 <fputs@plt>
    c9c8:	d2 00 80 00 	ld  [ %g2 ], %o1
    c9cc:	10 bf ff 84 	b  c7dc <nis_print_group_entry+0x440>
    c9d0:	80 a6 60 00 	cmp  %i1, 0
    c9d4:	03 00 00 00 	sethi  %hi(0), %g1
    c9d8:	84 10 e3 90 	or  %g3, 0x390, %g2
    c9dc:	82 10 62 bc 	or  %g1, 0x2bc, %g1
    c9e0:	d2 05 c0 01 	ld  [ %l7 + %g1 ], %o1
    c9e4:	d0 05 c0 02 	ld  [ %l7 + %g2 ], %o0
    c9e8:	40 00 57 72 	call  227b0 <__dcgettext@plt>
    c9ec:	94 10 20 05 	mov  5, %o2
    c9f0:	82 14 a3 ac 	or  %l2, 0x3ac, %g1
    c9f4:	c4 05 c0 01 	ld  [ %l7 + %g1 ], %g2
    c9f8:	40 00 57 17 	call  22654 <fputs@plt>
    c9fc:	d2 00 80 00 	ld  [ %g2 ], %o1
    ca00:	10 bf ff b4 	b  c8d0 <nis_print_group_entry+0x534>
    ca04:	c2 07 bf dc 	ld  [ %fp + -36 ], %g1
    ca08:	03 00 00 00 	sethi  %hi(0), %g1
    ca0c:	84 10 e3 90 	or  %g3, 0x390, %g2
    ca10:	82 10 62 c0 	or  %g1, 0x2c0, %g1
    ca14:	d2 05 c0 01 	ld  [ %l7 + %g1 ], %o1
    ca18:	d0 05 c0 02 	ld  [ %l7 + %g2 ], %o0
    ca1c:	40 00 57 65 	call  227b0 <__dcgettext@plt>
    ca20:	94 10 20 05 	mov  5, %o2
    ca24:	82 14 a3 ac 	or  %l2, 0x3ac, %g1
    ca28:	c4 05 c0 01 	ld  [ %l7 + %g1 ], %g2
    ca2c:	40 00 57 0a 	call  22654 <fputs@plt>
    ca30:	d2 00 80 00 	ld  [ %g2 ], %o1
    ca34:	30 bf fe a7 	b,a   c4d0 <nis_print_group_entry+0x134>
    ca38:	03 00 00 00 	sethi  %hi(0), %g1
    ca3c:	84 10 e3 90 	or  %g3, 0x390, %g2
    ca40:	82 10 62 c4 	or  %g1, 0x2c4, %g1
    ca44:	d2 05 c0 01 	ld  [ %l7 + %g1 ], %o1
    ca48:	d0 05 c0 02 	ld  [ %l7 + %g2 ], %o0
    ca4c:	40 00 57 59 	call  227b0 <__dcgettext@plt>
    ca50:	94 10 20 05 	mov  5, %o2
    ca54:	82 14 a3 ac 	or  %l2, 0x3ac, %g1
    ca58:	c4 05 c0 01 	ld  [ %l7 + %g1 ], %g2
    ca5c:	40 00 56 fe 	call  22654 <fputs@plt>
    ca60:	d2 00 80 00 	ld  [ %g2 ], %o1
    ca64:	10 bf ff 41 	b  c768 <nis_print_group_entry+0x3cc>
    ca68:	80 a6 a0 00 	cmp  %i2, 0
    ca6c:	03 00 00 00 	sethi  %hi(0), %g1
    ca70:	82 10 62 c8 	or  %g1, 0x2c8, %g1	! 2c8 <GLIBC_2.0+0x2c8>
    ca74:	d2 05 c0 01 	ld  [ %l7 + %g1 ], %o1
    ca78:	90 10 00 16 	mov  %l6, %o0
    ca7c:	40 00 57 4d 	call  227b0 <__dcgettext@plt>
    ca80:	94 10 20 05 	mov  5, %o2
    ca84:	25 00 00 00 	sethi  %hi(0), %l2
    ca88:	82 14 a3 ac 	or  %l2, 0x3ac, %g1	! 3ac <GLIBC_2.0+0x3ac>
    ca8c:	c4 05 c0 01 	ld  [ %l7 + %g1 ], %g2
    ca90:	40 00 56 f1 	call  22654 <fputs@plt>
    ca94:	d2 00 80 00 	ld  [ %g2 ], %o1
    ca98:	10 bf ff 18 	b  c6f8 <nis_print_group_entry+0x35c>
    ca9c:	80 a7 20 00 	cmp  %i4, 0
    caa0:	81 c7 e0 08 	ret 
    caa4:	81 e8 00 00 	restore 
    caa8:	81 c3 e0 08 	retl 
    caac:	ae 03 c0 17 	add  %o7, %l7, %l7

0000cab0 <nis_domain_of>:
nis_domain_of():
    cab0:	9d e3 bf 90 	save  %sp, -112, %sp
    cab4:	03 00 00 00 	sethi  %hi(0), %g1
    cab8:	2f 00 00 55 	sethi  %hi(0x15400), %l7
    cabc:	7f ff ff fb 	call  caa8 <nis_print_group_entry+0x70c>
    cac0:	ae 05 e1 44 	add  %l7, 0x144, %l7	! 15544 <__FRAME_END__+0x451c>
    cac4:	82 10 62 cc 	or  %g1, 0x2cc, %g1
    cac8:	f2 05 c0 01 	ld  [ %l7 + %g1 ], %i1
    cacc:	10 80 00 03 	b  cad8 <nis_domain_of_r>
    cad0:	95 e8 24 00 	restore  %g0, 0x400, %o2
    cad4:	01 00 00 00 	nop 

0000cad8 <nis_domain_of_r>:
nis_domain_of_r():
    cad8:	9d e3 bf 90 	save  %sp, -112, %sp
    cadc:	92 10 20 2e 	mov  0x2e, %o1
    cae0:	a0 10 00 19 	mov  %i1, %l0
    cae4:	90 10 00 18 	mov  %i0, %o0
    cae8:	80 a6 60 00 	cmp  %i1, 0
    caec:	02 80 00 18 	be  cb4c <nis_domain_of_r+0x74>
    caf0:	a2 10 00 1a 	mov  %i2, %l1
    caf4:	40 00 56 5d 	call  22468 <strchr@plt>
    caf8:	c0 2e 40 00 	clrb  [ %i1 ]
    cafc:	b2 92 20 00 	orcc  %o0, 0, %i1
    cb00:	b2 06 60 01 	inc  %i1
    cb04:	90 10 00 19 	mov  %i1, %o0
    cb08:	02 80 00 15 	be  cb5c <nis_domain_of_r+0x84>
    cb0c:	b0 10 00 10 	mov  %l0, %i0
    cb10:	40 00 56 d7 	call  2266c <strlen@plt>
    cb14:	01 00 00 00 	nop 
    cb18:	80 a2 20 00 	cmp  %o0, 0
    cb1c:	12 80 00 08 	bne  cb3c <nis_domain_of_r+0x64>
    cb20:	80 a2 00 11 	cmp  %o0, %l1
    cb24:	80 a6 a0 01 	cmp  %i2, 1
    cb28:	08 80 00 09 	bleu  cb4c <nis_domain_of_r+0x74>
    cb2c:	82 10 20 2e 	mov  0x2e, %g1
    cb30:	c2 2c 00 00 	stb  %g1, [ %l0 ]
    cb34:	10 80 00 0a 	b  cb5c <nis_domain_of_r+0x84>
    cb38:	c0 2c 20 01 	clrb  [ %l0 + 1 ]
    cb3c:	1a 80 00 04 	bcc  cb4c <nis_domain_of_r+0x74>
    cb40:	b4 02 20 01 	add  %o0, 1, %i2
    cb44:	10 80 57 03 	b  22750 <memcpy@plt>
    cb48:	81 e8 00 00 	restore 
    cb4c:	40 00 56 8c 	call  2257c <__errno_location@plt>
    cb50:	b0 10 20 00 	clr  %i0
    cb54:	82 10 20 22 	mov  0x22, %g1
    cb58:	c2 22 00 00 	st  %g1, [ %o0 ]
    cb5c:	81 c7 e0 08 	ret 
    cb60:	81 e8 00 00 	restore 
    cb64:	81 c3 e0 08 	retl 
    cb68:	ae 03 c0 17 	add  %o7, %l7, %l7

0000cb6c <nis_modify>:
nis_modify():
    cb6c:	9d e3 bf 38 	save  %sp, -200, %sp
    cb70:	2f 00 00 55 	sethi  %hi(0x15400), %l7
    cb74:	7f ff ff fc 	call  cb64 <nis_domain_of_r+0x8c>
    cb78:	ae 05 e0 8c 	add  %l7, 0x8c, %l7	! 1548c <__FRAME_END__+0x4464>
    cb7c:	90 10 00 18 	mov  %i0, %o0
    cb80:	40 00 56 bb 	call  2266c <strlen@plt>
    cb84:	aa 10 00 0e 	mov  %sp, %l5
    cb88:	82 02 20 1b 	add  %o0, 0x1b, %g1
    cb8c:	82 08 7f f8 	and  %g1, -8, %g1
    cb90:	9c 23 80 01 	sub  %sp, %g1, %sp
    cb94:	a2 03 a0 68 	add  %sp, 0x68, %l1
    cb98:	9c 23 80 01 	sub  %sp, %g1, %sp
    cb9c:	a8 02 20 13 	add  %o0, 0x13, %l4
    cba0:	a0 02 20 14 	add  %o0, 0x14, %l0
    cba4:	92 10 20 24 	mov  0x24, %o1
    cba8:	a6 03 a0 68 	add  %sp, 0x68, %l3
    cbac:	40 00 57 07 	call  227c8 <calloc@plt>
    cbb0:	90 10 20 01 	mov  1, %o0
    cbb4:	a4 10 00 18 	mov  %i0, %l2
    cbb8:	b0 10 00 08 	mov  %o0, %i0
    cbbc:	80 a2 20 00 	cmp  %o0, 0
    cbc0:	02 80 00 51 	be  cd04 <nis_modify+0x198>
    cbc4:	92 10 00 19 	mov  %i1, %o1
    cbc8:	b2 07 bf b0 	add  %fp, -80, %i1
    cbcc:	e4 27 bf a0 	st  %l2, [ %fp + -96 ]
    cbd0:	90 10 00 19 	mov  %i1, %o0
    cbd4:	40 00 56 df 	call  22750 <memcpy@plt>
    cbd8:	94 10 20 40 	mov  0x40, %o2
    cbdc:	c2 07 bf b8 	ld  [ %fp + -72 ], %g1
    cbe0:	80 a0 60 00 	cmp  %g1, 0
    cbe4:	02 80 00 2c 	be  cc94 <nis_modify+0x128>
    cbe8:	92 10 00 11 	mov  %l1, %o1
    cbec:	c2 48 40 00 	ldsb  [ %g1 ], %g1
    cbf0:	80 a0 60 00 	cmp  %g1, 0
    cbf4:	22 80 00 29 	be,a   cc98 <nis_modify+0x12c>
    cbf8:	94 10 00 10 	mov  %l0, %o2
    cbfc:	c2 07 bf bc 	ld  [ %fp + -68 ], %g1
    cc00:	80 a0 60 00 	cmp  %g1, 0
    cc04:	02 80 00 06 	be  cc1c <nis_modify+0xb0>
    cc08:	01 00 00 00 	nop 
    cc0c:	c2 48 40 00 	ldsb  [ %g1 ], %g1
    cc10:	80 a0 60 00 	cmp  %g1, 0
    cc14:	12 80 00 06 	bne  cc2c <nis_modify+0xc0>
    cc18:	c2 07 bf c0 	ld  [ %fp + -64 ], %g1
    cc1c:	7f ff e6 c8 	call  673c <nis_local_principal>
    cc20:	01 00 00 00 	nop 
    cc24:	d0 27 bf bc 	st  %o0, [ %fp + -68 ]
    cc28:	c2 07 bf c0 	ld  [ %fp + -64 ], %g1
    cc2c:	80 a0 60 00 	cmp  %g1, 0
    cc30:	02 80 00 06 	be  cc48 <nis_modify+0xdc>
    cc34:	01 00 00 00 	nop 
    cc38:	c2 48 40 00 	ldsb  [ %g1 ], %g1
    cc3c:	80 a0 60 00 	cmp  %g1, 0
    cc40:	32 80 00 06 	bne,a   cc58 <nis_modify+0xec>
    cc44:	92 10 00 13 	mov  %l3, %o1
    cc48:	7f ff e6 56 	call  65a0 <nis_local_group>
    cc4c:	01 00 00 00 	nop 
    cc50:	d0 27 bf c0 	st  %o0, [ %fp + -64 ]
    cc54:	92 10 00 13 	mov  %l3, %o1
    cc58:	94 05 20 01 	add  %l4, 1, %o2
    cc5c:	7f ff ff 9f 	call  cad8 <nis_domain_of_r>
    cc60:	90 10 00 12 	mov  %l2, %o0
    cc64:	d0 27 bf c4 	st  %o0, [ %fp + -60 ]
    cc68:	90 10 00 19 	mov  %i1, %o0
    cc6c:	40 00 08 29 	call  ed10 <nis_clone_object>
    cc70:	92 10 20 00 	clr  %o1
    cc74:	80 a2 20 00 	cmp  %o0, 0
    cc78:	12 80 00 0c 	bne  cca8 <nis_modify+0x13c>
    cc7c:	d0 27 bf a8 	st  %o0, [ %fp + -88 ]
    cc80:	82 10 20 0d 	mov  0xd, %g1
    cc84:	c2 26 00 00 	st  %g1, [ %i0 ]
    cc88:	90 10 00 18 	mov  %i0, %o0
    cc8c:	10 80 00 20 	b  cd0c <nis_modify+0x1a0>
    cc90:	9c 10 00 15 	mov  %l5, %sp
    cc94:	94 10 00 10 	mov  %l0, %o2
    cc98:	7f ff e4 01 	call  5c9c <nis_leaf_of_r>
    cc9c:	90 10 00 12 	mov  %l2, %o0
    cca0:	10 bf ff d7 	b  cbfc <nis_modify+0x90>
    cca4:	d0 27 bf b8 	st  %o0, [ %fp + -72 ]
    cca8:	82 10 20 01 	mov  1, %g1
    ccac:	c2 27 bf a4 	st  %g1, [ %fp + -92 ]
    ccb0:	05 00 00 00 	sethi  %hi(0), %g2
    ccb4:	07 00 00 00 	sethi  %hi(0), %g3
    ccb8:	84 10 a3 70 	or  %g2, 0x370, %g2
    ccbc:	86 10 e3 60 	or  %g3, 0x360, %g3
    ccc0:	82 10 20 20 	mov  0x20, %g1
    ccc4:	c2 23 a0 5c 	st  %g1, [ %sp + 0x5c ]
    ccc8:	c0 23 a0 60 	clr  [ %sp + 0x60 ]
    cccc:	90 10 00 12 	mov  %l2, %o0
    ccd0:	d4 05 c0 02 	ld  [ %l7 + %g2 ], %o2
    ccd4:	d8 05 c0 03 	ld  [ %l7 + %g3 ], %o4
    ccd8:	92 10 20 03 	mov  3, %o1
    ccdc:	96 07 bf a0 	add  %fp, -96, %o3
    cce0:	7f ff ef c0 	call  8be0 <__do_niscall>
    cce4:	9a 10 00 18 	mov  %i0, %o5
    cce8:	80 a2 20 00 	cmp  %o0, 0
    ccec:	32 80 00 02 	bne,a   ccf4 <nis_modify+0x188>
    ccf0:	d0 26 00 00 	st  %o0, [ %i0 ]
    ccf4:	7f ff e6 05 	call  6508 <nis_destroy_object>
    ccf8:	d0 07 bf a8 	ld  [ %fp + -88 ], %o0
    ccfc:	10 bf ff e4 	b  cc8c <nis_modify+0x120>
    cd00:	90 10 00 18 	mov  %i0, %o0
    cd04:	90 10 20 00 	clr  %o0
    cd08:	9c 10 00 15 	mov  %l5, %sp
    cd0c:	81 c7 e0 08 	ret 
    cd10:	91 e8 00 08 	restore  %g0, %o0, %o0
    cd14:	81 c3 e0 08 	retl 
    cd18:	ae 03 c0 17 	add  %o7, %l7, %l7

0000cd1c <nis_remove>:
nis_remove():
    cd1c:	9d e3 bf 78 	save  %sp, -136, %sp
    cd20:	2f 00 00 54 	sethi  %hi(0x15000), %l7
    cd24:	7f ff ff fc 	call  cd14 <nis_modify+0x1a8>
    cd28:	ae 05 e2 dc 	add  %l7, 0x2dc, %l7	! 152dc <__FRAME_END__+0x42b4>
    cd2c:	92 10 20 24 	mov  0x24, %o1
    cd30:	40 00 56 a6 	call  227c8 <calloc@plt>
    cd34:	90 10 20 01 	mov  1, %o0
    cd38:	a2 10 00 18 	mov  %i0, %l1
    cd3c:	a0 10 00 08 	mov  %o0, %l0
    cd40:	80 a2 20 00 	cmp  %o0, 0
    cd44:	02 80 00 25 	be  cdd8 <nis_remove+0xbc>
    cd48:	b0 10 20 00 	clr  %i0
    cd4c:	90 10 00 19 	mov  %i1, %o0
    cd50:	92 10 20 00 	clr  %o1
    cd54:	80 a6 60 00 	cmp  %i1, 0
    cd58:	02 80 00 1d 	be  cdcc <nis_remove+0xb0>
    cd5c:	e2 27 bf e0 	st  %l1, [ %fp + -32 ]
    cd60:	82 10 20 01 	mov  1, %g1
    cd64:	40 00 07 eb 	call  ed10 <nis_clone_object>
    cd68:	c2 27 bf e4 	st  %g1, [ %fp + -28 ]
    cd6c:	d0 27 bf e8 	st  %o0, [ %fp + -24 ]
    cd70:	03 00 00 00 	sethi  %hi(0), %g1
    cd74:	07 00 00 00 	sethi  %hi(0), %g3
    cd78:	82 10 63 70 	or  %g1, 0x370, %g1
    cd7c:	86 10 e3 60 	or  %g3, 0x360, %g3
    cd80:	84 10 20 20 	mov  0x20, %g2
    cd84:	d4 05 c0 01 	ld  [ %l7 + %g1 ], %o2
    cd88:	c4 23 a0 5c 	st  %g2, [ %sp + 0x5c ]
    cd8c:	d8 05 c0 03 	ld  [ %l7 + %g3 ], %o4
    cd90:	c0 23 a0 60 	clr  [ %sp + 0x60 ]
    cd94:	90 10 00 11 	mov  %l1, %o0
    cd98:	92 10 20 04 	mov  4, %o1
    cd9c:	96 07 bf e0 	add  %fp, -32, %o3
    cda0:	7f ff ef 90 	call  8be0 <__do_niscall>
    cda4:	9a 10 00 10 	mov  %l0, %o5
    cda8:	82 10 00 08 	mov  %o0, %g1
    cdac:	80 a0 60 00 	cmp  %g1, 0
    cdb0:	12 80 00 05 	bne  cdc4 <nis_remove+0xa8>
    cdb4:	d0 07 bf e8 	ld  [ %fp + -24 ], %o0
    cdb8:	7f ff e5 d4 	call  6508 <nis_destroy_object>
    cdbc:	b0 10 00 10 	mov  %l0, %i0
    cdc0:	30 80 00 06 	b,a   cdd8 <nis_remove+0xbc>
    cdc4:	10 bf ff fd 	b  cdb8 <nis_remove+0x9c>
    cdc8:	c2 24 00 00 	st  %g1, [ %l0 ]
    cdcc:	c0 27 bf e4 	clr  [ %fp + -28 ]
    cdd0:	10 bf ff e8 	b  cd70 <nis_remove+0x54>
    cdd4:	c0 27 bf e8 	clr  [ %fp + -24 ]
    cdd8:	81 c7 e0 08 	ret 
    cddc:	81 e8 00 00 	restore 
    cde0:	81 c3 e0 08 	retl 
    cde4:	ae 03 c0 17 	add  %o7, %l7, %l7

0000cde8 <nis_add>:
nis_add():
    cde8:	9d e3 bf 38 	save  %sp, -200, %sp
    cdec:	2f 00 00 54 	sethi  %hi(0x15000), %l7
    cdf0:	7f ff ff fc 	call  cde0 <nis_remove+0xc4>
    cdf4:	ae 05 e2 10 	add  %l7, 0x210, %l7	! 15210 <__FRAME_END__+0x41e8>
    cdf8:	90 10 00 18 	mov  %i0, %o0
    cdfc:	40 00 56 1c 	call  2266c <strlen@plt>
    ce00:	aa 10 00 0e 	mov  %sp, %l5
    ce04:	82 02 20 1b 	add  %o0, 0x1b, %g1
    ce08:	82 08 7f f8 	and  %g1, -8, %g1
    ce0c:	9c 23 80 01 	sub  %sp, %g1, %sp
    ce10:	a4 03 a0 68 	add  %sp, 0x68, %l2
    ce14:	9c 23 80 01 	sub  %sp, %g1, %sp
    ce18:	a8 02 20 13 	add  %o0, 0x13, %l4
    ce1c:	a2 02 20 14 	add  %o0, 0x14, %l1
    ce20:	92 10 20 24 	mov  0x24, %o1
    ce24:	a6 03 a0 68 	add  %sp, 0x68, %l3
    ce28:	40 00 56 68 	call  227c8 <calloc@plt>
    ce2c:	90 10 20 01 	mov  1, %o0
    ce30:	a0 10 00 18 	mov  %i0, %l0
    ce34:	b0 10 00 08 	mov  %o0, %i0
    ce38:	80 a2 20 00 	cmp  %o0, 0
    ce3c:	02 80 00 51 	be  cf80 <nis_add+0x198>
    ce40:	92 10 00 19 	mov  %i1, %o1
    ce44:	b2 07 bf b0 	add  %fp, -80, %i1
    ce48:	e0 27 bf a0 	st  %l0, [ %fp + -96 ]
    ce4c:	90 10 00 19 	mov  %i1, %o0
    ce50:	40 00 56 40 	call  22750 <memcpy@plt>
    ce54:	94 10 20 40 	mov  0x40, %o2
    ce58:	c2 07 bf b8 	ld  [ %fp + -72 ], %g1
    ce5c:	80 a0 60 00 	cmp  %g1, 0
    ce60:	02 80 00 2c 	be  cf10 <nis_add+0x128>
    ce64:	92 10 00 12 	mov  %l2, %o1
    ce68:	c2 48 40 00 	ldsb  [ %g1 ], %g1
    ce6c:	80 a0 60 00 	cmp  %g1, 0
    ce70:	22 80 00 29 	be,a   cf14 <nis_add+0x12c>
    ce74:	94 10 00 11 	mov  %l1, %o2
    ce78:	c2 07 bf bc 	ld  [ %fp + -68 ], %g1
    ce7c:	80 a0 60 00 	cmp  %g1, 0
    ce80:	02 80 00 06 	be  ce98 <nis_add+0xb0>
    ce84:	01 00 00 00 	nop 
    ce88:	c2 48 40 00 	ldsb  [ %g1 ], %g1
    ce8c:	80 a0 60 00 	cmp  %g1, 0
    ce90:	12 80 00 06 	bne  cea8 <nis_add+0xc0>
    ce94:	c2 07 bf c0 	ld  [ %fp + -64 ], %g1
    ce98:	7f ff e6 29 	call  673c <nis_local_principal>
    ce9c:	01 00 00 00 	nop 
    cea0:	d0 27 bf bc 	st  %o0, [ %fp + -68 ]
    cea4:	c2 07 bf c0 	ld  [ %fp + -64 ], %g1
    cea8:	80 a0 60 00 	cmp  %g1, 0
    ceac:	02 80 00 06 	be  cec4 <nis_add+0xdc>
    ceb0:	01 00 00 00 	nop 
    ceb4:	c2 48 40 00 	ldsb  [ %g1 ], %g1
    ceb8:	80 a0 60 00 	cmp  %g1, 0
    cebc:	32 80 00 06 	bne,a   ced4 <nis_add+0xec>
    cec0:	92 10 00 13 	mov  %l3, %o1
    cec4:	7f ff e5 b7 	call  65a0 <nis_local_group>
    cec8:	01 00 00 00 	nop 
    cecc:	d0 27 bf c0 	st  %o0, [ %fp + -64 ]
    ced0:	92 10 00 13 	mov  %l3, %o1
    ced4:	94 05 20 01 	add  %l4, 1, %o2
    ced8:	7f ff ff 00 	call  cad8 <nis_domain_of_r>
    cedc:	90 10 00 10 	mov  %l0, %o0
    cee0:	d0 27 bf c4 	st  %o0, [ %fp + -60 ]
    cee4:	90 10 00 19 	mov  %i1, %o0
    cee8:	40 00 07 8a 	call  ed10 <nis_clone_object>
    ceec:	92 10 20 00 	clr  %o1
    cef0:	80 a2 20 00 	cmp  %o0, 0
    cef4:	12 80 00 0c 	bne  cf24 <nis_add+0x13c>
    cef8:	d0 27 bf a8 	st  %o0, [ %fp + -88 ]
    cefc:	82 10 20 0d 	mov  0xd, %g1
    cf00:	c2 26 00 00 	st  %g1, [ %i0 ]
    cf04:	90 10 00 18 	mov  %i0, %o0
    cf08:	10 80 00 20 	b  cf88 <nis_add+0x1a0>
    cf0c:	9c 10 00 15 	mov  %l5, %sp
    cf10:	94 10 00 11 	mov  %l1, %o2
    cf14:	7f ff e3 62 	call  5c9c <nis_leaf_of_r>
    cf18:	90 10 00 10 	mov  %l0, %o0
    cf1c:	10 bf ff d7 	b  ce78 <nis_add+0x90>
    cf20:	d0 27 bf b8 	st  %o0, [ %fp + -72 ]
    cf24:	82 10 20 01 	mov  1, %g1
    cf28:	c2 27 bf a4 	st  %g1, [ %fp + -92 ]
    cf2c:	82 10 20 20 	mov  0x20, %g1
    cf30:	05 00 00 00 	sethi  %hi(0), %g2
    cf34:	07 00 00 00 	sethi  %hi(0), %g3
    cf38:	c2 23 a0 5c 	st  %g1, [ %sp + 0x5c ]
    cf3c:	c0 23 a0 60 	clr  [ %sp + 0x60 ]
    cf40:	84 10 a3 70 	or  %g2, 0x370, %g2
    cf44:	86 10 e3 60 	or  %g3, 0x360, %g3
    cf48:	d0 02 20 14 	ld  [ %o0 + 0x14 ], %o0
    cf4c:	d4 05 c0 02 	ld  [ %l7 + %g2 ], %o2
    cf50:	d8 05 c0 03 	ld  [ %l7 + %g3 ], %o4
    cf54:	92 10 20 02 	mov  2, %o1
    cf58:	96 07 bf a0 	add  %fp, -96, %o3
    cf5c:	7f ff ef 21 	call  8be0 <__do_niscall>
    cf60:	9a 10 00 18 	mov  %i0, %o5
    cf64:	80 a2 20 00 	cmp  %o0, 0
    cf68:	32 80 00 02 	bne,a   cf70 <nis_add+0x188>
    cf6c:	d0 26 00 00 	st  %o0, [ %i0 ]
    cf70:	7f ff e5 66 	call  6508 <nis_destroy_object>
    cf74:	d0 07 bf a8 	ld  [ %fp + -88 ], %o0
    cf78:	10 bf ff e4 	b  cf08 <nis_add+0x120>
    cf7c:	90 10 00 18 	mov  %i0, %o0
    cf80:	90 10 20 00 	clr  %o0
    cf84:	9c 10 00 15 	mov  %l5, %sp
    cf88:	81 c7 e0 08 	ret 
    cf8c:	91 e8 00 08 	restore  %g0, %o0, %o0
    cf90:	00 00 05 78 	unimp  0x578
    cf94:	00 00 06 84 	unimp  0x684
    cf98:	00 00 07 6c 	unimp  0x76c
    cf9c:	00 00 06 84 	unimp  0x684
    cfa0:	00 00 06 84 	unimp  0x684
    cfa4:	00 00 06 84 	unimp  0x684
    cfa8:	00 00 06 84 	unimp  0x684
    cfac:	00 00 06 84 	unimp  0x684
    cfb0:	00 00 06 84 	unimp  0x684
    cfb4:	00 00 06 84 	unimp  0x684
    cfb8:	00 00 06 84 	unimp  0x684
    cfbc:	00 00 06 84 	unimp  0x684
    cfc0:	00 00 06 84 	unimp  0x684
    cfc4:	00 00 06 84 	unimp  0x684
    cfc8:	00 00 06 84 	unimp  0x684
    cfcc:	00 00 06 84 	unimp  0x684
    cfd0:	00 00 06 84 	unimp  0x684
    cfd4:	00 00 06 84 	unimp  0x684
    cfd8:	00 00 06 a8 	unimp  0x6a8
    cfdc:	00 00 06 84 	unimp  0x684
    cfe0:	00 00 06 84 	unimp  0x684
    cfe4:	00 00 06 84 	unimp  0x684
    cfe8:	00 00 06 84 	unimp  0x684
    cfec:	00 00 06 84 	unimp  0x684
    cff0:	00 00 06 84 	unimp  0x684
    cff4:	00 00 06 84 	unimp  0x684
    cff8:	00 00 06 84 	unimp  0x684
    cffc:	00 00 06 84 	unimp  0x684
    d000:	00 00 06 84 	unimp  0x684
    d004:	00 00 06 84 	unimp  0x684
    d008:	00 00 06 84 	unimp  0x684
    d00c:	00 00 06 84 	unimp  0x684
    d010:	00 00 06 84 	unimp  0x684
    d014:	00 00 06 84 	unimp  0x684
    d018:	00 00 06 84 	unimp  0x684
    d01c:	00 00 06 84 	unimp  0x684
    d020:	00 00 06 84 	unimp  0x684
    d024:	00 00 06 84 	unimp  0x684
    d028:	00 00 06 84 	unimp  0x684
    d02c:	00 00 06 84 	unimp  0x684
    d030:	00 00 06 84 	unimp  0x684
    d034:	00 00 06 84 	unimp  0x684
    d038:	00 00 06 84 	unimp  0x684
    d03c:	00 00 06 84 	unimp  0x684
    d040:	00 00 06 84 	unimp  0x684
    d044:	00 00 06 84 	unimp  0x684
    d048:	00 00 06 84 	unimp  0x684
    d04c:	00 00 06 84 	unimp  0x684
    d050:	00 00 06 84 	unimp  0x684
    d054:	00 00 06 84 	unimp  0x684
    d058:	00 00 06 84 	unimp  0x684
    d05c:	00 00 06 84 	unimp  0x684
    d060:	00 00 06 84 	unimp  0x684
    d064:	00 00 06 84 	unimp  0x684
    d068:	00 00 06 54 	unimp  0x654
    d06c:	00 00 06 84 	unimp  0x684
    d070:	00 00 06 84 	unimp  0x684
    d074:	00 00 06 84 	unimp  0x684
    d078:	00 00 06 84 	unimp  0x684
    d07c:	00 00 06 84 	unimp  0x684
    d080:	00 00 06 a0 	unimp  0x6a0
    d084:	00 00 06 84 	unimp  0x684
    d088:	00 00 06 84 	unimp  0x684
    d08c:	00 00 06 84 	unimp  0x684
    d090:	00 00 06 84 	unimp  0x684
    d094:	00 00 06 84 	unimp  0x684
    d098:	00 00 06 84 	unimp  0x684
    d09c:	00 00 06 98 	unimp  0x698
    d0a0:	00 00 06 5c 	unimp  0x65c
    d0a4:	00 00 06 84 	unimp  0x684
    d0a8:	00 00 06 84 	unimp  0x684
    d0ac:	00 00 06 84 	unimp  0x684
    d0b0:	00 00 06 84 	unimp  0x684
    d0b4:	00 00 06 84 	unimp  0x684
    d0b8:	00 00 06 84 	unimp  0x684
    d0bc:	00 00 06 84 	unimp  0x684
    d0c0:	00 00 06 90 	unimp  0x690
    d0c4:	81 c3 e0 08 	retl 
    d0c8:	ae 03 c0 17 	add  %o7, %l7, %l7

0000d0cc <searchXYX>:
searchXYX():
    d0cc:	9d e3 bf 90 	save  %sp, -112, %sp
    d0d0:	2f 00 00 53 	sethi  %hi(0x14c00), %l7
    d0d4:	7f ff ff fc 	call  d0c4 <nis_add+0x2dc>
    d0d8:	ae 05 e3 2c 	add  %l7, 0x32c, %l7	! 14f2c <__FRAME_END__+0x3f04>
    d0dc:	40 00 55 64 	call  2266c <strlen@plt>
    d0e0:	90 10 00 19 	mov  %i1, %o0
    d0e4:	80 a2 20 06 	cmp  %o0, 6
    d0e8:	12 80 00 23 	bne  d174 <searchXYX+0xa8>
    d0ec:	92 10 00 19 	mov  %i1, %o1
    d0f0:	90 10 00 18 	mov  %i0, %o0
    d0f4:	40 00 55 6d 	call  226a8 <strncmp@plt>
    d0f8:	94 10 20 06 	mov  6, %o2
    d0fc:	80 a2 20 00 	cmp  %o0, 0
    d100:	12 80 00 28 	bne  d1a0 <searchXYX+0xd4>
    d104:	b0 06 20 06 	add  %i0, 6, %i0
    d108:	c2 4e 00 00 	ldsb  [ %i0 ], %g1
    d10c:	80 a0 00 01 	cmp  %g0, %g1
    d110:	86 40 20 00 	addx  %g0, 0, %g3
    d114:	82 18 60 3a 	xor  %g1, 0x3a, %g1
    d118:	80 a0 00 01 	cmp  %g0, %g1
    d11c:	84 40 20 00 	addx  %g0, 0, %g2
    d120:	80 88 c0 02 	btst  %g3, %g2
    d124:	02 80 00 0f 	be  d160 <searchXYX+0x94>
    d128:	b2 10 20 00 	clr  %i1
    d12c:	b2 06 60 01 	inc  %i1
    d130:	c2 4e 00 19 	ldsb  [ %i0 + %i1 ], %g1
    d134:	80 a0 00 01 	cmp  %g0, %g1
    d138:	86 40 20 00 	addx  %g0, 0, %g3
    d13c:	82 18 60 3a 	xor  %g1, 0x3a, %g1
    d140:	80 a0 00 01 	cmp  %g0, %g1
    d144:	84 40 20 00 	addx  %g0, 0, %g2
    d148:	80 88 c0 02 	btst  %g3, %g2
    d14c:	32 bf ff f9 	bne,a   d130 <searchXYX+0x64>
    d150:	b2 06 60 01 	inc  %i1
    d154:	80 a6 60 00 	cmp  %i1, 0
    d158:	12 80 00 05 	bne  d16c <searchXYX+0xa0>
    d15c:	01 00 00 00 	nop 
    d160:	b0 10 20 01 	mov  1, %i0	! 1 <GLIBC_2.0+0x1>
    d164:	10 80 55 99 	b  227c8 <calloc@plt>
    d168:	93 e8 20 01 	restore  %g0, 1, %o1
    d16c:	10 80 55 22 	b  225f4 <__strndup@plt>
    d170:	81 e8 00 00 	restore 
    d174:	03 00 00 00 	sethi  %hi(0), %g1
    d178:	05 00 00 00 	sethi  %hi(0), %g2
    d17c:	07 00 00 00 	sethi  %hi(0), %g3
    d180:	82 10 62 d4 	or  %g1, 0x2d4, %g1
    d184:	84 10 a2 d8 	or  %g2, 0x2d8, %g2
    d188:	86 10 e2 d0 	or  %g3, 0x2d0, %g3
    d18c:	d0 05 c0 01 	ld  [ %l7 + %g1 ], %o0
    d190:	d2 05 c0 02 	ld  [ %l7 + %g2 ], %o1
    d194:	d6 05 c0 03 	ld  [ %l7 + %g3 ], %o3
    d198:	40 00 54 ed 	call  2254c <__assert_fail@plt>
    d19c:	94 10 20 24 	mov  0x24, %o2
    d1a0:	03 00 00 00 	sethi  %hi(0), %g1
    d1a4:	05 00 00 00 	sethi  %hi(0), %g2
    d1a8:	07 00 00 00 	sethi  %hi(0), %g3
    d1ac:	82 10 62 dc 	or  %g1, 0x2dc, %g1
    d1b0:	84 10 a2 d8 	or  %g2, 0x2d8, %g2
    d1b4:	86 10 e2 d0 	or  %g3, 0x2d0, %g3
    d1b8:	d0 05 c0 01 	ld  [ %l7 + %g1 ], %o0
    d1bc:	d2 05 c0 02 	ld  [ %l7 + %g2 ], %o1
    d1c0:	d6 05 c0 03 	ld  [ %l7 + %g3 ], %o3
    d1c4:	40 00 54 e2 	call  2254c <__assert_fail@plt>
    d1c8:	94 10 20 25 	mov  0x25, %o2
    d1cc:	01 00 00 00 	nop 

0000d1d0 <searchttl>:
searchttl():
    d1d0:	9d e3 bf 90 	save  %sp, -112, %sp
    d1d4:	2f 00 00 53 	sethi  %hi(0x14c00), %l7
    d1d8:	7f ff ff bb 	call  d0c4 <nis_add+0x2dc>
    d1dc:	ae 05 e2 28 	add  %l7, 0x228, %l7	! 14e28 <__FRAME_END__+0x3e00>
    d1e0:	a4 10 00 0e 	mov  %sp, %l2
    d1e4:	40 00 55 22 	call  2266c <strlen@plt>
    d1e8:	90 10 00 18 	mov  %i0, %o0
    d1ec:	90 02 20 08 	add  %o0, 8, %o0
    d1f0:	90 0a 3f f8 	and  %o0, -8, %o0
    d1f4:	03 00 00 00 	sethi  %hi(0), %g1
    d1f8:	9c 23 80 08 	sub  %sp, %o0, %sp
    d1fc:	82 10 62 e0 	or  %g1, 0x2e0, %g1
    d200:	90 10 00 18 	mov  %i0, %o0
    d204:	d2 05 c0 01 	ld  [ %l7 + %g1 ], %o1
    d208:	40 00 55 16 	call  22660 <strstr@plt>
    d20c:	a2 03 a0 60 	add  %sp, 0x60, %l1
    d210:	a0 92 20 00 	orcc  %o0, 0, %l0
    d214:	02 80 00 5d 	be  d388 <searchttl+0x1b8>
    d218:	03 00 00 2a 	sethi  %hi(0xa800), %g1
    d21c:	c2 4c 20 04 	ldsb  [ %l0 + 4 ], %g1
    d220:	80 a0 00 01 	cmp  %g0, %g1
    d224:	86 40 20 00 	addx  %g0, 0, %g3
    d228:	82 18 60 3a 	xor  %g1, 0x3a, %g1
    d22c:	80 a0 00 01 	cmp  %g0, %g1
    d230:	84 40 20 00 	addx  %g0, 0, %g2
    d234:	80 88 c0 02 	btst  %g3, %g2
    d238:	a0 04 20 04 	add  %l0, 4, %l0
    d23c:	02 80 00 52 	be  d384 <searchttl+0x1b4>
    d240:	b0 10 20 00 	clr  %i0
    d244:	b0 06 20 01 	inc  %i0
    d248:	c2 4c 00 18 	ldsb  [ %l0 + %i0 ], %g1
    d24c:	80 a0 00 01 	cmp  %g0, %g1
    d250:	86 40 20 00 	addx  %g0, 0, %g3
    d254:	82 18 60 3a 	xor  %g1, 0x3a, %g1
    d258:	80 a0 00 01 	cmp  %g0, %g1
    d25c:	84 40 20 00 	addx  %g0, 0, %g2
    d260:	80 88 c0 02 	btst  %g3, %g2
    d264:	32 bf ff f9 	bne,a   d248 <searchttl+0x78>
    d268:	b0 06 20 01 	inc  %i0
    d26c:	80 a6 20 00 	cmp  %i0, 0
    d270:	02 80 00 45 	be  d384 <searchttl+0x1b4>
    d274:	92 10 00 10 	mov  %l0, %o1
    d278:	94 10 00 18 	mov  %i0, %o2
    d27c:	40 00 55 68 	call  2281c <strncpy@plt>
    d280:	90 10 00 11 	mov  %l1, %o0
    d284:	c0 2c 40 18 	clrb  [ %l1 + %i0 ]
    d288:	90 10 00 11 	mov  %l1, %o0
    d28c:	92 10 20 64 	mov  0x64, %o1
    d290:	40 00 54 76 	call  22468 <strchr@plt>
    d294:	a0 10 00 11 	mov  %l1, %l0
    d298:	a2 92 20 00 	orcc  %o0, 0, %l1
    d29c:	02 80 00 0d 	be  d2d0 <searchttl+0x100>
    d2a0:	b0 10 20 00 	clr  %i0
    d2a4:	c0 2c 40 00 	clrb  [ %l1 ]
    d2a8:	90 10 00 10 	mov  %l0, %o0
    d2ac:	92 10 20 00 	clr  %o1
    d2b0:	94 10 20 0a 	mov  0xa, %o2
    d2b4:	40 00 54 f4 	call  22684 <__strtol_internal@plt>
    d2b8:	96 10 20 00 	clr  %o3
    d2bc:	03 00 00 54 	sethi  %hi(0x15000), %g1
    d2c0:	a2 04 60 01 	inc  %l1
    d2c4:	82 10 61 80 	or  %g1, 0x180, %g1
    d2c8:	b0 5a 00 01 	smul  %o0, %g1, %i0
    d2cc:	a0 10 00 11 	mov  %l1, %l0
    d2d0:	90 10 00 10 	mov  %l0, %o0
    d2d4:	40 00 54 65 	call  22468 <strchr@plt>
    d2d8:	92 10 20 68 	mov  0x68, %o1
    d2dc:	a2 92 20 00 	orcc  %o0, 0, %l1
    d2e0:	02 80 00 0b 	be  d30c <searchttl+0x13c>
    d2e4:	90 10 00 10 	mov  %l0, %o0
    d2e8:	c0 2c 40 00 	clrb  [ %l1 ]
    d2ec:	92 10 20 00 	clr  %o1
    d2f0:	94 10 20 0a 	mov  0xa, %o2
    d2f4:	40 00 54 e4 	call  22684 <__strtol_internal@plt>
    d2f8:	96 10 20 00 	clr  %o3
    d2fc:	a2 04 60 01 	inc  %l1
    d300:	90 5a 2e 10 	smul  %o0, 0xe10, %o0
    d304:	b0 06 00 08 	add  %i0, %o0, %i0
    d308:	a0 10 00 11 	mov  %l1, %l0
    d30c:	90 10 00 10 	mov  %l0, %o0
    d310:	40 00 54 56 	call  22468 <strchr@plt>
    d314:	92 10 20 6d 	mov  0x6d, %o1
    d318:	a2 92 20 00 	orcc  %o0, 0, %l1
    d31c:	02 80 00 0d 	be  d350 <searchttl+0x180>
    d320:	90 10 00 10 	mov  %l0, %o0
    d324:	c0 2c 40 00 	clrb  [ %l1 ]
    d328:	92 10 20 00 	clr  %o1
    d32c:	94 10 20 0a 	mov  0xa, %o2
    d330:	40 00 54 d5 	call  22684 <__strtol_internal@plt>
    d334:	96 10 20 00 	clr  %o3
    d338:	83 2a 20 04 	sll  %o0, 4, %g1
    d33c:	82 20 40 08 	sub  %g1, %o0, %g1
    d340:	a2 04 60 01 	inc  %l1
    d344:	83 28 60 02 	sll  %g1, 2, %g1
    d348:	b0 06 00 01 	add  %i0, %g1, %i0
    d34c:	a0 10 00 11 	mov  %l1, %l0
    d350:	90 10 00 10 	mov  %l0, %o0
    d354:	40 00 54 45 	call  22468 <strchr@plt>
    d358:	92 10 20 73 	mov  0x73, %o1
    d35c:	80 a2 20 00 	cmp  %o0, 0
    d360:	32 80 00 02 	bne,a   d368 <searchttl+0x198>
    d364:	c0 2a 00 00 	clrb  [ %o0 ]
    d368:	90 10 00 10 	mov  %l0, %o0
    d36c:	92 10 20 00 	clr  %o1
    d370:	94 10 20 0a 	mov  0xa, %o2
    d374:	40 00 54 c4 	call  22684 <__strtol_internal@plt>
    d378:	96 10 20 00 	clr  %o3
    d37c:	10 80 00 04 	b  d38c <searchttl+0x1bc>
    d380:	b0 06 00 08 	add  %i0, %o0, %i0
    d384:	03 00 00 2a 	sethi  %hi(0xa800), %g1
    d388:	b0 10 60 c0 	or  %g1, 0xc0, %i0	! a8c0 <_xdr_ib_request+0x4c>
    d38c:	9c 10 00 12 	mov  %l2, %sp
    d390:	81 c7 e0 08 	ret 
    d394:	81 e8 00 00 	restore 

0000d398 <searchaccess>:
searchaccess():
    d398:	9d e3 bf 90 	save  %sp, -112, %sp
    d39c:	2f 00 00 53 	sethi  %hi(0x14c00), %l7
    d3a0:	7f ff ff 49 	call  d0c4 <nis_add+0x2dc>
    d3a4:	ae 05 e0 60 	add  %l7, 0x60, %l7	! 14c60 <__FRAME_END__+0x3c38>
    d3a8:	90 10 00 18 	mov  %i0, %o0
    d3ac:	40 00 54 b0 	call  2266c <strlen@plt>
    d3b0:	a4 10 00 0e 	mov  %sp, %l2
    d3b4:	90 02 20 08 	add  %o0, 8, %o0
    d3b8:	90 0a 3f f8 	and  %o0, -8, %o0
    d3bc:	03 00 00 00 	sethi  %hi(0), %g1
    d3c0:	9c 23 80 08 	sub  %sp, %o0, %sp
    d3c4:	82 10 62 e4 	or  %g1, 0x2e4, %g1
    d3c8:	90 10 00 18 	mov  %i0, %o0
    d3cc:	d2 05 c0 01 	ld  [ %l7 + %g1 ], %o1
    d3d0:	40 00 54 a4 	call  22660 <strstr@plt>
    d3d4:	a2 03 a0 60 	add  %sp, 0x60, %l1
    d3d8:	80 a2 20 00 	cmp  %o0, 0
    d3dc:	02 80 00 19 	be  d440 <searchaccess+0xa8>
    d3e0:	b0 10 00 19 	mov  %i1, %i0
    d3e4:	c2 4a 20 07 	ldsb  [ %o0 + 7 ], %g1
    d3e8:	80 a0 00 01 	cmp  %g0, %g1
    d3ec:	86 40 20 00 	addx  %g0, 0, %g3
    d3f0:	82 18 60 3a 	xor  %g1, 0x3a, %g1
    d3f4:	80 a0 00 01 	cmp  %g0, %g1
    d3f8:	84 40 20 00 	addx  %g0, 0, %g2
    d3fc:	80 88 c0 02 	btst  %g3, %g2
    d400:	90 02 20 07 	add  %o0, 7, %o0
    d404:	02 80 00 0f 	be  d440 <searchaccess+0xa8>
    d408:	a0 10 20 00 	clr  %l0
    d40c:	a0 04 20 01 	inc  %l0
    d410:	c2 4a 00 10 	ldsb  [ %o0 + %l0 ], %g1
    d414:	80 a0 00 01 	cmp  %g0, %g1
    d418:	86 40 20 00 	addx  %g0, 0, %g3
    d41c:	82 18 60 3a 	xor  %g1, 0x3a, %g1
    d420:	80 a0 00 01 	cmp  %g0, %g1
    d424:	84 40 20 00 	addx  %g0, 0, %g2
    d428:	80 88 c0 02 	btst  %g3, %g2
    d42c:	32 bf ff f9 	bne,a   d410 <searchaccess+0x78>
    d430:	a0 04 20 01 	inc  %l0
    d434:	80 a4 20 00 	cmp  %l0, 0
    d438:	12 80 00 05 	bne  d44c <searchaccess+0xb4>
    d43c:	92 10 00 08 	mov  %o0, %o1
    d440:	b0 10 20 00 	clr  %i0
    d444:	10 80 01 67 	b  d9e0 <searchaccess+0x648>
    d448:	9c 10 00 12 	mov  %l2, %sp
    d44c:	94 10 00 10 	mov  %l0, %o2
    d450:	40 00 54 f3 	call  2281c <strncpy@plt>
    d454:	90 10 00 11 	mov  %l1, %o0
    d458:	c0 2c 40 10 	clrb  [ %l1 + %l0 ]
    d45c:	c2 4c 40 00 	ldsb  [ %l1 ], %g1
    d460:	82 18 60 2c 	xor  %g1, 0x2c, %g1
    d464:	80 a0 00 01 	cmp  %g0, %g1
    d468:	84 60 3f ff 	subx  %g0, -1, %g2
    d46c:	90 04 40 02 	add  %l1, %g2, %o0
    d470:	da 0a 00 00 	ldub  [ %o0 ], %o5
    d474:	83 2b 60 18 	sll  %o5, 0x18, %g1
    d478:	80 a0 60 00 	cmp  %g1, 0
    d47c:	92 10 20 00 	clr  %o1
    d480:	94 10 20 00 	clr  %o2
    d484:	96 10 20 00 	clr  %o3
    d488:	98 10 20 00 	clr  %o4
    d48c:	02 80 00 0c 	be  d4bc <searchaccess+0x124>
    d490:	83 38 60 18 	sra  %g1, 0x18, %g1
    d494:	84 00 7f d5 	add  %g1, -43, %g2
    d498:	80 a0 a0 4c 	cmp  %g2, 0x4c
    d49c:	18 80 00 5e 	bgu  d614 <searchaccess+0x27c>
    d4a0:	03 00 00 54 	sethi  %hi(0x15000), %g1
    d4a4:	82 10 60 70 	or  %g1, 0x70, %g1	! 15070 <__FRAME_END__+0x4048>
    d4a8:	86 25 c0 01 	sub  %l7, %g1, %g3
    d4ac:	85 28 a0 02 	sll  %g2, 2, %g2
    d4b0:	c2 00 c0 02 	ld  [ %g3 + %g2 ], %g1
    d4b4:	81 c0 40 03 	jmp  %g1 + %g3
    d4b8:	01 00 00 00 	nop 
    d4bc:	10 80 01 49 	b  d9e0 <searchaccess+0x648>
    d4c0:	9c 10 00 12 	mov  %l2, %sp
    d4c4:	02 80 01 37 	be  d9a0 <searchaccess+0x608>
    d4c8:	80 a0 60 72 	cmp  %g1, 0x72
    d4cc:	12 80 00 52 	bne  d614 <searchaccess+0x27c>
    d4d0:	80 a3 20 00 	cmp  %o4, 0
    d4d4:	02 80 00 04 	be  d4e4 <searchaccess+0x14c>
    d4d8:	80 a2 e0 00 	cmp  %o3, 0
    d4dc:	03 00 40 00 	sethi  %hi(0x1000000), %g1
    d4e0:	b0 16 00 01 	or  %i0, %g1, %i0
    d4e4:	02 80 00 04 	be  d4f4 <searchaccess+0x15c>
    d4e8:	80 a2 a0 00 	cmp  %o2, 0
    d4ec:	03 00 00 40 	sethi  %hi(0x10000), %g1
    d4f0:	b0 16 00 01 	or  %i0, %g1, %i0
    d4f4:	32 80 00 02 	bne,a   d4fc <searchaccess+0x164>
    d4f8:	b0 16 21 00 	or  %i0, 0x100, %i0
    d4fc:	80 a2 60 00 	cmp  %o1, 0
    d500:	32 80 00 02 	bne,a   d508 <searchaccess+0x170>
    d504:	b0 16 20 01 	or  %i0, 1, %i0
    d508:	90 02 20 01 	inc  %o0
    d50c:	da 0a 00 00 	ldub  [ %o0 ], %o5
    d510:	89 2b 60 18 	sll  %o5, 0x18, %g4
    d514:	83 39 20 18 	sra  %g4, 0x18, %g1
    d518:	80 a0 00 01 	cmp  %g0, %g1
    d51c:	86 40 20 00 	addx  %g0, 0, %g3
    d520:	82 18 60 2c 	xor  %g1, 0x2c, %g1
    d524:	80 a0 00 01 	cmp  %g0, %g1
    d528:	84 40 20 00 	addx  %g0, 0, %g2
    d52c:	80 88 c0 02 	btst  %g3, %g2
    d530:	02 80 00 24 	be  d5c0 <searchaccess+0x228>
    d534:	83 2b 60 18 	sll  %o5, 0x18, %g1
    d538:	83 39 20 18 	sra  %g4, 0x18, %g1
    d53c:	80 a0 60 64 	cmp  %g1, 0x64
    d540:	22 80 00 de 	be,a   d8b8 <searchaccess+0x520>
    d544:	80 a3 20 00 	cmp  %o4, 0
    d548:	14 bf ff df 	bg  d4c4 <searchaccess+0x12c>
    d54c:	80 a0 60 6d 	cmp  %g1, 0x6d
    d550:	80 a0 60 63 	cmp  %g1, 0x63
    d554:	12 80 00 30 	bne  d614 <searchaccess+0x27c>
    d558:	80 a3 20 00 	cmp  %o4, 0
    d55c:	02 80 00 04 	be  d56c <searchaccess+0x1d4>
    d560:	80 a2 e0 00 	cmp  %o3, 0
    d564:	03 01 00 00 	sethi  %hi(0x4000000), %g1
    d568:	b0 16 00 01 	or  %i0, %g1, %i0
    d56c:	02 80 00 04 	be  d57c <searchaccess+0x1e4>
    d570:	80 a2 a0 00 	cmp  %o2, 0
    d574:	03 00 01 00 	sethi  %hi(0x40000), %g1
    d578:	b0 16 00 01 	or  %i0, %g1, %i0
    d57c:	32 80 00 02 	bne,a   d584 <searchaccess+0x1ec>
    d580:	b0 16 24 00 	or  %i0, 0x400, %i0
    d584:	80 a2 60 00 	cmp  %o1, 0
    d588:	02 bf ff e1 	be  d50c <searchaccess+0x174>
    d58c:	90 02 20 01 	inc  %o0
    d590:	da 0a 00 00 	ldub  [ %o0 ], %o5
    d594:	89 2b 60 18 	sll  %o5, 0x18, %g4
    d598:	83 39 20 18 	sra  %g4, 0x18, %g1
    d59c:	80 a0 00 01 	cmp  %g0, %g1
    d5a0:	86 40 20 00 	addx  %g0, 0, %g3
    d5a4:	82 18 60 2c 	xor  %g1, 0x2c, %g1
    d5a8:	80 a0 00 01 	cmp  %g0, %g1
    d5ac:	84 40 20 00 	addx  %g0, 0, %g2
    d5b0:	80 88 c0 02 	btst  %g3, %g2
    d5b4:	12 bf ff e1 	bne  d538 <searchaccess+0x1a0>
    d5b8:	b0 16 20 04 	or  %i0, 4, %i0
    d5bc:	83 2b 60 18 	sll  %o5, 0x18, %g1
    d5c0:	92 10 20 00 	clr  %o1
    d5c4:	94 10 20 00 	clr  %o2
    d5c8:	96 10 20 00 	clr  %o3
    d5cc:	80 a0 60 00 	cmp  %g1, 0
    d5d0:	12 80 00 0c 	bne  d600 <searchaccess+0x268>
    d5d4:	98 10 20 00 	clr  %o4
    d5d8:	83 2b 60 18 	sll  %o5, 0x18, %g1
    d5dc:	10 bf ff ac 	b  d48c <searchaccess+0xf4>
    d5e0:	80 a0 60 00 	cmp  %g1, 0
    d5e4:	92 10 20 01 	mov  1, %o1
    d5e8:	94 10 20 01 	mov  1, %o2
    d5ec:	96 10 20 01 	mov  1, %o3
    d5f0:	83 2b 60 18 	sll  %o5, 0x18, %g1
    d5f4:	80 a0 60 00 	cmp  %g1, 0
    d5f8:	22 bf ff b1 	be,a   d4bc <searchaccess+0x124>
    d5fc:	83 38 60 18 	sra  %g1, 0x18, %g1
    d600:	90 02 20 01 	inc  %o0
    d604:	da 0a 00 00 	ldub  [ %o0 ], %o5
    d608:	83 2b 60 18 	sll  %o5, 0x18, %g1
    d60c:	10 bf ff a0 	b  d48c <searchaccess+0xf4>
    d610:	80 a0 60 00 	cmp  %g1, 0
    d614:	b0 10 3f ff 	mov  -1, %i0
    d618:	10 80 00 f2 	b  d9e0 <searchaccess+0x648>
    d61c:	9c 10 00 12 	mov  %l2, %sp
    d620:	10 bf ff f4 	b  d5f0 <searchaccess+0x258>
    d624:	92 10 20 01 	mov  1, %o1
    d628:	10 bf ff f2 	b  d5f0 <searchaccess+0x258>
    d62c:	98 10 20 01 	mov  1, %o4
    d630:	10 bf ff f0 	b  d5f0 <searchaccess+0x258>
    d634:	94 10 20 01 	mov  1, %o2
    d638:	80 a3 20 00 	cmp  %o4, 0
    d63c:	02 80 00 04 	be  d64c <searchaccess+0x2b4>
    d640:	90 02 20 01 	inc  %o0
    d644:	03 03 c0 00 	sethi  %hi(0xf000000), %g1
    d648:	b0 2e 00 01 	andn  %i0, %g1, %i0
    d64c:	80 a2 e0 00 	cmp  %o3, 0
    d650:	02 80 00 04 	be  d660 <searchaccess+0x2c8>
    d654:	80 a2 a0 00 	cmp  %o2, 0
    d658:	03 00 03 c0 	sethi  %hi(0xf0000), %g1
    d65c:	b0 2e 00 01 	andn  %i0, %g1, %i0
    d660:	32 80 00 02 	bne,a   d668 <searchaccess+0x2d0>
    d664:	b0 0e 30 ff 	and  %i0, -3841, %i0
    d668:	80 a2 60 00 	cmp  %o1, 0
    d66c:	32 80 00 02 	bne,a   d674 <searchaccess+0x2dc>
    d670:	b0 0e 3f f0 	and  %i0, -16, %i0
    d674:	da 0a 00 00 	ldub  [ %o0 ], %o5
    d678:	89 2b 60 18 	sll  %o5, 0x18, %g4
    d67c:	83 39 20 18 	sra  %g4, 0x18, %g1
    d680:	80 a0 00 01 	cmp  %g0, %g1
    d684:	86 40 20 00 	addx  %g0, 0, %g3
    d688:	82 18 60 2c 	xor  %g1, 0x2c, %g1
    d68c:	80 a0 00 01 	cmp  %g0, %g1
    d690:	84 40 20 00 	addx  %g0, 0, %g2
    d694:	80 88 c0 02 	btst  %g3, %g2
    d698:	02 bf ff c9 	be  d5bc <searchaccess+0x224>
    d69c:	83 39 20 18 	sra  %g4, 0x18, %g1
    d6a0:	80 a0 60 64 	cmp  %g1, 0x64
    d6a4:	22 80 00 76 	be,a   d87c <searchaccess+0x4e4>
    d6a8:	80 a3 20 00 	cmp  %o4, 0
    d6ac:	14 80 00 61 	bg  d830 <searchaccess+0x498>
    d6b0:	80 a0 60 6d 	cmp  %g1, 0x6d
    d6b4:	80 a0 60 63 	cmp  %g1, 0x63
    d6b8:	12 bf ff d7 	bne  d614 <searchaccess+0x27c>
    d6bc:	80 a3 20 00 	cmp  %o4, 0
    d6c0:	02 80 00 04 	be  d6d0 <searchaccess+0x338>
    d6c4:	80 a2 e0 00 	cmp  %o3, 0
    d6c8:	03 01 00 00 	sethi  %hi(0x4000000), %g1
    d6cc:	b0 16 00 01 	or  %i0, %g1, %i0
    d6d0:	02 80 00 04 	be  d6e0 <searchaccess+0x348>
    d6d4:	80 a2 a0 00 	cmp  %o2, 0
    d6d8:	03 00 01 00 	sethi  %hi(0x40000), %g1
    d6dc:	b0 16 00 01 	or  %i0, %g1, %i0
    d6e0:	32 80 00 02 	bne,a   d6e8 <searchaccess+0x350>
    d6e4:	b0 16 24 00 	or  %i0, 0x400, %i0
    d6e8:	80 a2 60 00 	cmp  %o1, 0
    d6ec:	32 80 00 02 	bne,a   d6f4 <searchaccess+0x35c>
    d6f0:	b0 16 20 04 	or  %i0, 4, %i0
    d6f4:	10 bf ff e0 	b  d674 <searchaccess+0x2dc>
    d6f8:	90 02 20 01 	inc  %o0
    d6fc:	90 02 20 01 	inc  %o0
    d700:	da 0a 00 00 	ldub  [ %o0 ], %o5
    d704:	89 2b 60 18 	sll  %o5, 0x18, %g4
    d708:	83 39 20 18 	sra  %g4, 0x18, %g1
    d70c:	80 a0 00 01 	cmp  %g0, %g1
    d710:	86 40 20 00 	addx  %g0, 0, %g3
    d714:	82 18 60 2c 	xor  %g1, 0x2c, %g1
    d718:	80 a0 00 01 	cmp  %g0, %g1
    d71c:	84 40 20 00 	addx  %g0, 0, %g2
    d720:	80 88 c0 02 	btst  %g3, %g2
    d724:	02 bf ff a6 	be  d5bc <searchaccess+0x224>
    d728:	03 3f bf ff 	sethi  %hi(0xfefffc00), %g1
    d72c:	05 3f ff bf 	sethi  %hi(0xfffefc00), %g2
    d730:	9e 10 63 ff 	or  %g1, 0x3ff, %o7
    d734:	a0 10 a3 ff 	or  %g2, 0x3ff, %l0
    d738:	03 3f 7f ff 	sethi  %hi(0xfdfffc00), %g1
    d73c:	05 3f ff 7f 	sethi  %hi(0xfffdfc00), %g2
    d740:	a2 10 63 ff 	or  %g1, 0x3ff, %l1
    d744:	b2 10 a3 ff 	or  %g2, 0x3ff, %i1
    d748:	03 3e ff ff 	sethi  %hi(0xfbfffc00), %g1
    d74c:	05 3f fe ff 	sethi  %hi(0xfffbfc00), %g2
    d750:	a6 10 63 ff 	or  %g1, 0x3ff, %l3
    d754:	a8 10 a3 ff 	or  %g2, 0x3ff, %l4
    d758:	03 3d ff ff 	sethi  %hi(0xf7fffc00), %g1
    d75c:	05 3f fd ff 	sethi  %hi(0xfff7fc00), %g2
    d760:	aa 10 63 ff 	or  %g1, 0x3ff, %l5
    d764:	10 80 00 1b 	b  d7d0 <searchaccess+0x438>
    d768:	ac 10 a3 ff 	or  %g2, 0x3ff, %l6
    d76c:	12 bf ff aa 	bne  d614 <searchaccess+0x27c>
    d770:	80 a3 20 00 	cmp  %o4, 0
    d774:	32 80 00 02 	bne,a   d77c <searchaccess+0x3e4>
    d778:	b0 0e 00 13 	and  %i0, %l3, %i0
    d77c:	80 a2 e0 00 	cmp  %o3, 0
    d780:	32 80 00 02 	bne,a   d788 <searchaccess+0x3f0>
    d784:	b0 0e 00 14 	and  %i0, %l4, %i0
    d788:	80 a2 a0 00 	cmp  %o2, 0
    d78c:	32 80 00 02 	bne,a   d794 <searchaccess+0x3fc>
    d790:	b0 0e 3b ff 	and  %i0, -1025, %i0
    d794:	80 a2 60 00 	cmp  %o1, 0
    d798:	32 80 00 02 	bne,a   d7a0 <searchaccess+0x408>
    d79c:	b0 0e 3f fb 	and  %i0, -5, %i0
    d7a0:	90 02 20 01 	inc  %o0
    d7a4:	da 0a 00 00 	ldub  [ %o0 ], %o5
    d7a8:	89 2b 60 18 	sll  %o5, 0x18, %g4
    d7ac:	83 39 20 18 	sra  %g4, 0x18, %g1
    d7b0:	80 a0 00 01 	cmp  %g0, %g1
    d7b4:	86 40 20 00 	addx  %g0, 0, %g3
    d7b8:	82 18 60 2c 	xor  %g1, 0x2c, %g1
    d7bc:	80 a0 00 01 	cmp  %g0, %g1
    d7c0:	84 40 20 00 	addx  %g0, 0, %g2
    d7c4:	80 88 c0 02 	btst  %g3, %g2
    d7c8:	02 bf ff 7e 	be  d5c0 <searchaccess+0x228>
    d7cc:	83 2b 60 18 	sll  %o5, 0x18, %g1
    d7d0:	83 39 20 18 	sra  %g4, 0x18, %g1
    d7d4:	80 a0 60 64 	cmp  %g1, 0x64
    d7d8:	22 80 00 47 	be,a   d8f4 <searchaccess+0x55c>
    d7dc:	80 a3 20 00 	cmp  %o4, 0
    d7e0:	04 bf ff e3 	ble  d76c <searchaccess+0x3d4>
    d7e4:	80 a0 60 63 	cmp  %g1, 0x63
    d7e8:	80 a0 60 6d 	cmp  %g1, 0x6d
    d7ec:	02 80 00 4f 	be  d928 <searchaccess+0x590>
    d7f0:	80 a0 60 72 	cmp  %g1, 0x72
    d7f4:	12 bf ff 88 	bne  d614 <searchaccess+0x27c>
    d7f8:	80 a3 20 00 	cmp  %o4, 0
    d7fc:	32 80 00 02 	bne,a   d804 <searchaccess+0x46c>
    d800:	b0 0e 00 0f 	and  %i0, %o7, %i0
    d804:	80 a2 e0 00 	cmp  %o3, 0
    d808:	32 80 00 02 	bne,a   d810 <searchaccess+0x478>
    d80c:	b0 0e 00 10 	and  %i0, %l0, %i0
    d810:	80 a2 a0 00 	cmp  %o2, 0
    d814:	32 80 00 02 	bne,a   d81c <searchaccess+0x484>
    d818:	b0 0e 3e ff 	and  %i0, -257, %i0
    d81c:	80 a2 60 00 	cmp  %o1, 0
    d820:	32 bf ff e0 	bne,a   d7a0 <searchaccess+0x408>
    d824:	b0 0e 3f fe 	and  %i0, -2, %i0
    d828:	10 bf ff df 	b  d7a4 <searchaccess+0x40c>
    d82c:	90 02 20 01 	inc  %o0
    d830:	02 80 00 4c 	be  d960 <searchaccess+0x5c8>
    d834:	80 a0 60 72 	cmp  %g1, 0x72
    d838:	12 bf ff 77 	bne  d614 <searchaccess+0x27c>
    d83c:	80 a3 20 00 	cmp  %o4, 0
    d840:	02 80 00 04 	be  d850 <searchaccess+0x4b8>
    d844:	80 a2 e0 00 	cmp  %o3, 0
    d848:	03 00 40 00 	sethi  %hi(0x1000000), %g1
    d84c:	b0 16 00 01 	or  %i0, %g1, %i0
    d850:	02 80 00 04 	be  d860 <searchaccess+0x4c8>
    d854:	80 a2 a0 00 	cmp  %o2, 0
    d858:	03 00 00 40 	sethi  %hi(0x10000), %g1
    d85c:	b0 16 00 01 	or  %i0, %g1, %i0
    d860:	32 80 00 02 	bne,a   d868 <searchaccess+0x4d0>
    d864:	b0 16 21 00 	or  %i0, 0x100, %i0
    d868:	80 a2 60 00 	cmp  %o1, 0
    d86c:	02 bf ff 82 	be  d674 <searchaccess+0x2dc>
    d870:	90 02 20 01 	inc  %o0
    d874:	10 bf ff 80 	b  d674 <searchaccess+0x2dc>
    d878:	b0 16 20 01 	or  %i0, 1, %i0
    d87c:	02 80 00 04 	be  d88c <searchaccess+0x4f4>
    d880:	80 a2 e0 00 	cmp  %o3, 0
    d884:	03 02 00 00 	sethi  %hi(0x8000000), %g1
    d888:	b0 16 00 01 	or  %i0, %g1, %i0
    d88c:	02 80 00 04 	be  d89c <searchaccess+0x504>
    d890:	80 a2 a0 00 	cmp  %o2, 0
    d894:	03 00 02 00 	sethi  %hi(0x80000), %g1
    d898:	b0 16 00 01 	or  %i0, %g1, %i0
    d89c:	32 80 00 02 	bne,a   d8a4 <searchaccess+0x50c>
    d8a0:	b0 16 28 00 	or  %i0, 0x800, %i0
    d8a4:	80 a2 60 00 	cmp  %o1, 0
    d8a8:	02 bf ff 73 	be  d674 <searchaccess+0x2dc>
    d8ac:	90 02 20 01 	inc  %o0
    d8b0:	10 bf ff 71 	b  d674 <searchaccess+0x2dc>
    d8b4:	b0 16 20 08 	or  %i0, 8, %i0
    d8b8:	02 80 00 04 	be  d8c8 <searchaccess+0x530>
    d8bc:	80 a2 e0 00 	cmp  %o3, 0
    d8c0:	03 02 00 00 	sethi  %hi(0x8000000), %g1
    d8c4:	b0 16 00 01 	or  %i0, %g1, %i0
    d8c8:	02 80 00 04 	be  d8d8 <searchaccess+0x540>
    d8cc:	80 a2 a0 00 	cmp  %o2, 0
    d8d0:	03 00 02 00 	sethi  %hi(0x80000), %g1
    d8d4:	b0 16 00 01 	or  %i0, %g1, %i0
    d8d8:	32 80 00 02 	bne,a   d8e0 <searchaccess+0x548>
    d8dc:	b0 16 28 00 	or  %i0, 0x800, %i0
    d8e0:	80 a2 60 00 	cmp  %o1, 0
    d8e4:	32 bf ff 09 	bne,a   d508 <searchaccess+0x170>
    d8e8:	b0 16 20 08 	or  %i0, 8, %i0
    d8ec:	10 bf ff 08 	b  d50c <searchaccess+0x174>
    d8f0:	90 02 20 01 	inc  %o0
    d8f4:	32 80 00 02 	bne,a   d8fc <searchaccess+0x564>
    d8f8:	b0 0e 00 15 	and  %i0, %l5, %i0
    d8fc:	80 a2 e0 00 	cmp  %o3, 0
    d900:	32 80 00 02 	bne,a   d908 <searchaccess+0x570>
    d904:	b0 0e 00 16 	and  %i0, %l6, %i0
    d908:	80 a2 a0 00 	cmp  %o2, 0
    d90c:	32 80 00 02 	bne,a   d914 <searchaccess+0x57c>
    d910:	b0 0e 37 ff 	and  %i0, -2049, %i0
    d914:	80 a2 60 00 	cmp  %o1, 0
    d918:	32 bf ff a2 	bne,a   d7a0 <searchaccess+0x408>
    d91c:	b0 0e 3f f7 	and  %i0, -9, %i0
    d920:	10 bf ff a1 	b  d7a4 <searchaccess+0x40c>
    d924:	90 02 20 01 	inc  %o0
    d928:	80 a3 20 00 	cmp  %o4, 0
    d92c:	32 80 00 02 	bne,a   d934 <searchaccess+0x59c>
    d930:	b0 0e 00 11 	and  %i0, %l1, %i0
    d934:	80 a2 e0 00 	cmp  %o3, 0
    d938:	32 80 00 02 	bne,a   d940 <searchaccess+0x5a8>
    d93c:	b0 0e 00 19 	and  %i0, %i1, %i0
    d940:	80 a2 a0 00 	cmp  %o2, 0
    d944:	32 80 00 02 	bne,a   d94c <searchaccess+0x5b4>
    d948:	b0 0e 3d ff 	and  %i0, -513, %i0
    d94c:	80 a2 60 00 	cmp  %o1, 0
    d950:	32 bf ff 94 	bne,a   d7a0 <searchaccess+0x408>
    d954:	b0 0e 3f fd 	and  %i0, -3, %i0
    d958:	10 bf ff 93 	b  d7a4 <searchaccess+0x40c>
    d95c:	90 02 20 01 	inc  %o0
    d960:	80 a3 20 00 	cmp  %o4, 0
    d964:	02 80 00 04 	be  d974 <searchaccess+0x5dc>
    d968:	80 a2 e0 00 	cmp  %o3, 0
    d96c:	03 00 80 00 	sethi  %hi(0x2000000), %g1
    d970:	b0 16 00 01 	or  %i0, %g1, %i0
    d974:	02 80 00 04 	be  d984 <searchaccess+0x5ec>
    d978:	80 a2 a0 00 	cmp  %o2, 0
    d97c:	03 00 00 80 	sethi  %hi(0x20000), %g1
    d980:	b0 16 00 01 	or  %i0, %g1, %i0
    d984:	32 80 00 02 	bne,a   d98c <searchaccess+0x5f4>
    d988:	b0 16 22 00 	or  %i0, 0x200, %i0
    d98c:	80 a2 60 00 	cmp  %o1, 0
    d990:	02 bf ff 39 	be  d674 <searchaccess+0x2dc>
    d994:	90 02 20 01 	inc  %o0
    d998:	10 bf ff 37 	b  d674 <searchaccess+0x2dc>
    d99c:	b0 16 20 02 	or  %i0, 2, %i0
    d9a0:	80 a3 20 00 	cmp  %o4, 0
    d9a4:	02 80 00 04 	be  d9b4 <searchaccess+0x61c>
    d9a8:	80 a2 e0 00 	cmp  %o3, 0
    d9ac:	03 00 80 00 	sethi  %hi(0x2000000), %g1
    d9b0:	b0 16 00 01 	or  %i0, %g1, %i0
    d9b4:	02 80 00 04 	be  d9c4 <searchaccess+0x62c>
    d9b8:	80 a2 a0 00 	cmp  %o2, 0
    d9bc:	03 00 00 80 	sethi  %hi(0x20000), %g1
    d9c0:	b0 16 00 01 	or  %i0, %g1, %i0
    d9c4:	32 80 00 02 	bne,a   d9cc <searchaccess+0x634>
    d9c8:	b0 16 22 00 	or  %i0, 0x200, %i0
    d9cc:	80 a2 60 00 	cmp  %o1, 0
    d9d0:	32 bf fe ce 	bne,a   d508 <searchaccess+0x170>
    d9d4:	b0 16 20 02 	or  %i0, 2, %i0
    d9d8:	10 bf fe cd 	b  d50c <searchaccess+0x174>
    d9dc:	90 02 20 01 	inc  %o0
    d9e0:	81 c7 e0 08 	ret 
    d9e4:	81 e8 00 00 	restore 

0000d9e8 <__nis_default_owner>:
__nis_default_owner():
    d9e8:	9d e3 bf 90 	save  %sp, -112, %sp
    d9ec:	03 00 00 00 	sethi  %hi(0), %g1
    d9f0:	2f 00 00 51 	sethi  %hi(0x14400), %l7
    d9f4:	7f ff fd b4 	call  d0c4 <nis_add+0x2dc>
    d9f8:	ae 05 e2 0c 	add  %l7, 0x20c, %l7	! 1460c <__FRAME_END__+0x35e4>
    d9fc:	90 96 20 00 	orcc  %i0, 0, %o0
    da00:	02 80 00 22 	be  da88 <__nis_default_owner+0xa0>
    da04:	82 10 62 e8 	or  %g1, 0x2e8, %g1
    da08:	03 00 00 00 	sethi  %hi(0), %g1
    da0c:	82 10 62 ec 	or  %g1, 0x2ec, %g1	! 2ec <GLIBC_2.0+0x2ec>
    da10:	e0 05 c0 01 	ld  [ %l7 + %g1 ], %l0
    da14:	40 00 53 13 	call  22660 <strstr@plt>
    da18:	92 10 00 10 	mov  %l0, %o1
    da1c:	90 92 20 00 	orcc  %o0, 0, %o0
    da20:	02 80 00 1f 	be  da9c <__nis_default_owner+0xb4>
    da24:	92 10 00 10 	mov  %l0, %o1
    da28:	7f ff fd a9 	call  d0cc <searchXYX>
    da2c:	b0 10 20 00 	clr  %i0
    da30:	a2 92 20 00 	orcc  %o0, 0, %l1
    da34:	02 80 00 1d 	be  daa8 <__nis_default_owner+0xc0>
    da38:	01 00 00 00 	nop 
    da3c:	40 00 53 0c 	call  2266c <strlen@plt>
    da40:	01 00 00 00 	nop 
    da44:	82 02 20 08 	add  %o0, 8, %g1
    da48:	82 08 7f f8 	and  %g1, -8, %g1
    da4c:	9c 23 80 01 	sub  %sp, %g1, %sp
    da50:	94 02 20 01 	add  %o0, 1, %o2
    da54:	92 10 00 11 	mov  %l1, %o1
    da58:	40 00 53 3e 	call  22750 <memcpy@plt>
    da5c:	90 03 a0 60 	add  %sp, 0x60, %o0
    da60:	a0 10 00 08 	mov  %o0, %l0
    da64:	40 00 53 5f 	call  227e0 <free@plt>
    da68:	90 10 00 11 	mov  %l1, %o0
    da6c:	90 94 20 00 	orcc  %l0, 0, %o0
    da70:	02 80 00 0b 	be  da9c <__nis_default_owner+0xb4>
    da74:	01 00 00 00 	nop 
    da78:	40 00 53 42 	call  22780 <__strdup@plt>
    da7c:	01 00 00 00 	nop 
    da80:	10 80 00 0a 	b  daa8 <__nis_default_owner+0xc0>
    da84:	b0 10 00 08 	mov  %o0, %i0
    da88:	40 00 52 9f 	call  22504 <getenv@plt>
    da8c:	d0 05 c0 01 	ld  [ %l7 + %g1 ], %o0
    da90:	80 a2 20 00 	cmp  %o0, 0
    da94:	12 bf ff de 	bne  da0c <__nis_default_owner+0x24>
    da98:	03 00 00 00 	sethi  %hi(0), %g1
    da9c:	7f ff e3 28 	call  673c <nis_local_principal>
    daa0:	01 00 00 00 	nop 
    daa4:	30 bf ff f5 	b,a   da78 <__nis_default_owner+0x90>
    daa8:	81 c7 e0 08 	ret 
    daac:	81 e8 00 00 	restore 

0000dab0 <__nis_default_group>:
__nis_default_group():
    dab0:	9d e3 bf 90 	save  %sp, -112, %sp
    dab4:	03 00 00 00 	sethi  %hi(0), %g1
    dab8:	2f 00 00 51 	sethi  %hi(0x14400), %l7
    dabc:	7f ff fd 82 	call  d0c4 <nis_add+0x2dc>
    dac0:	ae 05 e1 44 	add  %l7, 0x144, %l7	! 14544 <__FRAME_END__+0x351c>
    dac4:	90 96 20 00 	orcc  %i0, 0, %o0
    dac8:	02 80 00 22 	be  db50 <__nis_default_group+0xa0>
    dacc:	82 10 62 e8 	or  %g1, 0x2e8, %g1
    dad0:	03 00 00 00 	sethi  %hi(0), %g1
    dad4:	82 10 62 f0 	or  %g1, 0x2f0, %g1	! 2f0 <GLIBC_2.0+0x2f0>
    dad8:	e0 05 c0 01 	ld  [ %l7 + %g1 ], %l0
    dadc:	40 00 52 e1 	call  22660 <strstr@plt>
    dae0:	92 10 00 10 	mov  %l0, %o1
    dae4:	90 92 20 00 	orcc  %o0, 0, %o0
    dae8:	02 80 00 1f 	be  db64 <__nis_default_group+0xb4>
    daec:	92 10 00 10 	mov  %l0, %o1
    daf0:	7f ff fd 77 	call  d0cc <searchXYX>
    daf4:	b0 10 20 00 	clr  %i0
    daf8:	a2 92 20 00 	orcc  %o0, 0, %l1
    dafc:	02 80 00 1d 	be  db70 <__nis_default_group+0xc0>
    db00:	01 00 00 00 	nop 
    db04:	40 00 52 da 	call  2266c <strlen@plt>
    db08:	01 00 00 00 	nop 
    db0c:	82 02 20 08 	add  %o0, 8, %g1
    db10:	82 08 7f f8 	and  %g1, -8, %g1
    db14:	9c 23 80 01 	sub  %sp, %g1, %sp
    db18:	94 02 20 01 	add  %o0, 1, %o2
    db1c:	92 10 00 11 	mov  %l1, %o1
    db20:	40 00 53 0c 	call  22750 <memcpy@plt>
    db24:	90 03 a0 60 	add  %sp, 0x60, %o0
    db28:	a0 10 00 08 	mov  %o0, %l0
    db2c:	40 00 53 2d 	call  227e0 <free@plt>
    db30:	90 10 00 11 	mov  %l1, %o0
    db34:	90 94 20 00 	orcc  %l0, 0, %o0
    db38:	02 80 00 0b 	be  db64 <__nis_default_group+0xb4>
    db3c:	01 00 00 00 	nop 
    db40:	40 00 53 10 	call  22780 <__strdup@plt>
    db44:	01 00 00 00 	nop 
    db48:	10 80 00 0a 	b  db70 <__nis_default_group+0xc0>
    db4c:	b0 10 00 08 	mov  %o0, %i0
    db50:	40 00 52 6d 	call  22504 <getenv@plt>
    db54:	d0 05 c0 01 	ld  [ %l7 + %g1 ], %o0
    db58:	80 a2 20 00 	cmp  %o0, 0
    db5c:	12 bf ff de 	bne  dad4 <__nis_default_group+0x24>
    db60:	03 00 00 00 	sethi  %hi(0), %g1
    db64:	7f ff e2 8f 	call  65a0 <nis_local_group>
    db68:	01 00 00 00 	nop 
    db6c:	30 bf ff f5 	b,a   db40 <__nis_default_group+0x90>
    db70:	81 c7 e0 08 	ret 
    db74:	81 e8 00 00 	restore 

0000db78 <__nis_default_ttl>:
__nis_default_ttl():
    db78:	9d e3 bf 90 	save  %sp, -112, %sp
    db7c:	05 00 00 00 	sethi  %hi(0), %g2
    db80:	2f 00 00 51 	sethi  %hi(0x14400), %l7
    db84:	7f ff fd 50 	call  d0c4 <nis_add+0x2dc>
    db88:	ae 05 e0 7c 	add  %l7, 0x7c, %l7	! 1447c <__FRAME_END__+0x3454>
    db8c:	90 96 20 00 	orcc  %i0, 0, %o0
    db90:	02 80 00 09 	be  dbb4 <__nis_default_ttl+0x3c>
    db94:	84 10 a2 e0 	or  %g2, 0x2e0, %g2
    db98:	40 00 52 b2 	call  22660 <strstr@plt>
    db9c:	d2 05 c0 02 	ld  [ %l7 + %g2 ], %o1
    dba0:	80 a2 20 00 	cmp  %o0, 0
    dba4:	22 80 00 05 	be,a   dbb8 <__nis_default_ttl+0x40>
    dba8:	03 00 00 00 	sethi  %hi(0), %g1
    dbac:	10 bf fd 89 	b  d1d0 <searchttl>
    dbb0:	81 e8 00 00 	restore 
    dbb4:	03 00 00 00 	sethi  %hi(0), %g1
    dbb8:	82 10 62 e8 	or  %g1, 0x2e8, %g1	! 2e8 <GLIBC_2.0+0x2e8>
    dbbc:	40 00 52 52 	call  22504 <getenv@plt>
    dbc0:	d0 05 c0 01 	ld  [ %l7 + %g1 ], %o0
    dbc4:	05 00 00 00 	sethi  %hi(0), %g2
    dbc8:	03 00 00 2a 	sethi  %hi(0xa800), %g1
    dbcc:	b0 10 00 08 	mov  %o0, %i0
    dbd0:	84 10 a2 e0 	or  %g2, 0x2e0, %g2
    dbd4:	80 a2 20 00 	cmp  %o0, 0
    dbd8:	02 80 00 08 	be  dbf8 <__nis_default_ttl+0x80>
    dbdc:	82 10 60 c0 	or  %g1, 0xc0, %g1
    dbe0:	40 00 52 a0 	call  22660 <strstr@plt>
    dbe4:	d2 05 c0 02 	ld  [ %l7 + %g2 ], %o1
    dbe8:	03 00 00 2a 	sethi  %hi(0xa800), %g1
    dbec:	80 a2 20 00 	cmp  %o0, 0
    dbf0:	12 bf ff ef 	bne  dbac <__nis_default_ttl+0x34>
    dbf4:	82 10 60 c0 	or  %g1, 0xc0, %g1
    dbf8:	81 c7 e0 08 	ret 
    dbfc:	91 e8 00 01 	restore  %g0, %g1, %o0

0000dc00 <__nis_default_access>:
__nis_default_access():
    dc00:	9d e3 bf 90 	save  %sp, -112, %sp
    dc04:	05 00 00 00 	sethi  %hi(0), %g2
    dc08:	03 00 03 c0 	sethi  %hi(0xf0000), %g1
    dc0c:	2f 00 00 50 	sethi  %hi(0x14000), %l7
    dc10:	7f ff fd 2d 	call  d0c4 <nis_add+0x2dc>
    dc14:	ae 05 e3 f0 	add  %l7, 0x3f0, %l7	! 143f0 <__FRAME_END__+0x33c8>
    dc18:	84 10 a2 e4 	or  %g2, 0x2e4, %g2
    dc1c:	a0 10 61 01 	or  %g1, 0x101, %l0
    dc20:	80 a6 60 00 	cmp  %i1, 0
    dc24:	02 80 00 03 	be  dc30 <__nis_default_access+0x30>
    dc28:	90 10 00 18 	mov  %i0, %o0
    dc2c:	a0 10 00 19 	mov  %i1, %l0
    dc30:	80 a6 20 00 	cmp  %i0, 0
    dc34:	02 80 00 0d 	be  dc68 <__nis_default_access+0x68>
    dc38:	03 00 00 00 	sethi  %hi(0), %g1
    dc3c:	40 00 52 89 	call  22660 <strstr@plt>
    dc40:	d2 05 c0 02 	ld  [ %l7 + %g2 ], %o1
    dc44:	80 a2 20 00 	cmp  %o0, 0
    dc48:	92 10 00 10 	mov  %l0, %o1
    dc4c:	02 80 00 06 	be  dc64 <__nis_default_access+0x64>
    dc50:	90 10 00 18 	mov  %i0, %o0
    dc54:	7f ff fd d1 	call  d398 <searchaccess>
    dc58:	01 00 00 00 	nop 
    dc5c:	10 80 00 14 	b  dcac <__nis_default_access+0xac>
    dc60:	a0 10 00 08 	mov  %o0, %l0
    dc64:	03 00 00 00 	sethi  %hi(0), %g1
    dc68:	82 10 62 e8 	or  %g1, 0x2e8, %g1	! 2e8 <GLIBC_2.0+0x2e8>
    dc6c:	f2 05 c0 01 	ld  [ %l7 + %g1 ], %i1
    dc70:	40 00 52 25 	call  22504 <getenv@plt>
    dc74:	90 10 00 19 	mov  %i1, %o0
    dc78:	03 00 00 00 	sethi  %hi(0), %g1
    dc7c:	80 a2 20 00 	cmp  %o0, 0
    dc80:	02 80 00 0b 	be  dcac <__nis_default_access+0xac>
    dc84:	82 10 62 e4 	or  %g1, 0x2e4, %g1
    dc88:	40 00 52 76 	call  22660 <strstr@plt>
    dc8c:	d2 05 c0 01 	ld  [ %l7 + %g1 ], %o1
    dc90:	80 a2 20 00 	cmp  %o0, 0
    dc94:	02 80 00 06 	be  dcac <__nis_default_access+0xac>
    dc98:	90 10 00 19 	mov  %i1, %o0
    dc9c:	40 00 52 1a 	call  22504 <getenv@plt>
    dca0:	01 00 00 00 	nop 
    dca4:	10 bf ff ec 	b  dc54 <__nis_default_access+0x54>
    dca8:	92 10 00 10 	mov  %l0, %o1
    dcac:	81 c7 e0 08 	ret 
    dcb0:	91 e8 00 10 	restore  %g0, %l0, %o0
    dcb4:	81 c3 e0 08 	retl 
    dcb8:	ae 03 c0 17 	add  %o7, %l7, %l7

0000dcbc <__pmap_getnisport>:
__pmap_getnisport():
    dcbc:	9d e3 bf 50 	save  %sp, -176, %sp
    dcc0:	9a 10 20 01 	mov  1, %o5
    dcc4:	82 10 3f ff 	mov  -1, %g1
    dcc8:	da 27 bf e8 	st  %o5, [ %fp + -24 ]
    dccc:	c0 27 bf ec 	clr  [ %fp + -20 ]
    dcd0:	c2 27 bf bc 	st  %g1, [ %fp + -68 ]
    dcd4:	88 10 20 6f 	mov  0x6f, %g4
    dcd8:	c8 36 20 02 	sth  %g4, [ %i0 + 2 ]
    dcdc:	c4 1f bf e8 	ldd  [ %fp + -24 ], %g2
    dce0:	82 10 21 90 	mov  0x190, %g1
    dce4:	da 27 bf e0 	st  %o5, [ %fp + -32 ]
    dce8:	13 00 00 61 	sethi  %hi(0x18400), %o1
    dcec:	2f 00 00 50 	sethi  %hi(0x14000), %l7
    dcf0:	7f ff ff f1 	call  dcb4 <__nis_default_access+0xb4>
    dcf4:	ae 05 e3 10 	add  %l7, 0x310, %l7	! 14310 <__FRAME_END__+0x32e8>
    dcf8:	92 12 62 a0 	or  %o1, 0x2a0, %o1
    dcfc:	96 07 bf c8 	add  %fp, -56, %o3
    dd00:	98 07 bf bc 	add  %fp, -68, %o4
    dd04:	9a 10 21 90 	mov  0x190, %o5
    dd08:	c4 3f bf c8 	std  %g2, [ %fp + -56 ]
    dd0c:	c2 23 a0 5c 	st  %g1, [ %sp + 0x5c ]
    dd10:	c0 27 bf e4 	clr  [ %fp + -28 ]
    dd14:	c0 37 bf ba 	clrh  [ %fp + -70 ]
    dd18:	90 10 00 18 	mov  %i0, %o0
    dd1c:	40 00 52 30 	call  225dc <clntudp_bufcreate@plt>
    dd20:	94 10 20 02 	mov  2, %o2
    dd24:	19 00 00 00 	sethi  %hi(0), %o4
    dd28:	1f 00 00 00 	sethi  %hi(0), %o7
    dd2c:	a0 10 00 08 	mov  %o0, %l0
    dd30:	98 13 23 f4 	or  %o4, 0x3f4, %o4
    dd34:	9e 13 e3 6c 	or  %o7, 0x36c, %o7
    dd38:	96 07 bf d0 	add  %fp, -48, %o3
    dd3c:	9a 07 bf ba 	add  %fp, -70, %o5
    dd40:	80 a2 20 00 	cmp  %o0, 0
    dd44:	02 80 00 2b 	be  ddf0 <__pmap_getnisport+0x134>
    dd48:	92 10 20 03 	mov  3, %o1
    dd4c:	c8 02 20 04 	ld  [ %o0 + 4 ], %g4
    dd50:	82 07 bf c0 	add  %fp, -64, %g1
    dd54:	c2 23 a0 5c 	st  %g1, [ %sp + 0x5c ]
    dd58:	c4 1f bf e0 	ldd  [ %fp + -32 ], %g2
    dd5c:	d4 05 c0 0c 	ld  [ %l7 + %o4 ], %o2
    dd60:	c2 01 00 00 	ld  [ %g4 ], %g1
    dd64:	f2 27 bf d0 	st  %i1, [ %fp + -48 ]
    dd68:	f4 27 bf d4 	st  %i2, [ %fp + -44 ]
    dd6c:	f6 27 bf d8 	st  %i3, [ %fp + -40 ]
    dd70:	c4 3f bf c0 	std  %g2, [ %fp + -64 ]
    dd74:	d8 05 c0 0f 	ld  [ %l7 + %o7 ], %o4
    dd78:	9f c0 40 00 	call  %g1
    dd7c:	c0 27 bf dc 	clr  [ %fp + -36 ]
    dd80:	03 00 00 00 	sethi  %hi(0), %g1
    dd84:	80 a2 20 00 	cmp  %o0, 0
    dd88:	82 10 63 c4 	or  %g1, 0x3c4, %g1
    dd8c:	12 80 00 10 	bne  ddcc <__pmap_getnisport+0x110>
    dd90:	90 10 00 10 	mov  %l0, %o0
    dd94:	05 00 00 00 	sethi  %hi(0), %g2
    dd98:	c2 17 bf ba 	lduh  [ %fp + -70 ], %g1
    dd9c:	80 a0 60 00 	cmp  %g1, 0
    dda0:	12 80 00 05 	bne  ddb4 <__pmap_getnisport+0xf8>
    dda4:	84 10 a3 c4 	or  %g2, 0x3c4, %g2
    dda8:	c4 05 c0 02 	ld  [ %l7 + %g2 ], %g2
    ddac:	82 10 20 0f 	mov  0xf, %g1
    ddb0:	c2 20 80 00 	st  %g1, [ %g2 ]
    ddb4:	c2 04 20 04 	ld  [ %l0 + 4 ], %g1
    ddb8:	c4 00 60 10 	ld  [ %g1 + 0x10 ], %g2
    ddbc:	9f c0 80 00 	call  %g2
    ddc0:	90 10 00 10 	mov  %l0, %o0
    ddc4:	10 80 00 0c 	b  ddf4 <__pmap_getnisport+0x138>
    ddc8:	c0 36 20 02 	clrh  [ %i0 + 2 ]
    ddcc:	d2 05 c0 01 	ld  [ %l7 + %g1 ], %o1
    ddd0:	82 10 20 0e 	mov  0xe, %g1
    ddd4:	c6 04 20 04 	ld  [ %l0 + 4 ], %g3
    ddd8:	c2 22 40 00 	st  %g1, [ %o1 ]
    dddc:	c4 00 e0 08 	ld  [ %g3 + 8 ], %g2
    dde0:	9f c0 80 00 	call  %g2
    dde4:	92 02 60 04 	add  %o1, 4, %o1
    dde8:	10 bf ff f4 	b  ddb8 <__pmap_getnisport+0xfc>
    ddec:	c2 04 20 04 	ld  [ %l0 + 4 ], %g1
    ddf0:	c0 36 20 02 	clrh  [ %i0 + 2 ]
    ddf4:	f0 17 bf ba 	lduh  [ %fp + -70 ], %i0
    ddf8:	81 c7 e0 08 	ret 
    ddfc:	81 e8 00 00 	restore 

0000de00 <__nis_findfastest>:
__nis_findfastest():
    de00:	9d e3 bf 28 	save  %sp, -216, %sp
    de04:	84 10 20 03 	mov  3, %g2
    de08:	c4 27 bf e8 	st  %g2, [ %fp + -24 ]
    de0c:	82 10 20 02 	mov  2, %g1
    de10:	84 07 bf e8 	add  %fp, -24, %g2
    de14:	c0 27 bf ec 	clr  [ %fp + -20 ]
    de18:	c2 27 bf ac 	st  %g1, [ %fp + -84 ]
    de1c:	c4 27 bf 98 	st  %g2, [ %fp + -104 ]
    de20:	2f 00 00 50 	sethi  %hi(0x14000), %l7
    de24:	7f ff ff a4 	call  dcb4 <__nis_default_access+0xb4>
    de28:	ae 05 e1 dc 	add  %l7, 0x1dc, %l7	! 141dc <__FRAME_END__+0x31b4>
    de2c:	c4 06 20 08 	ld  [ %i0 + 8 ], %g2
    de30:	83 28 a0 04 	sll  %g2, 4, %g1
    de34:	84 00 80 02 	add  %g2, %g2, %g2
    de38:	82 20 40 02 	sub  %g1, %g2, %g1
    de3c:	c4 27 bf 9c 	st  %g2, [ %fp + -100 ]
    de40:	84 10 20 01 	mov  1, %g2
    de44:	a3 28 60 02 	sll  %g1, 2, %l1
    de48:	c4 27 bf b0 	st  %g2, [ %fp + -80 ]
    de4c:	40 00 51 e1 	call  225d0 <malloc@plt>
    de50:	90 10 00 11 	mov  %l1, %o0
    de54:	b2 10 00 08 	mov  %o0, %i1
    de58:	40 00 51 f9 	call  2263c <time@plt>
    de5c:	90 10 20 00 	clr  %o0
    de60:	40 00 51 8e 	call  22498 <getpid@plt>
    de64:	a0 10 00 08 	mov  %o0, %l0
    de68:	a0 1c 00 08 	xor  %l0, %o0, %l0
    de6c:	86 10 3f ff 	mov  -1, %g3
    de70:	e0 27 bf a4 	st  %l0, [ %fp + -92 ]
    de74:	80 a6 60 00 	cmp  %i1, 0
    de78:	c6 27 bf a8 	st  %g3, [ %fp + -88 ]
    de7c:	c0 27 bf a0 	clr  [ %fp + -96 ]
    de80:	02 80 00 c3 	be  e18c <__nis_findfastest+0x38c>
    de84:	84 10 3f ff 	mov  -1, %g2
    de88:	84 10 20 00 	clr  %g2
    de8c:	86 10 20 00 	clr  %g3
    de90:	c4 3f bf d8 	std  %g2, [ %fp + -40 ]
    de94:	c8 06 20 08 	ld  [ %i0 + 8 ], %g4
    de98:	82 10 20 02 	mov  2, %g1
    de9c:	c4 3f bf e0 	std  %g2, [ %fp + -32 ]
    dea0:	c2 37 bf d8 	sth  %g1, [ %fp + -40 ]
    dea4:	80 a1 20 00 	cmp  %g4, 0
    dea8:	08 80 00 ed 	bleu  e25c <__nis_findfastest+0x45c>
    deac:	b8 10 20 00 	clr  %i4
    deb0:	e2 27 bf 90 	st  %l1, [ %fp + -112 ]
    deb4:	e2 06 20 04 	ld  [ %i0 + 4 ], %l1
    deb8:	aa 10 20 00 	clr  %l5
    debc:	ba 10 20 00 	clr  %i5
    dec0:	c0 27 bf 94 	clr  [ %fp + -108 ]
    dec4:	82 04 40 15 	add  %l1, %l5, %g1
    dec8:	c4 00 60 04 	ld  [ %g1 + 4 ], %g2
    decc:	80 a0 a0 00 	cmp  %g2, 0
    ded0:	08 80 00 2b 	bleu  df7c <__nis_findfastest+0x17c>
    ded4:	a6 10 20 00 	clr  %l3
    ded8:	2d 00 00 00 	sethi  %hi(0), %l6
    dedc:	ac 15 a2 f8 	or  %l6, 0x2f8, %l6	! 2f8 <GLIBC_2.0+0x2f8>
    dee0:	a8 10 20 00 	clr  %l4
    dee4:	a4 10 20 00 	clr  %l2
    dee8:	f6 07 bf 94 	ld  [ %fp + -108 ], %i3
    deec:	f4 07 bf 90 	ld  [ %fp + -112 ], %i2
    def0:	82 04 40 15 	add  %l1, %l5, %g1
    def4:	c4 00 60 08 	ld  [ %g1 + 8 ], %g2
    def8:	a0 00 80 12 	add  %g2, %l2, %l0
    defc:	d0 04 20 04 	ld  [ %l0 + 4 ], %o0
    df00:	40 00 51 75 	call  224d4 <strcmp@plt>
    df04:	d2 05 c0 16 	ld  [ %l7 + %l6 ], %o1
    df08:	80 a2 20 00 	cmp  %o0, 0
    df0c:	12 80 00 15 	bne  df60 <__nis_findfastest+0x160>
    df10:	84 04 40 1d 	add  %l1, %i5, %g2
    df14:	c4 04 20 08 	ld  [ %l0 + 8 ], %g2
    df18:	80 a0 a0 00 	cmp  %g2, 0
    df1c:	02 80 00 09 	be  df40 <__nis_findfastest+0x140>
    df20:	82 04 40 15 	add  %l1, %l5, %g1
    df24:	c4 48 80 00 	ldsb  [ %g2 ], %g2
    df28:	80 a0 a0 2d 	cmp  %g2, 0x2d
    df2c:	02 80 00 05 	be  df40 <__nis_findfastest+0x140>
    df30:	80 a0 a0 00 	cmp  %g2, 0
    df34:	12 80 00 0b 	bne  df60 <__nis_findfastest+0x160>
    df38:	84 04 40 1d 	add  %l1, %i5, %g2
    df3c:	82 04 40 15 	add  %l1, %l5, %g1
    df40:	c4 00 60 08 	ld  [ %g1 + 8 ], %g2
    df44:	7f ff e7 ca 	call  7e6c <inetstr2int>
    df48:	d0 00 80 14 	ld  [ %g2 + %l4 ], %o0
    df4c:	80 a2 20 00 	cmp  %o0, 0
    df50:	12 80 00 98 	bne  e1b0 <__nis_findfastest+0x3b0>
    df54:	d0 27 bf dc 	st  %o0, [ %fp + -36 ]
    df58:	e2 06 20 04 	ld  [ %i0 + 4 ], %l1
    df5c:	84 04 40 1d 	add  %l1, %i5, %g2
    df60:	a6 04 e0 01 	inc  %l3
    df64:	c2 00 a0 04 	ld  [ %g2 + 4 ], %g1
    df68:	80 a0 40 13 	cmp  %g1, %l3
    df6c:	a4 04 a0 0c 	add  %l2, 0xc, %l2
    df70:	18 bf ff e0 	bgu  def0 <__nis_findfastest+0xf0>
    df74:	a8 05 20 0c 	add  %l4, 0xc, %l4
    df78:	c8 06 20 08 	ld  [ %i0 + 8 ], %g4
    df7c:	b8 07 20 01 	inc  %i4
    df80:	ba 07 60 18 	add  %i5, 0x18, %i5
    df84:	80 a1 00 1c 	cmp  %g4, %i4
    df88:	18 bf ff cf 	bgu  dec4 <__nis_findfastest+0xc4>
    df8c:	aa 05 60 18 	add  %l5, 0x18, %l5
    df90:	c2 07 bf a0 	ld  [ %fp + -96 ], %g1
    df94:	80 a0 60 00 	cmp  %g1, 0
    df98:	02 80 00 b1 	be  e25c <__nis_findfastest+0x45c>
    df9c:	92 10 20 02 	mov  2, %o1
    dfa0:	94 10 20 11 	mov  0x11, %o2
    dfa4:	40 00 52 30 	call  22864 <socket@plt>
    dfa8:	90 10 20 02 	mov  2, %o0
    dfac:	c4 07 bf 98 	ld  [ %fp + -104 ], %g2
    dfb0:	c2 00 80 00 	ld  [ %g2 ], %g1
    dfb4:	c4 00 a0 04 	ld  [ %g2 + 4 ], %g2
    dfb8:	d0 27 bf b4 	st  %o0, [ %fp + -76 ]
    dfbc:	13 00 00 61 	sethi  %hi(0x18400), %o1
    dfc0:	c2 27 bf c0 	st  %g1, [ %fp + -64 ]
    dfc4:	c4 27 bf c4 	st  %g2, [ %fp + -60 ]
    dfc8:	92 12 63 cc 	or  %o1, 0x3cc, %o1
    dfcc:	90 07 bf c8 	add  %fp, -56, %o0
    dfd0:	94 10 20 03 	mov  3, %o2
    dfd4:	96 07 bf c0 	add  %fp, -64, %o3
    dfd8:	40 00 51 b7 	call  226b4 <clntudp_create@plt>
    dfdc:	98 07 bf b4 	add  %fp, -76, %o4
    dfe0:	a4 92 20 00 	orcc  %o0, 0, %l2
    dfe4:	02 80 00 9c 	be  e254 <__nis_findfastest+0x454>
    dfe8:	01 00 00 00 	nop 
    dfec:	d0 04 80 00 	ld  [ %l2 ], %o0
    dff0:	c4 02 20 20 	ld  [ %o0 + 0x20 ], %g2
    dff4:	c2 00 a0 10 	ld  [ %g2 + 0x10 ], %g1
    dff8:	9f c0 40 00 	call  %g1
    dffc:	01 00 00 00 	nop 
    e000:	40 00 51 bf 	call  226fc <authunix_create_default@plt>
    e004:	01 00 00 00 	nop 
    e008:	d0 24 80 00 	st  %o0, [ %l2 ]
    e00c:	13 20 01 19 	sethi  %hi(0x80046400), %o1
    e010:	92 12 62 7e 	or  %o1, 0x27e, %o1	! 8004667e <_end+0x800218a6>
    e014:	e2 04 a0 08 	ld  [ %l2 + 8 ], %l1
    e018:	d0 07 bf b4 	ld  [ %fp + -76 ], %o0
    e01c:	40 00 51 f4 	call  227ec <ioctl@plt>
    e020:	94 07 bf b0 	add  %fp, -80, %o2
    e024:	c6 07 bf a0 	ld  [ %fp + -96 ], %g3
    e028:	80 a0 e0 00 	cmp  %g3, 0
    e02c:	02 80 00 28 	be  e0cc <__nis_findfastest+0x2cc>
    e030:	aa 07 bf b8 	add  %fp, -72, %l5
    e034:	21 00 00 00 	sethi  %hi(0), %l0
    e038:	a0 14 22 f4 	or  %l0, 0x2f4, %l0	! 2f4 <GLIBC_2.0+0x2f4>
    e03c:	29 00 00 00 	sethi  %hi(0), %l4
    e040:	e0 05 c0 10 	ld  [ %l7 + %l0 ], %l0
    e044:	a8 15 23 8c 	or  %l4, 0x38c, %l4
    e048:	ec 04 20 04 	ld  [ %l0 + 4 ], %l6
    e04c:	e8 05 c0 14 	ld  [ %l7 + %l4 ], %l4
    e050:	a6 10 20 00 	clr  %l3
    e054:	b8 10 00 03 	mov  %g3, %i4
    e058:	88 06 40 13 	add  %i1, %l3, %g4
    e05c:	c2 01 20 10 	ld  [ %g4 + 0x10 ], %g1
    e060:	c4 04 60 58 	ld  [ %l1 + 0x58 ], %g2
    e064:	82 00 7f ff 	add  %g1, -1, %g1
    e068:	c2 20 80 00 	st  %g1, [ %g2 ]
    e06c:	c6 04 c0 19 	ld  [ %l3 + %i1 ], %g3
    e070:	c6 24 60 08 	st  %g3, [ %l1 + 8 ]
    e074:	c2 01 20 04 	ld  [ %g4 + 4 ], %g1
    e078:	c2 24 60 0c 	st  %g1, [ %l1 + 0xc ]
    e07c:	c4 01 20 08 	ld  [ %g4 + 8 ], %g2
    e080:	c4 24 60 10 	st  %g2, [ %l1 + 0x10 ]
    e084:	c2 01 20 0c 	ld  [ %g4 + 0xc ], %g1
    e088:	c2 24 60 14 	st  %g1, [ %l1 + 0x14 ]
    e08c:	c4 04 a0 04 	ld  [ %l2 + 4 ], %g2
    e090:	c2 04 00 00 	ld  [ %l0 ], %g1
    e094:	ea 23 a0 5c 	st  %l5, [ %sp + 0x5c ]
    e098:	c2 27 bf b8 	st  %g1, [ %fp + -72 ]
    e09c:	ec 27 bf bc 	st  %l6, [ %fp + -68 ]
    e0a0:	c2 00 80 00 	ld  [ %g2 ], %g1
    e0a4:	90 10 00 12 	mov  %l2, %o0
    e0a8:	92 10 20 00 	clr  %o1
    e0ac:	94 10 00 14 	mov  %l4, %o2
    e0b0:	96 10 20 00 	clr  %o3
    e0b4:	98 10 00 14 	mov  %l4, %o4
    e0b8:	9f c0 40 00 	call  %g1
    e0bc:	9a 10 20 00 	clr  %o5
    e0c0:	b8 87 3f ff 	addcc  %i4, -1, %i4
    e0c4:	12 bf ff e5 	bne  e058 <__nis_findfastest+0x258>
    e0c8:	a6 04 e0 1c 	add  %l3, 0x1c, %l3
    e0cc:	27 00 00 00 	sethi  %hi(0), %l3
    e0d0:	a6 14 e3 8c 	or  %l3, 0x38c, %l3	! 38c <GLIBC_2.0+0x38c>
    e0d4:	aa 07 bf b8 	add  %fp, -72, %l5
    e0d8:	c6 04 a0 04 	ld  [ %l2 + 4 ], %g3
    e0dc:	ea 23 a0 5c 	st  %l5, [ %sp + 0x5c ]
    e0e0:	c8 07 bf 98 	ld  [ %fp + -104 ], %g4
    e0e4:	c2 01 00 00 	ld  [ %g4 ], %g1
    e0e8:	c4 01 20 04 	ld  [ %g4 + 4 ], %g2
    e0ec:	c2 27 bf b8 	st  %g1, [ %fp + -72 ]
    e0f0:	c4 27 bf bc 	st  %g2, [ %fp + -68 ]
    e0f4:	c2 00 c0 00 	ld  [ %g3 ], %g1
    e0f8:	90 10 00 12 	mov  %l2, %o0
    e0fc:	92 10 20 00 	clr  %o1
    e100:	94 10 20 00 	clr  %o2
    e104:	96 10 20 00 	clr  %o3
    e108:	d8 05 c0 13 	ld  [ %l7 + %l3 ], %o4
    e10c:	9f c0 40 00 	call  %g1
    e110:	9a 10 20 00 	clr  %o5
    e114:	80 a2 20 00 	cmp  %o0, 0
    e118:	12 80 00 0c 	bne  e148 <__nis_findfastest+0x348>
    e11c:	c6 07 bf a4 	ld  [ %fp + -92 ], %g3
    e120:	c2 04 60 60 	ld  [ %l1 + 0x60 ], %g1
    e124:	84 20 40 03 	sub  %g1, %g3, %g2
    e128:	c8 07 bf a0 	ld  [ %fp + -96 ], %g4
    e12c:	80 a0 80 04 	cmp  %g2, %g4
    e130:	0a 80 00 5c 	bcs  e2a0 <__nis_findfastest+0x4a0>
    e134:	83 28 a0 03 	sll  %g2, 3, %g1
    e138:	c4 07 bf a8 	ld  [ %fp + -88 ], %g2
    e13c:	80 a0 bf ff 	cmp  %g2, -1
    e140:	22 bf ff e7 	be,a   e0dc <__nis_findfastest+0x2dc>
    e144:	c6 04 a0 04 	ld  [ %l2 + 4 ], %g3
    e148:	d0 04 80 00 	ld  [ %l2 ], %o0
    e14c:	c4 02 20 20 	ld  [ %o0 + 0x20 ], %g2
    e150:	c2 00 a0 10 	ld  [ %g2 + 0x10 ], %g1
    e154:	9f c0 40 00 	call  %g1
    e158:	01 00 00 00 	nop 
    e15c:	c4 04 a0 04 	ld  [ %l2 + 4 ], %g2
    e160:	c2 00 a0 10 	ld  [ %g2 + 0x10 ], %g1
    e164:	9f c0 40 00 	call  %g1
    e168:	90 10 00 12 	mov  %l2, %o0
    e16c:	40 00 50 dd 	call  224e0 <close@plt>
    e170:	d0 07 bf b4 	ld  [ %fp + -76 ], %o0
    e174:	40 00 51 9b 	call  227e0 <free@plt>
    e178:	90 10 00 19 	mov  %i1, %o0
    e17c:	c4 07 bf a8 	ld  [ %fp + -88 ], %g2
    e180:	80 a0 bf ff 	cmp  %g2, -1
    e184:	12 80 00 51 	bne  e2c8 <__nis_findfastest+0x4c8>
    e188:	01 00 00 00 	nop 
    e18c:	c2 07 bf e8 	ld  [ %fp + -24 ], %g1
    e190:	c6 07 bf ac 	ld  [ %fp + -84 ], %g3
    e194:	86 00 ff ff 	add  %g3, -1, %g3
    e198:	82 00 60 03 	add  %g1, 3, %g1
    e19c:	c6 27 bf ac 	st  %g3, [ %fp + -84 ]
    e1a0:	80 a0 ff ff 	cmp  %g3, -1
    e1a4:	12 bf ff 22 	bne  de2c <__nis_findfastest+0x2c>
    e1a8:	c2 27 bf e8 	st  %g1, [ %fp + -24 ]
    e1ac:	30 80 00 47 	b,a   e2c8 <__nis_findfastest+0x4c8>
    e1b0:	13 00 00 61 	sethi  %hi(0x18400), %o1
    e1b4:	92 12 63 cc 	or  %o1, 0x3cc, %o1	! 187cc <__FRAME_END__+0x77a4>
    e1b8:	90 07 bf d8 	add  %fp, -40, %o0
    e1bc:	94 10 20 03 	mov  3, %o2
    e1c0:	7f ff fe bf 	call  dcbc <__pmap_getnisport>
    e1c4:	96 10 20 11 	mov  0x11, %o3
    e1c8:	83 2a 20 10 	sll  %o0, 0x10, %g1
    e1cc:	80 a0 60 00 	cmp  %g1, 0
    e1d0:	02 bf ff 62 	be  df58 <__nis_findfastest+0x158>
    e1d4:	d0 37 bf da 	sth  %o0, [ %fp + -38 ]
    e1d8:	c8 07 bf a0 	ld  [ %fp + -96 ], %g4
    e1dc:	c2 07 bf 9c 	ld  [ %fp + -100 ], %g1
    e1e0:	80 a1 00 01 	cmp  %g4, %g1
    e1e4:	3a 80 00 22 	bcc,a   e26c <__nis_findfastest+0x46c>
    e1e8:	b4 06 a1 18 	add  %i2, 0x118, %i2
    e1ec:	c2 07 bf d8 	ld  [ %fp + -40 ], %g1
    e1f0:	c2 26 40 1b 	st  %g1, [ %i1 + %i3 ]
    e1f4:	88 06 40 1b 	add  %i1, %i3, %g4
    e1f8:	c2 07 bf dc 	ld  [ %fp + -36 ], %g1
    e1fc:	c2 21 20 04 	st  %g1, [ %g4 + 4 ]
    e200:	c4 07 bf e0 	ld  [ %fp + -32 ], %g2
    e204:	c4 21 20 08 	st  %g2, [ %g4 + 8 ]
    e208:	c2 07 bf e4 	ld  [ %fp + -28 ], %g1
    e20c:	c2 21 20 0c 	st  %g1, [ %g4 + 0xc ]
    e210:	c4 1f bf d8 	ldd  [ %fp + -40 ], %g2
    e214:	c4 3f bf c8 	std  %g2, [ %fp + -56 ]
    e218:	d8 1f bf e0 	ldd  [ %fp + -32 ], %o4
    e21c:	c6 07 bf a0 	ld  [ %fp + -96 ], %g3
    e220:	c4 07 bf a4 	ld  [ %fp + -92 ], %g2
    e224:	d8 3f bf d0 	std  %o4, [ %fp + -48 ]
    e228:	82 00 80 03 	add  %g2, %g3, %g1
    e22c:	c2 21 20 10 	st  %g1, [ %g4 + 0x10 ]
    e230:	e6 21 20 18 	st  %l3, [ %g4 + 0x18 ]
    e234:	f8 21 20 14 	st  %i4, [ %g4 + 0x14 ]
    e238:	c8 07 bf 94 	ld  [ %fp + -108 ], %g4
    e23c:	86 00 e0 01 	inc  %g3
    e240:	88 01 20 1c 	add  %g4, 0x1c, %g4
    e244:	c6 27 bf a0 	st  %g3, [ %fp + -96 ]
    e248:	c8 27 bf 94 	st  %g4, [ %fp + -108 ]
    e24c:	10 bf ff 43 	b  df58 <__nis_findfastest+0x158>
    e250:	b6 06 e0 1c 	add  %i3, 0x1c, %i3
    e254:	40 00 50 a3 	call  224e0 <close@plt>
    e258:	d0 07 bf b4 	ld  [ %fp + -76 ], %o0
    e25c:	40 00 51 61 	call  227e0 <free@plt>
    e260:	90 10 00 19 	mov  %i1, %o0
    e264:	10 bf ff ca 	b  e18c <__nis_findfastest+0x38c>
    e268:	84 10 3f ff 	mov  -1, %g2
    e26c:	90 10 00 19 	mov  %i1, %o0
    e270:	40 00 51 2f 	call  2272c <realloc@plt>
    e274:	92 10 00 1a 	mov  %i2, %o1
    e278:	c4 07 bf 9c 	ld  [ %fp + -100 ], %g2
    e27c:	c6 07 bf 90 	ld  [ %fp + -112 ], %g3
    e280:	84 00 a0 0a 	add  %g2, 0xa, %g2
    e284:	86 00 e1 18 	add  %g3, 0x118, %g3
    e288:	c4 27 bf 9c 	st  %g2, [ %fp + -100 ]
    e28c:	80 a2 20 00 	cmp  %o0, 0
    e290:	02 bf ff f3 	be  e25c <__nis_findfastest+0x45c>
    e294:	c6 27 bf 90 	st  %g3, [ %fp + -112 ]
    e298:	10 bf ff d5 	b  e1ec <__nis_findfastest+0x3ec>
    e29c:	b2 10 00 08 	mov  %o0, %i1
    e2a0:	82 20 40 02 	sub  %g1, %g2, %g1
    e2a4:	83 28 60 02 	sll  %g1, 2, %g1
    e2a8:	82 06 40 01 	add  %i1, %g1, %g1
    e2ac:	c4 00 60 14 	ld  [ %g1 + 0x14 ], %g2
    e2b0:	c4 26 20 0c 	st  %g2, [ %i0 + 0xc ]
    e2b4:	c6 00 60 18 	ld  [ %g1 + 0x18 ], %g3
    e2b8:	82 10 20 01 	mov  1, %g1
    e2bc:	c6 26 20 10 	st  %g3, [ %i0 + 0x10 ]
    e2c0:	10 bf ff a2 	b  e148 <__nis_findfastest+0x348>
    e2c4:	c2 27 bf a8 	st  %g1, [ %fp + -88 ]
    e2c8:	81 c7 e0 08 	ret 
    e2cc:	91 e8 00 02 	restore  %g0, %g2, %o0
    e2d0:	81 c3 e0 08 	retl 
    e2d4:	ae 03 c0 17 	add  %o7, %l7, %l7

0000e2d8 <cb_prog_1>:
cb_prog_1():
    e2d8:	9d e3 bf 80 	save  %sp, -128, %sp
    e2dc:	c2 06 20 08 	ld  [ %i0 + 8 ], %g1
    e2e0:	2f 00 00 4f 	sethi  %hi(0x13c00), %l7
    e2e4:	7f ff ff fb 	call  e2d0 <__nis_findfastest+0x4d0>
    e2e8:	ae 05 e1 1c 	add  %l7, 0x11c, %l7	! 13d1c <__FRAME_END__+0x2cf4>
    e2ec:	80 a0 60 01 	cmp  %g1, 1
    e2f0:	22 80 00 4c 	be,a   e420 <cb_prog_1+0x148>
    e2f4:	03 00 00 00 	sethi  %hi(0), %g1
    e2f8:	0a 80 00 09 	bcs  e31c <cb_prog_1+0x44>
    e2fc:	80 a0 60 02 	cmp  %g1, 2
    e300:	02 80 00 8f 	be  e53c <cb_prog_1+0x264>
    e304:	80 a0 60 03 	cmp  %g1, 3
    e308:	02 80 00 0c 	be  e338 <cb_prog_1+0x60>
    e30c:	03 00 00 00 	sethi  %hi(0), %g1
    e310:	40 00 50 80 	call  22510 <svcerr_noproc@plt>
    e314:	90 10 00 19 	mov  %i1, %o0
    e318:	30 80 00 a9 	b,a   e5bc <cb_prog_1+0x2e4>
    e31c:	03 00 00 00 	sethi  %hi(0), %g1
    e320:	82 10 63 8c 	or  %g1, 0x38c, %g1	! 38c <GLIBC_2.0+0x38c>
    e324:	90 10 00 19 	mov  %i1, %o0
    e328:	d2 05 c0 01 	ld  [ %l7 + %g1 ], %o1
    e32c:	40 00 50 c1 	call  22630 <svc_sendreply@plt>
    e330:	94 10 20 00 	clr  %o2
    e334:	30 80 00 a2 	b,a   e5bc <cb_prog_1+0x2e4>
    e338:	82 10 63 94 	or  %g1, 0x394, %g1
    e33c:	09 00 00 00 	sethi  %hi(0), %g4
    e340:	ea 05 c0 01 	ld  [ %l7 + %g1 ], %l5
    e344:	88 11 23 8c 	or  %g4, 0x38c, %g4
    e348:	da 06 60 08 	ld  [ %i1 + 8 ], %o5
    e34c:	84 10 20 00 	clr  %g2
    e350:	86 10 20 00 	clr  %g3
    e354:	b8 07 bf e8 	add  %fp, -24, %i4
    e358:	c4 3f bf e8 	std  %g2, [ %fp + -24 ]
    e35c:	fa 05 c0 04 	ld  [ %l7 + %g4 ], %i5
    e360:	c2 03 60 08 	ld  [ %o5 + 8 ], %g1
    e364:	90 10 00 19 	mov  %i1, %o0
    e368:	92 10 00 15 	mov  %l5, %o1
    e36c:	9f c0 40 00 	call  %g1
    e370:	94 10 00 1c 	mov  %i4, %o2
    e374:	80 a2 20 00 	cmp  %o0, 0
    e378:	02 80 00 8a 	be  e5a0 <cb_prog_1+0x2c8>
    e37c:	03 00 00 00 	sethi  %hi(0), %g1
    e380:	82 10 63 00 	or  %g1, 0x300, %g1	! 300 <GLIBC_2.0+0x300>
    e384:	c4 05 c0 01 	ld  [ %l7 + %g1 ], %g2
    e388:	c6 00 80 00 	ld  [ %g2 ], %g3
    e38c:	88 10 20 01 	mov  1, %g4
    e390:	c8 20 e0 0c 	st  %g4, [ %g3 + 0xc ]
    e394:	c2 07 bf e8 	ld  [ %fp + -24 ], %g1
    e398:	c2 20 e0 10 	st  %g1, [ %g3 + 0x10 ]
    e39c:	c8 27 bf e4 	st  %g4, [ %fp + -28 ]
    e3a0:	94 07 bf e4 	add  %fp, -28, %o2
    e3a4:	80 a2 a0 00 	cmp  %o2, 0
    e3a8:	02 80 00 07 	be  e3c4 <cb_prog_1+0xec>
    e3ac:	92 10 00 1d 	mov  %i5, %o1
    e3b0:	40 00 50 a0 	call  22630 <svc_sendreply@plt>
    e3b4:	90 10 00 19 	mov  %i1, %o0
    e3b8:	80 a2 20 00 	cmp  %o0, 0
    e3bc:	02 80 00 7c 	be  e5ac <cb_prog_1+0x2d4>
    e3c0:	01 00 00 00 	nop 
    e3c4:	c2 06 60 08 	ld  [ %i1 + 8 ], %g1
    e3c8:	c4 00 60 10 	ld  [ %g1 + 0x10 ], %g2
    e3cc:	90 10 00 19 	mov  %i1, %o0
    e3d0:	92 10 00 15 	mov  %l5, %o1
    e3d4:	9f c0 80 00 	call  %g2
    e3d8:	94 10 00 1c 	mov  %i4, %o2
    e3dc:	80 a2 20 00 	cmp  %o0, 0
    e3e0:	12 80 00 77 	bne  e5bc <cb_prog_1+0x2e4>
    e3e4:	05 00 00 00 	sethi  %hi(0), %g2
    e3e8:	03 00 00 00 	sethi  %hi(0), %g1
    e3ec:	84 10 a3 90 	or  %g2, 0x390, %g2
    e3f0:	82 10 63 08 	or  %g1, 0x308, %g1
    e3f4:	d2 05 c0 01 	ld  [ %l7 + %g1 ], %o1
    e3f8:	d0 05 c0 02 	ld  [ %l7 + %g2 ], %o0
    e3fc:	40 00 50 ed 	call  227b0 <__dcgettext@plt>
    e400:	94 10 20 05 	mov  5, %o2
    e404:	03 00 00 00 	sethi  %hi(0), %g1
    e408:	82 10 63 b0 	or  %g1, 0x3b0, %g1	! 3b0 <GLIBC_2.0+0x3b0>
    e40c:	c4 05 c0 01 	ld  [ %l7 + %g1 ], %g2
    e410:	40 00 50 91 	call  22654 <fputs@plt>
    e414:	d2 00 80 00 	ld  [ %g2 ], %o1
    e418:	40 00 50 e9 	call  227bc <exit@plt>
    e41c:	90 10 20 01 	mov  1, %o0
    e420:	82 10 63 58 	or  %g1, 0x358, %g1
    e424:	09 00 00 00 	sethi  %hi(0), %g4
    e428:	ea 05 c0 01 	ld  [ %l7 + %g1 ], %l5
    e42c:	88 11 23 d4 	or  %g4, 0x3d4, %g4
    e430:	da 06 60 08 	ld  [ %i1 + 8 ], %o5
    e434:	84 10 20 00 	clr  %g2
    e438:	86 10 20 00 	clr  %g3
    e43c:	b8 07 bf e8 	add  %fp, -24, %i4
    e440:	c4 3f bf e8 	std  %g2, [ %fp + -24 ]
    e444:	fa 05 c0 04 	ld  [ %l7 + %g4 ], %i5
    e448:	c2 03 60 08 	ld  [ %o5 + 8 ], %g1
    e44c:	90 10 00 19 	mov  %i1, %o0
    e450:	92 10 00 15 	mov  %l5, %o1
    e454:	9f c0 40 00 	call  %g1
    e458:	94 10 00 1c 	mov  %i4, %o2
    e45c:	80 a2 20 00 	cmp  %o0, 0
    e460:	02 80 00 50 	be  e5a0 <cb_prog_1+0x2c8>
    e464:	c2 07 bf e8 	ld  [ %fp + -24 ], %g1
    e468:	80 a0 60 00 	cmp  %g1, 0
    e46c:	c0 27 bf e4 	clr  [ %fp + -28 ]
    e470:	08 bf ff cc 	bleu  e3a0 <cb_prog_1+0xc8>
    e474:	b0 10 20 00 	clr  %i0
    e478:	03 00 00 00 	sethi  %hi(0), %g1
    e47c:	82 10 63 00 	or  %g1, 0x300, %g1	! 300 <GLIBC_2.0+0x300>
    e480:	10 80 00 06 	b  e498 <cb_prog_1+0x1c0>
    e484:	ec 05 c0 01 	ld  [ %l7 + %g1 ], %l6
    e488:	c2 07 bf e8 	ld  [ %fp + -24 ], %g1
    e48c:	80 a0 40 18 	cmp  %g1, %i0
    e490:	08 bf ff c4 	bleu  e3a0 <cb_prog_1+0xc8>
    e494:	9c 10 00 14 	mov  %l4, %sp
    e498:	c2 07 bf ec 	ld  [ %fp + -20 ], %g1
    e49c:	a5 2e 20 02 	sll  %i0, 2, %l2
    e4a0:	e2 00 40 12 	ld  [ %g1 + %l2 ], %l1
    e4a4:	d0 04 60 08 	ld  [ %l1 + 8 ], %o0
    e4a8:	40 00 50 71 	call  2266c <strlen@plt>
    e4ac:	a8 10 00 0e 	mov  %sp, %l4
    e4b0:	a0 10 00 08 	mov  %o0, %l0
    e4b4:	40 00 50 6e 	call  2266c <strlen@plt>
    e4b8:	d0 04 60 14 	ld  [ %l1 + 0x14 ], %o0
    e4bc:	a0 04 00 08 	add  %l0, %o0, %l0
    e4c0:	a0 04 20 0a 	add  %l0, 0xa, %l0
    e4c4:	a0 0c 3f f8 	and  %l0, -8, %l0
    e4c8:	9c 23 80 10 	sub  %sp, %l0, %sp
    e4cc:	a6 03 a0 60 	add  %sp, 0x60, %l3
    e4d0:	d2 04 60 08 	ld  [ %l1 + 8 ], %o1
    e4d4:	40 00 50 6f 	call  22690 <stpcpy@plt>
    e4d8:	90 10 00 13 	mov  %l3, %o0
    e4dc:	82 10 20 2e 	mov  0x2e, %g1
    e4e0:	c2 2a 00 00 	stb  %g1, [ %o0 ]
    e4e4:	c4 07 bf ec 	ld  [ %fp + -20 ], %g2
    e4e8:	c2 00 80 12 	ld  [ %g2 + %l2 ], %g1
    e4ec:	d2 00 60 14 	ld  [ %g1 + 0x14 ], %o1
    e4f0:	40 00 50 68 	call  22690 <stpcpy@plt>
    e4f4:	90 02 20 01 	inc  %o0
    e4f8:	c2 07 bf ec 	ld  [ %fp + -20 ], %g1
    e4fc:	c4 05 80 00 	ld  [ %l6 ], %g2
    e500:	d2 00 40 12 	ld  [ %g1 + %l2 ], %o1
    e504:	90 10 00 13 	mov  %l3, %o0
    e508:	c2 00 a0 14 	ld  [ %g2 + 0x14 ], %g1
    e50c:	9f c0 40 00 	call  %g1
    e510:	d4 00 a0 18 	ld  [ %g2 + 0x18 ], %o2
    e514:	80 a2 20 00 	cmp  %o0, 0
    e518:	02 bf ff dc 	be  e488 <cb_prog_1+0x1b0>
    e51c:	b0 06 20 01 	inc  %i0
    e520:	82 10 20 01 	mov  1, %g1
    e524:	c4 05 80 00 	ld  [ %l6 ], %g2
    e528:	c2 27 bf e4 	st  %g1, [ %fp + -28 ]
    e52c:	c2 20 a0 0c 	st  %g1, [ %g2 + 0xc ]
    e530:	c0 20 a0 10 	clr  [ %g2 + 0x10 ]
    e534:	10 bf ff 9b 	b  e3a0 <cb_prog_1+0xc8>
    e538:	9c 10 00 14 	mov  %l4, %sp
    e53c:	03 00 00 00 	sethi  %hi(0), %g1
    e540:	82 10 63 8c 	or  %g1, 0x38c, %g1	! 38c <GLIBC_2.0+0x38c>
    e544:	ea 05 c0 01 	ld  [ %l7 + %g1 ], %l5
    e548:	c8 06 60 08 	ld  [ %i1 + 8 ], %g4
    e54c:	84 10 20 00 	clr  %g2
    e550:	86 10 20 00 	clr  %g3
    e554:	b8 07 bf e8 	add  %fp, -24, %i4
    e558:	c4 3f bf e8 	std  %g2, [ %fp + -24 ]
    e55c:	c2 01 20 08 	ld  [ %g4 + 8 ], %g1
    e560:	90 10 00 19 	mov  %i1, %o0
    e564:	92 10 00 15 	mov  %l5, %o1
    e568:	9f c0 40 00 	call  %g1
    e56c:	94 10 00 1c 	mov  %i4, %o2
    e570:	80 a2 20 00 	cmp  %o0, 0
    e574:	02 80 00 0b 	be  e5a0 <cb_prog_1+0x2c8>
    e578:	ba 10 00 15 	mov  %l5, %i5
    e57c:	03 00 00 00 	sethi  %hi(0), %g1
    e580:	82 10 63 00 	or  %g1, 0x300, %g1	! 300 <GLIBC_2.0+0x300>
    e584:	c4 05 c0 01 	ld  [ %l7 + %g1 ], %g2
    e588:	c6 00 80 00 	ld  [ %g2 ], %g3
    e58c:	82 10 20 01 	mov  1, %g1
    e590:	c2 20 e0 0c 	st  %g1, [ %g3 + 0xc ]
    e594:	c0 20 e0 10 	clr  [ %g3 + 0x10 ]
    e598:	10 bf ff 82 	b  e3a0 <cb_prog_1+0xc8>
    e59c:	c2 27 bf e4 	st  %g1, [ %fp + -28 ]
    e5a0:	40 00 4f c4 	call  224b0 <svcerr_decode@plt>
    e5a4:	90 10 00 19 	mov  %i1, %o0
    e5a8:	30 80 00 05 	b,a   e5bc <cb_prog_1+0x2e4>
    e5ac:	40 00 4f f1 	call  22570 <svcerr_systemerr@plt>
    e5b0:	90 10 00 19 	mov  %i1, %o0
    e5b4:	10 bf ff 85 	b  e3c8 <cb_prog_1+0xf0>
    e5b8:	c2 06 60 08 	ld  [ %i1 + 8 ], %g1
    e5bc:	81 c7 e0 08 	ret 
    e5c0:	81 e8 00 00 	restore 

0000e5c4 <__nis_do_callback>:
__nis_do_callback():
    e5c4:	9d e3 bf 70 	save  %sp, -144, %sp
    e5c8:	03 00 00 00 	sethi  %hi(0), %g1
    e5cc:	2f 00 00 4e 	sethi  %hi(0x13800), %l7
    e5d0:	7f ff ff 40 	call  e2d0 <__nis_findfastest+0x4d0>
    e5d4:	ae 05 e2 30 	add  %l7, 0x230, %l7	! 13a30 <__FRAME_END__+0x2a08>
    e5d8:	82 10 63 68 	or  %g1, 0x368, %g1
    e5dc:	c4 05 c0 01 	ld  [ %l7 + %g1 ], %g2
    e5e0:	80 a0 a0 00 	cmp  %g2, 0
    e5e4:	02 80 00 05 	be  e5f8 <__nis_do_callback+0x34>
    e5e8:	03 00 00 00 	sethi  %hi(0), %g1
    e5ec:	82 10 63 04 	or  %g1, 0x304, %g1	! 304 <GLIBC_2.0+0x304>
    e5f0:	9f c0 80 00 	call  %g2
    e5f4:	d0 05 c0 01 	ld  [ %l7 + %g1 ], %o0
    e5f8:	21 00 00 00 	sethi  %hi(0), %l0
    e5fc:	a0 14 23 00 	or  %l0, 0x300, %l0	! 300 <GLIBC_2.0+0x300>
    e600:	c2 05 c0 10 	ld  [ %l7 + %l0 ], %g1
    e604:	f4 20 40 00 	st  %i2, [ %g1 ]
    e608:	82 10 20 19 	mov  0x19, %g1
    e60c:	c2 27 bf e8 	st  %g1, [ %fp + -24 ]
    e610:	40 00 50 05 	call  22624 <__rpc_thread_svc_max_pollfd@plt>
    e614:	c0 27 bf ec 	clr  [ %fp + -20 ]
    e618:	a8 10 00 08 	mov  %o0, %l4
    e61c:	aa 10 00 10 	mov  %l0, %l5
    e620:	c4 05 00 00 	ld  [ %l4 ], %g2
    e624:	a6 10 00 0e 	mov  %sp, %l3
    e628:	83 28 a0 03 	sll  %g2, 3, %g1
    e62c:	9c 23 80 01 	sub  %sp, %g1, %sp
    e630:	80 a0 a0 00 	cmp  %g2, 0
    e634:	12 80 00 08 	bne  e654 <__nis_do_callback+0x90>
    e638:	a2 03 a0 68 	add  %sp, 0x68, %l1
    e63c:	40 00 4f 9a 	call  224a4 <__rpc_thread_svc_pollfd@plt>
    e640:	01 00 00 00 	nop 
    e644:	c2 02 00 00 	ld  [ %o0 ], %g1
    e648:	80 a0 60 00 	cmp  %g1, 0
    e64c:	22 80 00 55 	be,a   e7a0 <__nis_do_callback+0x1dc>
    e650:	b0 10 20 1f 	mov  0x1f, %i0
    e654:	40 00 4f f4 	call  22624 <__rpc_thread_svc_max_pollfd@plt>
    e658:	a0 10 20 00 	clr  %l0
    e65c:	10 80 00 0c 	b  e68c <__nis_do_callback+0xc8>
    e660:	a4 10 00 08 	mov  %o0, %l2
    e664:	40 00 4f 90 	call  224a4 <__rpc_thread_svc_pollfd@plt>
    e668:	01 00 00 00 	nop 
    e66c:	c4 02 00 00 	ld  [ %o0 ], %g2
    e670:	82 00 80 1a 	add  %g2, %i2, %g1
    e674:	c8 10 60 04 	lduh  [ %g1 + 4 ], %g4
    e678:	86 04 40 1a 	add  %l1, %i2, %g3
    e67c:	c2 00 80 1a 	ld  [ %g2 + %i2 ], %g1
    e680:	c2 24 40 1a 	st  %g1, [ %l1 + %i2 ]
    e684:	c8 30 e0 04 	sth  %g4, [ %g3 + 4 ]
    e688:	c0 30 e0 06 	clrh  [ %g3 + 6 ]
    e68c:	c2 04 80 00 	ld  [ %l2 ], %g1
    e690:	b5 2c 20 03 	sll  %l0, 3, %i2
    e694:	80 a0 40 10 	cmp  %g1, %l0
    e698:	14 bf ff f3 	bg  e664 <__nis_do_callback+0xa0>
    e69c:	a0 04 20 01 	inc  %l0
    e6a0:	40 00 4f e1 	call  22624 <__rpc_thread_svc_max_pollfd@plt>
    e6a4:	01 00 00 00 	nop 
    e6a8:	82 10 00 08 	mov  %o0, %g1
    e6ac:	15 00 00 18 	sethi  %hi(0x6000), %o2
    e6b0:	90 10 00 11 	mov  %l1, %o0
    e6b4:	d2 00 40 00 	ld  [ %g1 ], %o1
    e6b8:	40 00 4f b7 	call  22594 <__poll@plt>
    e6bc:	94 12 a1 a8 	or  %o2, 0x1a8, %o2
    e6c0:	80 a2 3f ff 	cmp  %o0, -1
    e6c4:	12 80 00 0a 	bne  e6ec <__nis_do_callback+0x128>
    e6c8:	b4 10 00 08 	mov  %o0, %i2
    e6cc:	40 00 4f ac 	call  2257c <__errno_location@plt>
    e6d0:	01 00 00 00 	nop 
    e6d4:	c2 02 00 00 	ld  [ %o0 ], %g1
    e6d8:	80 a0 60 04 	cmp  %g1, 4
    e6dc:	02 bf ff f1 	be  e6a0 <__nis_do_callback+0xdc>
    e6e0:	80 a6 bf ff 	cmp  %i2, -1
    e6e4:	22 80 00 2f 	be,a   e7a0 <__nis_do_callback+0x1dc>
    e6e8:	b0 10 20 1f 	mov  0x1f, %i0
    e6ec:	80 a6 a0 00 	cmp  %i2, 0
    e6f0:	02 80 00 0c 	be  e720 <__nis_do_callback+0x15c>
    e6f4:	90 10 00 11 	mov  %l1, %o0
    e6f8:	40 00 4f c8 	call  22618 <svc_getreq_poll@plt>
    e6fc:	92 10 00 1a 	mov  %i2, %o1
    e700:	c2 05 c0 15 	ld  [ %l7 + %l5 ], %g1
    e704:	c2 00 40 00 	ld  [ %g1 ], %g1
    e708:	c4 00 60 0c 	ld  [ %g1 + 0xc ], %g2
    e70c:	80 a0 a0 00 	cmp  %g2, 0
    e710:	32 80 00 2f 	bne,a   e7cc <__nis_do_callback+0x208>
    e714:	f0 00 60 10 	ld  [ %g1 + 0x10 ], %i0
    e718:	10 bf ff c2 	b  e620 <__nis_do_callback+0x5c>
    e71c:	9c 10 00 13 	mov  %l3, %sp
    e720:	c4 1f bf e8 	ldd  [ %fp + -24 ], %g2
    e724:	c2 06 00 00 	ld  [ %i0 ], %g1
    e728:	c4 3f bf e0 	std  %g2, [ %fp + -32 ]
    e72c:	c8 00 60 04 	ld  [ %g1 + 4 ], %g4
    e730:	c0 27 bf dc 	clr  [ %fp + -36 ]
    e734:	82 07 bf e0 	add  %fp, -32, %g1
    e738:	05 00 00 00 	sethi  %hi(0), %g2
    e73c:	07 00 00 00 	sethi  %hi(0), %g3
    e740:	c2 23 a0 5c 	st  %g1, [ %sp + 0x5c ]
    e744:	84 10 a3 d8 	or  %g2, 0x3d8, %g2
    e748:	86 10 e3 d4 	or  %g3, 0x3d4, %g3
    e74c:	c2 01 00 00 	ld  [ %g4 ], %g1
    e750:	d4 05 c0 02 	ld  [ %l7 + %g2 ], %o2
    e754:	d8 05 c0 03 	ld  [ %l7 + %g3 ], %o4
    e758:	d0 06 00 00 	ld  [ %i0 ], %o0
    e75c:	92 10 20 11 	mov  0x11, %o1
    e760:	96 10 00 19 	mov  %i1, %o3
    e764:	9f c0 40 00 	call  %g1
    e768:	9a 07 bf dc 	add  %fp, -36, %o5
    e76c:	80 a2 20 00 	cmp  %o0, 0
    e770:	32 80 00 02 	bne,a   e778 <__nis_do_callback+0x1b4>
    e774:	c0 27 bf dc 	clr  [ %fp + -36 ]
    e778:	c2 07 bf dc 	ld  [ %fp + -36 ], %g1
    e77c:	80 a0 60 00 	cmp  %g1, 0
    e780:	32 bf ff a8 	bne,a   e620 <__nis_do_callback+0x5c>
    e784:	9c 10 00 13 	mov  %l3, %sp
    e788:	03 00 00 00 	sethi  %hi(0), %g1
    e78c:	82 10 63 0c 	or  %g1, 0x30c, %g1	! 30c <GLIBC_2.0+0x30c>
    e790:	d2 05 c0 01 	ld  [ %l7 + %g1 ], %o1
    e794:	40 00 4f 74 	call  22564 <syslog@plt>
    e798:	90 10 20 03 	mov  3, %o0
    e79c:	b0 10 20 1f 	mov  0x1f, %i0
    e7a0:	9c 10 00 13 	mov  %l3, %sp
    e7a4:	03 00 00 00 	sethi  %hi(0), %g1
    e7a8:	82 10 63 a8 	or  %g1, 0x3a8, %g1	! 3a8 <GLIBC_2.0+0x3a8>
    e7ac:	c4 05 c0 01 	ld  [ %l7 + %g1 ], %g2
    e7b0:	80 a0 a0 00 	cmp  %g2, 0
    e7b4:	02 80 00 08 	be  e7d4 <__nis_do_callback+0x210>
    e7b8:	03 00 00 00 	sethi  %hi(0), %g1
    e7bc:	82 10 63 04 	or  %g1, 0x304, %g1	! 304 <GLIBC_2.0+0x304>
    e7c0:	9f c0 80 00 	call  %g2
    e7c4:	d0 05 c0 01 	ld  [ %l7 + %g1 ], %o0
    e7c8:	30 80 00 03 	b,a   e7d4 <__nis_do_callback+0x210>
    e7cc:	10 bf ff f6 	b  e7a4 <__nis_do_callback+0x1e0>
    e7d0:	9c 10 00 13 	mov  %l3, %sp
    e7d4:	81 c7 e0 08 	ret 
    e7d8:	81 e8 00 00 	restore 

0000e7dc <__nis_create_callback>:
__nis_create_callback():
    e7dc:	9d e3 bf 78 	save  %sp, -136, %sp
    e7e0:	82 10 20 10 	mov  0x10, %g1
    e7e4:	2f 00 00 4e 	sethi  %hi(0x13800), %l7
    e7e8:	7f ff fe ba 	call  e2d0 <__nis_findfastest+0x4d0>
    e7ec:	ae 05 e0 18 	add  %l7, 0x18, %l7	! 13818 <__FRAME_END__+0x27f0>
    e7f0:	c2 27 bf d8 	st  %g1, [ %fp + -40 ]
    e7f4:	90 10 20 01 	mov  1, %o0
    e7f8:	40 00 4f f4 	call  227c8 <calloc@plt>
    e7fc:	92 10 20 34 	mov  0x34, %o1
    e800:	a2 92 20 00 	orcc  %o0, 0, %l1
    e804:	02 80 00 56 	be  e95c <__nis_create_callback+0x180>
    e808:	a4 10 20 00 	clr  %l2
    e80c:	86 04 60 1c 	add  %l1, 0x1c, %g3
    e810:	7f ff df cb 	call  673c <nis_local_principal>
    e814:	c6 24 40 00 	st  %g3, [ %l1 ]
    e818:	40 00 4f da 	call  22780 <__strdup@plt>
    e81c:	01 00 00 00 	nop 
    e820:	d0 24 60 1c 	st  %o0, [ %l1 + 0x1c ]
    e824:	e0 04 40 00 	ld  [ %l1 ], %l0
    e828:	c2 04 00 00 	ld  [ %l0 ], %g1
    e82c:	80 a0 60 00 	cmp  %g1, 0
    e830:	22 80 00 3e 	be,a   e928 <__nis_create_callback+0x14c>
    e834:	d0 04 60 04 	ld  [ %l1 + 4 ], %o0
    e838:	90 10 20 02 	mov  2, %o0
    e83c:	40 00 4f e3 	call  227c8 <calloc@plt>
    e840:	92 10 20 0c 	mov  0xc, %o1
    e844:	d0 24 20 08 	st  %o0, [ %l0 + 8 ]
    e848:	c4 04 40 00 	ld  [ %l1 ], %g2
    e84c:	e0 00 a0 08 	ld  [ %g2 + 8 ], %l0
    e850:	80 a4 20 00 	cmp  %l0, 0
    e854:	02 80 00 78 	be  ea34 <__nis_create_callback+0x258>
    e858:	82 10 20 01 	mov  1, %g1
    e85c:	c2 20 a0 04 	st  %g1, [ %g2 + 4 ]
    e860:	40 00 4f 5c 	call  225d0 <malloc@plt>
    e864:	90 10 20 05 	mov  5, %o0
    e868:	82 92 20 00 	orcc  %o0, 0, %g1
    e86c:	22 80 00 09 	be,a   e890 <__nis_create_callback+0xb4>
    e870:	c2 24 20 04 	st  %g1, [ %l0 + 4 ]
    e874:	03 00 00 00 	sethi  %hi(0), %g1
    e878:	82 10 63 10 	or  %g1, 0x310, %g1	! 310 <GLIBC_2.0+0x310>
    e87c:	d2 05 c0 01 	ld  [ %l7 + %g1 ], %o1
    e880:	40 00 4f b4 	call  22750 <memcpy@plt>
    e884:	94 10 20 05 	mov  5, %o2
    e888:	82 10 00 08 	mov  %o0, %g1
    e88c:	c2 24 20 04 	st  %g1, [ %l0 + 4 ]
    e890:	c6 04 40 00 	ld  [ %l1 ], %g3
    e894:	c2 00 e0 08 	ld  [ %g3 + 8 ], %g1
    e898:	c4 00 60 04 	ld  [ %g1 + 4 ], %g2
    e89c:	80 a0 a0 00 	cmp  %g2, 0
    e8a0:	02 80 00 65 	be  ea34 <__nis_create_callback+0x258>
    e8a4:	03 00 00 80 	sethi  %hi(0x20000), %g1
    e8a8:	f0 24 60 14 	st  %i0, [ %l1 + 0x14 ]
    e8ac:	80 8e 80 01 	btst  %i2, %g1
    e8b0:	02 80 00 68 	be  ea50 <__nis_create_callback+0x274>
    e8b4:	f2 24 60 18 	st  %i1, [ %l1 + 0x18 ]
    e8b8:	c0 20 e0 0c 	clr  [ %g3 + 0xc ]
    e8bc:	c0 20 e0 14 	clr  [ %g3 + 0x14 ]
    e8c0:	c0 20 e0 10 	clr  [ %g3 + 0x10 ]
    e8c4:	03 00 00 40 	sethi  %hi(0x10000), %g1
    e8c8:	80 8e 80 01 	btst  %i2, %g1
    e8cc:	12 80 00 2b 	bne  e978 <__nis_create_callback+0x19c>
    e8d0:	e0 00 e0 08 	ld  [ %g3 + 8 ], %l0
    e8d4:	03 00 00 00 	sethi  %hi(0), %g1
    e8d8:	82 10 63 14 	or  %g1, 0x314, %g1	! 314 <GLIBC_2.0+0x314>
    e8dc:	40 00 4f a9 	call  22780 <__strdup@plt>
    e8e0:	d0 05 c0 01 	ld  [ %l7 + %g1 ], %o0
    e8e4:	c2 04 40 00 	ld  [ %l1 ], %g1
    e8e8:	d0 24 20 08 	st  %o0, [ %l0 + 8 ]
    e8ec:	c4 00 60 08 	ld  [ %g1 + 8 ], %g2
    e8f0:	c6 00 a0 08 	ld  [ %g2 + 8 ], %g3
    e8f4:	80 a0 e0 00 	cmp  %g3, 0
    e8f8:	02 80 00 4f 	be  ea34 <__nis_create_callback+0x258>
    e8fc:	03 00 00 40 	sethi  %hi(0x10000), %g1
    e900:	80 8e 80 01 	btst  %i2, %g1
    e904:	02 80 00 4e 	be  ea3c <__nis_create_callback+0x260>
    e908:	92 10 20 64 	mov  0x64, %o1
    e90c:	90 10 3f ff 	mov  -1, %o0
    e910:	40 00 4f 0c 	call  22540 <svcudp_bufcreate@plt>
    e914:	15 00 00 08 	sethi  %hi(0x2000), %o2
    e918:	80 a2 20 00 	cmp  %o0, 0
    e91c:	12 80 00 1a 	bne  e984 <__nis_create_callback+0x1a8>
    e920:	d0 24 60 04 	st  %o0, [ %l1 + 4 ]
    e924:	a4 10 20 01 	mov  1, %l2
    e928:	80 a2 20 00 	cmp  %o0, 0
    e92c:	32 80 00 54 	bne,a   ea7c <__nis_create_callback+0x2a0>
    e930:	c2 02 20 08 	ld  [ %o0 + 8 ], %g1
    e934:	03 00 00 00 	sethi  %hi(0), %g1
    e938:	82 10 63 64 	or  %g1, 0x364, %g1	! 364 <GLIBC_2.0+0x364>
    e93c:	d0 05 c0 01 	ld  [ %l7 + %g1 ], %o0
    e940:	40 00 4e eb 	call  224ec <xdr_free@plt>
    e944:	d2 04 40 00 	ld  [ %l1 ], %o1
    e948:	40 00 4f a6 	call  227e0 <free@plt>
    e94c:	90 10 00 11 	mov  %l1, %o0
    e950:	80 a4 a0 00 	cmp  %l2, 0
    e954:	32 80 00 71 	bne,a   eb18 <__nis_create_callback+0x33c>
    e958:	b0 10 20 00 	clr  %i0
    e95c:	03 00 00 00 	sethi  %hi(0), %g1
    e960:	82 10 63 18 	or  %g1, 0x318, %g1	! 318 <GLIBC_2.0+0x318>
    e964:	d2 05 c0 01 	ld  [ %l7 + %g1 ], %o1
    e968:	40 00 4e ff 	call  22564 <syslog@plt>
    e96c:	90 10 20 03 	mov  3, %o0
    e970:	10 80 00 6a 	b  eb18 <__nis_create_callback+0x33c>
    e974:	b0 10 20 00 	clr  %i0
    e978:	03 00 00 00 	sethi  %hi(0), %g1
    e97c:	10 bf ff d8 	b  e8dc <__nis_create_callback+0x100>
    e980:	82 10 63 1c 	or  %g1, 0x31c, %g1	! 31c <GLIBC_2.0+0x31c>
    e984:	03 00 00 00 	sethi  %hi(0), %g1
    e988:	82 10 62 fc 	or  %g1, 0x2fc, %g1	! 2fc <GLIBC_2.0+0x2fc>
    e98c:	c4 02 00 00 	ld  [ %o0 ], %g2
    e990:	13 00 00 61 	sethi  %hi(0x18400), %o1
    e994:	c4 24 60 08 	st  %g2, [ %l1 + 8 ]
    e998:	92 12 63 ce 	or  %o1, 0x3ce, %o1
    e99c:	d6 05 c0 01 	ld  [ %l7 + %g1 ], %o3
    e9a0:	94 10 20 01 	mov  1, %o2
    e9a4:	40 00 4e b4 	call  22474 <svc_register@plt>
    e9a8:	98 10 20 00 	clr  %o4
    e9ac:	80 a2 20 00 	cmp  %o0, 0
    e9b0:	02 80 00 38 	be  ea90 <__nis_create_callback+0x2b4>
    e9b4:	a0 07 bf e0 	add  %fp, -32, %l0
    e9b8:	d0 04 60 08 	ld  [ %l1 + 8 ], %o0
    e9bc:	92 10 00 10 	mov  %l0, %o1
    e9c0:	40 00 4f 6a 	call  22768 <getsockname@plt>
    e9c4:	94 07 bf d8 	add  %fp, -40, %o2
    e9c8:	80 a2 3f ff 	cmp  %o0, -1
    e9cc:	02 80 00 42 	be  ead4 <__nis_create_callback+0x2f8>
    e9d0:	01 00 00 00 	nop 
    e9d4:	90 10 00 10 	mov  %l0, %o0
    e9d8:	40 00 4e d7 	call  22534 <get_myaddress@plt>
    e9dc:	e0 17 bf e2 	lduh  [ %fp + -30 ], %l0
    e9e0:	c2 07 bf e4 	ld  [ %fp + -28 ], %g1
    e9e4:	c2 27 bf dc 	st  %g1, [ %fp + -36 ]
    e9e8:	40 00 4e ee 	call  225a0 <inet_ntoa@plt>
    e9ec:	90 07 bf dc 	add  %fp, -36, %o0
    e9f0:	a1 2c 20 10 	sll  %l0, 0x10, %l0
    e9f4:	17 00 00 3f 	sethi  %hi(0xfc00), %o3
    e9f8:	a1 34 20 10 	srl  %l0, 0x10, %l0
    e9fc:	05 00 00 00 	sethi  %hi(0), %g2
    ea00:	96 12 e3 00 	or  %o3, 0x300, %o3
    ea04:	94 10 00 08 	mov  %o0, %o2
    ea08:	84 10 a3 20 	or  %g2, 0x320, %g2
    ea0c:	c2 04 40 00 	ld  [ %l1 ], %g1
    ea10:	96 0c 00 0b 	and  %l0, %o3, %o3
    ea14:	d0 00 60 08 	ld  [ %g1 + 8 ], %o0
    ea18:	d2 05 c0 02 	ld  [ %l7 + %g2 ], %o1
    ea1c:	97 32 e0 08 	srl  %o3, 8, %o3
    ea20:	40 00 4f 46 	call  22738 <asprintf@plt>
    ea24:	98 0c 20 ff 	and  %l0, 0xff, %o4
    ea28:	80 a2 20 00 	cmp  %o0, 0
    ea2c:	16 80 00 3b 	bge  eb18 <__nis_create_callback+0x33c>
    ea30:	b0 10 00 11 	mov  %l1, %i0
    ea34:	10 bf ff bd 	b  e928 <__nis_create_callback+0x14c>
    ea38:	d0 04 60 04 	ld  [ %l1 + 4 ], %o0
    ea3c:	15 00 00 08 	sethi  %hi(0x2000), %o2
    ea40:	40 00 4f 98 	call  228a0 <svctcp_create@plt>
    ea44:	90 10 3f ff 	mov  -1, %o0
    ea48:	10 bf ff b5 	b  e91c <__nis_create_callback+0x140>
    ea4c:	80 a2 20 00 	cmp  %o0, 0
    ea50:	40 00 4e e6 	call  225e8 <key_secretkey_is_set@plt>
    ea54:	01 00 00 00 	nop 
    ea58:	80 a2 20 00 	cmp  %o0, 0
    ea5c:	12 80 00 04 	bne  ea6c <__nis_create_callback+0x290>
    ea60:	c6 04 40 00 	ld  [ %l1 ], %g3
    ea64:	10 bf ff 96 	b  e8bc <__nis_create_callback+0xe0>
    ea68:	c0 20 e0 0c 	clr  [ %g3 + 0xc ]
    ea6c:	c0 20 e0 10 	clr  [ %g3 + 0x10 ]
    ea70:	c0 20 e0 14 	clr  [ %g3 + 0x14 ]
    ea74:	10 bf ff 94 	b  e8c4 <__nis_create_callback+0xe8>
    ea78:	c0 20 e0 0c 	clr  [ %g3 + 0xc ]
    ea7c:	c4 00 60 14 	ld  [ %g1 + 0x14 ], %g2
    ea80:	9f c0 80 00 	call  %g2
    ea84:	01 00 00 00 	nop 
    ea88:	10 bf ff ac 	b  e938 <__nis_create_callback+0x15c>
    ea8c:	03 00 00 00 	sethi  %hi(0), %g1
    ea90:	40 00 4f 1e 	call  22708 <xprt_unregister@plt>
    ea94:	d0 04 60 04 	ld  [ %l1 + 4 ], %o0
    ea98:	d0 04 60 04 	ld  [ %l1 + 4 ], %o0
    ea9c:	c2 02 20 08 	ld  [ %o0 + 8 ], %g1
    eaa0:	c4 00 60 14 	ld  [ %g1 + 0x14 ], %g2
    eaa4:	9f c0 80 00 	call  %g2
    eaa8:	01 00 00 00 	nop 
    eaac:	03 00 00 00 	sethi  %hi(0), %g1
    eab0:	82 10 63 64 	or  %g1, 0x364, %g1	! 364 <GLIBC_2.0+0x364>
    eab4:	d0 05 c0 01 	ld  [ %l7 + %g1 ], %o0
    eab8:	40 00 4e 8d 	call  224ec <xdr_free@plt>
    eabc:	d2 04 40 00 	ld  [ %l1 ], %o1
    eac0:	40 00 4f 48 	call  227e0 <free@plt>
    eac4:	90 10 00 11 	mov  %l1, %o0
    eac8:	03 00 00 00 	sethi  %hi(0), %g1
    eacc:	10 bf ff a6 	b  e964 <__nis_create_callback+0x188>
    ead0:	82 10 63 24 	or  %g1, 0x324, %g1	! 324 <GLIBC_2.0+0x324>
    ead4:	40 00 4f 0d 	call  22708 <xprt_unregister@plt>
    ead8:	d0 04 60 04 	ld  [ %l1 + 4 ], %o0
    eadc:	d0 04 60 04 	ld  [ %l1 + 4 ], %o0
    eae0:	c2 02 20 08 	ld  [ %o0 + 8 ], %g1
    eae4:	c4 00 60 14 	ld  [ %g1 + 0x14 ], %g2
    eae8:	9f c0 80 00 	call  %g2
    eaec:	01 00 00 00 	nop 
    eaf0:	03 00 00 00 	sethi  %hi(0), %g1
    eaf4:	82 10 63 64 	or  %g1, 0x364, %g1	! 364 <GLIBC_2.0+0x364>
    eaf8:	d0 05 c0 01 	ld  [ %l7 + %g1 ], %o0
    eafc:	40 00 4e 7c 	call  224ec <xdr_free@plt>
    eb00:	d2 04 40 00 	ld  [ %l1 ], %o1
    eb04:	40 00 4f 37 	call  227e0 <free@plt>
    eb08:	90 10 00 11 	mov  %l1, %o0
    eb0c:	03 00 00 00 	sethi  %hi(0), %g1
    eb10:	10 bf ff 95 	b  e964 <__nis_create_callback+0x188>
    eb14:	82 10 63 28 	or  %g1, 0x328, %g1	! 328 <GLIBC_2.0+0x328>
    eb18:	81 c7 e0 08 	ret 
    eb1c:	81 e8 00 00 	restore 

0000eb20 <__nis_destroy_callback>:
__nis_destroy_callback():
    eb20:	9d e3 bf 90 	save  %sp, -112, %sp
    eb24:	2f 00 00 4d 	sethi  %hi(0x13400), %l7
    eb28:	7f ff fd ea 	call  e2d0 <__nis_findfastest+0x4d0>
    eb2c:	ae 05 e0 d8 	add  %l7, 0xd8, %l7	! 134d8 <__FRAME_END__+0x24b0>
    eb30:	40 00 4e f6 	call  22708 <xprt_unregister@plt>
    eb34:	d0 06 20 04 	ld  [ %i0 + 4 ], %o0
    eb38:	d0 06 20 04 	ld  [ %i0 + 4 ], %o0
    eb3c:	c4 02 20 08 	ld  [ %o0 + 8 ], %g2
    eb40:	c2 00 a0 14 	ld  [ %g2 + 0x14 ], %g1
    eb44:	9f c0 40 00 	call  %g1
    eb48:	01 00 00 00 	nop 
    eb4c:	40 00 4e 65 	call  224e0 <close@plt>
    eb50:	d0 06 20 08 	ld  [ %i0 + 8 ], %o0
    eb54:	03 00 00 00 	sethi  %hi(0), %g1
    eb58:	82 10 63 64 	or  %g1, 0x364, %g1	! 364 <GLIBC_2.0+0x364>
    eb5c:	d0 05 c0 01 	ld  [ %l7 + %g1 ], %o0
    eb60:	40 00 4e 63 	call  224ec <xdr_free@plt>
    eb64:	d2 06 00 00 	ld  [ %i0 ], %o1
    eb68:	40 00 4f 1e 	call  227e0 <free@plt>
    eb6c:	90 10 00 18 	mov  %i0, %o0
    eb70:	81 c7 e0 08 	ret 
    eb74:	91 e8 20 00 	restore  %g0, 0, %o0
    eb78:	81 c3 e0 08 	retl 
    eb7c:	ae 03 c0 17 	add  %o7, %l7, %l7

0000eb80 <nis_clone_directory>:
nis_clone_directory():
    eb80:	9d e3 bf 78 	save  %sp, -136, %sp
    eb84:	2f 00 00 4d 	sethi  %hi(0x13400), %l7
    eb88:	7f ff ff fc 	call  eb78 <__nis_destroy_callback+0x58>
    eb8c:	ae 05 e0 78 	add  %l7, 0x78, %l7	! 13478 <__FRAME_END__+0x2450>
    eb90:	80 a6 20 00 	cmp  %i0, 0
    eb94:	02 80 00 5b 	be  ed00 <nis_clone_directory+0x180>
    eb98:	90 10 20 00 	clr  %o0
    eb9c:	03 00 00 01 	sethi  %hi(0x400), %g1
    eba0:	82 10 60 04 	or  %g1, 4, %g1	! 404 <GLIBC_2.0+0x404>
    eba4:	d0 05 c0 01 	ld  [ %l7 + %g1 ], %o0
    eba8:	40 00 4e 6c 	call  22558 <xdr_sizeof@plt>
    ebac:	92 10 00 18 	mov  %i0, %o1
    ebb0:	a0 10 00 08 	mov  %o0, %l0
    ebb4:	90 10 20 01 	mov  1, %o0
    ebb8:	40 00 4f 04 	call  227c8 <calloc@plt>
    ebbc:	92 10 00 10 	mov  %l0, %o1
    ebc0:	a2 92 20 00 	orcc  %o0, 0, %l1
    ebc4:	02 80 00 4f 	be  ed00 <nis_clone_directory+0x180>
    ebc8:	90 10 20 00 	clr  %o0
    ebcc:	a4 07 bf d8 	add  %fp, -40, %l2
    ebd0:	90 10 00 12 	mov  %l2, %o0
    ebd4:	92 10 00 11 	mov  %l1, %o1
    ebd8:	94 10 00 10 	mov  %l0, %o2
    ebdc:	40 00 4e c2 	call  226e4 <xdrmem_create@plt>
    ebe0:	96 10 20 00 	clr  %o3
    ebe4:	90 10 00 12 	mov  %l2, %o0
    ebe8:	7f ff ed d0 	call  a328 <_xdr_directory_obj>
    ebec:	92 10 00 18 	mov  %i0, %o1
    ebf0:	80 a2 20 00 	cmp  %o0, 0
    ebf4:	02 80 00 23 	be  ec80 <nis_clone_directory+0x100>
    ebf8:	c2 07 bf dc 	ld  [ %fp + -36 ], %g1
    ebfc:	c2 00 60 1c 	ld  [ %g1 + 0x1c ], %g1
    ec00:	80 a0 60 00 	cmp  %g1, 0
    ec04:	12 80 00 18 	bne  ec64 <nis_clone_directory+0xe4>
    ec08:	01 00 00 00 	nop 
    ec0c:	80 a6 60 00 	cmp  %i1, 0
    ec10:	02 80 00 2e 	be  ecc8 <nis_clone_directory+0x148>
    ec14:	b0 10 00 19 	mov  %i1, %i0
    ec18:	94 10 00 10 	mov  %l0, %o2
    ec1c:	90 10 00 12 	mov  %l2, %o0
    ec20:	92 10 00 11 	mov  %l1, %o1
    ec24:	40 00 4e b0 	call  226e4 <xdrmem_create@plt>
    ec28:	96 10 20 01 	mov  1, %o3
    ec2c:	90 10 00 12 	mov  %l2, %o0
    ec30:	7f ff ed be 	call  a328 <_xdr_directory_obj>
    ec34:	92 10 00 18 	mov  %i0, %o1
    ec38:	80 a2 20 00 	cmp  %o0, 0
    ec3c:	02 80 00 19 	be  eca0 <nis_clone_directory+0x120>
    ec40:	c2 07 bf dc 	ld  [ %fp + -36 ], %g1
    ec44:	c2 00 60 1c 	ld  [ %g1 + 0x1c ], %g1
    ec48:	80 a0 60 00 	cmp  %g1, 0
    ec4c:	12 80 00 0a 	bne  ec74 <nis_clone_directory+0xf4>
    ec50:	01 00 00 00 	nop 
    ec54:	40 00 4e e3 	call  227e0 <free@plt>
    ec58:	90 10 00 11 	mov  %l1, %o0
    ec5c:	10 80 00 29 	b  ed00 <nis_clone_directory+0x180>
    ec60:	90 10 00 18 	mov  %i0, %o0
    ec64:	9f c0 40 00 	call  %g1
    ec68:	90 10 00 12 	mov  %l2, %o0
    ec6c:	10 bf ff e9 	b  ec10 <nis_clone_directory+0x90>
    ec70:	80 a6 60 00 	cmp  %i1, 0
    ec74:	9f c0 40 00 	call  %g1
    ec78:	90 10 00 12 	mov  %l2, %o0
    ec7c:	30 bf ff f6 	b,a   ec54 <nis_clone_directory+0xd4>
    ec80:	c2 00 60 1c 	ld  [ %g1 + 0x1c ], %g1
    ec84:	80 a0 60 00 	cmp  %g1, 0
    ec88:	12 80 00 17 	bne  ece4 <nis_clone_directory+0x164>
    ec8c:	01 00 00 00 	nop 
    ec90:	40 00 4e d4 	call  227e0 <free@plt>
    ec94:	90 10 00 11 	mov  %l1, %o0
    ec98:	10 80 00 1a 	b  ed00 <nis_clone_directory+0x180>
    ec9c:	90 10 20 00 	clr  %o0
    eca0:	c2 00 60 1c 	ld  [ %g1 + 0x1c ], %g1
    eca4:	80 a0 60 00 	cmp  %g1, 0
    eca8:	12 80 00 12 	bne  ecf0 <nis_clone_directory+0x170>
    ecac:	01 00 00 00 	nop 
    ecb0:	80 a6 00 19 	cmp  %i0, %i1
    ecb4:	02 bf ff f7 	be  ec90 <nis_clone_directory+0x110>
    ecb8:	01 00 00 00 	nop 
    ecbc:	40 00 4e c9 	call  227e0 <free@plt>
    ecc0:	90 10 00 18 	mov  %i0, %o0
    ecc4:	30 bf ff f3 	b,a   ec90 <nis_clone_directory+0x110>
    ecc8:	90 10 20 01 	mov  1, %o0
    eccc:	40 00 4e bf 	call  227c8 <calloc@plt>
    ecd0:	92 10 20 1c 	mov  0x1c, %o1
    ecd4:	b0 92 20 00 	orcc  %o0, 0, %i0
    ecd8:	12 bf ff d1 	bne  ec1c <nis_clone_directory+0x9c>
    ecdc:	94 10 00 10 	mov  %l0, %o2
    ece0:	30 bf ff ec 	b,a   ec90 <nis_clone_directory+0x110>
    ece4:	9f c0 40 00 	call  %g1
    ece8:	90 10 00 12 	mov  %l2, %o0
    ecec:	30 bf ff e9 	b,a   ec90 <nis_clone_directory+0x110>
    ecf0:	9f c0 40 00 	call  %g1
    ecf4:	90 10 00 12 	mov  %l2, %o0
    ecf8:	10 bf ff ef 	b  ecb4 <nis_clone_directory+0x134>
    ecfc:	80 a6 00 19 	cmp  %i0, %i1
    ed00:	81 c7 e0 08 	ret 
    ed04:	91 e8 00 08 	restore  %g0, %o0, %o0
    ed08:	81 c3 e0 08 	retl 
    ed0c:	ae 03 c0 17 	add  %o7, %l7, %l7

0000ed10 <nis_clone_object>:
nis_clone_object():
    ed10:	9d e3 bf 78 	save  %sp, -136, %sp
    ed14:	2f 00 00 4c 	sethi  %hi(0x13000), %l7
    ed18:	7f ff ff fc 	call  ed08 <nis_clone_directory+0x188>
    ed1c:	ae 05 e2 e8 	add  %l7, 0x2e8, %l7	! 132e8 <__FRAME_END__+0x22c0>
    ed20:	a6 96 20 00 	orcc  %i0, 0, %l3
    ed24:	02 80 00 4b 	be  ee50 <nis_clone_object+0x140>
    ed28:	90 10 20 00 	clr  %o0
    ed2c:	03 00 00 00 	sethi  %hi(0), %g1
    ed30:	82 10 63 80 	or  %g1, 0x380, %g1	! 380 <GLIBC_2.0+0x380>
    ed34:	d0 05 c0 01 	ld  [ %l7 + %g1 ], %o0
    ed38:	40 00 4e 08 	call  22558 <xdr_sizeof@plt>
    ed3c:	92 10 00 13 	mov  %l3, %o1
    ed40:	a0 10 00 08 	mov  %o0, %l0
    ed44:	90 10 20 01 	mov  1, %o0
    ed48:	40 00 4e a0 	call  227c8 <calloc@plt>
    ed4c:	92 10 00 10 	mov  %l0, %o1
    ed50:	a2 92 20 00 	orcc  %o0, 0, %l1
    ed54:	02 80 00 3f 	be  ee50 <nis_clone_object+0x140>
    ed58:	90 10 20 00 	clr  %o0
    ed5c:	80 a6 60 00 	cmp  %i1, 0
    ed60:	02 80 00 35 	be  ee34 <nis_clone_object+0x124>
    ed64:	b0 10 00 19 	mov  %i1, %i0
    ed68:	a4 07 bf d8 	add  %fp, -40, %l2
    ed6c:	90 10 00 12 	mov  %l2, %o0
    ed70:	92 10 00 11 	mov  %l1, %o1
    ed74:	94 10 00 10 	mov  %l0, %o2
    ed78:	40 00 4e 5b 	call  226e4 <xdrmem_create@plt>
    ed7c:	96 10 20 00 	clr  %o3
    ed80:	90 10 00 12 	mov  %l2, %o0
    ed84:	7f ff ed c2 	call  a48c <_xdr_nis_object>
    ed88:	92 10 00 13 	mov  %l3, %o1
    ed8c:	80 a2 20 00 	cmp  %o0, 0
    ed90:	02 80 00 11 	be  edd4 <nis_clone_object+0xc4>
    ed94:	c2 07 bf dc 	ld  [ %fp + -36 ], %g1
    ed98:	c2 00 60 1c 	ld  [ %g1 + 0x1c ], %g1
    ed9c:	80 a0 60 00 	cmp  %g1, 0
    eda0:	12 80 00 1d 	bne  ee14 <nis_clone_object+0x104>
    eda4:	01 00 00 00 	nop 
    eda8:	94 10 00 10 	mov  %l0, %o2
    edac:	90 10 00 12 	mov  %l2, %o0
    edb0:	92 10 00 11 	mov  %l1, %o1
    edb4:	40 00 4e 4c 	call  226e4 <xdrmem_create@plt>
    edb8:	96 10 20 01 	mov  1, %o3
    edbc:	90 10 00 12 	mov  %l2, %o0
    edc0:	7f ff ed b3 	call  a48c <_xdr_nis_object>
    edc4:	92 10 00 18 	mov  %i0, %o1
    edc8:	80 a2 20 00 	cmp  %o0, 0
    edcc:	12 80 00 07 	bne  ede8 <nis_clone_object+0xd8>
    edd0:	c2 07 bf dc 	ld  [ %fp + -36 ], %g1
    edd4:	80 a6 60 00 	cmp  %i1, 0
    edd8:	02 80 00 13 	be  ee24 <nis_clone_object+0x114>
    eddc:	01 00 00 00 	nop 
    ede0:	b0 10 20 00 	clr  %i0	! 0 <GLIBC_2.0>
    ede4:	c2 07 bf dc 	ld  [ %fp + -36 ], %g1
    ede8:	c2 00 60 1c 	ld  [ %g1 + 0x1c ], %g1
    edec:	80 a0 60 00 	cmp  %g1, 0
    edf0:	12 80 00 06 	bne  ee08 <nis_clone_object+0xf8>
    edf4:	01 00 00 00 	nop 
    edf8:	40 00 4e 7a 	call  227e0 <free@plt>
    edfc:	90 10 00 11 	mov  %l1, %o0
    ee00:	10 80 00 14 	b  ee50 <nis_clone_object+0x140>
    ee04:	90 10 00 18 	mov  %i0, %o0
    ee08:	9f c0 40 00 	call  %g1
    ee0c:	90 10 00 12 	mov  %l2, %o0
    ee10:	30 bf ff fa 	b,a   edf8 <nis_clone_object+0xe8>
    ee14:	9f c0 40 00 	call  %g1
    ee18:	90 10 00 12 	mov  %l2, %o0
    ee1c:	10 bf ff e4 	b  edac <nis_clone_object+0x9c>
    ee20:	94 10 00 10 	mov  %l0, %o2
    ee24:	40 00 4e 6f 	call  227e0 <free@plt>
    ee28:	90 10 00 18 	mov  %i0, %o0
    ee2c:	10 bf ff ee 	b  ede4 <nis_clone_object+0xd4>
    ee30:	b0 10 20 00 	clr  %i0
    ee34:	90 10 20 01 	mov  1, %o0
    ee38:	40 00 4e 64 	call  227c8 <calloc@plt>
    ee3c:	92 10 20 40 	mov  0x40, %o1
    ee40:	b0 92 20 00 	orcc  %o0, 0, %i0
    ee44:	32 bf ff ca 	bne,a   ed6c <nis_clone_object+0x5c>
    ee48:	a4 07 bf d8 	add  %fp, -40, %l2
    ee4c:	30 bf ff eb 	b,a   edf8 <nis_clone_object+0xe8>
    ee50:	81 c7 e0 08 	ret 
    ee54:	91 e8 00 08 	restore  %g0, %o0, %o0
    ee58:	81 c3 e0 08 	retl 
    ee5c:	ae 03 c0 17 	add  %o7, %l7, %l7

0000ee60 <nis_clone_result>:
nis_clone_result():
    ee60:	9d e3 bf 78 	save  %sp, -136, %sp
    ee64:	2f 00 00 4c 	sethi  %hi(0x13000), %l7
    ee68:	7f ff ff fc 	call  ee58 <nis_clone_object+0x148>
    ee6c:	ae 05 e1 98 	add  %l7, 0x198, %l7	! 13198 <__FRAME_END__+0x2170>
    ee70:	80 a6 20 00 	cmp  %i0, 0
    ee74:	02 80 00 5b 	be  efe0 <nis_clone_result+0x180>
    ee78:	90 10 20 00 	clr  %o0
    ee7c:	03 00 00 00 	sethi  %hi(0), %g1
    ee80:	82 10 63 60 	or  %g1, 0x360, %g1	! 360 <GLIBC_2.0+0x360>
    ee84:	d0 05 c0 01 	ld  [ %l7 + %g1 ], %o0
    ee88:	40 00 4d b4 	call  22558 <xdr_sizeof@plt>
    ee8c:	92 10 00 18 	mov  %i0, %o1
    ee90:	a0 10 00 08 	mov  %o0, %l0
    ee94:	90 10 20 01 	mov  1, %o0
    ee98:	40 00 4e 4c 	call  227c8 <calloc@plt>
    ee9c:	92 10 00 10 	mov  %l0, %o1
    eea0:	a2 92 20 00 	orcc  %o0, 0, %l1
    eea4:	02 80 00 4f 	be  efe0 <nis_clone_result+0x180>
    eea8:	90 10 20 00 	clr  %o0
    eeac:	a4 07 bf d8 	add  %fp, -40, %l2
    eeb0:	90 10 00 12 	mov  %l2, %o0
    eeb4:	92 10 00 11 	mov  %l1, %o1
    eeb8:	94 10 00 10 	mov  %l0, %o2
    eebc:	40 00 4e 0a 	call  226e4 <xdrmem_create@plt>
    eec0:	96 10 20 00 	clr  %o3
    eec4:	90 10 00 12 	mov  %l2, %o0
    eec8:	7f ff ee 1a 	call  a730 <_xdr_nis_result>
    eecc:	92 10 00 18 	mov  %i0, %o1
    eed0:	80 a2 20 00 	cmp  %o0, 0
    eed4:	02 80 00 23 	be  ef60 <nis_clone_result+0x100>
    eed8:	c2 07 bf dc 	ld  [ %fp + -36 ], %g1
    eedc:	c2 00 60 1c 	ld  [ %g1 + 0x1c ], %g1
    eee0:	80 a0 60 00 	cmp  %g1, 0
    eee4:	12 80 00 18 	bne  ef44 <nis_clone_result+0xe4>
    eee8:	01 00 00 00 	nop 
    eeec:	80 a6 60 00 	cmp  %i1, 0
    eef0:	02 80 00 2e 	be  efa8 <nis_clone_result+0x148>
    eef4:	b0 10 00 19 	mov  %i1, %i0
    eef8:	94 10 00 10 	mov  %l0, %o2
    eefc:	90 10 00 12 	mov  %l2, %o0
    ef00:	92 10 00 11 	mov  %l1, %o1
    ef04:	40 00 4d f8 	call  226e4 <xdrmem_create@plt>
    ef08:	96 10 20 01 	mov  1, %o3
    ef0c:	90 10 00 12 	mov  %l2, %o0
    ef10:	7f ff ee 08 	call  a730 <_xdr_nis_result>
    ef14:	92 10 00 18 	mov  %i0, %o1
    ef18:	80 a2 20 00 	cmp  %o0, 0
    ef1c:	02 80 00 19 	be  ef80 <nis_clone_result+0x120>
    ef20:	c2 07 bf dc 	ld  [ %fp + -36 ], %g1
    ef24:	c2 00 60 1c 	ld  [ %g1 + 0x1c ], %g1
    ef28:	80 a0 60 00 	cmp  %g1, 0
    ef2c:	12 80 00 0a 	bne  ef54 <nis_clone_result+0xf4>
    ef30:	01 00 00 00 	nop 
    ef34:	40 00 4e 2b 	call  227e0 <free@plt>
    ef38:	90 10 00 11 	mov  %l1, %o0
    ef3c:	10 80 00 29 	b  efe0 <nis_clone_result+0x180>
    ef40:	90 10 00 18 	mov  %i0, %o0
    ef44:	9f c0 40 00 	call  %g1
    ef48:	90 10 00 12 	mov  %l2, %o0
    ef4c:	10 bf ff e9 	b  eef0 <nis_clone_result+0x90>
    ef50:	80 a6 60 00 	cmp  %i1, 0
    ef54:	9f c0 40 00 	call  %g1
    ef58:	90 10 00 12 	mov  %l2, %o0
    ef5c:	30 bf ff f6 	b,a   ef34 <nis_clone_result+0xd4>
    ef60:	c2 00 60 1c 	ld  [ %g1 + 0x1c ], %g1
    ef64:	80 a0 60 00 	cmp  %g1, 0
    ef68:	12 80 00 17 	bne  efc4 <nis_clone_result+0x164>
    ef6c:	01 00 00 00 	nop 
    ef70:	40 00 4e 1c 	call  227e0 <free@plt>
    ef74:	90 10 00 11 	mov  %l1, %o0
    ef78:	10 80 00 1a 	b  efe0 <nis_clone_result+0x180>
    ef7c:	90 10 20 00 	clr  %o0
    ef80:	c2 00 60 1c 	ld  [ %g1 + 0x1c ], %g1
    ef84:	80 a0 60 00 	cmp  %g1, 0
    ef88:	12 80 00 12 	bne  efd0 <nis_clone_result+0x170>
    ef8c:	01 00 00 00 	nop 
    ef90:	80 a6 00 19 	cmp  %i0, %i1
    ef94:	02 bf ff f7 	be  ef70 <nis_clone_result+0x110>
    ef98:	01 00 00 00 	nop 
    ef9c:	40 00 4e 11 	call  227e0 <free@plt>
    efa0:	90 10 00 18 	mov  %i0, %o0
    efa4:	30 bf ff f3 	b,a   ef70 <nis_clone_result+0x110>
    efa8:	90 10 20 01 	mov  1, %o0
    efac:	40 00 4e 07 	call  227c8 <calloc@plt>
    efb0:	92 10 20 24 	mov  0x24, %o1
    efb4:	b0 92 20 00 	orcc  %o0, 0, %i0
    efb8:	12 bf ff d1 	bne  eefc <nis_clone_result+0x9c>
    efbc:	94 10 00 10 	mov  %l0, %o2
    efc0:	30 bf ff ec 	b,a   ef70 <nis_clone_result+0x110>
    efc4:	9f c0 40 00 	call  %g1
    efc8:	90 10 00 12 	mov  %l2, %o0
    efcc:	30 bf ff e9 	b,a   ef70 <nis_clone_result+0x110>
    efd0:	9f c0 40 00 	call  %g1
    efd4:	90 10 00 12 	mov  %l2, %o0
    efd8:	10 bf ff ef 	b  ef94 <nis_clone_result+0x134>
    efdc:	80 a6 00 19 	cmp  %i0, %i1
    efe0:	81 c7 e0 08 	ret 
    efe4:	91 e8 00 08 	restore  %g0, %o0, %o0
    efe8:	81 c3 e0 08 	retl 
    efec:	ae 03 c0 17 	add  %o7, %l7, %l7

0000eff0 <init>:
init():
    eff0:	9d e3 bf 88 	save  %sp, -120, %sp
    eff4:	03 00 00 00 	sethi  %hi(0), %g1
    eff8:	05 00 00 00 	sethi  %hi(0), %g2
    effc:	2f 00 00 4c 	sethi  %hi(0x13000), %l7
    f000:	7f ff ff fa 	call  efe8 <nis_clone_result+0x188>
    f004:	ae 05 e0 00 	add  %l7, 0, %l7	! 13000 <__FRAME_END__+0x1fd8>
    f008:	82 10 63 30 	or  %g1, 0x330, %g1
    f00c:	84 10 a3 40 	or  %g2, 0x340, %g2
    f010:	d0 05 c0 01 	ld  [ %l7 + %g1 ], %o0
    f014:	40 00 4e 08 	call  22834 <fopen@plt>
    f018:	d2 05 c0 02 	ld  [ %l7 + %g2 ], %o1
    f01c:	a6 92 20 00 	orcc  %o0, 0, %l3
    f020:	02 80 00 72 	be  f1e8 <init+0x1f8>
    f024:	01 00 00 00 	nop 
    f028:	c0 27 bf ec 	clr  [ %fp + -20 ]
    f02c:	c0 27 bf e8 	clr  [ %fp + -24 ]
    f030:	40 00 4d e9 	call  227d4 <__fsetlocking@plt>
    f034:	92 10 20 02 	mov  2, %o1
    f038:	c2 04 c0 00 	ld  [ %l3 ], %g1
    f03c:	80 88 60 10 	btst  0x10, %g1
    f040:	12 80 00 66 	bne  f1d8 <init+0x1e8>
    f044:	03 00 00 00 	sethi  %hi(0), %g1
    f048:	05 00 00 00 	sethi  %hi(0), %g2
    f04c:	82 10 63 38 	or  %g1, 0x338, %g1
    f050:	84 10 a3 2c 	or  %g2, 0x32c, %g2
    f054:	3b 00 00 00 	sethi  %hi(0), %i5
    f058:	f6 05 c0 01 	ld  [ %l7 + %g1 ], %i3
    f05c:	f8 05 c0 02 	ld  [ %l7 + %g2 ], %i4
    f060:	ba 17 63 44 	or  %i5, 0x344, %i5
    f064:	ac 07 bf ec 	add  %fp, -20, %l6
    f068:	aa 07 bf e8 	add  %fp, -24, %l5
    f06c:	90 10 00 16 	mov  %l6, %o0
    f070:	92 10 00 15 	mov  %l5, %o1
    f074:	94 10 20 0a 	mov  0xa, %o2
    f078:	40 00 4d 14 	call  224c8 <__getdelim@plt>
    f07c:	96 10 00 13 	mov  %l3, %o3
    f080:	80 a2 20 00 	cmp  %o0, 0
    f084:	04 80 00 55 	ble  f1d8 <init+0x1e8>
    f088:	01 00 00 00 	nop 
    f08c:	40 00 4d fc 	call  2287c <__ctype_b_loc@plt>
    f090:	e0 07 bf ec 	ld  [ %fp + -20 ], %l0
    f094:	d0 02 00 00 	ld  [ %o0 ], %o0
    f098:	c6 4c 00 00 	ldsb  [ %l0 ], %g3
    f09c:	82 00 c0 03 	add  %g3, %g3, %g1
    f0a0:	c4 12 00 01 	lduh  [ %o0 + %g1 ], %g2
    f0a4:	80 88 a0 20 	btst  0x20, %g2
    f0a8:	32 bf ff fc 	bne,a   f098 <init+0xa8>
    f0ac:	a0 04 20 01 	inc  %l0
    f0b0:	80 a0 e0 23 	cmp  %g3, 0x23
    f0b4:	02 80 00 45 	be  f1c8 <init+0x1d8>
    f0b8:	a8 10 00 1c 	mov  %i4, %l4
    f0bc:	a4 10 20 00 	clr  %l2
    f0c0:	a2 10 00 1c 	mov  %i4, %l1
    f0c4:	92 10 00 11 	mov  %l1, %o1
    f0c8:	d4 04 60 18 	ld  [ %l1 + 0x18 ], %o2
    f0cc:	40 00 4d 77 	call  226a8 <strncmp@plt>
    f0d0:	90 10 00 10 	mov  %l0, %o0
    f0d4:	80 a2 20 00 	cmp  %o0, 0
    f0d8:	02 80 00 06 	be  f0f0 <init+0x100>
    f0dc:	a2 04 60 20 	add  %l1, 0x20, %l1
    f0e0:	a4 04 a0 01 	inc  %l2
    f0e4:	80 a4 a0 02 	cmp  %l2, 2
    f0e8:	08 bf ff f8 	bleu  f0c8 <init+0xd8>
    f0ec:	92 10 00 11 	mov  %l1, %o1
    f0f0:	80 a4 a0 03 	cmp  %l2, 3
    f0f4:	22 80 00 36 	be,a   f1cc <init+0x1dc>
    f0f8:	c2 04 c0 00 	ld  [ %l3 ], %g1
    f0fc:	a3 2c a0 05 	sll  %l2, 5, %l1
    f100:	82 04 40 14 	add  %l1, %l4, %g1
    f104:	c4 00 60 18 	ld  [ %g1 + 0x18 ], %g2
    f108:	40 00 4d dd 	call  2287c <__ctype_b_loc@plt>
    f10c:	a0 04 00 02 	add  %l0, %g2, %l0
    f110:	d0 02 00 00 	ld  [ %o0 ], %o0
    f114:	c6 4c 00 00 	ldsb  [ %l0 ], %g3
    f118:	82 00 c0 03 	add  %g3, %g3, %g1
    f11c:	c4 12 00 01 	lduh  [ %o0 + %g1 ], %g2
    f120:	80 88 a0 20 	btst  0x20, %g2
    f124:	12 bf ff fc 	bne  f114 <init+0x124>
    f128:	a0 04 20 01 	inc  %l0
    f12c:	80 a0 e0 3d 	cmp  %g3, 0x3d
    f130:	32 80 00 27 	bne,a   f1cc <init+0x1dc>
    f134:	c2 04 c0 00 	ld  [ %l3 ], %g1
    f138:	40 00 4d d1 	call  2287c <__ctype_b_loc@plt>
    f13c:	01 00 00 00 	nop 
    f140:	d0 02 00 00 	ld  [ %o0 ], %o0
    f144:	c2 4c 00 00 	ldsb  [ %l0 ], %g1
    f148:	82 00 40 01 	add  %g1, %g1, %g1
    f14c:	c4 12 00 01 	lduh  [ %o0 + %g1 ], %g2
    f150:	80 88 a0 20 	btst  0x20, %g2
    f154:	32 bf ff fc 	bne,a   f144 <init+0x154>
    f158:	a0 04 20 01 	inc  %l0
    f15c:	90 10 00 10 	mov  %l0, %o0
    f160:	d2 05 c0 1d 	ld  [ %l7 + %i5 ], %o1
    f164:	40 00 4d 51 	call  226a8 <strncmp@plt>
    f168:	94 10 20 04 	mov  4, %o2
    f16c:	80 a2 20 00 	cmp  %o0, 0
    f170:	32 80 00 17 	bne,a   f1cc <init+0x1dc>
    f174:	c2 04 c0 00 	ld  [ %l3 ], %g1
    f178:	40 00 4d c1 	call  2287c <__ctype_b_loc@plt>
    f17c:	a0 04 20 04 	add  %l0, 4, %l0
    f180:	d0 02 00 00 	ld  [ %o0 ], %o0
    f184:	c6 4c 00 00 	ldsb  [ %l0 ], %g3
    f188:	82 00 c0 03 	add  %g3, %g3, %g1
    f18c:	c4 12 00 01 	lduh  [ %o0 + %g1 ], %g2
    f190:	80 88 a0 20 	btst  0x20, %g2
    f194:	32 bf ff fc 	bne,a   f184 <init+0x194>
    f198:	a0 04 20 01 	inc  %l0
    f19c:	80 a0 e0 00 	cmp  %g3, 0
    f1a0:	32 80 00 0b 	bne,a   f1cc <init+0x1dc>
    f1a4:	c2 04 c0 00 	ld  [ %l3 ], %g1
    f1a8:	03 00 00 00 	sethi  %hi(0), %g1
    f1ac:	82 10 63 2c 	or  %g1, 0x32c, %g1	! 32c <GLIBC_2.0+0x32c>
    f1b0:	c4 05 c0 01 	ld  [ %l7 + %g1 ], %g2
    f1b4:	84 04 40 02 	add  %l1, %g2, %g2
    f1b8:	c6 06 c0 00 	ld  [ %i3 ], %g3
    f1bc:	c2 00 a0 1c 	ld  [ %g2 + 0x1c ], %g1
    f1c0:	82 10 40 03 	or  %g1, %g3, %g1
    f1c4:	c2 26 c0 00 	st  %g1, [ %i3 ]
    f1c8:	c2 04 c0 00 	ld  [ %l3 ], %g1
    f1cc:	80 88 60 10 	btst  0x10, %g1
    f1d0:	02 bf ff a8 	be  f070 <init+0x80>
    f1d4:	90 10 00 16 	mov  %l6, %o0
    f1d8:	40 00 4d 82 	call  227e0 <free@plt>
    f1dc:	d0 07 bf ec 	ld  [ %fp + -20 ], %o0
    f1e0:	40 00 4d 5f 	call  2275c <fclose@plt>
    f1e4:	90 10 00 13 	mov  %l3, %o0
    f1e8:	01 00 00 00 	nop 
    f1ec:	81 c7 e0 08 	ret 
    f1f0:	81 e8 00 00 	restore 

0000f1f4 <_nsl_default_nss>:
_nsl_default_nss():
    f1f4:	9d e3 bf 90 	save  %sp, -112, %sp
    f1f8:	05 00 00 00 	sethi  %hi(0), %g2
    f1fc:	2f 00 00 4b 	sethi  %hi(0x12c00), %l7
    f200:	7f ff ff 7a 	call  efe8 <nis_clone_result+0x188>
    f204:	ae 05 e2 00 	add  %l7, 0x200, %l7	! 12e00 <__FRAME_END__+0x1dd8>
    f208:	84 10 a3 5c 	or  %g2, 0x35c, %g2
    f20c:	07 00 00 00 	sethi  %hi(0), %g3
    f210:	09 00 00 00 	sethi  %hi(0), %g4
    f214:	c2 05 c0 02 	ld  [ %l7 + %g2 ], %g1
    f218:	86 10 e3 3c 	or  %g3, 0x33c, %g3
    f21c:	80 a0 60 00 	cmp  %g1, 0
    f220:	02 80 00 07 	be  f23c <_nsl_default_nss+0x48>
    f224:	88 11 23 34 	or  %g4, 0x334, %g4
    f228:	d0 05 c0 03 	ld  [ %l7 + %g3 ], %o0
    f22c:	40 00 4c 8c 	call  2245c <__pthread_once@plt>
    f230:	d2 05 c0 04 	ld  [ %l7 + %g4 ], %o1
    f234:	10 80 00 0f 	b  f270 <_nsl_default_nss+0x7c>
    f238:	03 00 00 00 	sethi  %hi(0), %g1
    f23c:	03 00 00 00 	sethi  %hi(0), %g1
    f240:	82 10 63 3c 	or  %g1, 0x33c, %g1	! 33c <GLIBC_2.0+0x33c>
    f244:	f0 05 c0 01 	ld  [ %l7 + %g1 ], %i0
    f248:	c4 06 00 00 	ld  [ %i0 ], %g2
    f24c:	80 a0 a0 00 	cmp  %g2, 0
    f250:	12 80 00 08 	bne  f270 <_nsl_default_nss+0x7c>
    f254:	03 00 00 00 	sethi  %hi(0), %g1
    f258:	7f ff ff 66 	call  eff0 <init>
    f25c:	01 00 00 00 	nop 
    f260:	c2 06 00 00 	ld  [ %i0 ], %g1
    f264:	82 10 60 02 	or  %g1, 2, %g1
    f268:	c2 26 00 00 	st  %g1, [ %i0 ]
    f26c:	03 00 00 00 	sethi  %hi(0), %g1
    f270:	82 10 63 38 	or  %g1, 0x338, %g1	! 338 <GLIBC_2.0+0x338>
    f274:	c4 05 c0 01 	ld  [ %l7 + %g1 ], %g2
    f278:	f0 00 80 00 	ld  [ %g2 ], %i0
    f27c:	81 c7 e0 08 	ret 
    f280:	81 e8 00 00 	restore 
    f284:	81 c3 e0 08 	retl 
    f288:	ae 03 c0 17 	add  %o7, %l7, %l7

0000f28c <__do_global_ctors_aux>:
__do_global_ctors_aux():
    f28c:	9d e3 bf 98 	save  %sp, -104, %sp
    f290:	03 00 00 00 	sethi  %hi(0), %g1
    f294:	2f 00 00 4b 	sethi  %hi(0x12c00), %l7
    f298:	7f ff ff fb 	call  f284 <_nsl_default_nss+0x90>
    f29c:	ae 05 e1 68 	add  %l7, 0x168, %l7	! 12d68 <__FRAME_END__+0x1d40>
    f2a0:	82 10 63 48 	or  %g1, 0x348, %g1
    f2a4:	c4 05 c0 01 	ld  [ %l7 + %g1 ], %g2
    f2a8:	c2 00 bf fc 	ld  [ %g2 + -4 ], %g1
    f2ac:	80 a0 7f ff 	cmp  %g1, -1
    f2b0:	02 80 00 08 	be  f2d0 <__do_global_ctors_aux+0x44>
    f2b4:	a0 00 bf fc 	add  %g2, -4, %l0
    f2b8:	9f c0 40 00 	call  %g1
    f2bc:	a0 04 3f fc 	add  %l0, -4, %l0
    f2c0:	c2 04 00 00 	ld  [ %l0 ], %g1
    f2c4:	80 a0 7f ff 	cmp  %g1, -1
    f2c8:	12 bf ff fc 	bne  f2b8 <__do_global_ctors_aux+0x2c>
    f2cc:	01 00 00 00 	nop 
    f2d0:	81 c7 e0 08 	ret 
    f2d4:	81 e8 00 00 	restore 

0000f2d8 <call___do_global_ctors_aux>:
call___do_global_ctors_aux():
    f2d8:	9d e3 bf 98 	save  %sp, -104, %sp
    f2dc:	81 c7 e0 08 	ret 
    f2e0:	81 e8 00 00 	restore 
セクション .fini の逆アセンブル:

0000f2e4 <_fini>:
_fini():
    f2e4:	9d e3 bf a0 	save  %sp, -96, %sp
    f2e8:	7f ff d2 79 	call  3ccc <__do_global_dtors_aux>
    f2ec:	01 00 00 00 	nop 
    f2f0:	81 c7 e0 08 	ret 
    f2f4:	81 e8 00 00 	restore 
セクション .plt の逆アセンブル:

00022408 <authdes_create@plt-0x30>:
	...

00022438 <authdes_create@plt>:
   22438:	03 00 00 30 	sethi  %hi(0xc000), %g1
   2243c:	30 bf ff f3 	b,a   22408 <_PROCEDURE_LINKAGE_TABLE_>
   22440:	01 00 00 00 	nop 

00022444 <pread@plt>:
   22444:	03 00 00 3c 	sethi  %hi(0xf000), %g1
   22448:	30 bf ff f0 	b,a   22408 <_PROCEDURE_LINKAGE_TABLE_>
   2244c:	01 00 00 00 	nop 

00022450 <clnttcp_create@plt>:
   22450:	03 00 00 48 	sethi  %hi(0x12000), %g1
   22454:	30 bf ff ed 	b,a   22408 <_PROCEDURE_LINKAGE_TABLE_>
   22458:	01 00 00 00 	nop 

0002245c <__pthread_once@plt>:
   2245c:	03 00 00 54 	sethi  %hi(0x15000), %g1
   22460:	30 bf ff ea 	b,a   22408 <_PROCEDURE_LINKAGE_TABLE_>
   22464:	01 00 00 00 	nop 

00022468 <strchr@plt>:
   22468:	03 00 00 60 	sethi  %hi(0x18000), %g1
   2246c:	30 bf ff e7 	b,a   22408 <_PROCEDURE_LINKAGE_TABLE_>
   22470:	01 00 00 00 	nop 

00022474 <svc_register@plt>:
   22474:	03 00 00 6c 	sethi  %hi(0x1b000), %g1
   22478:	30 bf ff e4 	b,a   22408 <_PROCEDURE_LINKAGE_TABLE_>
   2247c:	01 00 00 00 	nop 

00022480 <xdr_opaque@plt>:
   22480:	03 00 00 78 	sethi  %hi(0x1e000), %g1
   22484:	30 bf ff e1 	b,a   22408 <_PROCEDURE_LINKAGE_TABLE_>
   22488:	01 00 00 00 	nop 

0002248c <mempcpy@plt>:
   2248c:	03 00 00 84 	sethi  %hi(0x21000), %g1
   22490:	30 bf ff de 	b,a   22408 <_PROCEDURE_LINKAGE_TABLE_>
   22494:	01 00 00 00 	nop 

00022498 <getpid@plt>:
   22498:	03 00 00 90 	sethi  %hi(0x24000), %g1
   2249c:	30 bf ff db 	b,a   22408 <_PROCEDURE_LINKAGE_TABLE_>
   224a0:	01 00 00 00 	nop 

000224a4 <__rpc_thread_svc_pollfd@plt>:
   224a4:	03 00 00 9c 	sethi  %hi(0x27000), %g1
   224a8:	30 bf ff d8 	b,a   22408 <_PROCEDURE_LINKAGE_TABLE_>
   224ac:	01 00 00 00 	nop 

000224b0 <svcerr_decode@plt>:
   224b0:	03 00 00 a8 	sethi  %hi(0x2a000), %g1
   224b4:	30 bf ff d5 	b,a   22408 <_PROCEDURE_LINKAGE_TABLE_>
   224b8:	01 00 00 00 	nop 

000224bc <clnt_create@plt>:
   224bc:	03 00 00 b4 	sethi  %hi(0x2d000), %g1
   224c0:	30 bf ff d2 	b,a   22408 <_PROCEDURE_LINKAGE_TABLE_>
   224c4:	01 00 00 00 	nop 

000224c8 <__getdelim@plt>:
   224c8:	03 00 00 c0 	sethi  %hi(0x30000), %g1
   224cc:	30 bf ff cf 	b,a   22408 <_PROCEDURE_LINKAGE_TABLE_>
   224d0:	01 00 00 00 	nop 

000224d4 <strcmp@plt>:
   224d4:	03 00 00 cc 	sethi  %hi(0x33000), %g1
   224d8:	30 bf ff cc 	b,a   22408 <_PROCEDURE_LINKAGE_TABLE_>
   224dc:	01 00 00 00 	nop 

000224e0 <close@plt>:
   224e0:	03 00 00 d8 	sethi  %hi(0x36000), %g1
   224e4:	30 bf ff c9 	b,a   22408 <_PROCEDURE_LINKAGE_TABLE_>
   224e8:	01 00 00 00 	nop 

000224ec <xdr_free@plt>:
   224ec:	03 00 00 e4 	sethi  %hi(0x39000), %g1
   224f0:	30 bf ff c6 	b,a   22408 <_PROCEDURE_LINKAGE_TABLE_>
   224f4:	01 00 00 00 	nop 

000224f8 <perror@plt>:
   224f8:	03 00 00 f0 	sethi  %hi(0x3c000), %g1
   224fc:	30 bf ff c3 	b,a   22408 <_PROCEDURE_LINKAGE_TABLE_>
   22500:	01 00 00 00 	nop 

00022504 <getenv@plt>:
   22504:	03 00 00 fc 	sethi  %hi(0x3f000), %g1
   22508:	30 bf ff c0 	b,a   22408 <_PROCEDURE_LINKAGE_TABLE_>
   2250c:	01 00 00 00 	nop 

00022510 <svcerr_noproc@plt>:
   22510:	03 00 01 08 	sethi  %hi(0x42000), %g1
   22514:	30 bf ff bd 	b,a   22408 <_PROCEDURE_LINKAGE_TABLE_>
   22518:	01 00 00 00 	nop 

0002251c <dcgettext@plt>:
   2251c:	03 00 01 14 	sethi  %hi(0x45000), %g1
   22520:	30 bf ff ba 	b,a   22408 <_PROCEDURE_LINKAGE_TABLE_>
   22524:	01 00 00 00 	nop 

00022528 <rawmemchr@plt>:
   22528:	03 00 01 20 	sethi  %hi(0x48000), %g1
   2252c:	30 bf ff b7 	b,a   22408 <_PROCEDURE_LINKAGE_TABLE_>
   22530:	01 00 00 00 	nop 

00022534 <get_myaddress@plt>:
   22534:	03 00 01 2c 	sethi  %hi(0x4b000), %g1
   22538:	30 bf ff b4 	b,a   22408 <_PROCEDURE_LINKAGE_TABLE_>
   2253c:	01 00 00 00 	nop 

00022540 <svcudp_bufcreate@plt>:
   22540:	03 00 01 38 	sethi  %hi(0x4e000), %g1
   22544:	30 bf ff b1 	b,a   22408 <_PROCEDURE_LINKAGE_TABLE_>
   22548:	01 00 00 00 	nop 

0002254c <__assert_fail@plt>:
   2254c:	03 00 01 44 	sethi  %hi(0x51000), %g1
   22550:	30 bf ff ae 	b,a   22408 <_PROCEDURE_LINKAGE_TABLE_>
   22554:	01 00 00 00 	nop 

00022558 <xdr_sizeof@plt>:
   22558:	03 00 01 50 	sethi  %hi(0x54000), %g1
   2255c:	30 bf ff ab 	b,a   22408 <_PROCEDURE_LINKAGE_TABLE_>
   22560:	01 00 00 00 	nop 

00022564 <syslog@plt>:
   22564:	03 00 01 5c 	sethi  %hi(0x57000), %g1
   22568:	30 bf ff a8 	b,a   22408 <_PROCEDURE_LINKAGE_TABLE_>
   2256c:	01 00 00 00 	nop 

00022570 <svcerr_systemerr@plt>:
   22570:	03 00 01 68 	sethi  %hi(0x5a000), %g1
   22574:	30 bf ff a5 	b,a   22408 <_PROCEDURE_LINKAGE_TABLE_>
   22578:	01 00 00 00 	nop 

0002257c <__errno_location@plt>:
   2257c:	03 00 01 74 	sethi  %hi(0x5d000), %g1
   22580:	30 bf ff a2 	b,a   22408 <_PROCEDURE_LINKAGE_TABLE_>
   22584:	01 00 00 00 	nop 

00022588 <xdr_u_int@plt>:
   22588:	03 00 01 80 	sethi  %hi(0x60000), %g1
   2258c:	30 bf ff 9f 	b,a   22408 <_PROCEDURE_LINKAGE_TABLE_>
   22590:	01 00 00 00 	nop 

00022594 <__poll@plt>:
   22594:	03 00 01 8c 	sethi  %hi(0x63000), %g1
   22598:	30 bf ff 9c 	b,a   22408 <_PROCEDURE_LINKAGE_TABLE_>
   2259c:	01 00 00 00 	nop 

000225a0 <inet_ntoa@plt>:
   225a0:	03 00 01 98 	sethi  %hi(0x66000), %g1
   225a4:	30 bf ff 99 	b,a   22408 <_PROCEDURE_LINKAGE_TABLE_>
   225a8:	01 00 00 00 	nop 

000225ac <puts@plt>:
   225ac:	03 00 01 a4 	sethi  %hi(0x69000), %g1
   225b0:	30 bf ff 96 	b,a   22408 <_PROCEDURE_LINKAGE_TABLE_>
   225b4:	01 00 00 00 	nop 

000225b8 <clnt_pcreateerror@plt>:
   225b8:	03 00 01 b0 	sethi  %hi(0x6c000), %g1
   225bc:	30 bf ff 93 	b,a   22408 <_PROCEDURE_LINKAGE_TABLE_>
   225c0:	01 00 00 00 	nop 

000225c4 <snprintf@plt>:
   225c4:	03 00 01 bc 	sethi  %hi(0x6f000), %g1
   225c8:	30 bf ff 90 	b,a   22408 <_PROCEDURE_LINKAGE_TABLE_>
   225cc:	01 00 00 00 	nop 

000225d0 <malloc@plt>:
   225d0:	03 00 01 c8 	sethi  %hi(0x72000), %g1
   225d4:	30 bf ff 8d 	b,a   22408 <_PROCEDURE_LINKAGE_TABLE_>
   225d8:	01 00 00 00 	nop 

000225dc <clntudp_bufcreate@plt>:
   225dc:	03 00 01 d4 	sethi  %hi(0x75000), %g1
   225e0:	30 bf ff 8a 	b,a   22408 <_PROCEDURE_LINKAGE_TABLE_>
   225e4:	01 00 00 00 	nop 

000225e8 <key_secretkey_is_set@plt>:
   225e8:	03 00 01 e0 	sethi  %hi(0x78000), %g1
   225ec:	30 bf ff 87 	b,a   22408 <_PROCEDURE_LINKAGE_TABLE_>
   225f0:	01 00 00 00 	nop 

000225f4 <__strndup@plt>:
   225f4:	03 00 01 ec 	sethi  %hi(0x7b000), %g1
   225f8:	30 bf ff 84 	b,a   22408 <_PROCEDURE_LINKAGE_TABLE_>
   225fc:	01 00 00 00 	nop 

00022600 <xdr_bytes@plt>:
   22600:	03 00 01 f8 	sethi  %hi(0x7e000), %g1
   22604:	30 bf ff 81 	b,a   22408 <_PROCEDURE_LINKAGE_TABLE_>
   22608:	01 00 00 00 	nop 

0002260c <abort@plt>:
   2260c:	03 00 02 04 	sethi  %hi(0x81000), %g1
   22610:	30 bf ff 7e 	b,a   22408 <_PROCEDURE_LINKAGE_TABLE_>
   22614:	01 00 00 00 	nop 

00022618 <svc_getreq_poll@plt>:
   22618:	03 00 02 10 	sethi  %hi(0x84000), %g1
   2261c:	30 bf ff 7b 	b,a   22408 <_PROCEDURE_LINKAGE_TABLE_>
   22620:	01 00 00 00 	nop 

00022624 <__rpc_thread_svc_max_pollfd@plt>:
   22624:	03 00 02 1c 	sethi  %hi(0x87000), %g1
   22628:	30 bf ff 78 	b,a   22408 <_PROCEDURE_LINKAGE_TABLE_>
   2262c:	01 00 00 00 	nop 

00022630 <svc_sendreply@plt>:
   22630:	03 00 02 28 	sethi  %hi(0x8a000), %g1
   22634:	30 bf ff 75 	b,a   22408 <_PROCEDURE_LINKAGE_TABLE_>
   22638:	01 00 00 00 	nop 

0002263c <time@plt>:
   2263c:	03 00 02 34 	sethi  %hi(0x8d000), %g1
   22640:	30 bf ff 72 	b,a   22408 <_PROCEDURE_LINKAGE_TABLE_>
   22644:	01 00 00 00 	nop 

00022648 <getdomainname@plt>:
   22648:	03 00 02 40 	sethi  %hi(0x90000), %g1
   2264c:	30 bf ff 6f 	b,a   22408 <_PROCEDURE_LINKAGE_TABLE_>
   22650:	01 00 00 00 	nop 

00022654 <fputs@plt>:
   22654:	03 00 02 4c 	sethi  %hi(0x93000), %g1
   22658:	30 bf ff 6c 	b,a   22408 <_PROCEDURE_LINKAGE_TABLE_>
   2265c:	01 00 00 00 	nop 

00022660 <strstr@plt>:
   22660:	03 00 02 58 	sethi  %hi(0x96000), %g1
   22664:	30 bf ff 69 	b,a   22408 <_PROCEDURE_LINKAGE_TABLE_>
   22668:	01 00 00 00 	nop 

0002266c <strlen@plt>:
   2266c:	03 00 02 64 	sethi  %hi(0x99000), %g1
   22670:	30 bf ff 66 	b,a   22408 <_PROCEDURE_LINKAGE_TABLE_>
   22674:	01 00 00 00 	nop 

00022678 <authdes_pk_create@plt>:
   22678:	03 00 02 70 	sethi  %hi(0x9c000), %g1
   2267c:	30 bf ff 63 	b,a   22408 <_PROCEDURE_LINKAGE_TABLE_>
   22680:	01 00 00 00 	nop 

00022684 <__strtol_internal@plt>:
   22684:	03 00 02 7c 	sethi  %hi(0x9f000), %g1
   22688:	30 bf ff 60 	b,a   22408 <_PROCEDURE_LINKAGE_TABLE_>
   2268c:	01 00 00 00 	nop 

00022690 <stpcpy@plt>:
   22690:	03 00 02 88 	sethi  %hi(0xa2000), %g1
   22694:	30 bf ff 5d 	b,a   22408 <_PROCEDURE_LINKAGE_TABLE_>
   22698:	01 00 00 00 	nop 

0002269c <host2netname@plt>:
   2269c:	03 00 02 94 	sethi  %hi(0xa5000), %g1
   226a0:	30 bf ff 5a 	b,a   22408 <_PROCEDURE_LINKAGE_TABLE_>
   226a4:	01 00 00 00 	nop 

000226a8 <strncmp@plt>:
   226a8:	03 00 02 a0 	sethi  %hi(0xa8000), %g1
   226ac:	30 bf ff 57 	b,a   22408 <_PROCEDURE_LINKAGE_TABLE_>
   226b0:	01 00 00 00 	nop 

000226b4 <clntudp_create@plt>:
   226b4:	03 00 02 ac 	sethi  %hi(0xab000), %g1
   226b8:	30 bf ff 54 	b,a   22408 <_PROCEDURE_LINKAGE_TABLE_>
   226bc:	01 00 00 00 	nop 

000226c0 <fputc@plt>:
   226c0:	03 00 02 b8 	sethi  %hi(0xae000), %g1
   226c4:	30 bf ff 51 	b,a   22408 <_PROCEDURE_LINKAGE_TABLE_>
   226c8:	01 00 00 00 	nop 

000226cc <inet_addr@plt>:
   226cc:	03 00 02 c4 	sethi  %hi(0xb1000), %g1
   226d0:	30 bf ff 4e 	b,a   22408 <_PROCEDURE_LINKAGE_TABLE_>
   226d4:	01 00 00 00 	nop 

000226d8 <xdr_enum@plt>:
   226d8:	03 00 02 d0 	sethi  %hi(0xb4000), %g1
   226dc:	30 bf ff 4b 	b,a   22408 <_PROCEDURE_LINKAGE_TABLE_>
   226e0:	01 00 00 00 	nop 

000226e4 <xdrmem_create@plt>:
   226e4:	03 00 02 dc 	sethi  %hi(0xb7000), %g1
   226e8:	30 bf ff 48 	b,a   22408 <_PROCEDURE_LINKAGE_TABLE_>
   226ec:	01 00 00 00 	nop 

000226f0 <fprintf@plt>:
   226f0:	03 00 02 e8 	sethi  %hi(0xba000), %g1
   226f4:	30 bf ff 45 	b,a   22408 <_PROCEDURE_LINKAGE_TABLE_>
   226f8:	01 00 00 00 	nop 

000226fc <authunix_create_default@plt>:
   226fc:	03 00 02 f4 	sethi  %hi(0xbd000), %g1
   22700:	30 bf ff 42 	b,a   22408 <_PROCEDURE_LINKAGE_TABLE_>
   22704:	01 00 00 00 	nop 

00022708 <xprt_unregister@plt>:
   22708:	03 00 03 00 	sethi  %hi(0xc0000), %g1
   2270c:	30 bf ff 3f 	b,a   22408 <_PROCEDURE_LINKAGE_TABLE_>
   22710:	01 00 00 00 	nop 

00022714 <xdr_bool@plt>:
   22714:	03 00 03 0c 	sethi  %hi(0xc3000), %g1
   22718:	30 bf ff 3c 	b,a   22408 <_PROCEDURE_LINKAGE_TABLE_>
   2271c:	01 00 00 00 	nop 

00022720 <xdr_netobj@plt>:
   22720:	03 00 03 18 	sethi  %hi(0xc6000), %g1
   22724:	30 bf ff 39 	b,a   22408 <_PROCEDURE_LINKAGE_TABLE_>
   22728:	01 00 00 00 	nop 

0002272c <realloc@plt>:
   2272c:	03 00 03 24 	sethi  %hi(0xc9000), %g1
   22730:	30 bf ff 36 	b,a   22408 <_PROCEDURE_LINKAGE_TABLE_>
   22734:	01 00 00 00 	nop 

00022738 <asprintf@plt>:
   22738:	03 00 03 30 	sethi  %hi(0xcc000), %g1
   2273c:	30 bf ff 33 	b,a   22408 <_PROCEDURE_LINKAGE_TABLE_>
   22740:	01 00 00 00 	nop 

00022744 <fcntl@plt>:
   22744:	03 00 03 3c 	sethi  %hi(0xcf000), %g1
   22748:	30 bf ff 30 	b,a   22408 <_PROCEDURE_LINKAGE_TABLE_>
   2274c:	01 00 00 00 	nop 

00022750 <memcpy@plt>:
   22750:	03 00 03 48 	sethi  %hi(0xd2000), %g1
   22754:	30 bf ff 2d 	b,a   22408 <_PROCEDURE_LINKAGE_TABLE_>
   22758:	01 00 00 00 	nop 

0002275c <fclose@plt>:
   2275c:	03 00 03 54 	sethi  %hi(0xd5000), %g1
   22760:	30 bf ff 2a 	b,a   22408 <_PROCEDURE_LINKAGE_TABLE_>
   22764:	01 00 00 00 	nop 

00022768 <getsockname@plt>:
   22768:	03 00 03 60 	sethi  %hi(0xd8000), %g1
   2276c:	30 bf ff 27 	b,a   22408 <_PROCEDURE_LINKAGE_TABLE_>
   22770:	01 00 00 00 	nop 

00022774 <ctime@plt>:
   22774:	03 00 03 6c 	sethi  %hi(0xdb000), %g1
   22778:	30 bf ff 24 	b,a   22408 <_PROCEDURE_LINKAGE_TABLE_>
   2277c:	01 00 00 00 	nop 

00022780 <__strdup@plt>:
   22780:	03 00 03 78 	sethi  %hi(0xde000), %g1
   22784:	30 bf ff 21 	b,a   22408 <_PROCEDURE_LINKAGE_TABLE_>
   22788:	01 00 00 00 	nop 

0002278c <__cxa_finalize@plt>:
   2278c:	03 00 03 84 	sethi  %hi(0xe1000), %g1
   22790:	30 bf ff 1e 	b,a   22408 <_PROCEDURE_LINKAGE_TABLE_>
   22794:	01 00 00 00 	nop 

00022798 <gethostname@plt>:
   22798:	03 00 03 90 	sethi  %hi(0xe4000), %g1
   2279c:	30 bf ff 1b 	b,a   22408 <_PROCEDURE_LINKAGE_TABLE_>
   227a0:	01 00 00 00 	nop 

000227a4 <open@plt>:
   227a4:	03 00 03 9c 	sethi  %hi(0xe7000), %g1
   227a8:	30 bf ff 18 	b,a   22408 <_PROCEDURE_LINKAGE_TABLE_>
   227ac:	01 00 00 00 	nop 

000227b0 <__dcgettext@plt>:
   227b0:	03 00 03 a8 	sethi  %hi(0xea000), %g1
   227b4:	30 bf ff 15 	b,a   22408 <_PROCEDURE_LINKAGE_TABLE_>
   227b8:	01 00 00 00 	nop 

000227bc <exit@plt>:
   227bc:	03 00 03 b4 	sethi  %hi(0xed000), %g1
   227c0:	30 bf ff 12 	b,a   22408 <_PROCEDURE_LINKAGE_TABLE_>
   227c4:	01 00 00 00 	nop 

000227c8 <calloc@plt>:
   227c8:	03 00 03 c0 	sethi  %hi(0xf0000), %g1
   227cc:	30 bf ff 0f 	b,a   22408 <_PROCEDURE_LINKAGE_TABLE_>
   227d0:	01 00 00 00 	nop 

000227d4 <__fsetlocking@plt>:
   227d4:	03 00 03 cc 	sethi  %hi(0xf3000), %g1
   227d8:	30 bf ff 0c 	b,a   22408 <_PROCEDURE_LINKAGE_TABLE_>
   227dc:	01 00 00 00 	nop 

000227e0 <free@plt>:
   227e0:	03 00 03 d8 	sethi  %hi(0xf6000), %g1
   227e4:	30 bf ff 09 	b,a   22408 <_PROCEDURE_LINKAGE_TABLE_>
   227e8:	01 00 00 00 	nop 

000227ec <ioctl@plt>:
   227ec:	03 00 03 e4 	sethi  %hi(0xf9000), %g1
   227f0:	30 bf ff 06 	b,a   22408 <_PROCEDURE_LINKAGE_TABLE_>
   227f4:	01 00 00 00 	nop 

000227f8 <xdr_array@plt>:
   227f8:	03 00 03 f0 	sethi  %hi(0xfc000), %g1
   227fc:	30 bf ff 03 	b,a   22408 <_PROCEDURE_LINKAGE_TABLE_>
   22800:	01 00 00 00 	nop 

00022804 <memset@plt>:
   22804:	03 00 03 fc 	sethi  %hi(0xff000), %g1
   22808:	30 bf ff 00 	b,a   22408 <_PROCEDURE_LINKAGE_TABLE_>
   2280c:	01 00 00 00 	nop 

00022810 <xdr_uint32_t@plt>:
   22810:	03 00 04 08 	sethi  %hi(0x102000), %g1
   22814:	30 bf fe fd 	b,a   22408 <_PROCEDURE_LINKAGE_TABLE_>
   22818:	01 00 00 00 	nop 

0002281c <strncpy@plt>:
   2281c:	03 00 04 14 	sethi  %hi(0x105000), %g1
   22820:	30 bf fe fa 	b,a   22408 <_PROCEDURE_LINKAGE_TABLE_>
   22824:	01 00 00 00 	nop 

00022828 <xdr_pointer@plt>:
   22828:	03 00 04 20 	sethi  %hi(0x108000), %g1
   2282c:	30 bf fe f7 	b,a   22408 <_PROCEDURE_LINKAGE_TABLE_>
   22830:	01 00 00 00 	nop 

00022834 <fopen@plt>:
   22834:	03 00 04 2c 	sethi  %hi(0x10b000), %g1
   22838:	30 bf fe f4 	b,a   22408 <_PROCEDURE_LINKAGE_TABLE_>
   2283c:	01 00 00 00 	nop 

00022840 <xdrstdio_create@plt>:
   22840:	03 00 04 38 	sethi  %hi(0x10e000), %g1
   22844:	30 bf fe f1 	b,a   22408 <_PROCEDURE_LINKAGE_TABLE_>
   22848:	01 00 00 00 	nop 

0002284c <xdr_int@plt>:
   2284c:	03 00 04 44 	sethi  %hi(0x111000), %g1
   22850:	30 bf fe ee 	b,a   22408 <_PROCEDURE_LINKAGE_TABLE_>
   22854:	01 00 00 00 	nop 

00022858 <fwrite@plt>:
   22858:	03 00 04 50 	sethi  %hi(0x114000), %g1
   2285c:	30 bf fe eb 	b,a   22408 <_PROCEDURE_LINKAGE_TABLE_>
   22860:	01 00 00 00 	nop 

00022864 <socket@plt>:
   22864:	03 00 04 5c 	sethi  %hi(0x117000), %g1
   22868:	30 bf fe e8 	b,a   22408 <_PROCEDURE_LINKAGE_TABLE_>
   2286c:	01 00 00 00 	nop 

00022870 <_Jv_RegisterClasses@plt>:
   22870:	03 00 04 68 	sethi  %hi(0x11a000), %g1
   22874:	30 bf fe e5 	b,a   22408 <_PROCEDURE_LINKAGE_TABLE_>
   22878:	01 00 00 00 	nop 

0002287c <__ctype_b_loc@plt>:
   2287c:	03 00 04 74 	sethi  %hi(0x11d000), %g1
   22880:	30 bf fe e2 	b,a   22408 <_PROCEDURE_LINKAGE_TABLE_>
   22884:	01 00 00 00 	nop 

00022888 <xdr_u_char@plt>:
   22888:	03 00 04 80 	sethi  %hi(0x120000), %g1
   2288c:	30 bf fe df 	b,a   22408 <_PROCEDURE_LINKAGE_TABLE_>
   22890:	01 00 00 00 	nop 

00022894 <printf@plt>:
   22894:	03 00 04 8c 	sethi  %hi(0x123000), %g1
   22898:	30 bf fe dc 	b,a   22408 <_PROCEDURE_LINKAGE_TABLE_>
   2289c:	01 00 00 00 	nop 

000228a0 <svctcp_create@plt>:
   228a0:	03 00 04 98 	sethi  %hi(0x126000), %g1
   228a4:	30 bf fe d9 	b,a   22408 <_PROCEDURE_LINKAGE_TABLE_>
   228a8:	01 00 00 00 	nop 

000228ac <xdr_string@plt>:
   228ac:	03 00 04 a4 	sethi  %hi(0x129000), %g1
   228b0:	30 bf fe d6 	b,a   22408 <_PROCEDURE_LINKAGE_TABLE_>
   228b4:	01 00 00 00 	nop 

000228b8 <clnt_perror@plt>:
   228b8:	03 00 04 b0 	sethi  %hi(0x12c000), %g1
   228bc:	30 bf fe d3 	b,a   22408 <_PROCEDURE_LINKAGE_TABLE_>
   228c0:	01 00 00 00 	nop 

000228c4 <geteuid@plt>:
   228c4:	03 00 04 bc 	sethi  %hi(0x12f000), %g1
   228c8:	30 bf fe d0 	b,a   22408 <_PROCEDURE_LINKAGE_TABLE_>
   228cc:	01 00 00 00 	nop 

000228d0 <strcpy@plt>:
   228d0:	03 00 04 c8 	sethi  %hi(0x132000), %g1
   228d4:	30 bf fe cd 	b,a   22408 <_PROCEDURE_LINKAGE_TABLE_>
   228d8:	01 00 00 00 	nop 
   228dc:	01 00 00 00 	nop 
