
/home/inouema/work/LEON/linux/snapgear-2.6-p42/romfs/lib/libnsl-2.5.so:     ファイル形式 elf32-sparc

セクション .init の逆アセンブル:

00003ca8 <_init>:
_init():
    3ca8:	9d e3 bf a0 	save  %sp, -96, %sp
    3cac:	40 00 00 37 	call  3d88 <frame_dummy>
    3cb0:	01 00 00 00 	nop 
    3cb4:	40 00 2d 76 	call  f28c <__do_global_ctors_aux>
    3cb8:	01 00 00 00 	nop 
    3cbc:	81 c7 e0 08 	ret 
    3cc0:	81 e8 00 00 	restore 
セクション .text の逆アセンブル:

00003cc4 <__do_global_dtors_aux-0x8>:
    3cc4:	81 c3 e0 08 	retl 
    3cc8:	ae 03 c0 17 	add  %o7, %l7, %l7

00003ccc <__do_global_dtors_aux>:
__do_global_dtors_aux():
    3ccc:	9d e3 bf 98 	save  %sp, -104, %sp
    3cd0:	23 00 00 00 	sethi  %hi(0), %l1
    3cd4:	2f 00 00 78 	sethi  %hi(0x1e000), %l7
    3cd8:	7f ff ff fb 	call  3cc4 <_init+0x1c>
    3cdc:	ae 05 e3 28 	add  %l7, 0x328, %l7	! 1e328 <__FRAME_END__+0xd300>
    3ce0:	82 14 60 0c 	or  %l1, 0xc, %g1
    3ce4:	c4 05 c0 01 	ld  [ %l7 + %g1 ], %g2
    3ce8:	c6 08 80 00 	ldub  [ %g2 ], %g3
    3cec:	80 a0 e0 00 	cmp  %g3, 0
    3cf0:	12 80 00 21 	bne  3d74 <__do_global_dtors_aux+0xa8>
    3cf4:	03 00 00 00 	sethi  %hi(0), %g1
    3cf8:	82 10 63 e0 	or  %g1, 0x3e0, %g1	! 3e0 <GLIBC_2.0+0x3e0>
    3cfc:	c4 05 c0 01 	ld  [ %l7 + %g1 ], %g2
    3d00:	80 a0 a0 00 	cmp  %g2, 0
    3d04:	02 80 00 06 	be  3d1c <__do_global_dtors_aux+0x50>
    3d08:	03 00 00 00 	sethi  %hi(0), %g1
    3d0c:	82 10 63 98 	or  %g1, 0x398, %g1	! 398 <GLIBC_2.0+0x398>
    3d10:	c4 05 c0 01 	ld  [ %l7 + %g1 ], %g2
    3d14:	40 00 7a 9e 	call  2278c <__cxa_finalize@plt>
    3d18:	d0 00 80 00 	ld  [ %g2 ], %o0
    3d1c:	03 00 00 00 	sethi  %hi(0), %g1
    3d20:	82 10 60 08 	or  %g1, 8, %g1	! 8 <GLIBC_2.0+0x8>
    3d24:	c2 05 c0 01 	ld  [ %l7 + %g1 ], %g1
    3d28:	c4 00 40 00 	ld  [ %g1 ], %g2
    3d2c:	c4 00 80 00 	ld  [ %g2 ], %g2
    3d30:	80 a0 a0 00 	cmp  %g2, 0
    3d34:	22 80 00 0d 	be,a   3d68 <__do_global_dtors_aux+0x9c>
    3d38:	82 14 60 0c 	or  %l1, 0xc, %g1
    3d3c:	a0 10 00 01 	mov  %g1, %l0
    3d40:	c2 04 00 00 	ld  [ %l0 ], %g1
    3d44:	82 00 60 04 	add  %g1, 4, %g1
    3d48:	9f c0 80 00 	call  %g2
    3d4c:	c2 24 00 00 	st  %g1, [ %l0 ]
    3d50:	c2 04 00 00 	ld  [ %l0 ], %g1
    3d54:	c4 00 40 00 	ld  [ %g1 ], %g2
    3d58:	80 a0 a0 00 	cmp  %g2, 0
    3d5c:	12 bf ff fb 	bne  3d48 <__do_global_dtors_aux+0x7c>
    3d60:	82 00 60 04 	add  %g1, 4, %g1
    3d64:	82 14 60 0c 	or  %l1, 0xc, %g1
    3d68:	c6 05 c0 01 	ld  [ %l7 + %g1 ], %g3
    3d6c:	84 10 20 01 	mov  1, %g2
    3d70:	c4 28 c0 00 	stb  %g2, [ %g3 ]
    3d74:	81 c7 e0 08 	ret 
    3d78:	81 e8 00 00 	restore 

00003d7c <call___do_global_dtors_aux>:
call___do_global_dtors_aux():
    3d7c:	9d e3 bf 98 	save  %sp, -104, %sp
    3d80:	81 c7 e0 08 	ret 
    3d84:	81 e8 00 00 	restore 

00003d88 <frame_dummy>:
frame_dummy():
    3d88:	9d e3 bf 98 	save  %sp, -104, %sp
    3d8c:	03 00 00 00 	sethi  %hi(0), %g1
    3d90:	2f 00 00 78 	sethi  %hi(0x1e000), %l7
    3d94:	7f ff ff cc 	call  3cc4 <_init+0x1c>
    3d98:	ae 05 e2 6c 	add  %l7, 0x26c, %l7	! 1e26c <__FRAME_END__+0xd244>
    3d9c:	82 10 60 04 	or  %g1, 4, %g1
    3da0:	f0 05 c0 01 	ld  [ %l7 + %g1 ], %i0
    3da4:	05 00 00 00 	sethi  %hi(0), %g2
    3da8:	c2 06 00 00 	ld  [ %i0 ], %g1
    3dac:	80 a0 60 00 	cmp  %g1, 0
    3db0:	02 80 00 08 	be  3dd0 <frame_dummy+0x48>
    3db4:	84 10 a3 fc 	or  %g2, 0x3fc, %g2
    3db8:	c2 05 c0 02 	ld  [ %l7 + %g2 ], %g1
    3dbc:	80 a0 60 00 	cmp  %g1, 0
    3dc0:	02 80 00 04 	be  3dd0 <frame_dummy+0x48>
    3dc4:	01 00 00 00 	nop 
    3dc8:	10 80 7a aa 	b  22870 <_Jv_RegisterClasses@plt>
    3dcc:	81 e8 00 00 	restore 
    3dd0:	01 00 00 00 	nop 
    3dd4:	81 c7 e0 08 	ret 
    3dd8:	81 e8 00 00 	restore 

00003ddc <call_frame_dummy>:
call_frame_dummy():
    3ddc:	9d e3 bf 98 	save  %sp, -104, %sp
    3de0:	81 c7 e0 08 	ret 
    3de4:	81 e8 00 00 	restore 

00003de8 <xdr_ypstat>:
xdr_ypstat():
    3de8:	82 13 c0 00 	mov  %o7, %g1
    3dec:	10 80 7a 3b 	b  226d8 <xdr_enum@plt>
    3df0:	01 00 00 00 	nop 
    3df4:	01 00 00 00 	nop 

00003df8 <xdr_ypxfrstat>:
xdr_ypxfrstat():
    3df8:	82 13 c0 00 	mov  %o7, %g1
    3dfc:	10 80 7a 37 	b  226d8 <xdr_enum@plt>
    3e00:	01 00 00 00 	nop 
    3e04:	01 00 00 00 	nop 

00003e08 <xdr_domainname>:
xdr_domainname():
    3e08:	94 10 3f ff 	mov  -1, %o2	! ffffffff <_end+0xfffdb227>
    3e0c:	82 13 c0 00 	mov  %o7, %g1
    3e10:	10 80 7a a7 	b  228ac <xdr_string@plt>
    3e14:	01 00 00 00 	nop 
    3e18:	01 00 00 00 	nop 

00003e1c <xdr_mapname>:
xdr_mapname():
    3e1c:	94 10 3f ff 	mov  -1, %o2	! ffffffff <_end+0xfffdb227>
    3e20:	82 13 c0 00 	mov  %o7, %g1
    3e24:	10 80 7a a2 	b  228ac <xdr_string@plt>
    3e28:	01 00 00 00 	nop 
    3e2c:	01 00 00 00 	nop 

00003e30 <xdr_peername>:
xdr_peername():
    3e30:	94 10 3f ff 	mov  -1, %o2	! ffffffff <_end+0xfffdb227>
    3e34:	82 13 c0 00 	mov  %o7, %g1
    3e38:	10 80 7a 9d 	b  228ac <xdr_string@plt>
    3e3c:	01 00 00 00 	nop 
    3e40:	01 00 00 00 	nop 

00003e44 <xdr_keydat>:
xdr_keydat():
    3e44:	94 10 00 09 	mov  %o1, %o2
    3e48:	92 02 60 04 	add  %o1, 4, %o1
    3e4c:	96 10 3f ff 	mov  -1, %o3
    3e50:	82 13 c0 00 	mov  %o7, %g1
    3e54:	10 80 79 eb 	b  22600 <xdr_bytes@plt>
    3e58:	01 00 00 00 	nop 
    3e5c:	01 00 00 00 	nop 

00003e60 <xdr_valdat>:
xdr_valdat():
    3e60:	94 10 00 09 	mov  %o1, %o2
    3e64:	92 02 60 04 	add  %o1, 4, %o1
    3e68:	96 10 3f ff 	mov  -1, %o3
    3e6c:	82 13 c0 00 	mov  %o7, %g1
    3e70:	10 80 79 e4 	b  22600 <xdr_bytes@plt>
    3e74:	01 00 00 00 	nop 
    3e78:	01 00 00 00 	nop 

00003e7c <xdr_ypmap_parms>:
xdr_ypmap_parms():
    3e7c:	9d e3 bf 90 	save  %sp, -112, %sp
    3e80:	92 10 00 19 	mov  %i1, %o1
    3e84:	7f ff ff e1 	call  3e08 <xdr_domainname>
    3e88:	90 10 00 18 	mov  %i0, %o0
    3e8c:	80 a2 20 00 	cmp  %o0, 0
    3e90:	92 06 60 04 	add  %i1, 4, %o1
    3e94:	02 80 00 0f 	be  3ed0 <xdr_ypmap_parms+0x54>
    3e98:	90 10 00 18 	mov  %i0, %o0
    3e9c:	7f ff ff e0 	call  3e1c <xdr_mapname>
    3ea0:	01 00 00 00 	nop 
    3ea4:	80 a2 20 00 	cmp  %o0, 0
    3ea8:	92 06 60 08 	add  %i1, 8, %o1
    3eac:	02 80 00 09 	be  3ed0 <xdr_ypmap_parms+0x54>
    3eb0:	90 10 00 18 	mov  %i0, %o0
    3eb4:	40 00 79 b5 	call  22588 <xdr_u_int@plt>
    3eb8:	b2 06 60 0c 	add  %i1, 0xc, %i1
    3ebc:	80 a2 20 00 	cmp  %o0, 0
    3ec0:	02 80 00 04 	be  3ed0 <xdr_ypmap_parms+0x54>
    3ec4:	01 00 00 00 	nop 
    3ec8:	10 bf ff da 	b  3e30 <xdr_peername>
    3ecc:	81 e8 00 00 	restore 
    3ed0:	81 c7 e0 08 	ret 
    3ed4:	91 e8 20 00 	restore  %g0, 0, %o0

00003ed8 <xdr_ypreq_key>:
xdr_ypreq_key():
    3ed8:	9d e3 bf 90 	save  %sp, -112, %sp
    3edc:	92 10 00 19 	mov  %i1, %o1
    3ee0:	7f ff ff ca 	call  3e08 <xdr_domainname>
    3ee4:	90 10 00 18 	mov  %i0, %o0
    3ee8:	80 a2 20 00 	cmp  %o0, 0
    3eec:	92 06 60 04 	add  %i1, 4, %o1
    3ef0:	02 80 00 09 	be  3f14 <xdr_ypreq_key+0x3c>
    3ef4:	90 10 00 18 	mov  %i0, %o0
    3ef8:	7f ff ff c9 	call  3e1c <xdr_mapname>
    3efc:	b2 06 60 08 	add  %i1, 8, %i1
    3f00:	80 a2 20 00 	cmp  %o0, 0
    3f04:	02 80 00 04 	be  3f14 <xdr_ypreq_key+0x3c>
    3f08:	01 00 00 00 	nop 
    3f0c:	10 bf ff ce 	b  3e44 <xdr_keydat>
    3f10:	81 e8 00 00 	restore 
    3f14:	81 c7 e0 08 	ret 
    3f18:	91 e8 20 00 	restore  %g0, 0, %o0

00003f1c <xdr_ypreq_nokey>:
xdr_ypreq_nokey():
    3f1c:	9d e3 bf 90 	save  %sp, -112, %sp
    3f20:	92 10 00 19 	mov  %i1, %o1
    3f24:	7f ff ff b9 	call  3e08 <xdr_domainname>
    3f28:	90 10 00 18 	mov  %i0, %o0
    3f2c:	80 a2 20 00 	cmp  %o0, 0
    3f30:	02 80 00 04 	be  3f40 <xdr_ypreq_nokey+0x24>
    3f34:	b2 06 60 04 	add  %i1, 4, %i1
    3f38:	10 bf ff b9 	b  3e1c <xdr_mapname>
    3f3c:	81 e8 00 00 	restore 
    3f40:	81 c7 e0 08 	ret 
    3f44:	91 e8 20 00 	restore  %g0, 0, %o0

00003f48 <xdr_ypreq_xfr>:
xdr_ypreq_xfr():
    3f48:	9d e3 bf 90 	save  %sp, -112, %sp
    3f4c:	92 10 00 19 	mov  %i1, %o1
    3f50:	7f ff ff cb 	call  3e7c <xdr_ypmap_parms>
    3f54:	90 10 00 18 	mov  %i0, %o0
    3f58:	80 a2 20 00 	cmp  %o0, 0
    3f5c:	92 06 60 10 	add  %i1, 0x10, %o1
    3f60:	02 80 00 0f 	be  3f9c <xdr_ypreq_xfr+0x54>
    3f64:	90 10 00 18 	mov  %i0, %o0
    3f68:	40 00 79 88 	call  22588 <xdr_u_int@plt>
    3f6c:	01 00 00 00 	nop 
    3f70:	80 a2 20 00 	cmp  %o0, 0
    3f74:	92 06 60 14 	add  %i1, 0x14, %o1
    3f78:	02 80 00 09 	be  3f9c <xdr_ypreq_xfr+0x54>
    3f7c:	90 10 00 18 	mov  %i0, %o0
    3f80:	40 00 79 82 	call  22588 <xdr_u_int@plt>
    3f84:	b2 06 60 18 	add  %i1, 0x18, %i1
    3f88:	80 a2 20 00 	cmp  %o0, 0
    3f8c:	02 80 00 04 	be  3f9c <xdr_ypreq_xfr+0x54>
    3f90:	01 00 00 00 	nop 
    3f94:	10 80 79 7d 	b  22588 <xdr_u_int@plt>
    3f98:	81 e8 00 00 	restore 
    3f9c:	81 c7 e0 08 	ret 
    3fa0:	91 e8 20 00 	restore  %g0, 0, %o0

00003fa4 <xdr_ypresp_val>:
xdr_ypresp_val():
    3fa4:	9d e3 bf 90 	save  %sp, -112, %sp
    3fa8:	92 10 00 19 	mov  %i1, %o1
    3fac:	7f ff ff 8f 	call  3de8 <xdr_ypstat>
    3fb0:	90 10 00 18 	mov  %i0, %o0
    3fb4:	80 a2 20 00 	cmp  %o0, 0
    3fb8:	02 80 00 04 	be  3fc8 <xdr_ypresp_val+0x24>
    3fbc:	b2 06 60 04 	add  %i1, 4, %i1
    3fc0:	10 bf ff a8 	b  3e60 <xdr_valdat>
    3fc4:	81 e8 00 00 	restore 
    3fc8:	81 c7 e0 08 	ret 
    3fcc:	91 e8 20 00 	restore  %g0, 0, %o0

00003fd0 <xdr_ypresp_key_val>:
xdr_ypresp_key_val():
    3fd0:	9d e3 bf 90 	save  %sp, -112, %sp
    3fd4:	92 10 00 19 	mov  %i1, %o1
    3fd8:	7f ff ff 84 	call  3de8 <xdr_ypstat>
    3fdc:	90 10 00 18 	mov  %i0, %o0
    3fe0:	80 a2 20 00 	cmp  %o0, 0
    3fe4:	92 06 60 04 	add  %i1, 4, %o1
    3fe8:	02 80 00 09 	be  400c <xdr_ypresp_key_val+0x3c>
    3fec:	90 10 00 18 	mov  %i0, %o0
    3ff0:	7f ff ff 9c 	call  3e60 <xdr_valdat>
    3ff4:	b2 06 60 0c 	add  %i1, 0xc, %i1
    3ff8:	80 a2 20 00 	cmp  %o0, 0
    3ffc:	02 80 00 04 	be  400c <xdr_ypresp_key_val+0x3c>
    4000:	01 00 00 00 	nop 
    4004:	10 bf ff 90 	b  3e44 <xdr_keydat>
    4008:	81 e8 00 00 	restore 
    400c:	81 c7 e0 08 	ret 
    4010:	91 e8 20 00 	restore  %g0, 0, %o0

00004014 <xdr_ypresp_master>:
xdr_ypresp_master():
    4014:	9d e3 bf 90 	save  %sp, -112, %sp
    4018:	92 10 00 19 	mov  %i1, %o1
    401c:	7f ff ff 73 	call  3de8 <xdr_ypstat>
    4020:	90 10 00 18 	mov  %i0, %o0
    4024:	80 a2 20 00 	cmp  %o0, 0
    4028:	02 80 00 04 	be  4038 <xdr_ypresp_master+0x24>
    402c:	b2 06 60 04 	add  %i1, 4, %i1
    4030:	10 bf ff 80 	b  3e30 <xdr_peername>
    4034:	81 e8 00 00 	restore 
    4038:	81 c7 e0 08 	ret 
    403c:	91 e8 20 00 	restore  %g0, 0, %o0

00004040 <xdr_ypresp_order>:
xdr_ypresp_order():
    4040:	9d e3 bf 90 	save  %sp, -112, %sp
    4044:	92 10 00 19 	mov  %i1, %o1
    4048:	7f ff ff 68 	call  3de8 <xdr_ypstat>
    404c:	90 10 00 18 	mov  %i0, %o0
    4050:	80 a2 20 00 	cmp  %o0, 0
    4054:	02 80 00 04 	be  4064 <xdr_ypresp_order+0x24>
    4058:	b2 06 60 04 	add  %i1, 4, %i1
    405c:	10 80 79 4b 	b  22588 <xdr_u_int@plt>
    4060:	81 e8 00 00 	restore 
    4064:	81 c7 e0 08 	ret 
    4068:	91 e8 20 00 	restore  %g0, 0, %o0

0000406c <xdr_ypresp_all>:
xdr_ypresp_all():
    406c:	9d e3 bf 90 	save  %sp, -112, %sp
    4070:	90 10 00 18 	mov  %i0, %o0
    4074:	40 00 79 a8 	call  22714 <xdr_bool@plt>
    4078:	92 10 00 19 	mov  %i1, %o1
    407c:	80 a2 20 00 	cmp  %o0, 0
    4080:	02 80 00 0c 	be  40b0 <xdr_ypresp_all+0x44>
    4084:	82 10 20 00 	clr  %g1
    4088:	c4 06 40 00 	ld  [ %i1 ], %g2
    408c:	80 a0 a0 00 	cmp  %g2, 0
    4090:	02 80 00 08 	be  40b0 <xdr_ypresp_all+0x44>
    4094:	82 10 20 01 	mov  1, %g1
    4098:	b2 06 60 04 	add  %i1, 4, %i1
    409c:	80 a0 a0 01 	cmp  %g2, 1
    40a0:	12 80 00 04 	bne  40b0 <xdr_ypresp_all+0x44>
    40a4:	82 10 20 00 	clr  %g1
    40a8:	10 bf ff ca 	b  3fd0 <xdr_ypresp_key_val>
    40ac:	81 e8 00 00 	restore 
    40b0:	81 c7 e0 08 	ret 
    40b4:	91 e8 00 01 	restore  %g0, %g1, %o0

000040b8 <xdr_ypresp_xfr>:
xdr_ypresp_xfr():
    40b8:	9d e3 bf 90 	save  %sp, -112, %sp
    40bc:	92 10 00 19 	mov  %i1, %o1
    40c0:	40 00 79 32 	call  22588 <xdr_u_int@plt>
    40c4:	90 10 00 18 	mov  %i0, %o0
    40c8:	80 a2 20 00 	cmp  %o0, 0
    40cc:	02 80 00 04 	be  40dc <xdr_ypresp_xfr+0x24>
    40d0:	b2 06 60 04 	add  %i1, 4, %i1
    40d4:	10 bf ff 49 	b  3df8 <xdr_ypxfrstat>
    40d8:	81 e8 00 00 	restore 
    40dc:	81 c7 e0 08 	ret 
    40e0:	91 e8 20 00 	restore  %g0, 0, %o0
    40e4:	81 c3 e0 08 	retl 
    40e8:	ae 03 c0 17 	add  %o7, %l7, %l7

000040ec <xdr_ypmaplist>:
xdr_ypmaplist():
    40ec:	9d e3 bf 90 	save  %sp, -112, %sp
    40f0:	2f 00 00 77 	sethi  %hi(0x1dc00), %l7
    40f4:	7f ff ff fc 	call  40e4 <xdr_ypresp_xfr+0x2c>
    40f8:	ae 05 e3 0c 	add  %l7, 0x30c, %l7	! 1df0c <__FRAME_END__+0xcee4>
    40fc:	92 10 00 19 	mov  %i1, %o1
    4100:	7f ff ff 47 	call  3e1c <xdr_mapname>
    4104:	90 10 00 18 	mov  %i0, %o0
    4108:	03 00 00 00 	sethi  %hi(0), %g1
    410c:	82 10 63 e8 	or  %g1, 0x3e8, %g1	! 3e8 <GLIBC_2.0+0x3e8>
    4110:	b2 06 60 04 	add  %i1, 4, %i1
    4114:	80 a2 20 00 	cmp  %o0, 0
    4118:	02 80 00 05 	be  412c <xdr_ypmaplist+0x40>
    411c:	b4 10 20 08 	mov  8, %i2
    4120:	f6 05 c0 01 	ld  [ %l7 + %g1 ], %i3
    4124:	10 80 79 c1 	b  22828 <xdr_pointer@plt>
    4128:	81 e8 00 00 	restore 
    412c:	81 c7 e0 08 	ret 
    4130:	91 e8 20 00 	restore  %g0, 0, %o0

00004134 <xdr_ypresp_maplist>:
xdr_ypresp_maplist():
    4134:	9d e3 bf 90 	save  %sp, -112, %sp
    4138:	2f 00 00 77 	sethi  %hi(0x1dc00), %l7
    413c:	7f ff ff ea 	call  40e4 <xdr_ypresp_xfr+0x2c>
    4140:	ae 05 e2 c4 	add  %l7, 0x2c4, %l7	! 1dec4 <__FRAME_END__+0xce9c>
    4144:	92 10 00 19 	mov  %i1, %o1
    4148:	7f ff ff 28 	call  3de8 <xdr_ypstat>
    414c:	90 10 00 18 	mov  %i0, %o0
    4150:	03 00 00 00 	sethi  %hi(0), %g1
    4154:	82 10 63 e8 	or  %g1, 0x3e8, %g1	! 3e8 <GLIBC_2.0+0x3e8>
    4158:	b2 06 60 04 	add  %i1, 4, %i1
    415c:	80 a2 20 00 	cmp  %o0, 0
    4160:	02 80 00 05 	be  4174 <xdr_ypresp_maplist+0x40>
    4164:	b4 10 20 08 	mov  8, %i2
    4168:	f6 05 c0 01 	ld  [ %l7 + %g1 ], %i3
    416c:	10 80 79 af 	b  22828 <xdr_pointer@plt>
    4170:	81 e8 00 00 	restore 
    4174:	81 c7 e0 08 	ret 
    4178:	91 e8 20 00 	restore  %g0, 0, %o0

0000417c <xdr_yppush_status>:
xdr_yppush_status():
    417c:	82 13 c0 00 	mov  %o7, %g1
    4180:	10 80 79 56 	b  226d8 <xdr_enum@plt>
    4184:	01 00 00 00 	nop 
    4188:	01 00 00 00 	nop 

0000418c <xdr_yppushresp_xfr>:
xdr_yppushresp_xfr():
    418c:	9d e3 bf 90 	save  %sp, -112, %sp
    4190:	92 10 00 19 	mov  %i1, %o1
    4194:	40 00 78 fd 	call  22588 <xdr_u_int@plt>
    4198:	90 10 00 18 	mov  %i0, %o0
    419c:	80 a2 20 00 	cmp  %o0, 0
    41a0:	02 80 00 04 	be  41b0 <xdr_yppushresp_xfr+0x24>
    41a4:	b2 06 60 04 	add  %i1, 4, %i1
    41a8:	10 bf ff f5 	b  417c <xdr_yppush_status>
    41ac:	81 e8 00 00 	restore 
    41b0:	81 c7 e0 08 	ret 
    41b4:	91 e8 20 00 	restore  %g0, 0, %o0

000041b8 <xdr_ypbind_resptype>:
xdr_ypbind_resptype():
    41b8:	82 13 c0 00 	mov  %o7, %g1
    41bc:	10 80 79 47 	b  226d8 <xdr_enum@plt>
    41c0:	01 00 00 00 	nop 
    41c4:	01 00 00 00 	nop 

000041c8 <xdr_ypbind_binding>:
xdr_ypbind_binding():
    41c8:	9d e3 bf 90 	save  %sp, -112, %sp
    41cc:	92 10 00 19 	mov  %i1, %o1
    41d0:	90 10 00 18 	mov  %i0, %o0
    41d4:	40 00 78 ab 	call  22480 <xdr_opaque@plt>
    41d8:	94 10 20 04 	mov  4, %o2
    41dc:	b2 06 60 04 	add  %i1, 4, %i1
    41e0:	80 a2 20 00 	cmp  %o0, 0
    41e4:	02 80 00 04 	be  41f4 <xdr_ypbind_binding+0x2c>
    41e8:	b4 10 20 02 	mov  2, %i2
    41ec:	10 80 78 a5 	b  22480 <xdr_opaque@plt>
    41f0:	81 e8 00 00 	restore 
    41f4:	81 c7 e0 08 	ret 
    41f8:	91 e8 20 00 	restore  %g0, 0, %o0

000041fc <xdr_ypbind_resp>:
xdr_ypbind_resp():
    41fc:	9d e3 bf 90 	save  %sp, -112, %sp
    4200:	90 10 00 18 	mov  %i0, %o0
    4204:	7f ff ff ed 	call  41b8 <xdr_ypbind_resptype>
    4208:	92 10 00 19 	mov  %i1, %o1
    420c:	80 a2 20 00 	cmp  %o0, 0
    4210:	02 80 00 0e 	be  4248 <xdr_ypbind_resp+0x4c>
    4214:	a0 10 00 19 	mov  %i1, %l0
    4218:	c2 04 00 00 	ld  [ %l0 ], %g1
    421c:	80 a0 60 01 	cmp  %g1, 1
    4220:	02 80 00 06 	be  4238 <xdr_ypbind_resp+0x3c>
    4224:	b2 06 60 04 	add  %i1, 4, %i1
    4228:	80 a0 60 02 	cmp  %g1, 2
    422c:	12 80 00 07 	bne  4248 <xdr_ypbind_resp+0x4c>
    4230:	01 00 00 00 	nop 
    4234:	30 80 00 03 	b,a   4240 <xdr_ypbind_resp+0x44>
    4238:	10 bf ff e4 	b  41c8 <xdr_ypbind_binding>
    423c:	81 e8 00 00 	restore 
    4240:	10 80 78 d2 	b  22588 <xdr_u_int@plt>
    4244:	81 e8 00 00 	restore 
    4248:	81 c7 e0 08 	ret 
    424c:	91 e8 20 00 	restore  %g0, 0, %o0

00004250 <xdr_ypbind_setdom>:
xdr_ypbind_setdom():
    4250:	9d e3 bf 90 	save  %sp, -112, %sp
    4254:	92 10 00 19 	mov  %i1, %o1
    4258:	7f ff fe ec 	call  3e08 <xdr_domainname>
    425c:	90 10 00 18 	mov  %i0, %o0
    4260:	80 a2 20 00 	cmp  %o0, 0
    4264:	92 06 60 04 	add  %i1, 4, %o1
    4268:	02 80 00 09 	be  428c <xdr_ypbind_setdom+0x3c>
    426c:	90 10 00 18 	mov  %i0, %o0
    4270:	7f ff ff d6 	call  41c8 <xdr_ypbind_binding>
    4274:	b2 06 60 0c 	add  %i1, 0xc, %i1
    4278:	80 a2 20 00 	cmp  %o0, 0
    427c:	02 80 00 04 	be  428c <xdr_ypbind_setdom+0x3c>
    4280:	01 00 00 00 	nop 
    4284:	10 80 78 c1 	b  22588 <xdr_u_int@plt>
    4288:	81 e8 00 00 	restore 
    428c:	81 c7 e0 08 	ret 
    4290:	91 e8 20 00 	restore  %g0, 0, %o0

00004294 <xdr_ypall>:
xdr_ypall():
    4294:	9d e3 b7 70 	save  %sp, -2192, %sp
    4298:	84 10 20 00 	clr  %g2
    429c:	86 10 20 00 	clr  %g3
    42a0:	c4 3f bf e0 	std  %g2, [ %fp + -32 ]
    42a4:	c4 3f bf d8 	std  %g2, [ %fp + -40 ]
    42a8:	88 10 24 00 	mov  0x400, %g4
    42ac:	82 07 bb d8 	add  %fp, -1064, %g1
    42b0:	84 07 b7 d8 	add  %fp, -2088, %g2
    42b4:	c2 27 bf e8 	st  %g1, [ %fp + -24 ]
    42b8:	c4 27 bf e0 	st  %g2, [ %fp + -32 ]
    42bc:	c8 27 bf dc 	st  %g4, [ %fp + -36 ]
    42c0:	c8 27 bf e4 	st  %g4, [ %fp + -28 ]
    42c4:	92 07 b7 d4 	add  %fp, -2092, %o1
    42c8:	40 00 79 13 	call  22714 <xdr_bool@plt>
    42cc:	90 10 00 18 	mov  %i0, %o0
    42d0:	80 a2 20 00 	cmp  %o0, 0
    42d4:	92 07 bf d8 	add  %fp, -40, %o1
    42d8:	02 80 00 17 	be  4334 <xdr_ypall+0xa0>
    42dc:	90 10 00 18 	mov  %i0, %o0
    42e0:	c2 07 b7 d4 	ld  [ %fp + -2092 ], %g1
    42e4:	80 a0 60 00 	cmp  %g1, 0
    42e8:	22 80 00 14 	be,a   4338 <xdr_ypall+0xa4>
    42ec:	b0 10 20 01 	mov  1, %i0
    42f0:	7f ff ff 38 	call  3fd0 <xdr_ypresp_key_val>
    42f4:	01 00 00 00 	nop 
    42f8:	80 a2 20 00 	cmp  %o0, 0
    42fc:	02 80 00 0e 	be  4334 <xdr_ypall+0xa0>
    4300:	d0 07 bf d8 	ld  [ %fp + -40 ], %o0
    4304:	c2 06 40 00 	ld  [ %i1 ], %g1
    4308:	d2 07 bf e8 	ld  [ %fp + -24 ], %o1
    430c:	d4 07 bf e4 	ld  [ %fp + -28 ], %o2
    4310:	d6 07 bf e0 	ld  [ %fp + -32 ], %o3
    4314:	d8 07 bf dc 	ld  [ %fp + -36 ], %o4
    4318:	9f c0 40 00 	call  %g1
    431c:	da 06 60 04 	ld  [ %i1 + 4 ], %o5
    4320:	80 a2 20 00 	cmp  %o0, 0
    4324:	02 bf ff e9 	be  42c8 <xdr_ypall+0x34>
    4328:	92 07 b7 d4 	add  %fp, -2092, %o1
    432c:	10 80 00 03 	b  4338 <xdr_ypall+0xa4>
    4330:	b0 10 20 01 	mov  1, %i0
    4334:	b0 10 20 00 	clr  %i0
    4338:	81 c7 e0 08 	ret 
    433c:	81 e8 00 00 	restore 
    4340:	00 00 15 18 	unimp  0x1518
    4344:	00 00 15 ec 	unimp  0x15ec
    4348:	00 00 15 e0 	unimp  0x15e0
    434c:	00 00 15 d4 	unimp  0x15d4
    4350:	00 00 15 c8 	unimp  0x15c8
    4354:	00 00 15 bc 	unimp  0x15bc
    4358:	00 00 15 b0 	unimp  0x15b0
    435c:	00 00 15 a4 	unimp  0x15a4
    4360:	00 00 15 98 	unimp  0x1598
    4364:	00 00 15 8c 	unimp  0x158c
    4368:	00 00 15 80 	unimp  0x1580
    436c:	00 00 15 74 	unimp  0x1574
    4370:	00 00 15 68 	unimp  0x1568
    4374:	00 00 15 5c 	unimp  0x155c
    4378:	00 00 15 50 	unimp  0x1550
    437c:	00 00 15 44 	unimp  0x1544
    4380:	00 00 15 38 	unimp  0x1538
    4384:	81 c3 e0 08 	retl 
    4388:	ae 03 c0 17 	add  %o7, %l7, %l7

0000438c <yp_bind_client_create>:
yp_bind_client_create():
    438c:	9d e3 bf 88 	save  %sp, -120, %sp
    4390:	82 10 20 02 	mov  2, %g1
    4394:	c2 36 60 48 	sth  %g1, [ %i1 + 0x48 ]
    4398:	c2 16 a0 08 	lduh  [ %i2 + 8 ], %g1
    439c:	c2 36 60 4a 	sth  %g1, [ %i1 + 0x4a ]
    43a0:	c4 06 a0 04 	ld  [ %i2 + 4 ], %g2
    43a4:	2f 00 00 77 	sethi  %hi(0x1dc00), %l7
    43a8:	7f ff ff f7 	call  4384 <xdr_ypall+0xf0>
    43ac:	ae 05 e0 58 	add  %l7, 0x58, %l7	! 1dc58 <__FRAME_END__+0xcc30>
    43b0:	c4 26 60 4c 	st  %g2, [ %i1 + 0x4c ]
    43b4:	92 10 00 18 	mov  %i0, %o1
    43b8:	94 10 20 40 	mov  0x40, %o2
    43bc:	40 00 79 18 	call  2281c <strncpy@plt>
    43c0:	90 06 60 04 	add  %i1, 4, %o0
    43c4:	03 00 00 00 	sethi  %hi(0), %g1
    43c8:	82 10 60 1c 	or  %g1, 0x1c, %g1	! 1c <GLIBC_2.0+0x1c>
    43cc:	c4 05 c0 01 	ld  [ %l7 + %g1 ], %g2
    43d0:	c8 00 a0 04 	ld  [ %g2 + 4 ], %g4
    43d4:	c6 00 80 00 	ld  [ %g2 ], %g3
    43d8:	82 10 3f ff 	mov  -1, %g1
    43dc:	13 00 00 61 	sethi  %hi(0x18400), %o1
    43e0:	92 12 62 a4 	or  %o1, 0x2a4, %o1	! 186a4 <__FRAME_END__+0x767c>
    43e4:	94 10 20 02 	mov  2, %o2
    43e8:	c2 26 60 58 	st  %g1, [ %i1 + 0x58 ]
    43ec:	c6 27 bf e8 	st  %g3, [ %fp + -24 ]
    43f0:	c8 27 bf ec 	st  %g4, [ %fp + -20 ]
    43f4:	c0 2e 60 44 	clrb  [ %i1 + 0x44 ]
    43f8:	96 07 bf e8 	add  %fp, -24, %o3
    43fc:	98 06 60 58 	add  %i1, 0x58, %o4
    4400:	40 00 78 ad 	call  226b4 <clntudp_create@plt>
    4404:	90 06 60 48 	add  %i1, 0x48, %o0
    4408:	92 10 20 02 	mov  2, %o1
    440c:	94 10 20 01 	mov  1, %o2
    4410:	80 a2 20 00 	cmp  %o0, 0
    4414:	02 80 00 0a 	be  443c <yp_bind_client_create+0xb0>
    4418:	d0 26 60 5c 	st  %o0, [ %i1 + 0x5c ]
    441c:	40 00 78 ca 	call  22744 <fcntl@plt>
    4420:	d0 06 60 58 	ld  [ %i1 + 0x58 ], %o0
    4424:	03 00 00 00 	sethi  %hi(0), %g1
    4428:	80 a2 3f ff 	cmp  %o0, -1
    442c:	12 80 00 04 	bne  443c <yp_bind_client_create+0xb0>
    4430:	82 10 60 30 	or  %g1, 0x30, %g1
    4434:	40 00 78 31 	call  224f8 <perror@plt>
    4438:	d0 05 c0 01 	ld  [ %l7 + %g1 ], %o0
    443c:	01 00 00 00 	nop 
    4440:	81 c7 e0 08 	ret 
    4444:	81 e8 00 00 	restore 

00004448 <__yp_unbind>:
__yp_unbind():
    4448:	9d e3 bf 90 	save  %sp, -112, %sp
    444c:	d0 06 20 5c 	ld  [ %i0 + 0x5c ], %o0
    4450:	c4 02 20 04 	ld  [ %o0 + 4 ], %g2
    4454:	c2 00 a0 10 	ld  [ %g2 + 0x10 ], %g1
    4458:	9f c0 40 00 	call  %g1
    445c:	01 00 00 00 	nop 
    4460:	10 80 78 e0 	b  227e0 <free@plt>
    4464:	81 e8 00 00 	restore 
    4468:	01 00 00 00 	nop 

0000446c <yp_unbind_locked>:
yp_unbind_locked():
    446c:	9d e3 bf 90 	save  %sp, -112, %sp
    4470:	03 00 00 00 	sethi  %hi(0), %g1
    4474:	2f 00 00 76 	sethi  %hi(0x1d800), %l7
    4478:	7f ff ff c3 	call  4384 <xdr_ypall+0xf0>
    447c:	ae 05 e3 88 	add  %l7, 0x388, %l7	! 1db88 <__FRAME_END__+0xcb60>
    4480:	82 10 60 18 	or  %g1, 0x18, %g1
    4484:	c2 05 c0 01 	ld  [ %l7 + %g1 ], %g1
    4488:	e0 00 40 00 	ld  [ %g1 ], %l0
    448c:	80 a4 20 00 	cmp  %l0, 0
    4490:	02 80 00 16 	be  44e8 <yp_unbind_locked+0x7c>
    4494:	a2 10 20 00 	clr  %l1
    4498:	a4 10 00 01 	mov  %g1, %l2
    449c:	90 04 20 04 	add  %l0, 4, %o0
    44a0:	40 00 78 0d 	call  224d4 <strcmp@plt>
    44a4:	92 10 00 18 	mov  %i0, %o1
    44a8:	80 a2 20 00 	cmp  %o0, 0
    44ac:	02 80 00 08 	be  44cc <yp_unbind_locked+0x60>
    44b0:	80 a4 60 00 	cmp  %l1, 0
    44b4:	a2 10 00 10 	mov  %l0, %l1
    44b8:	e0 04 00 00 	ld  [ %l0 ], %l0
    44bc:	80 a4 20 00 	cmp  %l0, 0
    44c0:	12 bf ff f8 	bne  44a0 <yp_unbind_locked+0x34>
    44c4:	90 04 20 04 	add  %l0, 4, %o0
    44c8:	30 80 00 08 	b,a   44e8 <yp_unbind_locked+0x7c>
    44cc:	22 80 00 04 	be,a   44dc <yp_unbind_locked+0x70>
    44d0:	c2 04 80 00 	ld  [ %l2 ], %g1
    44d4:	10 bf ff dd 	b  4448 <__yp_unbind>
    44d8:	91 e8 00 10 	restore  %g0, %l0, %o0
    44dc:	c4 00 40 00 	ld  [ %g1 ], %g2
    44e0:	10 bf ff fd 	b  44d4 <yp_unbind_locked+0x68>
    44e4:	c4 24 80 00 	st  %g2, [ %l2 ]
    44e8:	81 c7 e0 08 	ret 
    44ec:	81 e8 00 00 	restore 

000044f0 <yp_unbind>:
yp_unbind():
    44f0:	9d e3 bf 90 	save  %sp, -112, %sp
    44f4:	03 00 00 00 	sethi  %hi(0), %g1
    44f8:	2f 00 00 76 	sethi  %hi(0x1d800), %l7
    44fc:	7f ff ff a2 	call  4384 <xdr_ypall+0xf0>
    4500:	ae 05 e3 04 	add  %l7, 0x304, %l7	! 1db04 <__FRAME_END__+0xcadc>
    4504:	82 10 63 68 	or  %g1, 0x368, %g1
    4508:	05 00 00 00 	sethi  %hi(0), %g2
    450c:	c2 05 c0 01 	ld  [ %l7 + %g1 ], %g1
    4510:	80 a0 60 00 	cmp  %g1, 0
    4514:	02 80 00 04 	be  4524 <yp_unbind+0x34>
    4518:	84 10 a0 20 	or  %g2, 0x20, %g2
    451c:	9f c0 40 00 	call  %g1
    4520:	d0 05 c0 02 	ld  [ %l7 + %g2 ], %o0
    4524:	7f ff ff d2 	call  446c <yp_unbind_locked>
    4528:	90 10 00 18 	mov  %i0, %o0
    452c:	03 00 00 00 	sethi  %hi(0), %g1
    4530:	82 10 63 a8 	or  %g1, 0x3a8, %g1	! 3a8 <GLIBC_2.0+0x3a8>
    4534:	05 00 00 00 	sethi  %hi(0), %g2
    4538:	c2 05 c0 01 	ld  [ %l7 + %g1 ], %g1
    453c:	80 a0 60 00 	cmp  %g1, 0
    4540:	02 80 00 04 	be  4550 <yp_unbind+0x60>
    4544:	84 10 a0 20 	or  %g2, 0x20, %g2
    4548:	9f c0 40 00 	call  %g1
    454c:	d0 05 c0 02 	ld  [ %l7 + %g2 ], %o0
    4550:	01 00 00 00 	nop 
    4554:	81 c7 e0 08 	ret 
    4558:	81 e8 00 00 	restore 

0000455c <__ypclnt_call>:
__ypclnt_call():
    455c:	9d e3 bf 80 	save  %sp, -128, %sp
    4560:	e0 07 a0 5c 	ld  [ %fp + 0x5c ], %l0
    4564:	03 00 00 00 	sethi  %hi(0), %g1
    4568:	c8 04 00 00 	ld  [ %l0 ], %g4
    456c:	2f 00 00 76 	sethi  %hi(0x1d800), %l7
    4570:	7f ff ff 85 	call  4384 <xdr_ypall+0xf0>
    4574:	ae 05 e2 90 	add  %l7, 0x290, %l7	! 1da90 <__FRAME_END__+0xca68>
    4578:	82 10 60 10 	or  %g1, 0x10, %g1
    457c:	c4 01 20 5c 	ld  [ %g4 + 0x5c ], %g2
    4580:	c6 05 c0 01 	ld  [ %l7 + %g1 ], %g3
    4584:	d0 00 a0 04 	ld  [ %g2 + 4 ], %o0
    4588:	82 07 bf e8 	add  %fp, -24, %g1
    458c:	c2 23 a0 5c 	st  %g1, [ %sp + 0x5c ]
    4590:	c2 00 c0 00 	ld  [ %g3 ], %g1
    4594:	c2 27 bf e8 	st  %g1, [ %fp + -24 ]
    4598:	c4 00 e0 04 	ld  [ %g3 + 4 ], %g2
    459c:	c2 02 00 00 	ld  [ %o0 ], %g1
    45a0:	c4 27 bf ec 	st  %g2, [ %fp + -20 ]
    45a4:	92 10 00 19 	mov  %i1, %o1
    45a8:	94 10 00 1a 	mov  %i2, %o2
    45ac:	96 10 00 1b 	mov  %i3, %o3
    45b0:	98 10 00 1c 	mov  %i4, %o4
    45b4:	9a 10 00 1d 	mov  %i5, %o5
    45b8:	9f c0 40 00 	call  %g1
    45bc:	d0 01 20 5c 	ld  [ %g4 + 0x5c ], %o0
    45c0:	80 a2 20 00 	cmp  %o0, 0
    45c4:	02 80 00 0e 	be  45fc <__ypclnt_call+0xa0>
    45c8:	b0 10 20 00 	clr  %i0
    45cc:	05 00 00 00 	sethi  %hi(0), %g2
    45d0:	c2 07 a0 60 	ld  [ %fp + 0x60 ], %g1
    45d4:	80 a0 60 00 	cmp  %g1, 0
    45d8:	12 80 00 04 	bne  45e8 <__ypclnt_call+0x8c>
    45dc:	84 10 a0 34 	or  %g2, 0x34, %g2
    45e0:	10 80 00 07 	b  45fc <__ypclnt_call+0xa0>
    45e4:	b0 10 20 02 	mov  2, %i0
    45e8:	c2 04 00 00 	ld  [ %l0 ], %g1
    45ec:	d0 00 60 5c 	ld  [ %g1 + 0x5c ], %o0
    45f0:	40 00 78 b2 	call  228b8 <clnt_perror@plt>
    45f4:	d2 05 c0 02 	ld  [ %l7 + %g2 ], %o1
    45f8:	b0 10 20 02 	mov  2, %i0
    45fc:	81 c7 e0 08 	ret 
    4600:	81 e8 00 00 	restore 

00004604 <ypprot_err>:
ypprot_err():
    4604:	9d e3 bf 90 	save  %sp, -112, %sp
    4608:	82 06 20 08 	add  %i0, 8, %g1
    460c:	05 00 00 00 	sethi  %hi(0), %g2
    4610:	86 10 00 18 	mov  %i0, %g3
    4614:	2f 00 00 76 	sethi  %hi(0x1d800), %l7
    4618:	7f ff ff 5b 	call  4384 <xdr_ypall+0xf0>
    461c:	ae 05 e1 e8 	add  %l7, 0x1e8, %l7	! 1d9e8 <__FRAME_END__+0xc9c0>
    4620:	84 10 a0 14 	or  %g2, 0x14, %g2
    4624:	80 a0 60 0a 	cmp  %g1, 0xa
    4628:	18 80 00 05 	bgu  463c <ypprot_err+0x38>
    462c:	b0 10 20 06 	mov  6, %i0
    4630:	c2 05 c0 02 	ld  [ %l7 + %g2 ], %g1
    4634:	82 00 c0 01 	add  %g3, %g1, %g1
    4638:	f0 48 60 08 	ldsb  [ %g1 + 8 ], %i0
    463c:	81 c7 e0 08 	ret 
    4640:	81 e8 00 00 	restore 

00004644 <yp_get_default_domain>:
yp_get_default_domain():
    4644:	9d e3 bf 90 	save  %sp, -112, %sp
    4648:	03 00 00 00 	sethi  %hi(0), %g1
    464c:	2f 00 00 76 	sethi  %hi(0x1d800), %l7
    4650:	7f ff ff 4d 	call  4384 <xdr_ypall+0xf0>
    4654:	ae 05 e1 b0 	add  %l7, 0x1b0, %l7	! 1d9b0 <__FRAME_END__+0xc988>
    4658:	82 10 63 68 	or  %g1, 0x368, %g1
    465c:	c4 05 c0 01 	ld  [ %l7 + %g1 ], %g2
    4660:	c0 26 00 00 	clr  [ %i0 ]
    4664:	80 a0 a0 00 	cmp  %g2, 0
    4668:	02 80 00 06 	be  4680 <yp_get_default_domain+0x3c>
    466c:	a2 10 20 00 	clr  %l1
    4670:	03 00 00 00 	sethi  %hi(0), %g1
    4674:	82 10 60 24 	or  %g1, 0x24, %g1	! 24 <GLIBC_2.0+0x24>
    4678:	9f c0 80 00 	call  %g2
    467c:	d0 05 c0 01 	ld  [ %l7 + %g1 ], %o0
    4680:	03 00 00 00 	sethi  %hi(0), %g1
    4684:	82 10 60 28 	or  %g1, 0x28, %g1	! 28 <GLIBC_2.0+0x28>
    4688:	e0 05 c0 01 	ld  [ %l7 + %g1 ], %l0
    468c:	c4 4c 00 00 	ldsb  [ %l0 ], %g2
    4690:	80 a0 a0 00 	cmp  %g2, 0
    4694:	22 80 00 0d 	be,a   46c8 <yp_get_default_domain+0x84>
    4698:	90 10 00 10 	mov  %l0, %o0
    469c:	e0 26 00 00 	st  %l0, [ %i0 ]
    46a0:	03 00 00 00 	sethi  %hi(0), %g1
    46a4:	82 10 63 a8 	or  %g1, 0x3a8, %g1	! 3a8 <GLIBC_2.0+0x3a8>
    46a8:	c4 05 c0 01 	ld  [ %l7 + %g1 ], %g2
    46ac:	80 a0 a0 00 	cmp  %g2, 0
    46b0:	02 80 00 16 	be  4708 <yp_get_default_domain+0xc4>
    46b4:	03 00 00 00 	sethi  %hi(0), %g1
    46b8:	82 10 60 24 	or  %g1, 0x24, %g1	! 24 <GLIBC_2.0+0x24>
    46bc:	9f c0 80 00 	call  %g2
    46c0:	d0 05 c0 01 	ld  [ %l7 + %g1 ], %o0
    46c4:	30 80 00 11 	b,a   4708 <yp_get_default_domain+0xc4>
    46c8:	40 00 77 e0 	call  22648 <getdomainname@plt>
    46cc:	92 10 24 00 	mov  0x400, %o1
    46d0:	80 a2 20 00 	cmp  %o0, 0
    46d4:	32 bf ff f3 	bne,a   46a0 <yp_get_default_domain+0x5c>
    46d8:	a2 10 20 0c 	mov  0xc, %l1
    46dc:	03 00 00 00 	sethi  %hi(0), %g1
    46e0:	82 10 60 38 	or  %g1, 0x38, %g1	! 38 <GLIBC_2.0+0x38>
    46e4:	d2 05 c0 01 	ld  [ %l7 + %g1 ], %o1
    46e8:	40 00 77 7b 	call  224d4 <strcmp@plt>
    46ec:	90 10 00 10 	mov  %l0, %o0
    46f0:	80 a2 20 00 	cmp  %o0, 0
    46f4:	32 bf ff eb 	bne,a   46a0 <yp_get_default_domain+0x5c>
    46f8:	e0 26 00 00 	st  %l0, [ %i0 ]
    46fc:	c0 2c 00 00 	clrb  [ %l0 ]
    4700:	10 bf ff e8 	b  46a0 <yp_get_default_domain+0x5c>
    4704:	a2 10 20 0c 	mov  0xc, %l1
    4708:	81 c7 e0 08 	ret 
    470c:	91 e8 00 11 	restore  %g0, %l1, %o0

00004710 <__xdr_ypresp_all>:
__xdr_ypresp_all():
    4710:	9d e3 bf 78 	save  %sp, -136, %sp
    4714:	2d 00 00 00 	sethi  %hi(0), %l6
    4718:	2f 00 00 76 	sethi  %hi(0x1d800), %l7
    471c:	7f ff ff 1a 	call  4384 <xdr_ypall+0xf0>
    4720:	ae 05 e0 e4 	add  %l7, 0xe4, %l7	! 1d8e4 <__FRAME_END__+0xc8bc>
    4724:	aa 07 bf d8 	add  %fp, -40, %l5
    4728:	10 80 00 2c 	b  47d8 <__xdr_ypresp_all+0xc8>
    472c:	ba 15 a3 4c 	or  %l6, 0x34c, %i5
    4730:	c2 07 bf d8 	ld  [ %fp + -40 ], %g1
    4734:	80 a0 60 00 	cmp  %g1, 0
    4738:	02 80 00 3a 	be  4820 <__xdr_ypresp_all+0x110>
    473c:	c6 07 bf dc 	ld  [ %fp + -36 ], %g3
    4740:	80 a0 e0 01 	cmp  %g3, 1
    4744:	12 80 00 3f 	bne  4840 <__xdr_ypresp_all+0x130>
    4748:	e2 07 bf e8 	ld  [ %fp + -24 ], %l1
    474c:	82 04 60 08 	add  %l1, 8, %g1
    4750:	82 08 7f f8 	and  %g1, -8, %g1
    4754:	e0 07 bf e0 	ld  [ %fp + -32 ], %l0
    4758:	9c 23 80 01 	sub  %sp, %g1, %sp
    475c:	84 04 20 08 	add  %l0, 8, %g2
    4760:	84 08 bf f8 	and  %g2, -8, %g2
    4764:	a6 03 a0 60 	add  %sp, 0x60, %l3
    4768:	9c 23 80 02 	sub  %sp, %g2, %sp
    476c:	c6 26 40 00 	st  %g3, [ %i1 ]
    4770:	a4 03 a0 60 	add  %sp, 0x60, %l2
    4774:	d2 07 bf ec 	ld  [ %fp + -20 ], %o1
    4778:	94 10 00 11 	mov  %l1, %o2
    477c:	40 00 77 44 	call  2248c <mempcpy@plt>
    4780:	90 10 00 13 	mov  %l3, %o0
    4784:	c0 2a 00 00 	clrb  [ %o0 ]
    4788:	94 10 00 10 	mov  %l0, %o2
    478c:	d2 07 bf e4 	ld  [ %fp + -28 ], %o1
    4790:	40 00 77 3f 	call  2248c <mempcpy@plt>
    4794:	90 10 00 12 	mov  %l2, %o0
    4798:	82 15 a3 4c 	or  %l6, 0x34c, %g1
    479c:	c0 2a 00 00 	clrb  [ %o0 ]
    47a0:	d0 05 c0 01 	ld  [ %l7 + %g1 ], %o0
    47a4:	40 00 77 52 	call  224ec <xdr_free@plt>
    47a8:	92 10 00 15 	mov  %l5, %o1
    47ac:	92 10 00 13 	mov  %l3, %o1
    47b0:	94 10 00 11 	mov  %l1, %o2
    47b4:	96 10 00 12 	mov  %l2, %o3
    47b8:	98 10 00 10 	mov  %l0, %o4
    47bc:	c2 06 60 08 	ld  [ %i1 + 8 ], %g1
    47c0:	d0 06 40 00 	ld  [ %i1 ], %o0
    47c4:	9f c0 40 00 	call  %g1
    47c8:	da 06 60 04 	ld  [ %i1 + 4 ], %o5
    47cc:	80 a2 20 00 	cmp  %o0, 0
    47d0:	12 80 00 2b 	bne  487c <__xdr_ypresp_all+0x16c>
    47d4:	9c 10 00 14 	mov  %l4, %sp
    47d8:	84 10 20 00 	clr  %g2
    47dc:	86 10 20 00 	clr  %g3
    47e0:	c4 3f bf e8 	std  %g2, [ %fp + -24 ]
    47e4:	c4 3f bf d8 	std  %g2, [ %fp + -40 ]
    47e8:	c4 3f bf e0 	std  %g2, [ %fp + -32 ]
    47ec:	92 10 00 15 	mov  %l5, %o1
    47f0:	7f ff fe 1f 	call  406c <xdr_ypresp_all>
    47f4:	90 10 00 18 	mov  %i0, %o0
    47f8:	80 a2 20 00 	cmp  %o0, 0
    47fc:	12 bf ff cd 	bne  4730 <__xdr_ypresp_all+0x20>
    4800:	a8 10 00 0e 	mov  %sp, %l4
    4804:	d0 05 c0 1d 	ld  [ %l7 + %i5 ], %o0
    4808:	40 00 77 39 	call  224ec <xdr_free@plt>
    480c:	92 10 00 15 	mov  %l5, %o1
    4810:	82 10 3f fa 	mov  -6, %g1
    4814:	c2 26 40 00 	st  %g1, [ %i1 ]
    4818:	10 80 00 1a 	b  4880 <__xdr_ypresp_all+0x170>
    481c:	b0 10 20 00 	clr  %i0
    4820:	82 15 a3 4c 	or  %l6, 0x34c, %g1
    4824:	d0 05 c0 01 	ld  [ %l7 + %g1 ], %o0
    4828:	40 00 77 31 	call  224ec <xdr_free@plt>
    482c:	92 10 00 15 	mov  %l5, %o1
    4830:	82 10 20 02 	mov  2, %g1
    4834:	c2 26 40 00 	st  %g1, [ %i1 ]
    4838:	10 80 00 12 	b  4880 <__xdr_ypresp_all+0x170>
    483c:	b0 10 20 01 	mov  1, %i0
    4840:	82 15 a3 4c 	or  %l6, 0x34c, %g1
    4844:	d0 05 c0 01 	ld  [ %l7 + %g1 ], %o0
    4848:	c6 26 40 00 	st  %g3, [ %i1 ]
    484c:	40 00 77 28 	call  224ec <xdr_free@plt>
    4850:	92 10 00 15 	mov  %l5, %o1
    4854:	da 06 60 04 	ld  [ %i1 + 4 ], %o5
    4858:	c2 06 60 08 	ld  [ %i1 + 8 ], %g1
    485c:	d0 06 40 00 	ld  [ %i1 ], %o0
    4860:	92 10 20 00 	clr  %o1
    4864:	94 10 20 00 	clr  %o2
    4868:	96 10 20 00 	clr  %o3
    486c:	9f c0 40 00 	call  %g1
    4870:	98 10 20 00 	clr  %o4
    4874:	10 80 00 03 	b  4880 <__xdr_ypresp_all+0x170>
    4878:	b0 10 20 01 	mov  1, %i0
    487c:	b0 10 20 01 	mov  1, %i0
    4880:	81 c7 e0 08 	ret 
    4884:	81 e8 00 00 	restore 

00004888 <ypbinderr_string>:
ypbinderr_string():
    4888:	9d e3 bf 90 	save  %sp, -112, %sp
    488c:	03 00 00 00 	sethi  %hi(0), %g1
    4890:	2f 00 00 75 	sethi  %hi(0x1d400), %l7
    4894:	7f ff fe bc 	call  4384 <xdr_ypall+0xf0>
    4898:	ae 05 e3 6c 	add  %l7, 0x36c, %l7	! 1d76c <__FRAME_END__+0xc744>
    489c:	80 a6 20 01 	cmp  %i0, 1
    48a0:	02 80 00 0e 	be  48d8 <ypbinderr_string+0x50>
    48a4:	82 10 60 3c 	or  %g1, 0x3c, %g1
    48a8:	80 a6 20 01 	cmp  %i0, 1
    48ac:	04 80 00 11 	ble  48f0 <ypbinderr_string+0x68>
    48b0:	03 00 00 00 	sethi  %hi(0), %g1
    48b4:	80 a6 20 02 	cmp  %i0, 2
    48b8:	02 80 00 08 	be  48d8 <ypbinderr_string+0x50>
    48bc:	82 10 60 40 	or  %g1, 0x40, %g1
    48c0:	03 00 00 00 	sethi  %hi(0), %g1
    48c4:	80 a6 20 03 	cmp  %i0, 3
    48c8:	02 80 00 04 	be  48d8 <ypbinderr_string+0x50>
    48cc:	82 10 60 44 	or  %g1, 0x44, %g1
    48d0:	03 00 00 00 	sethi  %hi(0), %g1
    48d4:	82 10 60 48 	or  %g1, 0x48, %g1	! 48 <GLIBC_2.0+0x48>
    48d8:	f2 05 c0 01 	ld  [ %l7 + %g1 ], %i1
    48dc:	03 00 00 00 	sethi  %hi(0), %g1
    48e0:	82 10 63 90 	or  %g1, 0x390, %g1	! 390 <GLIBC_2.0+0x390>
    48e4:	f0 05 c0 01 	ld  [ %l7 + %g1 ], %i0
    48e8:	10 80 77 b2 	b  227b0 <__dcgettext@plt>
    48ec:	95 e8 20 05 	restore  %g0, 5, %o2
    48f0:	03 00 00 00 	sethi  %hi(0), %g1
    48f4:	80 a6 20 00 	cmp  %i0, 0
    48f8:	02 bf ff f8 	be  48d8 <ypbinderr_string+0x50>
    48fc:	82 10 60 4c 	or  %g1, 0x4c, %g1
    4900:	10 bf ff f5 	b  48d4 <ypbinderr_string+0x4c>
    4904:	03 00 00 00 	sethi  %hi(0), %g1

00004908 <yp_bind_ypbindprog>:
yp_bind_ypbindprog():
    4908:	9d e3 bf 58 	save  %sp, -168, %sp
    490c:	84 10 20 02 	mov  2, %g2
    4910:	c4 37 bf e0 	sth  %g2, [ %fp + -32 ]
    4914:	03 1f c0 00 	sethi  %hi(0x7f000000), %g1
    4918:	82 10 60 01 	or  %g1, 1, %g1	! 7f000001 <_end+0x7efdb229>
    491c:	84 10 3f ff 	mov  -1, %g2
    4920:	13 00 00 61 	sethi  %hi(0x18400), %o1
    4924:	2f 00 00 75 	sethi  %hi(0x1d400), %l7
    4928:	7f ff fe 97 	call  4384 <xdr_ypall+0xf0>
    492c:	ae 05 e2 d8 	add  %l7, 0x2d8, %l7	! 1d6d8 <__FRAME_END__+0xc6b0>
    4930:	f0 27 a0 44 	st  %i0, [ %fp + 0x44 ]
    4934:	c2 27 bf e4 	st  %g1, [ %fp + -28 ]
    4938:	c4 27 bf c4 	st  %g2, [ %fp + -60 ]
    493c:	92 12 62 a7 	or  %o1, 0x2a7, %o1
    4940:	c0 37 bf e2 	clrh  [ %fp + -30 ]
    4944:	96 07 bf c4 	add  %fp, -60, %o3
    4948:	90 07 bf e0 	add  %fp, -32, %o0
    494c:	94 10 20 02 	mov  2, %o2
    4950:	98 10 20 00 	clr  %o4
    4954:	40 00 76 bf 	call  22450 <clnttcp_create@plt>
    4958:	9a 10 20 00 	clr  %o5
    495c:	a0 92 20 00 	orcc  %o0, 0, %l0
    4960:	02 80 00 41 	be  4a64 <yp_bind_ypbindprog+0x15c>
    4964:	b0 10 20 0a 	mov  0xa, %i0
    4968:	05 00 00 00 	sethi  %hi(0), %g2
    496c:	19 00 00 00 	sethi  %hi(0), %o4
    4970:	1f 00 00 00 	sethi  %hi(0), %o7
    4974:	b0 07 bf d0 	add  %fp, -48, %i0
    4978:	c2 17 bf e2 	lduh  [ %fp + -30 ], %g1
    497c:	84 10 a0 10 	or  %g2, 0x10, %g2
    4980:	98 13 23 88 	or  %o4, 0x388, %o4
    4984:	9e 13 e3 84 	or  %o7, 0x384, %o7
    4988:	96 07 a0 44 	add  %fp, 0x44, %o3
    498c:	9a 10 00 18 	mov  %i0, %o5
    4990:	80 a0 63 ff 	cmp  %g1, 0x3ff
    4994:	18 80 00 30 	bgu  4a54 <yp_bind_ypbindprog+0x14c>
    4998:	92 10 20 01 	mov  1, %o1
    499c:	c8 04 20 04 	ld  [ %l0 + 4 ], %g4
    49a0:	82 07 bf c8 	add  %fp, -56, %g1
    49a4:	c6 05 c0 02 	ld  [ %l7 + %g2 ], %g3
    49a8:	c2 23 a0 5c 	st  %g1, [ %sp + 0x5c ]
    49ac:	c2 00 c0 00 	ld  [ %g3 ], %g1
    49b0:	c4 00 e0 04 	ld  [ %g3 + 4 ], %g2
    49b4:	c2 27 bf c8 	st  %g1, [ %fp + -56 ]
    49b8:	d4 05 c0 0c 	ld  [ %l7 + %o4 ], %o2
    49bc:	c4 27 bf cc 	st  %g2, [ %fp + -52 ]
    49c0:	d8 05 c0 0f 	ld  [ %l7 + %o7 ], %o4
    49c4:	c2 01 00 00 	ld  [ %g4 ], %g1
    49c8:	9f c0 40 00 	call  %g1
    49cc:	01 00 00 00 	nop 
    49d0:	80 a2 20 00 	cmp  %o0, 0
    49d4:	12 80 00 20 	bne  4a54 <yp_bind_ypbindprog+0x14c>
    49d8:	90 10 00 10 	mov  %l0, %o0
    49dc:	c2 04 20 04 	ld  [ %l0 + 4 ], %g1
    49e0:	c4 00 60 10 	ld  [ %g1 + 0x10 ], %g2
    49e4:	9f c0 80 00 	call  %g2
    49e8:	01 00 00 00 	nop 
    49ec:	c2 07 bf d0 	ld  [ %fp + -48 ], %g1
    49f0:	92 10 00 19 	mov  %i1, %o1
    49f4:	80 a0 60 01 	cmp  %g1, 1
    49f8:	12 80 00 0a 	bne  4a20 <yp_bind_ypbindprog+0x118>
    49fc:	94 10 00 18 	mov  %i0, %o2
    4a00:	c0 26 60 48 	clr  [ %i1 + 0x48 ]
    4a04:	c0 26 60 4c 	clr  [ %i1 + 0x4c ]
    4a08:	c0 26 60 50 	clr  [ %i1 + 0x50 ]
    4a0c:	c0 26 60 54 	clr  [ %i1 + 0x54 ]
    4a10:	7f ff fe 5f 	call  438c <yp_bind_client_create>
    4a14:	d0 07 a0 44 	ld  [ %fp + 0x44 ], %o0
    4a18:	10 80 00 13 	b  4a64 <yp_bind_ypbindprog+0x15c>
    4a1c:	b0 10 20 00 	clr  %i0
    4a20:	7f ff ff 9a 	call  4888 <ypbinderr_string>
    4a24:	d0 07 bf d4 	ld  [ %fp + -44 ], %o0
    4a28:	03 00 00 00 	sethi  %hi(0), %g1
    4a2c:	82 10 63 b0 	or  %g1, 0x3b0, %g1	! 3b0 <GLIBC_2.0+0x3b0>
    4a30:	05 00 00 00 	sethi  %hi(0), %g2
    4a34:	94 10 00 08 	mov  %o0, %o2
    4a38:	c6 05 c0 01 	ld  [ %l7 + %g1 ], %g3
    4a3c:	84 10 a0 50 	or  %g2, 0x50, %g2
    4a40:	d0 00 c0 00 	ld  [ %g3 ], %o0
    4a44:	40 00 77 2b 	call  226f0 <fprintf@plt>
    4a48:	d2 05 c0 02 	ld  [ %l7 + %g2 ], %o1
    4a4c:	10 80 00 06 	b  4a64 <yp_bind_ypbindprog+0x15c>
    4a50:	b0 10 20 03 	mov  3, %i0
    4a54:	c2 04 20 04 	ld  [ %l0 + 4 ], %g1
    4a58:	c4 00 60 10 	ld  [ %g1 + 0x10 ], %g2
    4a5c:	9f c0 80 00 	call  %g2
    4a60:	b0 10 20 0a 	mov  0xa, %i0
    4a64:	01 00 00 00 	nop 
    4a68:	81 c7 e0 08 	ret 
    4a6c:	81 e8 00 00 	restore 

00004a70 <__yp_bind>:
__yp_bind():
    4a70:	9d e3 bf 80 	save  %sp, -128, %sp
    4a74:	2f 00 00 75 	sethi  %hi(0x1d400), %l7
    4a78:	7f ff fe 43 	call  4384 <xdr_ypall+0xf0>
    4a7c:	ae 05 e1 88 	add  %l7, 0x188, %l7	! 1d588 <__FRAME_END__+0xc560>
    4a80:	80 a6 20 00 	cmp  %i0, 0
    4a84:	02 80 00 23 	be  4b10 <__yp_bind+0xa0>
    4a88:	a4 10 20 00 	clr  %l2
    4a8c:	c2 4e 00 00 	ldsb  [ %i0 ], %g1
    4a90:	80 a0 60 00 	cmp  %g1, 0
    4a94:	02 80 00 6a 	be  4c3c <__yp_bind+0x1cc>
    4a98:	90 10 20 01 	mov  1, %o0
    4a9c:	10 80 00 08 	b  4abc <__yp_bind+0x4c>
    4aa0:	e2 06 40 00 	ld  [ %i1 ], %l1
    4aa4:	40 00 76 8c 	call  224d4 <strcmp@plt>
    4aa8:	90 10 00 18 	mov  %i0, %o0
    4aac:	80 a2 20 00 	cmp  %o0, 0
    4ab0:	02 80 00 1a 	be  4b18 <__yp_bind+0xa8>
    4ab4:	80 a4 60 00 	cmp  %l1, 0
    4ab8:	e2 04 40 00 	ld  [ %l1 ], %l1
    4abc:	80 a4 60 00 	cmp  %l1, 0
    4ac0:	12 bf ff f9 	bne  4aa4 <__yp_bind+0x34>
    4ac4:	92 04 60 04 	add  %l1, 4, %o1
    4ac8:	90 10 20 01 	mov  1, %o0
    4acc:	40 00 77 3f 	call  227c8 <calloc@plt>
    4ad0:	92 10 20 60 	mov  0x60, %o1
    4ad4:	a2 92 20 00 	orcc  %o0, 0, %l1
    4ad8:	a4 10 20 01 	mov  1, %l2
    4adc:	02 80 00 58 	be  4c3c <__yp_bind+0x1cc>
    4ae0:	90 10 20 07 	mov  7, %o0
    4ae4:	c2 04 60 5c 	ld  [ %l1 + 0x5c ], %g1
    4ae8:	80 a0 60 00 	cmp  %g1, 0
    4aec:	02 80 00 12 	be  4b34 <__yp_bind+0xc4>
    4af0:	a8 10 00 0e 	mov  %sp, %l4
    4af4:	80 a4 a0 00 	cmp  %l2, 0
    4af8:	02 80 00 51 	be  4c3c <__yp_bind+0x1cc>
    4afc:	90 10 20 00 	clr  %o0
    4b00:	c2 06 40 00 	ld  [ %i1 ], %g1
    4b04:	c2 24 40 00 	st  %g1, [ %l1 ]
    4b08:	10 80 00 4d 	b  4c3c <__yp_bind+0x1cc>
    4b0c:	e2 26 40 00 	st  %l1, [ %i1 ]
    4b10:	10 80 00 4b 	b  4c3c <__yp_bind+0x1cc>
    4b14:	90 10 20 01 	mov  1, %o0
    4b18:	02 bf ff ed 	be  4acc <__yp_bind+0x5c>
    4b1c:	90 10 20 01 	mov  1, %o0
    4b20:	c2 04 60 5c 	ld  [ %l1 + 0x5c ], %g1
    4b24:	80 a0 60 00 	cmp  %g1, 0
    4b28:	12 bf ff f4 	bne  4af8 <__yp_bind+0x88>
    4b2c:	80 a4 a0 00 	cmp  %l2, 0
    4b30:	a8 10 00 0e 	mov  %sp, %l4
    4b34:	40 00 76 ce 	call  2266c <strlen@plt>
    4b38:	90 10 00 18 	mov  %i0, %o0
    4b3c:	82 02 20 26 	add  %o0, 0x26, %g1
    4b40:	82 08 7f f8 	and  %g1, -8, %g1
    4b44:	9c 23 80 01 	sub  %sp, %g1, %sp
    4b48:	05 00 00 00 	sethi  %hi(0), %g2
    4b4c:	03 00 00 00 	sethi  %hi(0), %g1
    4b50:	a0 03 a0 60 	add  %sp, 0x60, %l0
    4b54:	84 10 a0 54 	or  %g2, 0x54, %g2
    4b58:	82 10 60 58 	or  %g1, 0x58, %g1
    4b5c:	92 02 20 1f 	add  %o0, 0x1f, %o1
    4b60:	d4 05 c0 02 	ld  [ %l7 + %g2 ], %o2
    4b64:	d6 05 c0 01 	ld  [ %l7 + %g1 ], %o3
    4b68:	98 10 00 18 	mov  %i0, %o4
    4b6c:	9a 10 20 02 	mov  2, %o5
    4b70:	40 00 76 95 	call  225c4 <snprintf@plt>
    4b74:	90 10 00 10 	mov  %l0, %o0
    4b78:	90 10 00 10 	mov  %l0, %o0
    4b7c:	40 00 77 0a 	call  227a4 <open@plt>
    4b80:	92 10 20 00 	clr  %o1
    4b84:	a0 92 20 00 	orcc  %o0, 0, %l0
    4b88:	06 80 00 0b 	bl  4bb4 <__yp_bind+0x144>
    4b8c:	94 10 20 0c 	mov  0xc, %o2
    4b90:	a6 07 bf e0 	add  %fp, -32, %l3
    4b94:	92 10 00 13 	mov  %l3, %o1
    4b98:	40 00 76 2b 	call  22444 <pread@plt>
    4b9c:	96 10 20 02 	mov  2, %o3
    4ba0:	80 a2 20 0c 	cmp  %o0, 0xc
    4ba4:	02 80 00 22 	be  4c2c <__yp_bind+0x1bc>
    4ba8:	94 10 00 13 	mov  %l3, %o2
    4bac:	40 00 76 4d 	call  224e0 <close@plt>
    4bb0:	90 10 00 10 	mov  %l0, %o0
    4bb4:	c2 04 60 5c 	ld  [ %l1 + 0x5c ], %g1
    4bb8:	80 a0 60 00 	cmp  %g1, 0
    4bbc:	12 bf ff ce 	bne  4af4 <__yp_bind+0x84>
    4bc0:	9c 10 00 14 	mov  %l4, %sp
    4bc4:	90 10 00 18 	mov  %i0, %o0
    4bc8:	7f ff ff 50 	call  4908 <yp_bind_ypbindprog>
    4bcc:	92 10 00 11 	mov  %l1, %o1
    4bd0:	b0 92 20 00 	orcc  %o0, 0, %i0
    4bd4:	22 80 00 0b 	be,a   4c00 <__yp_bind+0x190>
    4bd8:	c2 04 60 5c 	ld  [ %l1 + 0x5c ], %g1
    4bdc:	80 a4 a0 00 	cmp  %l2, 0
    4be0:	12 80 00 04 	bne  4bf0 <__yp_bind+0x180>
    4be4:	01 00 00 00 	nop 
    4be8:	10 80 00 15 	b  4c3c <__yp_bind+0x1cc>
    4bec:	90 10 00 18 	mov  %i0, %o0
    4bf0:	40 00 76 fc 	call  227e0 <free@plt>
    4bf4:	90 10 00 11 	mov  %l1, %o0
    4bf8:	10 80 00 11 	b  4c3c <__yp_bind+0x1cc>
    4bfc:	90 10 00 18 	mov  %i0, %o0
    4c00:	80 a0 60 00 	cmp  %g1, 0
    4c04:	12 bf ff bd 	bne  4af8 <__yp_bind+0x88>
    4c08:	80 a4 a0 00 	cmp  %l2, 0
    4c0c:	12 80 00 04 	bne  4c1c <__yp_bind+0x1ac>
    4c10:	01 00 00 00 	nop 
    4c14:	10 80 00 0a 	b  4c3c <__yp_bind+0x1cc>
    4c18:	90 10 20 0b 	mov  0xb, %o0	! b <GLIBC_2.0+0xb>
    4c1c:	40 00 76 f1 	call  227e0 <free@plt>
    4c20:	90 10 00 11 	mov  %l1, %o0
    4c24:	10 80 00 06 	b  4c3c <__yp_bind+0x1cc>
    4c28:	90 10 20 0b 	mov  0xb, %o0
    4c2c:	90 10 00 18 	mov  %i0, %o0
    4c30:	7f ff fd d7 	call  438c <yp_bind_client_create>
    4c34:	92 10 00 11 	mov  %l1, %o1
    4c38:	30 bf ff dd 	b,a   4bac <__yp_bind+0x13c>
    4c3c:	81 c7 e0 08 	ret 
    4c40:	91 e8 00 08 	restore  %g0, %o0, %o0

00004c44 <do_ypcall>:
do_ypcall():
    4c44:	9d e3 bf 80 	save  %sp, -128, %sp
    4c48:	2f 00 00 74 	sethi  %hi(0x1d000), %l7
    4c4c:	7f ff fd ce 	call  4384 <xdr_ypall+0xf0>
    4c50:	ae 05 e3 b4 	add  %l7, 0x3b4, %l7	! 1d3b4 <__FRAME_END__+0xc38c>
    4c54:	40 00 76 4a 	call  2257c <__errno_location@plt>
    4c58:	a4 10 20 06 	mov  6, %l2
    4c5c:	03 00 00 00 	sethi  %hi(0), %g1
    4c60:	82 10 63 68 	or  %g1, 0x368, %g1	! 368 <GLIBC_2.0+0x368>
    4c64:	c4 05 c0 01 	ld  [ %l7 + %g1 ], %g2
    4c68:	80 a0 a0 00 	cmp  %g2, 0
    4c6c:	02 80 00 06 	be  4c84 <do_ypcall+0x40>
    4c70:	e6 02 00 00 	ld  [ %o0 ], %l3
    4c74:	03 00 00 00 	sethi  %hi(0), %g1
    4c78:	82 10 60 20 	or  %g1, 0x20, %g1	! 20 <GLIBC_2.0+0x20>
    4c7c:	9f c0 80 00 	call  %g2
    4c80:	d0 05 c0 01 	ld  [ %l7 + %g1 ], %o0
    4c84:	03 00 00 00 	sethi  %hi(0), %g1
    4c88:	82 10 60 18 	or  %g1, 0x18, %g1	! 18 <GLIBC_2.0+0x18>
    4c8c:	c4 05 c0 01 	ld  [ %l7 + %g1 ], %g2
    4c90:	c6 00 80 00 	ld  [ %g2 ], %g3
    4c94:	a0 10 00 03 	mov  %g3, %l0
    4c98:	80 a0 e0 00 	cmp  %g3, 0
    4c9c:	02 80 00 12 	be  4ce4 <do_ypcall+0xa0>
    4ca0:	c6 27 bf ec 	st  %g3, [ %fp + -20 ]
    4ca4:	03 00 00 00 	sethi  %hi(0), %g1
    4ca8:	82 10 63 a8 	or  %g1, 0x3a8, %g1	! 3a8 <GLIBC_2.0+0x3a8>
    4cac:	23 00 00 00 	sethi  %hi(0), %l1
    4cb0:	e8 05 c0 01 	ld  [ %l7 + %g1 ], %l4
    4cb4:	a2 14 60 20 	or  %l1, 0x20, %l1
    4cb8:	92 04 20 04 	add  %l0, 4, %o1
    4cbc:	40 00 76 06 	call  224d4 <strcmp@plt>
    4cc0:	90 10 00 18 	mov  %i0, %o0
    4cc4:	80 a2 20 00 	cmp  %o0, 0
    4cc8:	22 80 00 3e 	be,a   4dc0 <do_ypcall+0x17c>
    4ccc:	90 10 00 18 	mov  %i0, %o0
    4cd0:	c2 04 00 00 	ld  [ %l0 ], %g1
    4cd4:	a0 10 00 01 	mov  %g1, %l0
    4cd8:	80 a0 60 00 	cmp  %g1, 0
    4cdc:	12 bf ff f7 	bne  4cb8 <do_ypcall+0x74>
    4ce0:	c2 27 bf ec 	st  %g1, [ %fp + -20 ]
    4ce4:	03 00 00 00 	sethi  %hi(0), %g1
    4ce8:	82 10 63 a8 	or  %g1, 0x3a8, %g1	! 3a8 <GLIBC_2.0+0x3a8>
    4cec:	c4 05 c0 01 	ld  [ %l7 + %g1 ], %g2
    4cf0:	80 a0 a0 00 	cmp  %g2, 0
    4cf4:	02 80 00 05 	be  4d08 <do_ypcall+0xc4>
    4cf8:	03 00 00 00 	sethi  %hi(0), %g1
    4cfc:	82 10 60 20 	or  %g1, 0x20, %g1	! 20 <GLIBC_2.0+0x20>
    4d00:	9f c0 80 00 	call  %g2
    4d04:	d0 05 c0 01 	ld  [ %l7 + %g1 ], %o0
    4d08:	c0 27 bf ec 	clr  [ %fp + -20 ]
    4d0c:	90 10 00 18 	mov  %i0, %o0
    4d10:	7f ff ff 58 	call  4a70 <__yp_bind>
    4d14:	92 07 bf ec 	add  %fp, -20, %o1
    4d18:	80 a2 20 00 	cmp  %o0, 0
    4d1c:	02 80 00 09 	be  4d40 <do_ypcall+0xfc>
    4d20:	80 a4 a0 00 	cmp  %l2, 0
    4d24:	32 80 00 19 	bne,a   4d88 <do_ypcall+0x144>
    4d28:	90 10 20 01 	mov  1, %o0
    4d2c:	40 00 76 14 	call  2257c <__errno_location@plt>
    4d30:	01 00 00 00 	nop 
    4d34:	e6 22 00 00 	st  %l3, [ %o0 ]
    4d38:	10 80 00 4e 	b  4e70 <do_ypcall+0x22c>
    4d3c:	90 10 00 12 	mov  %l2, %o0
    4d40:	82 07 bf ec 	add  %fp, -20, %g1
    4d44:	84 10 20 01 	mov  1, %g2
    4d48:	c2 23 a0 5c 	st  %g1, [ %sp + 0x5c ]
    4d4c:	c4 23 a0 60 	st  %g2, [ %sp + 0x60 ]
    4d50:	92 10 00 19 	mov  %i1, %o1
    4d54:	94 10 00 1a 	mov  %i2, %o2
    4d58:	96 10 00 1b 	mov  %i3, %o3
    4d5c:	98 10 00 1c 	mov  %i4, %o4
    4d60:	9a 10 00 1d 	mov  %i5, %o5
    4d64:	7f ff fd fe 	call  455c <__ypclnt_call>
    4d68:	90 10 00 18 	mov  %i0, %o0
    4d6c:	a4 10 00 08 	mov  %o0, %l2
    4d70:	7f ff fd b6 	call  4448 <__yp_unbind>
    4d74:	d0 07 bf ec 	ld  [ %fp + -20 ], %o0
    4d78:	80 a4 a0 00 	cmp  %l2, 0
    4d7c:	02 bf ff ec 	be  4d2c <do_ypcall+0xe8>
    4d80:	01 00 00 00 	nop 
    4d84:	90 10 20 01 	mov  1, %o0	! 1 <GLIBC_2.0+0x1>
    4d88:	40 00 76 90 	call  227c8 <calloc@plt>
    4d8c:	92 10 20 60 	mov  0x60, %o1
    4d90:	80 a2 20 00 	cmp  %o0, 0
    4d94:	02 80 00 08 	be  4db4 <do_ypcall+0x170>
    4d98:	d0 27 bf ec 	st  %o0, [ %fp + -20 ]
    4d9c:	92 10 00 08 	mov  %o0, %o1
    4da0:	7f ff fe da 	call  4908 <yp_bind_ypbindprog>
    4da4:	90 10 00 18 	mov  %i0, %o0
    4da8:	80 a2 20 00 	cmp  %o0, 0
    4dac:	02 80 00 23 	be  4e38 <do_ypcall+0x1f4>
    4db0:	82 07 bf ec 	add  %fp, -20, %g1
    4db4:	40 00 76 8b 	call  227e0 <free@plt>
    4db8:	d0 07 bf ec 	ld  [ %fp + -20 ], %o0
    4dbc:	30 bf ff dc 	b,a   4d2c <do_ypcall+0xe8>
    4dc0:	7f ff ff 2c 	call  4a70 <__yp_bind>
    4dc4:	92 07 bf ec 	add  %fp, -20, %o1
    4dc8:	80 a2 20 00 	cmp  %o0, 0
    4dcc:	12 80 00 17 	bne  4e28 <do_ypcall+0x1e4>
    4dd0:	90 10 00 18 	mov  %i0, %o0
    4dd4:	82 07 bf ec 	add  %fp, -20, %g1
    4dd8:	c2 23 a0 5c 	st  %g1, [ %sp + 0x5c ]
    4ddc:	c0 23 a0 60 	clr  [ %sp + 0x60 ]
    4de0:	92 10 00 19 	mov  %i1, %o1
    4de4:	94 10 00 1a 	mov  %i2, %o2
    4de8:	96 10 00 1b 	mov  %i3, %o3
    4dec:	98 10 00 1c 	mov  %i4, %o4
    4df0:	7f ff fd db 	call  455c <__ypclnt_call>
    4df4:	9a 10 00 1d 	mov  %i5, %o5
    4df8:	a4 92 20 00 	orcc  %o0, 0, %l2
    4dfc:	12 80 00 0b 	bne  4e28 <do_ypcall+0x1e4>
    4e00:	80 a5 20 00 	cmp  %l4, 0
    4e04:	02 80 00 04 	be  4e14 <do_ypcall+0x1d0>
    4e08:	01 00 00 00 	nop 
    4e0c:	9f c5 00 00 	call  %l4
    4e10:	d0 05 c0 11 	ld  [ %l7 + %l1 ], %o0
    4e14:	40 00 75 da 	call  2257c <__errno_location@plt>
    4e18:	01 00 00 00 	nop 
    4e1c:	e6 22 00 00 	st  %l3, [ %o0 ]
    4e20:	10 80 00 14 	b  4e70 <do_ypcall+0x22c>
    4e24:	90 10 20 00 	clr  %o0
    4e28:	7f ff fd 91 	call  446c <yp_unbind_locked>
    4e2c:	90 10 00 18 	mov  %i0, %o0
    4e30:	10 bf ff ae 	b  4ce8 <do_ypcall+0xa4>
    4e34:	03 00 00 00 	sethi  %hi(0), %g1
    4e38:	84 10 20 01 	mov  1, %g2
    4e3c:	c2 23 a0 5c 	st  %g1, [ %sp + 0x5c ]
    4e40:	c4 23 a0 60 	st  %g2, [ %sp + 0x60 ]
    4e44:	90 10 00 18 	mov  %i0, %o0
    4e48:	92 10 00 19 	mov  %i1, %o1
    4e4c:	94 10 00 1a 	mov  %i2, %o2
    4e50:	96 10 00 1b 	mov  %i3, %o3
    4e54:	98 10 00 1c 	mov  %i4, %o4
    4e58:	7f ff fd c1 	call  455c <__ypclnt_call>
    4e5c:	9a 10 00 1d 	mov  %i5, %o5
    4e60:	a4 10 00 08 	mov  %o0, %l2
    4e64:	7f ff fd 79 	call  4448 <__yp_unbind>
    4e68:	d0 07 bf ec 	ld  [ %fp + -20 ], %o0
    4e6c:	30 bf ff b0 	b,a   4d2c <do_ypcall+0xe8>
    4e70:	81 c7 e0 08 	ret 
    4e74:	91 e8 00 08 	restore  %g0, %o0, %o0

00004e78 <do_ypcall_tr>:
do_ypcall_tr():
    4e78:	9d e3 bf 90 	save  %sp, -112, %sp
    4e7c:	90 10 00 18 	mov  %i0, %o0
    4e80:	92 10 00 19 	mov  %i1, %o1
    4e84:	94 10 00 1a 	mov  %i2, %o2
    4e88:	96 10 00 1b 	mov  %i3, %o3
    4e8c:	98 10 00 1c 	mov  %i4, %o4
    4e90:	7f ff ff 6d 	call  4c44 <do_ypcall>
    4e94:	9a 10 00 1d 	mov  %i5, %o5
    4e98:	80 a2 20 00 	cmp  %o0, 0
    4e9c:	12 80 00 04 	bne  4eac <do_ypcall_tr+0x34>
    4ea0:	01 00 00 00 	nop 
    4ea4:	7f ff fd d8 	call  4604 <ypprot_err>
    4ea8:	d0 07 40 00 	ld  [ %i5 ], %o0
    4eac:	81 c7 e0 08 	ret 
    4eb0:	91 e8 00 08 	restore  %g0, %o0, %o0

00004eb4 <yp_maplist>:
yp_maplist():
    4eb4:	9d e3 bf 88 	save  %sp, -120, %sp
    4eb8:	82 10 00 18 	mov  %i0, %g1
    4ebc:	f0 27 a0 44 	st  %i0, [ %fp + 0x44 ]
    4ec0:	80 a6 20 00 	cmp  %i0, 0
    4ec4:	2f 00 00 74 	sethi  %hi(0x1d000), %l7
    4ec8:	7f ff fd 2f 	call  4384 <xdr_ypall+0xf0>
    4ecc:	ae 05 e1 38 	add  %l7, 0x138, %l7	! 1d138 <__FRAME_END__+0xc110>
    4ed0:	02 80 00 18 	be  4f30 <yp_maplist+0x7c>
    4ed4:	b0 10 20 01 	mov  1, %i0
    4ed8:	90 10 00 01 	mov  %g1, %o0
    4edc:	09 00 00 00 	sethi  %hi(0), %g4
    4ee0:	19 00 00 00 	sethi  %hi(0), %o4
    4ee4:	c2 48 40 00 	ldsb  [ %g1 ], %g1
    4ee8:	88 11 23 88 	or  %g4, 0x388, %g4
    4eec:	98 13 23 c0 	or  %o4, 0x3c0, %o4
    4ef0:	92 10 20 0b 	mov  0xb, %o1
    4ef4:	96 07 a0 44 	add  %fp, 0x44, %o3
    4ef8:	80 a0 60 00 	cmp  %g1, 0
    4efc:	02 80 00 0d 	be  4f30 <yp_maplist+0x7c>
    4f00:	9a 07 bf e8 	add  %fp, -24, %o5
    4f04:	84 10 20 00 	clr  %g2
    4f08:	86 10 20 00 	clr  %g3
    4f0c:	c4 3f bf e8 	std  %g2, [ %fp + -24 ]
    4f10:	d4 05 c0 04 	ld  [ %l7 + %g4 ], %o2
    4f14:	7f ff ff d9 	call  4e78 <do_ypcall_tr>
    4f18:	d8 05 c0 0c 	ld  [ %l7 + %o4 ], %o4
    4f1c:	80 a2 20 00 	cmp  %o0, 0
    4f20:	12 80 00 03 	bne  4f2c <yp_maplist+0x78>
    4f24:	c2 07 bf ec 	ld  [ %fp + -20 ], %g1
    4f28:	c2 26 40 00 	st  %g1, [ %i1 ]
    4f2c:	b0 10 00 08 	mov  %o0, %i0
    4f30:	81 c7 e0 08 	ret 
    4f34:	81 e8 00 00 	restore 

00004f38 <yp_order>:
yp_order():
    4f38:	9d e3 bf 80 	save  %sp, -128, %sp
    4f3c:	2f 00 00 74 	sethi  %hi(0x1d000), %l7
    4f40:	7f ff fd 11 	call  4384 <xdr_ypall+0xf0>
    4f44:	ae 05 e0 c0 	add  %l7, 0xc0, %l7	! 1d0c0 <__FRAME_END__+0xc098>
    4f48:	80 a6 20 00 	cmp  %i0, 0
    4f4c:	02 80 00 28 	be  4fec <yp_order+0xb4>
    4f50:	86 10 20 01 	mov  1, %g3
    4f54:	c2 4e 00 00 	ldsb  [ %i0 ], %g1
    4f58:	80 a0 00 01 	cmp  %g0, %g1
    4f5c:	84 60 3f ff 	subx  %g0, -1, %g2
    4f60:	80 a0 00 19 	cmp  %g0, %i1
    4f64:	82 60 3f ff 	subx  %g0, -1, %g1
    4f68:	80 90 80 01 	orcc  %g2, %g1, %g0
    4f6c:	12 80 00 20 	bne  4fec <yp_order+0xb4>
    4f70:	09 00 00 00 	sethi  %hi(0), %g4
    4f74:	a2 07 bf e0 	add  %fp, -32, %l1
    4f78:	c2 4e 40 00 	ldsb  [ %i1 ], %g1
    4f7c:	88 11 23 d0 	or  %g4, 0x3d0, %g4
    4f80:	90 10 00 18 	mov  %i0, %o0
    4f84:	92 10 20 0a 	mov  0xa, %o1
    4f88:	96 07 bf e8 	add  %fp, -24, %o3
    4f8c:	80 a0 60 00 	cmp  %g1, 0
    4f90:	02 80 00 17 	be  4fec <yp_order+0xb4>
    4f94:	9a 10 00 11 	mov  %l1, %o5
    4f98:	03 00 00 00 	sethi  %hi(0), %g1
    4f9c:	82 10 63 a0 	or  %g1, 0x3a0, %g1	! 3a0 <GLIBC_2.0+0x3a0>
    4fa0:	e0 05 c0 01 	ld  [ %l7 + %g1 ], %l0
    4fa4:	86 10 20 00 	clr  %g3
    4fa8:	84 10 20 00 	clr  %g2
    4fac:	f2 27 bf ec 	st  %i1, [ %fp + -20 ]
    4fb0:	c4 3f bf e0 	std  %g2, [ %fp + -32 ]
    4fb4:	d4 05 c0 04 	ld  [ %l7 + %g4 ], %o2
    4fb8:	f0 27 bf e8 	st  %i0, [ %fp + -24 ]
    4fbc:	7f ff ff af 	call  4e78 <do_ypcall_tr>
    4fc0:	98 10 00 10 	mov  %l0, %o4
    4fc4:	b2 10 00 08 	mov  %o0, %i1
    4fc8:	90 10 00 10 	mov  %l0, %o0
    4fcc:	92 10 00 11 	mov  %l1, %o1
    4fd0:	80 a6 60 00 	cmp  %i1, 0
    4fd4:	02 80 00 06 	be  4fec <yp_order+0xb4>
    4fd8:	86 10 20 00 	clr  %g3
    4fdc:	c2 07 bf e4 	ld  [ %fp + -28 ], %g1
    4fe0:	40 00 75 43 	call  224ec <xdr_free@plt>
    4fe4:	c2 26 80 00 	st  %g1, [ %i2 ]
    4fe8:	86 10 00 19 	mov  %i1, %g3
    4fec:	81 c7 e0 08 	ret 
    4ff0:	91 e8 00 03 	restore  %g0, %g3, %o0

00004ff4 <yp_master>:
yp_master():
    4ff4:	9d e3 bf 80 	save  %sp, -128, %sp
    4ff8:	2f 00 00 74 	sethi  %hi(0x1d000), %l7
    4ffc:	7f ff fc e2 	call  4384 <xdr_ypall+0xf0>
    5000:	ae 05 e0 04 	add  %l7, 4, %l7	! 1d004 <__FRAME_END__+0xbfdc>
    5004:	80 a6 20 00 	cmp  %i0, 0
    5008:	02 80 00 2c 	be  50b8 <yp_master+0xc4>
    500c:	86 10 20 01 	mov  1, %g3
    5010:	c2 4e 00 00 	ldsb  [ %i0 ], %g1
    5014:	80 a0 00 01 	cmp  %g0, %g1
    5018:	84 60 3f ff 	subx  %g0, -1, %g2
    501c:	80 a0 00 19 	cmp  %g0, %i1
    5020:	82 60 3f ff 	subx  %g0, -1, %g1
    5024:	80 90 80 01 	orcc  %g2, %g1, %g0
    5028:	12 80 00 24 	bne  50b8 <yp_master+0xc4>
    502c:	09 00 00 00 	sethi  %hi(0), %g4
    5030:	a0 07 bf e0 	add  %fp, -32, %l0
    5034:	c2 4e 40 00 	ldsb  [ %i1 ], %g1
    5038:	88 11 23 d0 	or  %g4, 0x3d0, %g4
    503c:	90 10 00 18 	mov  %i0, %o0
    5040:	92 10 20 09 	mov  9, %o1
    5044:	96 07 bf e8 	add  %fp, -24, %o3
    5048:	80 a0 60 00 	cmp  %g1, 0
    504c:	02 80 00 1b 	be  50b8 <yp_master+0xc4>
    5050:	9a 10 00 10 	mov  %l0, %o5
    5054:	03 00 00 00 	sethi  %hi(0), %g1
    5058:	82 10 63 a4 	or  %g1, 0x3a4, %g1	! 3a4 <GLIBC_2.0+0x3a4>
    505c:	86 10 20 00 	clr  %g3
    5060:	e2 05 c0 01 	ld  [ %l7 + %g1 ], %l1
    5064:	84 10 20 00 	clr  %g2
    5068:	c4 3f bf e0 	std  %g2, [ %fp + -32 ]
    506c:	f2 27 bf ec 	st  %i1, [ %fp + -20 ]
    5070:	d4 05 c0 04 	ld  [ %l7 + %g4 ], %o2
    5074:	f0 27 bf e8 	st  %i0, [ %fp + -24 ]
    5078:	7f ff ff 80 	call  4e78 <do_ypcall_tr>
    507c:	98 10 00 11 	mov  %l1, %o4
    5080:	86 92 20 00 	orcc  %o0, 0, %g3
    5084:	12 80 00 0d 	bne  50b8 <yp_master+0xc4>
    5088:	01 00 00 00 	nop 
    508c:	40 00 75 bd 	call  22780 <__strdup@plt>
    5090:	d0 07 bf e4 	ld  [ %fp + -28 ], %o0
    5094:	d0 26 80 00 	st  %o0, [ %i2 ]
    5098:	90 10 00 11 	mov  %l1, %o0
    509c:	40 00 75 14 	call  224ec <xdr_free@plt>
    50a0:	92 10 00 10 	mov  %l0, %o1
    50a4:	c4 06 80 00 	ld  [ %i2 ], %g2
    50a8:	80 a0 00 02 	cmp  %g0, %g2
    50ac:	82 60 20 00 	subx  %g0, 0, %g1
    50b0:	82 08 7f fa 	and  %g1, -6, %g1
    50b4:	86 00 60 06 	add  %g1, 6, %g3
    50b8:	81 c7 e0 08 	ret 
    50bc:	91 e8 00 03 	restore  %g0, %g3, %o0

000050c0 <yp_next>:
yp_next():
    50c0:	9d e3 bf 68 	save  %sp, -152, %sp
    50c4:	90 96 20 00 	orcc  %i0, 0, %o0
    50c8:	2f 00 00 73 	sethi  %hi(0x1cc00), %l7
    50cc:	7f ff fc ae 	call  4384 <xdr_ypall+0xf0>
    50d0:	ae 05 e3 34 	add  %l7, 0x334, %l7	! 1cf34 <__FRAME_END__+0xbf0c>
    50d4:	f0 07 a0 5c 	ld  [ %fp + 0x5c ], %i0
    50d8:	02 80 00 1a 	be  5140 <yp_next+0x80>
    50dc:	e0 07 a0 60 	ld  [ %fp + 0x60 ], %l0
    50e0:	c2 4a 00 00 	ldsb  [ %o0 ], %g1
    50e4:	80 a0 00 01 	cmp  %g0, %g1
    50e8:	84 60 3f ff 	subx  %g0, -1, %g2
    50ec:	80 a0 00 19 	cmp  %g0, %i1
    50f0:	82 60 3f ff 	subx  %g0, -1, %g1
    50f4:	80 90 80 01 	orcc  %g2, %g1, %g0
    50f8:	32 80 00 56 	bne,a   5250 <yp_next+0x190>
    50fc:	90 10 20 01 	mov  1, %o0
    5100:	c2 4e 40 00 	ldsb  [ %i1 ], %g1
    5104:	84 06 ff ff 	add  %i3, -1, %g2
    5108:	80 a0 00 01 	cmp  %g0, %g1
    510c:	84 16 c0 02 	or  %i3, %g2, %g2
    5110:	82 60 3f ff 	subx  %g0, -1, %g1
    5114:	85 30 a0 1f 	srl  %g2, 0x1f, %g2
    5118:	80 90 40 02 	orcc  %g1, %g2, %g0
    511c:	32 80 00 4d 	bne,a   5250 <yp_next+0x190>
    5120:	90 10 20 01 	mov  1, %o0
    5124:	80 a6 a0 00 	cmp  %i2, 0
    5128:	22 80 00 4a 	be,a   5250 <yp_next+0x190>
    512c:	90 10 20 01 	mov  1, %o0
    5130:	c2 4e 80 00 	ldsb  [ %i2 ], %g1
    5134:	80 a0 60 00 	cmp  %g1, 0
    5138:	12 80 00 04 	bne  5148 <yp_next+0x88>
    513c:	03 00 00 00 	sethi  %hi(0), %g1
    5140:	10 80 00 44 	b  5250 <yp_next+0x190>
    5144:	90 10 20 01 	mov  1, %o0
    5148:	25 00 00 00 	sethi  %hi(0), %l2
    514c:	c0 26 00 00 	clr  [ %i0 ]
    5150:	c0 24 00 00 	clr  [ %l0 ]
    5154:	84 10 20 00 	clr  %g2
    5158:	86 10 20 00 	clr  %g3
    515c:	82 10 63 dc 	or  %g1, 0x3dc, %g1
    5160:	88 14 a3 7c 	or  %l2, 0x37c, %g4
    5164:	a2 07 bf c8 	add  %fp, -56, %l1
    5168:	f2 27 bf e4 	st  %i1, [ %fp + -28 ]
    516c:	f4 27 bf ec 	st  %i2, [ %fp + -20 ]
    5170:	f6 27 bf e8 	st  %i3, [ %fp + -24 ]
    5174:	c4 3f bf d0 	std  %g2, [ %fp + -48 ]
    5178:	d0 27 bf e0 	st  %o0, [ %fp + -32 ]
    517c:	c0 27 00 00 	clr  [ %i4 ]
    5180:	c0 27 40 00 	clr  [ %i5 ]
    5184:	c4 3f bf c8 	std  %g2, [ %fp + -56 ]
    5188:	c0 27 bf d8 	clr  [ %fp + -40 ]
    518c:	d4 05 c0 01 	ld  [ %l7 + %g1 ], %o2
    5190:	d8 05 c0 04 	ld  [ %l7 + %g4 ], %o4
    5194:	92 10 20 05 	mov  5, %o1
    5198:	96 07 bf e0 	add  %fp, -32, %o3
    519c:	7f ff ff 37 	call  4e78 <do_ypcall_tr>
    51a0:	9a 10 00 11 	mov  %l1, %o5
    51a4:	80 a2 20 00 	cmp  %o0, 0
    51a8:	12 80 00 2a 	bne  5250 <yp_next+0x190>
    51ac:	01 00 00 00 	nop 
    51b0:	d0 07 bf d4 	ld  [ %fp + -44 ], %o0
    51b4:	40 00 75 07 	call  225d0 <malloc@plt>
    51b8:	90 02 20 01 	inc  %o0
    51bc:	80 a2 20 00 	cmp  %o0, 0
    51c0:	02 80 00 20 	be  5240 <yp_next+0x180>
    51c4:	d0 27 00 00 	st  %o0, [ %i4 ]
    51c8:	d0 07 bf cc 	ld  [ %fp + -52 ], %o0
    51cc:	40 00 75 01 	call  225d0 <malloc@plt>
    51d0:	90 02 20 01 	inc  %o0
    51d4:	80 a2 20 00 	cmp  %o0, 0
    51d8:	02 80 00 1a 	be  5240 <yp_next+0x180>
    51dc:	d0 26 00 00 	st  %o0, [ %i0 ]
    51e0:	c2 07 bf d4 	ld  [ %fp + -44 ], %g1
    51e4:	94 10 00 01 	mov  %g1, %o2
    51e8:	c2 27 40 00 	st  %g1, [ %i5 ]
    51ec:	d2 07 bf d8 	ld  [ %fp + -40 ], %o1
    51f0:	40 00 75 58 	call  22750 <memcpy@plt>
    51f4:	d0 07 00 00 	ld  [ %i4 ], %o0
    51f8:	c4 07 40 00 	ld  [ %i5 ], %g2
    51fc:	c2 07 00 00 	ld  [ %i4 ], %g1
    5200:	c0 28 40 02 	clrb  [ %g1 + %g2 ]
    5204:	d4 07 bf cc 	ld  [ %fp + -52 ], %o2
    5208:	d0 06 00 00 	ld  [ %i0 ], %o0
    520c:	d4 24 00 00 	st  %o2, [ %l0 ]
    5210:	40 00 75 50 	call  22750 <memcpy@plt>
    5214:	d2 07 bf d0 	ld  [ %fp + -48 ], %o1
    5218:	c4 06 00 00 	ld  [ %i0 ], %g2
    521c:	c2 04 00 00 	ld  [ %l0 ], %g1
    5220:	c0 28 80 01 	clrb  [ %g2 + %g1 ]
    5224:	b0 10 20 00 	clr  %i0
    5228:	82 14 a3 7c 	or  %l2, 0x37c, %g1
    522c:	d0 05 c0 01 	ld  [ %l7 + %g1 ], %o0
    5230:	40 00 74 af 	call  224ec <xdr_free@plt>
    5234:	92 10 00 11 	mov  %l1, %o1
    5238:	10 80 00 06 	b  5250 <yp_next+0x190>
    523c:	90 10 00 18 	mov  %i0, %o0
    5240:	40 00 75 68 	call  227e0 <free@plt>
    5244:	d0 07 00 00 	ld  [ %i4 ], %o0
    5248:	10 bf ff f8 	b  5228 <yp_next+0x168>
    524c:	b0 10 20 07 	mov  7, %i0
    5250:	81 c7 e0 08 	ret 
    5254:	91 e8 00 08 	restore  %g0, %o0, %o0

00005258 <yp_match>:
yp_match():
    5258:	9d e3 bf 70 	save  %sp, -144, %sp
    525c:	2f 00 00 73 	sethi  %hi(0x1cc00), %l7
    5260:	7f ff fc 49 	call  4384 <xdr_ypall+0xf0>
    5264:	ae 05 e1 a0 	add  %l7, 0x1a0, %l7	! 1cda0 <__FRAME_END__+0xbd78>
    5268:	80 a6 20 00 	cmp  %i0, 0
    526c:	02 80 00 45 	be  5380 <yp_match+0x128>
    5270:	88 10 20 01 	mov  1, %g4
    5274:	c2 4e 00 00 	ldsb  [ %i0 ], %g1
    5278:	80 a0 00 01 	cmp  %g0, %g1
    527c:	84 60 3f ff 	subx  %g0, -1, %g2
    5280:	80 a0 00 19 	cmp  %g0, %i1
    5284:	82 60 3f ff 	subx  %g0, -1, %g1
    5288:	80 90 80 01 	orcc  %g2, %g1, %g0
    528c:	12 80 00 3d 	bne  5380 <yp_match+0x128>
    5290:	01 00 00 00 	nop 
    5294:	c2 4e 40 00 	ldsb  [ %i1 ], %g1
    5298:	80 a0 00 01 	cmp  %g0, %g1
    529c:	86 60 3f ff 	subx  %g0, -1, %g3
    52a0:	80 a0 00 1a 	cmp  %g0, %i2
    52a4:	82 06 ff ff 	add  %i3, -1, %g1
    52a8:	82 16 c0 01 	or  %i3, %g1, %g1
    52ac:	84 60 3f ff 	subx  %g0, -1, %g2
    52b0:	80 90 c0 02 	orcc  %g3, %g2, %g0
    52b4:	12 80 00 33 	bne  5380 <yp_match+0x128>
    52b8:	99 30 60 1f 	srl  %g1, 0x1f, %o4
    52bc:	c2 4e 80 00 	ldsb  [ %i2 ], %g1
    52c0:	80 a0 00 01 	cmp  %g0, %g1
    52c4:	15 00 00 00 	sethi  %hi(0), %o2
    52c8:	a0 07 bf d0 	add  %fp, -48, %l0
    52cc:	84 60 3f ff 	subx  %g0, -1, %g2
    52d0:	94 12 a3 dc 	or  %o2, 0x3dc, %o2
    52d4:	90 10 00 18 	mov  %i0, %o0
    52d8:	92 10 20 03 	mov  3, %o1
    52dc:	96 07 bf e0 	add  %fp, -32, %o3
    52e0:	80 90 80 0c 	orcc  %g2, %o4, %g0
    52e4:	12 80 00 27 	bne  5380 <yp_match+0x128>
    52e8:	9a 10 00 10 	mov  %l0, %o5
    52ec:	03 00 00 00 	sethi  %hi(0), %g1
    52f0:	82 10 63 f0 	or  %g1, 0x3f0, %g1	! 3f0 <GLIBC_2.0+0x3f0>
    52f4:	e2 05 c0 01 	ld  [ %l7 + %g1 ], %l1
    52f8:	84 10 20 00 	clr  %g2
    52fc:	86 10 20 00 	clr  %g3
    5300:	f6 27 bf e8 	st  %i3, [ %fp + -24 ]
    5304:	f2 27 bf e4 	st  %i1, [ %fp + -28 ]
    5308:	f4 27 bf ec 	st  %i2, [ %fp + -20 ]
    530c:	c4 3f bf d0 	std  %g2, [ %fp + -48 ]
    5310:	d4 05 c0 0a 	ld  [ %l7 + %o2 ], %o2
    5314:	f0 27 bf e0 	st  %i0, [ %fp + -32 ]
    5318:	c0 27 00 00 	clr  [ %i4 ]
    531c:	c0 27 40 00 	clr  [ %i5 ]
    5320:	c0 27 bf d8 	clr  [ %fp + -40 ]
    5324:	7f ff fe d5 	call  4e78 <do_ypcall_tr>
    5328:	98 10 00 11 	mov  %l1, %o4
    532c:	88 92 20 00 	orcc  %o0, 0, %g4
    5330:	12 80 00 14 	bne  5380 <yp_match+0x128>
    5334:	b6 10 20 07 	mov  7, %i3
    5338:	d0 07 bf d4 	ld  [ %fp + -44 ], %o0
    533c:	d0 27 40 00 	st  %o0, [ %i5 ]
    5340:	40 00 74 a4 	call  225d0 <malloc@plt>
    5344:	90 02 20 01 	inc  %o0
    5348:	82 92 20 00 	orcc  %o0, 0, %g1
    534c:	02 80 00 09 	be  5370 <yp_match+0x118>
    5350:	c2 27 00 00 	st  %g1, [ %i4 ]
    5354:	d2 07 bf d8 	ld  [ %fp + -40 ], %o1
    5358:	40 00 74 fe 	call  22750 <memcpy@plt>
    535c:	d4 07 40 00 	ld  [ %i5 ], %o2
    5360:	c4 07 00 00 	ld  [ %i4 ], %g2
    5364:	c2 07 40 00 	ld  [ %i5 ], %g1
    5368:	c0 28 80 01 	clrb  [ %g2 + %g1 ]
    536c:	b6 10 20 00 	clr  %i3
    5370:	90 10 00 11 	mov  %l1, %o0
    5374:	40 00 74 5e 	call  224ec <xdr_free@plt>
    5378:	92 10 00 10 	mov  %l0, %o1
    537c:	88 10 00 1b 	mov  %i3, %g4
    5380:	81 c7 e0 08 	ret 
    5384:	91 e8 00 04 	restore  %g0, %g4, %o0

00005388 <yp_first>:
yp_first():
    5388:	9d e3 bf 70 	save  %sp, -144, %sp
    538c:	2f 00 00 73 	sethi  %hi(0x1cc00), %l7
    5390:	7f ff fb fd 	call  4384 <xdr_ypall+0xf0>
    5394:	ae 05 e0 70 	add  %l7, 0x70, %l7	! 1cc70 <__FRAME_END__+0xbc48>
    5398:	90 96 20 00 	orcc  %i0, 0, %o0
    539c:	22 80 00 56 	be,a   54f4 <yp_first+0x16c>
    53a0:	90 10 20 01 	mov  1, %o0
    53a4:	c2 4a 00 00 	ldsb  [ %o0 ], %g1
    53a8:	80 a0 00 01 	cmp  %g0, %g1
    53ac:	84 60 3f ff 	subx  %g0, -1, %g2
    53b0:	80 a0 00 19 	cmp  %g0, %i1
    53b4:	82 60 3f ff 	subx  %g0, -1, %g1
    53b8:	80 90 80 01 	orcc  %g2, %g1, %g0
    53bc:	22 80 00 04 	be,a   53cc <yp_first+0x44>
    53c0:	c2 4e 40 00 	ldsb  [ %i1 ], %g1
    53c4:	10 80 00 4c 	b  54f4 <yp_first+0x16c>
    53c8:	90 10 20 01 	mov  1, %o0
    53cc:	80 a0 60 00 	cmp  %g1, 0
    53d0:	22 80 00 49 	be,a   54f4 <yp_first+0x16c>
    53d4:	90 10 20 01 	mov  1, %o0
    53d8:	03 00 00 00 	sethi  %hi(0), %g1
    53dc:	23 00 00 00 	sethi  %hi(0), %l1
    53e0:	84 10 20 00 	clr  %g2
    53e4:	86 10 20 00 	clr  %g3
    53e8:	c0 27 00 00 	clr  [ %i4 ]
    53ec:	c0 27 40 00 	clr  [ %i5 ]
    53f0:	82 10 63 d0 	or  %g1, 0x3d0, %g1
    53f4:	88 14 63 7c 	or  %l1, 0x37c, %g4
    53f8:	a0 07 bf d0 	add  %fp, -48, %l0
    53fc:	f2 27 bf ec 	st  %i1, [ %fp + -20 ]
    5400:	c4 3f bf d8 	std  %g2, [ %fp + -40 ]
    5404:	d0 27 bf e8 	st  %o0, [ %fp + -24 ]
    5408:	c0 26 80 00 	clr  [ %i2 ]
    540c:	c0 26 c0 00 	clr  [ %i3 ]
    5410:	c4 3f bf d0 	std  %g2, [ %fp + -48 ]
    5414:	c0 27 bf e0 	clr  [ %fp + -32 ]
    5418:	d4 05 c0 01 	ld  [ %l7 + %g1 ], %o2
    541c:	d8 05 c0 04 	ld  [ %l7 + %g4 ], %o4
    5420:	92 10 20 04 	mov  4, %o1
    5424:	96 07 bf e8 	add  %fp, -24, %o3
    5428:	7f ff fe 07 	call  4c44 <do_ypcall>
    542c:	9a 10 00 10 	mov  %l0, %o5
    5430:	80 a2 20 00 	cmp  %o0, 0
    5434:	12 80 00 30 	bne  54f4 <yp_first+0x16c>
    5438:	90 10 20 02 	mov  2, %o0
    543c:	d0 07 bf d0 	ld  [ %fp + -48 ], %o0
    5440:	80 a2 20 01 	cmp  %o0, 1
    5444:	22 80 00 05 	be,a   5458 <yp_first+0xd0>
    5448:	d0 07 bf dc 	ld  [ %fp + -36 ], %o0
    544c:	7f ff fc 6e 	call  4604 <ypprot_err>
    5450:	01 00 00 00 	nop 
    5454:	30 80 00 28 	b,a   54f4 <yp_first+0x16c>
    5458:	40 00 74 5e 	call  225d0 <malloc@plt>
    545c:	90 02 20 01 	inc  %o0
    5460:	80 a2 20 00 	cmp  %o0, 0
    5464:	02 80 00 20 	be  54e4 <yp_first+0x15c>
    5468:	d0 26 80 00 	st  %o0, [ %i2 ]
    546c:	d0 07 bf d4 	ld  [ %fp + -44 ], %o0
    5470:	40 00 74 58 	call  225d0 <malloc@plt>
    5474:	90 02 20 01 	inc  %o0
    5478:	80 a2 20 00 	cmp  %o0, 0
    547c:	02 80 00 1a 	be  54e4 <yp_first+0x15c>
    5480:	d0 27 00 00 	st  %o0, [ %i4 ]
    5484:	c2 07 bf dc 	ld  [ %fp + -36 ], %g1
    5488:	94 10 00 01 	mov  %g1, %o2
    548c:	c2 26 c0 00 	st  %g1, [ %i3 ]
    5490:	d2 07 bf e0 	ld  [ %fp + -32 ], %o1
    5494:	40 00 74 af 	call  22750 <memcpy@plt>
    5498:	d0 06 80 00 	ld  [ %i2 ], %o0
    549c:	c4 06 c0 00 	ld  [ %i3 ], %g2
    54a0:	c2 06 80 00 	ld  [ %i2 ], %g1
    54a4:	c0 28 40 02 	clrb  [ %g1 + %g2 ]
    54a8:	d4 07 bf d4 	ld  [ %fp + -44 ], %o2
    54ac:	d4 27 40 00 	st  %o2, [ %i5 ]
    54b0:	d0 07 00 00 	ld  [ %i4 ], %o0
    54b4:	40 00 74 a7 	call  22750 <memcpy@plt>
    54b8:	d2 07 bf d8 	ld  [ %fp + -40 ], %o1
    54bc:	c4 07 00 00 	ld  [ %i4 ], %g2
    54c0:	c2 07 40 00 	ld  [ %i5 ], %g1
    54c4:	c0 28 80 01 	clrb  [ %g2 + %g1 ]
    54c8:	b0 10 20 00 	clr  %i0
    54cc:	82 14 63 7c 	or  %l1, 0x37c, %g1
    54d0:	d0 05 c0 01 	ld  [ %l7 + %g1 ], %o0
    54d4:	40 00 74 06 	call  224ec <xdr_free@plt>
    54d8:	92 10 00 10 	mov  %l0, %o1
    54dc:	10 80 00 06 	b  54f4 <yp_first+0x16c>
    54e0:	90 10 00 18 	mov  %i0, %o0
    54e4:	40 00 74 bf 	call  227e0 <free@plt>
    54e8:	d0 06 80 00 	ld  [ %i2 ], %o0
    54ec:	10 bf ff f8 	b  54cc <yp_first+0x144>
    54f0:	b0 10 20 07 	mov  7, %i0
    54f4:	81 c7 e0 08 	ret 
    54f8:	91 e8 00 08 	restore  %g0, %o0, %o0

000054fc <yp_all>:
yp_all():
    54fc:	9d e3 bf 50 	save  %sp, -176, %sp
    5500:	2f 00 00 72 	sethi  %hi(0x1c800), %l7
    5504:	7f ff fb a0 	call  4384 <xdr_ypall+0xf0>
    5508:	ae 05 e2 fc 	add  %l7, 0x2fc, %l7	! 1cafc <__FRAME_END__+0xbad4>
    550c:	40 00 74 1c 	call  2257c <__errno_location@plt>
    5510:	c0 27 bf bc 	clr  [ %fp + -68 ]
    5514:	a4 10 00 18 	mov  %i0, %l2
    5518:	80 a6 20 00 	cmp  %i0, 0
    551c:	02 80 00 61 	be  56a0 <yp_all+0x1a4>
    5520:	ec 02 00 00 	ld  [ %o0 ], %l6
    5524:	c2 4e 00 00 	ldsb  [ %i0 ], %g1
    5528:	80 a0 00 01 	cmp  %g0, %g1
    552c:	84 60 3f ff 	subx  %g0, -1, %g2
    5530:	80 a0 00 19 	cmp  %g0, %i1
    5534:	82 60 3f ff 	subx  %g0, -1, %g1
    5538:	80 90 80 01 	orcc  %g2, %g1, %g0
    553c:	32 80 00 7b 	bne,a   5728 <yp_all+0x22c>
    5540:	90 10 20 01 	mov  1, %o0
    5544:	c2 4e 40 00 	ldsb  [ %i1 ], %g1
    5548:	80 a0 60 00 	cmp  %g1, 0
    554c:	22 80 00 77 	be,a   5728 <yp_all+0x22c>
    5550:	90 10 20 01 	mov  1, %o0
    5554:	2b 00 00 00 	sethi  %hi(0), %l5
    5558:	29 00 00 00 	sethi  %hi(0), %l4
    555c:	27 00 00 00 	sethi  %hi(0), %l3
    5560:	aa 15 60 10 	or  %l5, 0x10, %l5
    5564:	a8 15 23 d0 	or  %l4, 0x3d0, %l4
    5568:	a6 14 e0 2c 	or  %l3, 0x2c, %l3
    556c:	a2 10 20 00 	clr  %l1
    5570:	b0 10 20 06 	mov  6, %i0
    5574:	80 a4 60 01 	cmp  %l1, 1
    5578:	04 80 00 03 	ble  5584 <yp_all+0x88>
    557c:	84 10 20 01 	mov  1, %g2
    5580:	84 10 20 00 	clr  %g2
    5584:	80 a0 00 18 	cmp  %g0, %i0
    5588:	82 40 20 00 	addx  %g0, 0, %g1
    558c:	80 88 80 01 	btst  %g2, %g1
    5590:	02 80 00 46 	be  56a8 <yp_all+0x1ac>
    5594:	01 00 00 00 	nop 
    5598:	90 10 00 12 	mov  %l2, %o0
    559c:	7f ff fd 35 	call  4a70 <__yp_bind>
    55a0:	92 07 bf bc 	add  %fp, -68, %o1
    55a4:	80 a2 20 00 	cmp  %o0, 0
    55a8:	12 80 00 45 	bne  56bc <yp_all+0x1c0>
    55ac:	01 00 00 00 	nop 
    55b0:	d0 07 bf bc 	ld  [ %fp + -68 ], %o0
    55b4:	c2 02 20 48 	ld  [ %o0 + 0x48 ], %g1
    55b8:	c2 27 bf d8 	st  %g1, [ %fp + -40 ]
    55bc:	c4 02 20 4c 	ld  [ %o0 + 0x4c ], %g2
    55c0:	c4 27 bf dc 	st  %g2, [ %fp + -36 ]
    55c4:	c2 02 20 50 	ld  [ %o0 + 0x50 ], %g1
    55c8:	c2 27 bf e0 	st  %g1, [ %fp + -32 ]
    55cc:	c4 02 20 54 	ld  [ %o0 + 0x54 ], %g2
    55d0:	82 10 3f ff 	mov  -1, %g1
    55d4:	c2 27 bf b8 	st  %g1, [ %fp + -72 ]
    55d8:	c4 27 bf e4 	st  %g2, [ %fp + -28 ]
    55dc:	7f ff fb 9b 	call  4448 <__yp_unbind>
    55e0:	c0 37 bf da 	clrh  [ %fp + -38 ]
    55e4:	13 00 00 61 	sethi  %hi(0x18400), %o1
    55e8:	c0 27 bf bc 	clr  [ %fp + -68 ]
    55ec:	92 12 62 a4 	or  %o1, 0x2a4, %o1
    55f0:	90 07 bf d8 	add  %fp, -40, %o0
    55f4:	94 10 20 02 	mov  2, %o2
    55f8:	96 07 bf b8 	add  %fp, -72, %o3
    55fc:	98 10 20 00 	clr  %o4
    5600:	40 00 73 94 	call  22450 <clnttcp_create@plt>
    5604:	9a 10 20 00 	clr  %o5
    5608:	a0 92 20 00 	orcc  %o0, 0, %l0
    560c:	02 80 00 31 	be  56d0 <yp_all+0x1d4>
    5610:	82 07 bf c0 	add  %fp, -64, %g1
    5614:	d8 04 20 04 	ld  [ %l0 + 4 ], %o4
    5618:	c2 23 a0 5c 	st  %g1, [ %sp + 0x5c ]
    561c:	c8 05 c0 15 	ld  [ %l7 + %l5 ], %g4
    5620:	c2 06 80 00 	ld  [ %i2 ], %g1
    5624:	da 01 20 04 	ld  [ %g4 + 4 ], %o5
    5628:	c2 27 bf d0 	st  %g1, [ %fp + -48 ]
    562c:	c4 06 a0 04 	ld  [ %i2 + 4 ], %g2
    5630:	c6 01 00 00 	ld  [ %g4 ], %g3
    5634:	da 27 bf c4 	st  %o5, [ %fp + -60 ]
    5638:	c2 03 00 00 	ld  [ %o4 ], %g1
    563c:	c4 27 bf cc 	st  %g2, [ %fp + -52 ]
    5640:	c6 27 bf c0 	st  %g3, [ %fp + -64 ]
    5644:	e4 27 bf e8 	st  %l2, [ %fp + -24 ]
    5648:	f2 27 bf ec 	st  %i1, [ %fp + -20 ]
    564c:	92 10 20 08 	mov  8, %o1
    5650:	d4 05 c0 14 	ld  [ %l7 + %l4 ], %o2
    5654:	96 07 bf e8 	add  %fp, -24, %o3
    5658:	d8 05 c0 13 	ld  [ %l7 + %l3 ], %o4
    565c:	9f c0 40 00 	call  %g1
    5660:	9a 07 bf c8 	add  %fp, -56, %o5
    5664:	80 a2 20 00 	cmp  %o0, 0
    5668:	12 80 00 25 	bne  56fc <yp_all+0x200>
    566c:	b0 10 20 00 	clr  %i0
    5670:	c2 04 20 04 	ld  [ %l0 + 4 ], %g1
    5674:	c4 00 60 10 	ld  [ %g1 + 0x10 ], %g2
    5678:	9f c0 80 00 	call  %g2
    567c:	90 10 00 10 	mov  %l0, %o0
    5680:	80 a6 20 00 	cmp  %i0, 0
    5684:	12 bf ff bc 	bne  5574 <yp_all+0x78>
    5688:	a2 04 60 01 	inc  %l1
    568c:	e0 07 bf c8 	ld  [ %fp + -56 ], %l0
    5690:	80 a4 20 02 	cmp  %l0, 2
    5694:	02 bf ff b9 	be  5578 <yp_all+0x7c>
    5698:	80 a4 60 01 	cmp  %l1, 1
    569c:	30 80 00 12 	b,a   56e4 <yp_all+0x1e8>
    56a0:	10 80 00 22 	b  5728 <yp_all+0x22c>
    56a4:	90 10 20 01 	mov  1, %o0
    56a8:	40 00 73 b5 	call  2257c <__errno_location@plt>
    56ac:	01 00 00 00 	nop 
    56b0:	ec 22 00 00 	st  %l6, [ %o0 ]
    56b4:	10 80 00 1d 	b  5728 <yp_all+0x22c>
    56b8:	90 10 00 18 	mov  %i0, %o0
    56bc:	40 00 73 b0 	call  2257c <__errno_location@plt>
    56c0:	01 00 00 00 	nop 
    56c4:	ec 22 00 00 	st  %l6, [ %o0 ]
    56c8:	10 80 00 18 	b  5728 <yp_all+0x22c>
    56cc:	90 10 20 03 	mov  3, %o0
    56d0:	40 00 73 ab 	call  2257c <__errno_location@plt>
    56d4:	01 00 00 00 	nop 
    56d8:	ec 22 00 00 	st  %l6, [ %o0 ]
    56dc:	10 80 00 13 	b  5728 <yp_all+0x22c>
    56e0:	90 10 20 09 	mov  9, %o0
    56e4:	40 00 73 a6 	call  2257c <__errno_location@plt>
    56e8:	01 00 00 00 	nop 
    56ec:	ec 22 00 00 	st  %l6, [ %o0 ]
    56f0:	7f ff fb c5 	call  4604 <ypprot_err>
    56f4:	90 10 00 10 	mov  %l0, %o0
    56f8:	30 80 00 0c 	b,a   5728 <yp_all+0x22c>
    56fc:	80 a4 60 01 	cmp  %l1, 1
    5700:	02 80 00 04 	be  5710 <yp_all+0x214>
    5704:	03 00 00 00 	sethi  %hi(0), %g1
    5708:	10 bf ff da 	b  5670 <yp_all+0x174>
    570c:	b0 10 20 02 	mov  2, %i0
    5710:	82 10 60 5c 	or  %g1, 0x5c, %g1
    5714:	d2 05 c0 01 	ld  [ %l7 + %g1 ], %o1
    5718:	40 00 74 68 	call  228b8 <clnt_perror@plt>
    571c:	90 10 00 10 	mov  %l0, %o0
    5720:	10 bf ff d4 	b  5670 <yp_all+0x174>
    5724:	b0 10 20 02 	mov  2, %i0
    5728:	81 c7 e0 08 	ret 
    572c:	91 e8 00 08 	restore  %g0, %o0, %o0

00005730 <yp_bind>:
yp_bind():
    5730:	9d e3 bf 90 	save  %sp, -112, %sp
    5734:	03 00 00 00 	sethi  %hi(0), %g1
    5738:	2f 00 00 72 	sethi  %hi(0x1c800), %l7
    573c:	7f ff fb 12 	call  4384 <xdr_ypall+0xf0>
    5740:	ae 05 e0 c4 	add  %l7, 0xc4, %l7	! 1c8c4 <__FRAME_END__+0xb89c>
    5744:	82 10 63 68 	or  %g1, 0x368, %g1
    5748:	05 00 00 00 	sethi  %hi(0), %g2
    574c:	c2 05 c0 01 	ld  [ %l7 + %g1 ], %g1
    5750:	80 a0 60 00 	cmp  %g1, 0
    5754:	02 80 00 04 	be  5764 <yp_bind+0x34>
    5758:	84 10 a0 20 	or  %g2, 0x20, %g2
    575c:	9f c0 40 00 	call  %g1
    5760:	d0 05 c0 02 	ld  [ %l7 + %g2 ], %o0
    5764:	03 00 00 00 	sethi  %hi(0), %g1
    5768:	82 10 60 18 	or  %g1, 0x18, %g1	! 18 <GLIBC_2.0+0x18>
    576c:	d2 05 c0 01 	ld  [ %l7 + %g1 ], %o1
    5770:	7f ff fc c0 	call  4a70 <__yp_bind>
    5774:	90 10 00 18 	mov  %i0, %o0
    5778:	03 00 00 00 	sethi  %hi(0), %g1
    577c:	82 10 63 a8 	or  %g1, 0x3a8, %g1	! 3a8 <GLIBC_2.0+0x3a8>
    5780:	05 00 00 00 	sethi  %hi(0), %g2
    5784:	c2 05 c0 01 	ld  [ %l7 + %g1 ], %g1
    5788:	b0 10 00 08 	mov  %o0, %i0
    578c:	80 a0 60 00 	cmp  %g1, 0
    5790:	02 80 00 04 	be  57a0 <yp_bind+0x70>
    5794:	84 10 a0 20 	or  %g2, 0x20, %g2
    5798:	9f c0 40 00 	call  %g1
    579c:	d0 05 c0 02 	ld  [ %l7 + %g2 ], %o0
    57a0:	81 c7 e0 08 	ret 
    57a4:	81 e8 00 00 	restore 

000057a8 <__yp_check>:
__yp_check():
    57a8:	9d e3 bf 88 	save  %sp, -120, %sp
    57ac:	21 00 00 00 	sethi  %hi(0), %l0
    57b0:	2f 00 00 72 	sethi  %hi(0x1c800), %l7
    57b4:	7f ff fa f4 	call  4384 <xdr_ypall+0xf0>
    57b8:	ae 05 e0 4c 	add  %l7, 0x4c, %l7	! 1c84c <__FRAME_END__+0xb824>
    57bc:	82 14 20 28 	or  %l0, 0x28, %g1
    57c0:	c4 05 c0 01 	ld  [ %l7 + %g1 ], %g2
    57c4:	c2 48 80 00 	ldsb  [ %g2 ], %g1
    57c8:	90 07 bf ec 	add  %fp, -20, %o0
    57cc:	80 a0 60 00 	cmp  %g1, 0
    57d0:	02 80 00 0c 	be  5800 <__yp_check+0x58>
    57d4:	a2 10 00 18 	mov  %i0, %l1
    57d8:	80 a4 60 00 	cmp  %l1, 0
    57dc:	02 80 00 04 	be  57ec <__yp_check+0x44>
    57e0:	84 14 20 28 	or  %l0, 0x28, %g2
    57e4:	c2 05 c0 02 	ld  [ %l7 + %g2 ], %g1
    57e8:	c2 24 40 00 	st  %g1, [ %l1 ]
    57ec:	7f ff ff d1 	call  5730 <yp_bind>
    57f0:	d0 05 c0 02 	ld  [ %l7 + %g2 ], %o0
    57f4:	80 a0 00 08 	cmp  %g0, %o0
    57f8:	10 80 00 07 	b  5814 <__yp_check+0x6c>
    57fc:	b0 60 3f ff 	subx  %g0, -1, %i0
    5800:	7f ff fb 91 	call  4644 <yp_get_default_domain>
    5804:	b0 10 20 00 	clr  %i0
    5808:	80 a2 20 00 	cmp  %o0, 0
    580c:	02 bf ff f4 	be  57dc <__yp_check+0x34>
    5810:	80 a4 60 00 	cmp  %l1, 0
    5814:	81 c7 e0 08 	ret 
    5818:	81 e8 00 00 	restore 

0000581c <yperr_string>:
yperr_string():
    581c:	9d e3 bf 90 	save  %sp, -112, %sp
    5820:	03 00 00 00 	sethi  %hi(0), %g1
    5824:	2f 00 00 71 	sethi  %hi(0x1c400), %l7
    5828:	7f ff fa d7 	call  4384 <xdr_ypall+0xf0>
    582c:	ae 05 e3 d8 	add  %l7, 0x3d8, %l7	! 1c7d8 <__FRAME_END__+0xb7b0>
    5830:	80 a6 20 10 	cmp  %i0, 0x10
    5834:	18 80 00 0b 	bgu  5860 <yperr_string+0x44>
    5838:	82 10 60 60 	or  %g1, 0x60, %g1
    583c:	03 00 00 77 	sethi  %hi(0x1dc00), %g1
    5840:	82 10 60 c0 	or  %g1, 0xc0, %g1	! 1dcc0 <__FRAME_END__+0xcc98>
    5844:	86 25 c0 01 	sub  %l7, %g1, %g3
    5848:	85 2e 20 02 	sll  %i0, 2, %g2
    584c:	c2 00 c0 02 	ld  [ %g3 + %g2 ], %g1
    5850:	81 c0 40 03 	jmp  %g1 + %g3
    5854:	01 00 00 00 	nop 
    5858:	03 00 00 00 	sethi  %hi(0), %g1
    585c:	82 10 60 4c 	or  %g1, 0x4c, %g1	! 4c <GLIBC_2.0+0x4c>
    5860:	f2 05 c0 01 	ld  [ %l7 + %g1 ], %i1
    5864:	03 00 00 00 	sethi  %hi(0), %g1
    5868:	82 10 63 90 	or  %g1, 0x390, %g1	! 390 <GLIBC_2.0+0x390>
    586c:	f0 05 c0 01 	ld  [ %l7 + %g1 ], %i0
    5870:	10 80 73 d0 	b  227b0 <__dcgettext@plt>
    5874:	95 e8 20 05 	restore  %g0, 5, %o2
    5878:	03 00 00 00 	sethi  %hi(0), %g1
    587c:	10 bf ff f9 	b  5860 <yperr_string+0x44>
    5880:	82 10 60 64 	or  %g1, 0x64, %g1	! 64 <GLIBC_2.0+0x64>
    5884:	03 00 00 00 	sethi  %hi(0), %g1
    5888:	10 bf ff f6 	b  5860 <yperr_string+0x44>
    588c:	82 10 60 68 	or  %g1, 0x68, %g1	! 68 <GLIBC_2.0+0x68>
    5890:	03 00 00 00 	sethi  %hi(0), %g1
    5894:	10 bf ff f3 	b  5860 <yperr_string+0x44>
    5898:	82 10 60 6c 	or  %g1, 0x6c, %g1	! 6c <GLIBC_2.0+0x6c>
    589c:	03 00 00 00 	sethi  %hi(0), %g1
    58a0:	10 bf ff f0 	b  5860 <yperr_string+0x44>
    58a4:	82 10 60 70 	or  %g1, 0x70, %g1	! 70 <GLIBC_2.0+0x70>
    58a8:	03 00 00 00 	sethi  %hi(0), %g1
    58ac:	10 bf ff ed 	b  5860 <yperr_string+0x44>
    58b0:	82 10 60 74 	or  %g1, 0x74, %g1	! 74 <GLIBC_2.0+0x74>
    58b4:	03 00 00 00 	sethi  %hi(0), %g1
    58b8:	10 bf ff ea 	b  5860 <yperr_string+0x44>
    58bc:	82 10 60 78 	or  %g1, 0x78, %g1	! 78 <GLIBC_2.0+0x78>
    58c0:	03 00 00 00 	sethi  %hi(0), %g1
    58c4:	10 bf ff e7 	b  5860 <yperr_string+0x44>
    58c8:	82 10 60 7c 	or  %g1, 0x7c, %g1	! 7c <GLIBC_2.0+0x7c>
    58cc:	03 00 00 00 	sethi  %hi(0), %g1
    58d0:	10 bf ff e4 	b  5860 <yperr_string+0x44>
    58d4:	82 10 60 80 	or  %g1, 0x80, %g1	! 80 <GLIBC_2.0+0x80>
    58d8:	03 00 00 00 	sethi  %hi(0), %g1
    58dc:	10 bf ff e1 	b  5860 <yperr_string+0x44>
    58e0:	82 10 60 84 	or  %g1, 0x84, %g1	! 84 <GLIBC_2.0+0x84>
    58e4:	03 00 00 00 	sethi  %hi(0), %g1
    58e8:	10 bf ff de 	b  5860 <yperr_string+0x44>
    58ec:	82 10 60 88 	or  %g1, 0x88, %g1	! 88 <GLIBC_2.0+0x88>
    58f0:	03 00 00 00 	sethi  %hi(0), %g1
    58f4:	10 bf ff db 	b  5860 <yperr_string+0x44>
    58f8:	82 10 60 8c 	or  %g1, 0x8c, %g1	! 8c <GLIBC_2.0+0x8c>
    58fc:	03 00 00 00 	sethi  %hi(0), %g1
    5900:	10 bf ff d8 	b  5860 <yperr_string+0x44>
    5904:	82 10 60 90 	or  %g1, 0x90, %g1	! 90 <GLIBC_2.0+0x90>
    5908:	03 00 00 00 	sethi  %hi(0), %g1
    590c:	10 bf ff d5 	b  5860 <yperr_string+0x44>
    5910:	82 10 60 94 	or  %g1, 0x94, %g1	! 94 <GLIBC_2.0+0x94>
    5914:	03 00 00 00 	sethi  %hi(0), %g1
    5918:	10 bf ff d2 	b  5860 <yperr_string+0x44>
    591c:	82 10 60 98 	or  %g1, 0x98, %g1	! 98 <GLIBC_2.0+0x98>
    5920:	03 00 00 00 	sethi  %hi(0), %g1
    5924:	10 bf ff cf 	b  5860 <yperr_string+0x44>
    5928:	82 10 60 9c 	or  %g1, 0x9c, %g1	! 9c <GLIBC_2.0+0x9c>
    592c:	03 00 00 00 	sethi  %hi(0), %g1
    5930:	10 bf ff cc 	b  5860 <yperr_string+0x44>
    5934:	82 10 60 a0 	or  %g1, 0xa0, %g1	! a0 <GLIBC_2.0+0xa0>

00005938 <yp_update>:
yp_update():
    5938:	9d e3 be 50 	save  %sp, -432, %sp
    593c:	80 a0 00 18 	cmp  %g0, %i0
    5940:	84 60 3f ff 	subx  %g0, -1, %g2
    5944:	80 a0 00 19 	cmp  %g0, %i1
    5948:	82 60 3f ff 	subx  %g0, -1, %g1
    594c:	2f 00 00 71 	sethi  %hi(0x1c400), %l7
    5950:	7f ff fa 8d 	call  4384 <xdr_ypall+0xf0>
    5954:	ae 05 e2 b0 	add  %l7, 0x2b0, %l7	! 1c6b0 <__FRAME_END__+0xb688>
    5958:	92 10 00 19 	mov  %i1, %o1
    595c:	80 90 80 01 	orcc  %g2, %g1, %g0
    5960:	12 80 00 0c 	bne  5990 <yp_update+0x58>
    5964:	c0 27 be b8 	clr  [ %fp + -328 ]
    5968:	80 a6 e0 00 	cmp  %i3, 0
    596c:	02 80 00 09 	be  5990 <yp_update+0x58>
    5970:	82 1e a0 03 	xor  %i2, 3, %g1
    5974:	80 a0 00 01 	cmp  %g0, %g1
    5978:	84 40 20 00 	addx  %g0, 0, %g2
    597c:	80 a0 00 1d 	cmp  %g0, %i5
    5980:	82 60 3f ff 	subx  %g0, -1, %g1
    5984:	80 88 80 01 	btst  %g2, %g1
    5988:	02 80 00 04 	be  5998 <yp_update+0x60>
    598c:	c2 07 a0 5c 	ld  [ %fp + 0x5c ], %g1
    5990:	10 80 00 9c 	b  5c00 <yp_update+0x2c8>
    5994:	90 10 20 01 	mov  1, %o0
    5998:	f8 27 bf dc 	st  %i4, [ %fp + -36 ]
    599c:	f6 27 bf e0 	st  %i3, [ %fp + -32 ]
    59a0:	c2 27 bf e4 	st  %g1, [ %fp + -28 ]
    59a4:	fa 27 bf e8 	st  %i5, [ %fp + -24 ]
    59a8:	f2 27 bf d8 	st  %i1, [ %fp + -40 ]
    59ac:	90 10 00 18 	mov  %i0, %o0
    59b0:	7f ff fd 91 	call  4ff4 <yp_master>
    59b4:	94 07 be bc 	add  %fp, -324, %o2
    59b8:	80 a2 20 00 	cmp  %o0, 0
    59bc:	12 80 00 91 	bne  5c00 <yp_update+0x2c8>
    59c0:	a0 07 be c8 	add  %fp, -312, %l0
    59c4:	94 10 00 18 	mov  %i0, %o2
    59c8:	90 10 00 10 	mov  %l0, %o0
    59cc:	40 00 73 34 	call  2269c <host2netname@plt>
    59d0:	d2 07 be bc 	ld  [ %fp + -324 ], %o1
    59d4:	80 a2 20 00 	cmp  %o0, 0
    59d8:	02 80 00 5e 	be  5b50 <yp_update+0x218>
    59dc:	03 00 00 00 	sethi  %hi(0), %g1
    59e0:	82 10 60 a4 	or  %g1, 0xa4, %g1	! a4 <GLIBC_2.0+0xa4>
    59e4:	13 00 00 61 	sethi  %hi(0x18400), %o1
    59e8:	92 12 62 bc 	or  %o1, 0x2bc, %o1	! 186bc <__FRAME_END__+0x7694>
    59ec:	d6 05 c0 01 	ld  [ %l7 + %g1 ], %o3
    59f0:	94 10 20 01 	mov  1, %o2
    59f4:	40 00 72 b2 	call  224bc <clnt_create@plt>
    59f8:	d0 07 be bc 	ld  [ %fp + -324 ], %o0
    59fc:	ba 10 00 08 	mov  %o0, %i5
    5a00:	40 00 73 78 	call  227e0 <free@plt>
    5a04:	d0 07 be bc 	ld  [ %fp + -324 ], %o0
    5a08:	80 a7 60 00 	cmp  %i5, 0
    5a0c:	02 80 00 71 	be  5bd0 <yp_update+0x298>
    5a10:	b6 07 bf c8 	add  %fp, -56, %i3
    5a14:	c2 07 60 04 	ld  [ %i5 + 4 ], %g1
    5a18:	c4 00 60 14 	ld  [ %g1 + 0x14 ], %g2
    5a1c:	90 10 00 1d 	mov  %i5, %o0
    5a20:	92 10 20 03 	mov  3, %o1
    5a24:	9f c0 80 00 	call  %g2
    5a28:	94 10 00 1b 	mov  %i3, %o2
    5a2c:	80 a2 20 00 	cmp  %o0, 0
    5a30:	02 80 00 59 	be  5b94 <yp_update+0x25c>
    5a34:	80 a6 a0 03 	cmp  %i2, 3
    5a38:	02 80 00 3e 	be  5b30 <yp_update+0x1f8>
    5a3c:	03 00 00 00 	sethi  %hi(0), %g1
    5a40:	18 80 00 38 	bgu  5b20 <yp_update+0x1e8>
    5a44:	80 a6 a0 04 	cmp  %i2, 4
    5a48:	80 a6 a0 01 	cmp  %i2, 1
    5a4c:	0a 80 00 6d 	bcs  5c00 <yp_update+0x2c8>
    5a50:	90 10 20 01 	mov  1, %o0
    5a54:	03 00 00 00 	sethi  %hi(0), %g1
    5a58:	82 10 63 54 	or  %g1, 0x354, %g1	! 354 <GLIBC_2.0+0x354>
    5a5c:	f8 05 c0 01 	ld  [ %l7 + %g1 ], %i4
    5a60:	90 10 00 10 	mov  %l0, %o0
    5a64:	94 10 00 1b 	mov  %i3, %o2
    5a68:	92 10 20 3c 	mov  0x3c, %o1
    5a6c:	40 00 72 73 	call  22438 <authdes_create@plt>
    5a70:	96 10 20 00 	clr  %o3
    5a74:	80 a2 20 00 	cmp  %o0, 0
    5a78:	02 80 00 32 	be  5b40 <yp_update+0x208>
    5a7c:	d0 27 40 00 	st  %o0, [ %i5 ]
    5a80:	21 00 00 00 	sethi  %hi(0), %l0
    5a84:	b2 07 bf d8 	add  %fp, -40, %i1
    5a88:	b0 07 be c0 	add  %fp, -320, %i0
    5a8c:	10 80 00 0d 	b  5ac0 <yp_update+0x188>
    5a90:	37 00 00 00 	sethi  %hi(0), %i3
    5a94:	c2 00 80 00 	ld  [ %g2 ], %g1
    5a98:	80 a0 60 03 	cmp  %g1, 3
    5a9c:	12 80 00 27 	bne  5b38 <yp_update+0x200>
    5aa0:	90 10 00 02 	mov  %g2, %o0
    5aa4:	c2 00 a0 20 	ld  [ %g2 + 0x20 ], %g1
    5aa8:	c4 00 60 10 	ld  [ %g1 + 0x10 ], %g2
    5aac:	9f c0 80 00 	call  %g2
    5ab0:	01 00 00 00 	nop 
    5ab4:	40 00 73 12 	call  226fc <authunix_create_default@plt>
    5ab8:	01 00 00 00 	nop 
    5abc:	d0 27 40 00 	st  %o0, [ %i5 ]
    5ac0:	82 14 20 10 	or  %l0, 0x10, %g1
    5ac4:	c4 05 c0 01 	ld  [ %l7 + %g1 ], %g2
    5ac8:	da 07 60 04 	ld  [ %i5 + 4 ], %o5
    5acc:	c2 00 80 00 	ld  [ %g2 ], %g1
    5ad0:	f0 23 a0 5c 	st  %i0, [ %sp + 0x5c ]
    5ad4:	c2 27 be c0 	st  %g1, [ %fp + -320 ]
    5ad8:	c8 00 a0 04 	ld  [ %g2 + 4 ], %g4
    5adc:	86 16 e3 9c 	or  %i3, 0x39c, %g3
    5ae0:	c2 03 40 00 	ld  [ %o5 ], %g1
    5ae4:	c8 27 be c4 	st  %g4, [ %fp + -316 ]
    5ae8:	d8 05 c0 03 	ld  [ %l7 + %g3 ], %o4
    5aec:	92 10 00 1a 	mov  %i2, %o1
    5af0:	94 10 00 1c 	mov  %i4, %o2
    5af4:	96 10 00 19 	mov  %i1, %o3
    5af8:	9a 07 be b8 	add  %fp, -328, %o5
    5afc:	9f c0 40 00 	call  %g1
    5b00:	90 10 00 1d 	mov  %i5, %o0
    5b04:	80 a2 20 07 	cmp  %o0, 7
    5b08:	22 bf ff e3 	be,a   5a94 <yp_update+0x15c>
    5b0c:	c4 07 40 00 	ld  [ %i5 ], %g2
    5b10:	80 a2 20 00 	cmp  %o0, 0
    5b14:	12 80 00 35 	bne  5be8 <yp_update+0x2b0>
    5b18:	d0 07 be b8 	ld  [ %fp + -328 ], %o0
    5b1c:	30 80 00 39 	b,a   5c00 <yp_update+0x2c8>
    5b20:	12 80 00 38 	bne  5c00 <yp_update+0x2c8>
    5b24:	90 10 20 01 	mov  1, %o0
    5b28:	10 bf ff cc 	b  5a58 <yp_update+0x120>
    5b2c:	03 00 00 00 	sethi  %hi(0), %g1
    5b30:	10 bf ff cb 	b  5a5c <yp_update+0x124>
    5b34:	82 10 63 78 	or  %g1, 0x378, %g1	! 378 <GLIBC_2.0+0x378>
    5b38:	10 80 00 32 	b  5c00 <yp_update+0x2c8>
    5b3c:	90 10 20 0f 	mov  0xf, %o0
    5b40:	40 00 72 ef 	call  226fc <authunix_create_default@plt>
    5b44:	21 00 00 00 	sethi  %hi(0), %l0
    5b48:	10 bf ff cf 	b  5a84 <yp_update+0x14c>
    5b4c:	d0 27 40 00 	st  %o0, [ %i5 ]
    5b50:	05 00 00 00 	sethi  %hi(0), %g2
    5b54:	03 00 00 00 	sethi  %hi(0), %g1
    5b58:	84 10 a3 90 	or  %g2, 0x390, %g2
    5b5c:	82 10 60 a8 	or  %g1, 0xa8, %g1
    5b60:	d2 05 c0 01 	ld  [ %l7 + %g1 ], %o1
    5b64:	94 10 20 05 	mov  5, %o2
    5b68:	40 00 73 12 	call  227b0 <__dcgettext@plt>
    5b6c:	d0 05 c0 02 	ld  [ %l7 + %g2 ], %o0
    5b70:	03 00 00 00 	sethi  %hi(0), %g1
    5b74:	82 10 63 b0 	or  %g1, 0x3b0, %g1	! 3b0 <GLIBC_2.0+0x3b0>
    5b78:	c4 05 c0 01 	ld  [ %l7 + %g1 ], %g2
    5b7c:	40 00 72 b6 	call  22654 <fputs@plt>
    5b80:	d2 00 80 00 	ld  [ %g2 ], %o1
    5b84:	40 00 73 17 	call  227e0 <free@plt>
    5b88:	d0 07 be bc 	ld  [ %fp + -324 ], %o0
    5b8c:	10 80 00 1d 	b  5c00 <yp_update+0x2c8>
    5b90:	90 10 20 06 	mov  6, %o0
    5b94:	05 00 00 00 	sethi  %hi(0), %g2
    5b98:	03 00 00 00 	sethi  %hi(0), %g1
    5b9c:	84 10 a3 90 	or  %g2, 0x390, %g2
    5ba0:	82 10 60 ac 	or  %g1, 0xac, %g1
    5ba4:	d2 05 c0 01 	ld  [ %l7 + %g1 ], %o1
    5ba8:	d0 05 c0 02 	ld  [ %l7 + %g2 ], %o0
    5bac:	40 00 73 01 	call  227b0 <__dcgettext@plt>
    5bb0:	94 10 20 05 	mov  5, %o2
    5bb4:	03 00 00 00 	sethi  %hi(0), %g1
    5bb8:	82 10 63 b0 	or  %g1, 0x3b0, %g1	! 3b0 <GLIBC_2.0+0x3b0>
    5bbc:	c4 05 c0 01 	ld  [ %l7 + %g1 ], %g2
    5bc0:	40 00 72 a5 	call  22654 <fputs@plt>
    5bc4:	d2 00 80 00 	ld  [ %g2 ], %o1
    5bc8:	10 80 00 0e 	b  5c00 <yp_update+0x2c8>
    5bcc:	90 10 20 02 	mov  2, %o0
    5bd0:	03 00 00 00 	sethi  %hi(0), %g1
    5bd4:	82 10 60 b0 	or  %g1, 0xb0, %g1	! b0 <GLIBC_2.0+0xb0>
    5bd8:	40 00 72 78 	call  225b8 <clnt_pcreateerror@plt>
    5bdc:	d0 05 c0 01 	ld  [ %l7 + %g1 ], %o0
    5be0:	10 80 00 08 	b  5c00 <yp_update+0x2c8>
    5be4:	90 10 20 02 	mov  2, %o0
    5be8:	03 00 00 00 	sethi  %hi(0), %g1
    5bec:	82 10 60 b4 	or  %g1, 0xb4, %g1	! b4 <GLIBC_2.0+0xb4>
    5bf0:	90 10 00 1d 	mov  %i5, %o0
    5bf4:	40 00 73 31 	call  228b8 <clnt_perror@plt>
    5bf8:	d2 05 c0 01 	ld  [ %l7 + %g1 ], %o1
    5bfc:	90 10 20 02 	mov  2, %o0
    5c00:	81 c7 e0 08 	ret 
    5c04:	91 e8 00 08 	restore  %g0, %o0, %o0

00005c08 <xdr_yp_buf>:
xdr_yp_buf():
    5c08:	94 10 00 09 	mov  %o1, %o2
    5c0c:	92 02 60 04 	add  %o1, 4, %o1
    5c10:	96 10 3f ff 	mov  -1, %o3
    5c14:	82 13 c0 00 	mov  %o7, %g1
    5c18:	10 80 72 7a 	b  22600 <xdr_bytes@plt>
    5c1c:	01 00 00 00 	nop 
    5c20:	01 00 00 00 	nop 

00005c24 <xdr_ypupdate_args>:
xdr_ypupdate_args():
    5c24:	9d e3 bf 90 	save  %sp, -112, %sp
    5c28:	92 10 00 19 	mov  %i1, %o1
    5c2c:	94 10 3f ff 	mov  -1, %o2
    5c30:	40 00 73 1f 	call  228ac <xdr_string@plt>
    5c34:	90 10 00 18 	mov  %i0, %o0
    5c38:	80 a2 20 00 	cmp  %o0, 0
    5c3c:	92 06 60 04 	add  %i1, 4, %o1
    5c40:	02 80 00 09 	be  5c64 <xdr_ypupdate_args+0x40>
    5c44:	90 10 00 18 	mov  %i0, %o0
    5c48:	7f ff ff f0 	call  5c08 <xdr_yp_buf>
    5c4c:	b2 06 60 0c 	add  %i1, 0xc, %i1
    5c50:	80 a2 20 00 	cmp  %o0, 0
    5c54:	02 80 00 04 	be  5c64 <xdr_ypupdate_args+0x40>
    5c58:	01 00 00 00 	nop 
    5c5c:	10 bf ff eb 	b  5c08 <xdr_yp_buf>
    5c60:	81 e8 00 00 	restore 
    5c64:	81 c7 e0 08 	ret 
    5c68:	91 e8 20 00 	restore  %g0, 0, %o0

00005c6c <xdr_ypdelete_args>:
xdr_ypdelete_args():
    5c6c:	9d e3 bf 90 	save  %sp, -112, %sp
    5c70:	92 10 00 19 	mov  %i1, %o1
    5c74:	90 10 00 18 	mov  %i0, %o0
    5c78:	40 00 73 0d 	call  228ac <xdr_string@plt>
    5c7c:	94 10 3f ff 	mov  -1, %o2
    5c80:	80 a2 20 00 	cmp  %o0, 0
    5c84:	02 80 00 04 	be  5c94 <xdr_ypdelete_args+0x28>
    5c88:	b2 06 60 04 	add  %i1, 4, %i1
    5c8c:	10 bf ff df 	b  5c08 <xdr_yp_buf>
    5c90:	81 e8 00 00 	restore 
    5c94:	81 c7 e0 08 	ret 
    5c98:	91 e8 20 00 	restore  %g0, 0, %o0

00005c9c <nis_leaf_of_r>:
nis_leaf_of_r():
    5c9c:	9d e3 bf 90 	save  %sp, -112, %sp
    5ca0:	c0 2e 40 00 	clrb  [ %i1 ]
    5ca4:	c4 4e 00 00 	ldsb  [ %i0 ], %g2
    5ca8:	82 18 a0 2e 	xor  %g2, 0x2e, %g1
    5cac:	80 a0 00 01 	cmp  %g0, %g1
    5cb0:	86 40 20 00 	addx  %g0, 0, %g3
    5cb4:	80 a0 00 02 	cmp  %g0, %g2
    5cb8:	82 40 20 00 	addx  %g0, 0, %g1
    5cbc:	92 10 00 18 	mov  %i0, %o1
    5cc0:	80 88 c0 01 	btst  %g3, %g1
    5cc4:	02 80 00 0c 	be  5cf4 <nis_leaf_of_r+0x58>
    5cc8:	94 10 20 00 	clr  %o2
    5ccc:	94 02 a0 01 	inc  %o2
    5cd0:	c4 4a 40 0a 	ldsb  [ %o1 + %o2 ], %g2
    5cd4:	82 18 a0 2e 	xor  %g2, 0x2e, %g1
    5cd8:	80 a0 00 01 	cmp  %g0, %g1
    5cdc:	86 40 20 00 	addx  %g0, 0, %g3
    5ce0:	80 a0 00 02 	cmp  %g0, %g2
    5ce4:	82 40 20 00 	addx  %g0, 0, %g1
    5ce8:	80 88 c0 01 	btst  %g3, %g1
    5cec:	32 bf ff f9 	bne,a   5cd0 <nis_leaf_of_r+0x34>
    5cf0:	94 02 a0 01 	inc  %o2
    5cf4:	80 a2 80 1a 	cmp  %o2, %i2
    5cf8:	1a 80 00 07 	bcc  5d14 <nis_leaf_of_r+0x78>
    5cfc:	01 00 00 00 	nop 
    5d00:	40 00 71 e3 	call  2248c <mempcpy@plt>
    5d04:	90 10 00 19 	mov  %i1, %o0
    5d08:	c0 2a 00 00 	clrb  [ %o0 ]
    5d0c:	10 80 00 07 	b  5d28 <nis_leaf_of_r+0x8c>
    5d10:	90 10 00 19 	mov  %i1, %o0
    5d14:	40 00 72 1a 	call  2257c <__errno_location@plt>
    5d18:	01 00 00 00 	nop 
    5d1c:	82 10 20 22 	mov  0x22, %g1	! 22 <GLIBC_2.0+0x22>
    5d20:	c2 22 00 00 	st  %g1, [ %o0 ]
    5d24:	90 10 20 00 	clr  %o0
    5d28:	81 c7 e0 08 	ret 
    5d2c:	91 e8 00 08 	restore  %g0, %o0, %o0
    5d30:	81 c3 e0 08 	retl 
    5d34:	ae 03 c0 17 	add  %o7, %l7, %l7

00005d38 <nis_leaf_of>:
nis_leaf_of():
    5d38:	9d e3 bf 90 	save  %sp, -112, %sp
    5d3c:	03 00 00 00 	sethi  %hi(0), %g1
    5d40:	2f 00 00 70 	sethi  %hi(0x1c000), %l7
    5d44:	7f ff ff fb 	call  5d30 <nis_leaf_of_r+0x94>
    5d48:	ae 05 e2 bc 	add  %l7, 0x2bc, %l7	! 1c2bc <__FRAME_END__+0xb294>
    5d4c:	82 10 60 b8 	or  %g1, 0xb8, %g1
    5d50:	f2 05 c0 01 	ld  [ %l7 + %g1 ], %i1
    5d54:	10 bf ff d2 	b  5c9c <nis_leaf_of_r>
    5d58:	95 e8 24 00 	restore  %g0, 0x400, %o2
    5d5c:	01 00 00 00 	nop 

00005d60 <nis_name_of_r>:
nis_name_of_r():
    5d60:	9d e3 bf 90 	save  %sp, -112, %sp
    5d64:	40 00 01 ef 	call  6520 <nis_local_directory>
    5d68:	01 00 00 00 	nop 
    5d6c:	a2 10 00 08 	mov  %o0, %l1
    5d70:	40 00 72 3f 	call  2266c <strlen@plt>
    5d74:	90 10 00 18 	mov  %i0, %o0
    5d78:	a0 10 00 08 	mov  %o0, %l0
    5d7c:	40 00 72 3c 	call  2266c <strlen@plt>
    5d80:	90 10 00 11 	mov  %l1, %o0
    5d84:	a0 24 00 08 	sub  %l0, %o0, %l0
    5d88:	92 10 00 11 	mov  %l1, %o1
    5d8c:	90 06 00 10 	add  %i0, %l0, %o0
    5d90:	80 a4 20 00 	cmp  %l0, 0
    5d94:	04 80 00 19 	ble  5df8 <nis_name_of_r+0x98>
    5d98:	82 10 20 00 	clr  %g1
    5d9c:	40 00 71 ce 	call  224d4 <strcmp@plt>
    5da0:	01 00 00 00 	nop 
    5da4:	80 a2 20 00 	cmp  %o0, 0
    5da8:	12 80 00 14 	bne  5df8 <nis_name_of_r+0x98>
    5dac:	82 10 20 00 	clr  %g1
    5db0:	92 10 00 18 	mov  %i0, %o1
    5db4:	90 10 00 19 	mov  %i1, %o0
    5db8:	80 a4 00 1a 	cmp  %l0, %i2
    5dbc:	1a 80 00 0a 	bcc  5de4 <nis_name_of_r+0x84>
    5dc0:	94 04 3f ff 	add  %l0, -1, %o2
    5dc4:	40 00 71 b2 	call  2248c <mempcpy@plt>
    5dc8:	01 00 00 00 	nop 
    5dcc:	c0 2a 00 00 	clrb  [ %o0 ]
    5dd0:	80 a4 20 01 	cmp  %l0, 1
    5dd4:	02 80 00 09 	be  5df8 <nis_name_of_r+0x98>
    5dd8:	82 10 20 00 	clr  %g1
    5ddc:	10 80 00 07 	b  5df8 <nis_name_of_r+0x98>
    5de0:	82 10 00 19 	mov  %i1, %g1
    5de4:	40 00 71 e6 	call  2257c <__errno_location@plt>
    5de8:	01 00 00 00 	nop 
    5dec:	82 10 20 22 	mov  0x22, %g1	! 22 <GLIBC_2.0+0x22>
    5df0:	c2 22 00 00 	st  %g1, [ %o0 ]
    5df4:	82 10 20 00 	clr  %g1
    5df8:	81 c7 e0 08 	ret 
    5dfc:	91 e8 00 01 	restore  %g0, %g1, %o0

00005e00 <nis_name_of>:
nis_name_of():
    5e00:	9d e3 bf 90 	save  %sp, -112, %sp
    5e04:	03 00 00 00 	sethi  %hi(0), %g1
    5e08:	2f 00 00 70 	sethi  %hi(0x1c000), %l7
    5e0c:	7f ff ff c9 	call  5d30 <nis_leaf_of_r+0x94>
    5e10:	ae 05 e1 f4 	add  %l7, 0x1f4, %l7	! 1c1f4 <__FRAME_END__+0xb1cc>
    5e14:	82 10 60 bc 	or  %g1, 0xbc, %g1
    5e18:	f2 05 c0 01 	ld  [ %l7 + %g1 ], %i1
    5e1c:	10 bf ff d1 	b  5d60 <nis_name_of_r>
    5e20:	95 e8 24 00 	restore  %g0, 0x400, %o2
    5e24:	01 00 00 00 	nop 

00005e28 <nis_getnames>:
nis_getnames():
    5e28:	9d e3 bf 88 	save  %sp, -120, %sp
    5e2c:	2f 00 00 70 	sethi  %hi(0x1c000), %l7
    5e30:	7f ff ff c0 	call  5d30 <nis_leaf_of_r+0x94>
    5e34:	ae 05 e1 d0 	add  %l7, 0x1d0, %l7	! 1c1d0 <__FRAME_END__+0xb1a8>
    5e38:	40 00 01 ba 	call  6520 <nis_local_directory>
    5e3c:	b8 10 00 18 	mov  %i0, %i4
    5e40:	40 00 72 0b 	call  2266c <strlen@plt>
    5e44:	b6 10 00 08 	mov  %o0, %i3
    5e48:	ac 10 00 08 	mov  %o0, %l6
    5e4c:	40 00 72 08 	call  2266c <strlen@plt>
    5e50:	90 10 00 18 	mov  %i0, %o0
    5e54:	ba 10 00 08 	mov  %o0, %i5
    5e58:	40 00 71 de 	call  225d0 <malloc@plt>
    5e5c:	90 10 20 0c 	mov  0xc, %o0
    5e60:	a6 92 20 00 	orcc  %o0, 0, %l3
    5e64:	a4 10 20 00 	clr  %l2
    5e68:	a8 10 20 02 	mov  2, %l4
    5e6c:	02 80 01 63 	be  63f8 <nis_getnames+0x5d0>
    5e70:	b0 10 20 00 	clr  %i0
    5e74:	88 07 00 1d 	add  %i4, %i5, %g4
    5e78:	c6 49 3f ff 	ldsb  [ %g4 + -1 ], %g3
    5e7c:	80 a0 e0 2e 	cmp  %g3, 0x2e
    5e80:	02 80 00 ab 	be  612c <nis_getnames+0x304>
    5e84:	80 a5 a0 02 	cmp  %l6, 2
    5e88:	08 80 00 09 	bleu  5eac <nis_getnames+0x84>
    5e8c:	84 06 c0 16 	add  %i3, %l6, %g2
    5e90:	c2 48 bf fe 	ldsb  [ %g2 + -2 ], %g1
    5e94:	80 a0 40 03 	cmp  %g1, %g3
    5e98:	86 01 3f ff 	add  %g4, -1, %g3
    5e9c:	88 10 20 00 	clr  %g4
    5ea0:	a0 00 bf fe 	add  %g2, -2, %l0
    5ea4:	02 80 00 9a 	be  610c <nis_getnames+0x2e4>
    5ea8:	c2 08 bf fe 	ldub  [ %g2 + -2 ], %g1
    5eac:	03 00 00 00 	sethi  %hi(0), %g1
    5eb0:	82 10 60 c0 	or  %g1, 0xc0, %g1	! c0 <GLIBC_2.0+0xc0>
    5eb4:	40 00 71 94 	call  22504 <getenv@plt>
    5eb8:	d0 05 c0 01 	ld  [ %l7 + %g1 ], %o0
    5ebc:	a0 92 20 00 	orcc  %o0, 0, %l0
    5ec0:	02 80 01 31 	be  6384 <nis_getnames+0x55c>
    5ec4:	03 00 00 00 	sethi  %hi(0), %g1
    5ec8:	40 00 71 e9 	call  2266c <strlen@plt>
    5ecc:	01 00 00 00 	nop 
    5ed0:	82 02 20 08 	add  %o0, 8, %g1
    5ed4:	82 08 7f f8 	and  %g1, -8, %g1
    5ed8:	9c 23 80 01 	sub  %sp, %g1, %sp
    5edc:	94 02 20 01 	add  %o0, 1, %o2
    5ee0:	92 10 00 10 	mov  %l0, %o1
    5ee4:	40 00 72 1b 	call  22750 <memcpy@plt>
    5ee8:	90 03 a0 60 	add  %sp, 0x60, %o0
    5eec:	90 92 20 00 	orcc  %o0, 0, %o0
    5ef0:	02 80 01 33 	be  63bc <nis_getnames+0x594>
    5ef4:	b4 07 bf ec 	add  %fp, -20, %i2
    5ef8:	c2 4a 00 00 	ldsb  [ %o0 ], %g1
    5efc:	80 a0 60 3a 	cmp  %g1, 0x3a
    5f00:	12 80 00 07 	bne  5f1c <nis_getnames+0xf4>
    5f04:	c2 0a 00 00 	ldub  [ %o0 ], %g1
    5f08:	90 02 20 01 	inc  %o0
    5f0c:	c2 4a 00 00 	ldsb  [ %o0 ], %g1
    5f10:	80 a0 60 3a 	cmp  %g1, 0x3a
    5f14:	02 bf ff fd 	be  5f08 <nis_getnames+0xe0>
    5f18:	c2 0a 00 00 	ldub  [ %o0 ], %g1
    5f1c:	83 28 60 18 	sll  %g1, 0x18, %g1
    5f20:	80 a0 60 00 	cmp  %g1, 0
    5f24:	02 80 00 14 	be  5f74 <nis_getnames+0x14c>
    5f28:	92 10 20 00 	clr  %o1
    5f2c:	82 10 00 08 	mov  %o0, %g1
    5f30:	90 02 20 01 	inc  %o0
    5f34:	c6 0a 00 00 	ldub  [ %o0 ], %g3
    5f38:	87 28 e0 18 	sll  %g3, 0x18, %g3
    5f3c:	80 a0 e0 00 	cmp  %g3, 0
    5f40:	02 80 00 0c 	be  5f70 <nis_getnames+0x148>
    5f44:	92 10 00 01 	mov  %g1, %o1
    5f48:	82 10 00 03 	mov  %g3, %g1
    5f4c:	83 38 60 18 	sra  %g1, 0x18, %g1
    5f50:	80 a0 60 3a 	cmp  %g1, 0x3a
    5f54:	02 80 01 1c 	be  63c4 <nis_getnames+0x59c>
    5f58:	90 02 20 01 	inc  %o0
    5f5c:	c6 0a 00 00 	ldub  [ %o0 ], %g3
    5f60:	83 28 e0 18 	sll  %g3, 0x18, %g1
    5f64:	80 a0 60 00 	cmp  %g1, 0
    5f68:	12 bf ff fa 	bne  5f50 <nis_getnames+0x128>
    5f6c:	83 38 60 18 	sra  %g1, 0x18, %g1
    5f70:	d0 26 80 00 	st  %o0, [ %i2 ]
    5f74:	a0 10 00 09 	mov  %o1, %l0
    5f78:	80 a4 20 00 	cmp  %l0, 0
    5f7c:	02 80 00 b4 	be  624c <nis_getnames+0x424>
    5f80:	83 2c a0 02 	sll  %l2, 2, %g1
    5f84:	c2 0c 00 00 	ldub  [ %l0 ], %g1
    5f88:	82 80 7f dc 	addcc  %g1, -36, %g1
    5f8c:	22 80 00 02 	be,a   5f94 <nis_getnames+0x16c>
    5f90:	c2 0c 20 01 	ldub  [ %l0 + 1 ], %g1
    5f94:	80 a0 60 00 	cmp  %g1, 0
    5f98:	12 80 00 6d 	bne  614c <nis_getnames+0x324>
    5f9c:	83 2d 20 02 	sll  %l4, 2, %g1
    5fa0:	a2 00 60 04 	add  %g1, 4, %l1
    5fa4:	a0 10 00 1b 	mov  %i3, %l0
    5fa8:	c4 0e c0 00 	ldub  [ %i3 ], %g2
    5fac:	83 28 a0 18 	sll  %g2, 0x18, %g1
    5fb0:	80 a0 60 00 	cmp  %g1, 0
    5fb4:	02 80 00 81 	be  61b8 <nis_getnames+0x390>
    5fb8:	86 10 20 00 	clr  %g3
    5fbc:	84 10 20 00 	clr  %g2
    5fc0:	c2 0c 00 00 	ldub  [ %l0 ], %g1
    5fc4:	83 28 60 18 	sll  %g1, 0x18, %g1
    5fc8:	83 38 60 18 	sra  %g1, 0x18, %g1
    5fcc:	82 18 60 2e 	xor  %g1, 0x2e, %g1
    5fd0:	80 a0 00 01 	cmp  %g0, %g1
    5fd4:	84 00 a0 01 	inc  %g2
    5fd8:	c2 4c 00 02 	ldsb  [ %l0 + %g2 ], %g1
    5fdc:	86 60 ff ff 	subx  %g3, -1, %g3
    5fe0:	80 a0 60 00 	cmp  %g1, 0
    5fe4:	12 bf ff f8 	bne  5fc4 <nis_getnames+0x19c>
    5fe8:	c2 0c 00 02 	ldub  [ %l0 + %g2 ], %g1
    5fec:	80 a0 e0 01 	cmp  %g3, 1
    5ff0:	04 80 00 72 	ble  61b8 <nis_getnames+0x390>
    5ff4:	80 a4 80 14 	cmp  %l2, %l4
    5ff8:	06 80 00 0a 	bl  6020 <nis_getnames+0x1f8>
    5ffc:	01 00 00 00 	nop 
    6000:	a2 04 60 14 	add  %l1, 0x14, %l1
    6004:	90 10 00 13 	mov  %l3, %o0
    6008:	40 00 71 c9 	call  2272c <realloc@plt>
    600c:	92 10 00 11 	mov  %l1, %o1
    6010:	80 a2 20 00 	cmp  %o0, 0
    6014:	02 80 00 b9 	be  62f8 <nis_getnames+0x4d0>
    6018:	a8 05 20 05 	add  %l4, 5, %l4
    601c:	a6 10 00 08 	mov  %o0, %l3
    6020:	40 00 71 93 	call  2266c <strlen@plt>
    6024:	90 10 00 10 	mov  %l0, %o0
    6028:	90 02 00 16 	add  %o0, %l6, %o0
    602c:	90 02 00 1d 	add  %o0, %i5, %o0
    6030:	40 00 71 68 	call  225d0 <malloc@plt>
    6034:	90 02 20 02 	add  %o0, 2, %o0
    6038:	84 92 20 00 	orcc  %o0, 0, %g2
    603c:	02 80 00 af 	be  62f8 <nis_getnames+0x4d0>
    6040:	83 2c a0 02 	sll  %l2, 2, %g1
    6044:	c4 24 c0 01 	st  %g2, [ %l3 + %g1 ]
    6048:	40 00 71 92 	call  22690 <stpcpy@plt>
    604c:	92 10 00 1c 	mov  %i4, %o1
    6050:	82 10 20 2e 	mov  0x2e, %g1
    6054:	c2 2a 00 00 	stb  %g1, [ %o0 ]
    6058:	c4 4c 20 01 	ldsb  [ %l0 + 1 ], %g2
    605c:	80 a0 a0 00 	cmp  %g2, 0
    6060:	12 80 00 ad 	bne  6314 <nis_getnames+0x4ec>
    6064:	90 02 20 01 	inc  %o0
    6068:	a0 04 20 01 	inc  %l0
    606c:	c4 4c 00 00 	ldsb  [ %l0 ], %g2
    6070:	82 18 a0 2e 	xor  %g2, 0x2e, %g1
    6074:	80 a0 00 01 	cmp  %g0, %g1
    6078:	86 40 20 00 	addx  %g0, 0, %g3
    607c:	80 a0 00 02 	cmp  %g0, %g2
    6080:	82 40 20 00 	addx  %g0, 0, %g1
    6084:	80 88 c0 01 	btst  %g3, %g1
    6088:	10 80 00 0a 	b  60b0 <nis_getnames+0x288>
    608c:	a4 04 a0 01 	inc  %l2
    6090:	a0 04 20 01 	inc  %l0
    6094:	c4 4c 00 00 	ldsb  [ %l0 ], %g2
    6098:	82 18 a0 2e 	xor  %g2, 0x2e, %g1
    609c:	80 a0 00 01 	cmp  %g0, %g1
    60a0:	86 40 20 00 	addx  %g0, 0, %g3
    60a4:	80 a0 00 02 	cmp  %g0, %g2
    60a8:	82 40 20 00 	addx  %g0, 0, %g1
    60ac:	80 88 c0 01 	btst  %g3, %g1
    60b0:	12 bf ff f8 	bne  6090 <nis_getnames+0x268>
    60b4:	c4 0c 00 00 	ldub  [ %l0 ], %g2
    60b8:	83 28 a0 18 	sll  %g2, 0x18, %g1
    60bc:	80 a0 60 00 	cmp  %g1, 0
    60c0:	02 80 00 3f 	be  61bc <nis_getnames+0x394>
    60c4:	c6 07 bf ec 	ld  [ %fp + -20 ], %g3
    60c8:	c2 4c 20 01 	ldsb  [ %l0 + 1 ], %g1
    60cc:	80 a0 60 00 	cmp  %g1, 0
    60d0:	02 bf ff b8 	be  5fb0 <nis_getnames+0x188>
    60d4:	83 28 a0 18 	sll  %g2, 0x18, %g1
    60d8:	a0 04 20 01 	inc  %l0
    60dc:	10 bf ff b4 	b  5fac <nis_getnames+0x184>
    60e0:	c4 0c 00 00 	ldub  [ %l0 ], %g2
    60e4:	80 a4 00 1b 	cmp  %l0, %i3
    60e8:	0a 80 00 ba 	bcs  63d0 <nis_getnames+0x5a8>
    60ec:	80 a0 c0 1c 	cmp  %g3, %i4
    60f0:	2a 80 00 8d 	bcs,a   6324 <nis_getnames+0x4fc>
    60f4:	c2 4c 00 00 	ldsb  [ %l0 ], %g1
    60f8:	c2 48 c0 00 	ldsb  [ %g3 ], %g1
    60fc:	c4 4c 00 00 	ldsb  [ %l0 ], %g2
    6100:	80 a0 80 01 	cmp  %g2, %g1
    6104:	12 80 00 8b 	bne  6330 <nis_getnames+0x508>
    6108:	c2 0c 00 00 	ldub  [ %l0 ], %g1
    610c:	83 28 60 18 	sll  %g1, 0x18, %g1
    6110:	83 38 60 18 	sra  %g1, 0x18, %g1
    6114:	a0 04 3f ff 	add  %l0, -1, %l0
    6118:	80 a0 60 2e 	cmp  %g1, 0x2e
    611c:	12 bf ff f2 	bne  60e4 <nis_getnames+0x2bc>
    6120:	86 00 ff ff 	add  %g3, -1, %g3
    6124:	10 bf ff f0 	b  60e4 <nis_getnames+0x2bc>
    6128:	88 10 20 01 	mov  1, %g4
    612c:	40 00 71 95 	call  22780 <__strdup@plt>
    6130:	90 10 00 1c 	mov  %i4, %o0
    6134:	80 a2 20 00 	cmp  %o0, 0
    6138:	02 80 00 70 	be  62f8 <nis_getnames+0x4d0>
    613c:	d0 24 c0 00 	st  %o0, [ %l3 ]
    6140:	c0 24 e0 04 	clr  [ %l3 + 4 ]
    6144:	10 80 00 ad 	b  63f8 <nis_getnames+0x5d0>
    6148:	b0 10 00 13 	mov  %l3, %i0
    614c:	40 00 71 48 	call  2266c <strlen@plt>
    6150:	90 10 00 10 	mov  %l0, %o0
    6154:	82 04 00 08 	add  %l0, %o0, %g1
    6158:	c4 48 7f ff 	ldsb  [ %g1 + -1 ], %g2
    615c:	80 a0 a0 24 	cmp  %g2, 0x24
    6160:	02 80 00 3e 	be  6258 <nis_getnames+0x430>
    6164:	a2 10 00 08 	mov  %o0, %l1
    6168:	90 02 00 1d 	add  %o0, %i5, %o0
    616c:	40 00 71 19 	call  225d0 <malloc@plt>
    6170:	90 02 20 02 	add  %o0, 2, %o0
    6174:	aa 92 20 00 	orcc  %o0, 0, %l5
    6178:	02 80 00 61 	be  62fc <nis_getnames+0x4d4>
    617c:	82 94 a0 00 	orcc  %l2, 0, %g1
    6180:	40 00 71 44 	call  22690 <stpcpy@plt>
    6184:	92 10 00 1c 	mov  %i4, %o1
    6188:	82 10 20 2e 	mov  0x2e, %g1
    618c:	c2 2a 00 00 	stb  %g1, [ %o0 ]
    6190:	90 02 20 01 	inc  %o0
    6194:	92 10 00 10 	mov  %l0, %o1
    6198:	40 00 71 6e 	call  22750 <memcpy@plt>
    619c:	94 04 60 01 	add  %l1, 1, %o2
    61a0:	80 a4 80 14 	cmp  %l2, %l4
    61a4:	36 80 00 49 	bge,a   62c8 <nis_getnames+0x4a0>
    61a8:	a8 05 20 05 	add  %l4, 5, %l4
    61ac:	83 2c a0 02 	sll  %l2, 2, %g1
    61b0:	ea 24 c0 01 	st  %l5, [ %l3 + %g1 ]
    61b4:	a4 04 a0 01 	inc  %l2
    61b8:	c6 07 bf ec 	ld  [ %fp + -20 ], %g3
    61bc:	c2 48 c0 00 	ldsb  [ %g3 ], %g1
    61c0:	80 a0 60 3a 	cmp  %g1, 0x3a
    61c4:	12 80 00 07 	bne  61e0 <nis_getnames+0x3b8>
    61c8:	c2 08 c0 00 	ldub  [ %g3 ], %g1
    61cc:	86 00 e0 01 	inc  %g3
    61d0:	c2 48 c0 00 	ldsb  [ %g3 ], %g1
    61d4:	80 a0 60 3a 	cmp  %g1, 0x3a
    61d8:	02 bf ff fd 	be  61cc <nis_getnames+0x3a4>
    61dc:	c2 08 c0 00 	ldub  [ %g3 ], %g1
    61e0:	83 28 60 18 	sll  %g1, 0x18, %g1
    61e4:	80 a0 60 00 	cmp  %g1, 0
    61e8:	02 80 00 14 	be  6238 <nis_getnames+0x410>
    61ec:	90 10 20 00 	clr  %o0
    61f0:	82 10 00 03 	mov  %g3, %g1
    61f4:	86 00 e0 01 	inc  %g3
    61f8:	c8 08 c0 00 	ldub  [ %g3 ], %g4
    61fc:	89 29 20 18 	sll  %g4, 0x18, %g4
    6200:	80 a1 20 00 	cmp  %g4, 0
    6204:	02 80 00 0c 	be  6234 <nis_getnames+0x40c>
    6208:	90 10 00 01 	mov  %g1, %o0
    620c:	82 10 00 04 	mov  %g4, %g1
    6210:	83 38 60 18 	sra  %g1, 0x18, %g1
    6214:	80 a0 60 3a 	cmp  %g1, 0x3a
    6218:	02 80 00 75 	be  63ec <nis_getnames+0x5c4>
    621c:	86 00 e0 01 	inc  %g3
    6220:	c8 08 c0 00 	ldub  [ %g3 ], %g4
    6224:	83 29 20 18 	sll  %g4, 0x18, %g1
    6228:	80 a0 60 00 	cmp  %g1, 0
    622c:	12 bf ff fa 	bne  6214 <nis_getnames+0x3ec>
    6230:	83 38 60 18 	sra  %g1, 0x18, %g1
    6234:	c6 26 80 00 	st  %g3, [ %i2 ]
    6238:	a0 10 00 08 	mov  %o0, %l0
    623c:	80 a4 20 00 	cmp  %l0, 0
    6240:	32 bf ff 52 	bne,a   5f88 <nis_getnames+0x160>
    6244:	c2 0c 00 00 	ldub  [ %l0 ], %g1
    6248:	83 2c a0 02 	sll  %l2, 2, %g1
    624c:	c0 24 c0 01 	clr  [ %l3 + %g1 ]
    6250:	10 80 00 6a 	b  63f8 <nis_getnames+0x5d0>
    6254:	b0 10 00 13 	mov  %l3, %i0
    6258:	90 02 00 16 	add  %o0, %l6, %o0
    625c:	90 02 00 1d 	add  %o0, %i5, %o0
    6260:	40 00 70 dc 	call  225d0 <malloc@plt>
    6264:	90 02 20 02 	add  %o0, 2, %o0
    6268:	aa 92 20 00 	orcc  %o0, 0, %l5
    626c:	02 80 00 24 	be  62fc <nis_getnames+0x4d4>
    6270:	82 94 a0 00 	orcc  %l2, 0, %g1
    6274:	40 00 71 07 	call  22690 <stpcpy@plt>
    6278:	92 10 00 1c 	mov  %i4, %o1
    627c:	b0 10 20 2e 	mov  0x2e, %i0
    6280:	f0 2a 00 00 	stb  %i0, [ %o0 ]
    6284:	90 02 20 01 	inc  %o0
    6288:	92 10 00 10 	mov  %l0, %o1
    628c:	40 00 70 80 	call  2248c <mempcpy@plt>
    6290:	94 10 00 11 	mov  %l1, %o2
    6294:	90 02 3f ff 	add  %o0, -1, %o0
    6298:	c2 4a 3f ff 	ldsb  [ %o0 + -1 ], %g1
    629c:	80 a0 60 2e 	cmp  %g1, 0x2e
    62a0:	02 80 00 04 	be  62b0 <nis_getnames+0x488>
    62a4:	01 00 00 00 	nop 
    62a8:	f0 2a 00 00 	stb  %i0, [ %o0 ]
    62ac:	90 02 20 01 	inc  %o0
    62b0:	40 00 71 88 	call  228d0 <strcpy@plt>
    62b4:	92 10 00 1b 	mov  %i3, %o1
    62b8:	80 a4 80 14 	cmp  %l2, %l4
    62bc:	06 bf ff bd 	bl  61b0 <nis_getnames+0x388>
    62c0:	83 2c a0 02 	sll  %l2, 2, %g1
    62c4:	a8 05 20 05 	add  %l4, 5, %l4
    62c8:	93 2d 20 02 	sll  %l4, 2, %o1
    62cc:	92 02 60 04 	add  %o1, 4, %o1
    62d0:	40 00 71 17 	call  2272c <realloc@plt>
    62d4:	90 10 00 13 	mov  %l3, %o0
    62d8:	80 a2 20 00 	cmp  %o0, 0
    62dc:	22 80 00 08 	be,a   62fc <nis_getnames+0x4d4>
    62e0:	82 94 a0 00 	orcc  %l2, 0, %g1
    62e4:	10 bf ff b2 	b  61ac <nis_getnames+0x384>
    62e8:	a6 10 00 08 	mov  %o0, %l3
    62ec:	83 2c a0 02 	sll  %l2, 2, %g1
    62f0:	40 00 71 3c 	call  227e0 <free@plt>
    62f4:	d0 04 c0 01 	ld  [ %l3 + %g1 ], %o0
    62f8:	82 94 a0 00 	orcc  %l2, 0, %g1
    62fc:	14 bf ff fc 	bg  62ec <nis_getnames+0x4c4>
    6300:	a4 04 bf ff 	add  %l2, -1, %l2
    6304:	40 00 71 37 	call  227e0 <free@plt>
    6308:	90 10 00 13 	mov  %l3, %o0
    630c:	10 80 00 3b 	b  63f8 <nis_getnames+0x5d0>
    6310:	b0 10 20 00 	clr  %i0
    6314:	40 00 71 6f 	call  228d0 <strcpy@plt>
    6318:	92 10 00 10 	mov  %l0, %o1
    631c:	10 bf ff 55 	b  6070 <nis_getnames+0x248>
    6320:	c4 4c 00 00 	ldsb  [ %l0 ], %g2
    6324:	82 18 60 2e 	xor  %g1, 0x2e, %g1
    6328:	80 a0 00 01 	cmp  %g0, %g1
    632c:	88 60 3f ff 	subx  %g0, -1, %g4
    6330:	80 a1 20 00 	cmp  %g4, 0
    6334:	02 bf fe df 	be  5eb0 <nis_getnames+0x88>
    6338:	03 00 00 00 	sethi  %hi(0), %g1
    633c:	40 00 70 a5 	call  225d0 <malloc@plt>
    6340:	90 07 60 02 	add  %i5, 2, %o0
    6344:	82 92 20 00 	orcc  %o0, 0, %g1
    6348:	02 bf ff ec 	be  62f8 <nis_getnames+0x4d0>
    634c:	c2 24 c0 00 	st  %g1, [ %l3 ]
    6350:	40 00 70 d0 	call  22690 <stpcpy@plt>
    6354:	92 10 00 1c 	mov  %i4, %o1
    6358:	82 10 20 2e 	mov  0x2e, %g1
    635c:	c2 2a 00 00 	stb  %g1, [ %o0 ]
    6360:	03 00 00 00 	sethi  %hi(0), %g1
    6364:	c0 2a 20 01 	clrb  [ %o0 + 1 ]
    6368:	82 10 60 c0 	or  %g1, 0xc0, %g1
    636c:	40 00 70 66 	call  22504 <getenv@plt>
    6370:	d0 05 c0 01 	ld  [ %l7 + %g1 ], %o0
    6374:	a0 92 20 00 	orcc  %o0, 0, %l0
    6378:	12 bf fe d4 	bne  5ec8 <nis_getnames+0xa0>
    637c:	a4 10 20 01 	mov  1, %l2
    6380:	03 00 00 00 	sethi  %hi(0), %g1
    6384:	82 10 60 c4 	or  %g1, 0xc4, %g1	! c4 <GLIBC_2.0+0xc4>
    6388:	e0 05 c0 01 	ld  [ %l7 + %g1 ], %l0
    638c:	40 00 70 b8 	call  2266c <strlen@plt>
    6390:	90 10 00 10 	mov  %l0, %o0
    6394:	82 02 20 08 	add  %o0, 8, %g1
    6398:	82 08 7f f8 	and  %g1, -8, %g1
    639c:	9c 23 80 01 	sub  %sp, %g1, %sp
    63a0:	94 02 20 01 	add  %o0, 1, %o2
    63a4:	92 10 00 10 	mov  %l0, %o1
    63a8:	40 00 70 ea 	call  22750 <memcpy@plt>
    63ac:	90 03 a0 60 	add  %sp, 0x60, %o0
    63b0:	90 92 20 00 	orcc  %o0, 0, %o0
    63b4:	12 bf fe d1 	bne  5ef8 <nis_getnames+0xd0>
    63b8:	b4 07 bf ec 	add  %fp, -20, %i2
    63bc:	10 bf fe cf 	b  5ef8 <nis_getnames+0xd0>
    63c0:	d0 07 bf ec 	ld  [ %fp + -20 ], %o0
    63c4:	c0 2a 3f ff 	clrb  [ %o0 + -1 ]
    63c8:	10 bf fe eb 	b  5f74 <nis_getnames+0x14c>
    63cc:	d0 26 80 00 	st  %o0, [ %i2 ]
    63d0:	0a bf ff db 	bcs  633c <nis_getnames+0x514>
    63d4:	01 00 00 00 	nop 
    63d8:	c2 48 c0 00 	ldsb  [ %g3 ], %g1
    63dc:	80 a0 60 2e 	cmp  %g1, 0x2e
    63e0:	12 bf fe b4 	bne  5eb0 <nis_getnames+0x88>
    63e4:	03 00 00 00 	sethi  %hi(0), %g1
    63e8:	30 bf ff d5 	b,a   633c <nis_getnames+0x514>
    63ec:	c0 28 ff ff 	clrb  [ %g3 + -1 ]
    63f0:	10 bf ff 92 	b  6238 <nis_getnames+0x410>
    63f4:	c6 26 80 00 	st  %g3, [ %i2 ]
    63f8:	81 c7 e0 08 	ret 
    63fc:	81 e8 00 00 	restore 

00006400 <nis_freenames>:
nis_freenames():
    6400:	9d e3 bf 90 	save  %sp, -112, %sp
    6404:	c2 06 00 00 	ld  [ %i0 ], %g1
    6408:	80 a0 60 00 	cmp  %g1, 0
    640c:	02 80 00 0b 	be  6438 <nis_freenames+0x38>
    6410:	a0 10 20 00 	clr  %l0
    6414:	84 10 20 00 	clr  %g2
    6418:	40 00 70 f2 	call  227e0 <free@plt>
    641c:	d0 06 00 02 	ld  [ %i0 + %g2 ], %o0
    6420:	a0 04 20 01 	inc  %l0
    6424:	85 2c 20 02 	sll  %l0, 2, %g2
    6428:	c2 06 00 02 	ld  [ %i0 + %g2 ], %g1
    642c:	80 a0 60 00 	cmp  %g1, 0
    6430:	12 bf ff fa 	bne  6418 <nis_freenames+0x18>
    6434:	01 00 00 00 	nop 
    6438:	10 80 70 ea 	b  227e0 <free@plt>
    643c:	81 e8 00 00 	restore 
    6440:	01 00 00 00 	nop 

00006444 <nis_dir_cmp>:
nis_dir_cmp():
    6444:	9d e3 bf 90 	save  %sp, -112, %sp
    6448:	40 00 70 89 	call  2266c <strlen@plt>
    644c:	90 10 00 18 	mov  %i0, %o0
    6450:	a0 10 00 08 	mov  %o0, %l0
    6454:	40 00 70 86 	call  2266c <strlen@plt>
    6458:	90 10 00 19 	mov  %i1, %o0
    645c:	86 10 00 08 	mov  %o0, %g3
    6460:	a2 10 00 18 	mov  %i0, %l1
    6464:	90 10 00 18 	mov  %i0, %o0
    6468:	80 a4 00 03 	cmp  %l0, %g3
    646c:	02 80 00 20 	be  64ec <nis_dir_cmp+0xa8>
    6470:	92 10 00 19 	mov  %i1, %o1
    6474:	82 20 c0 10 	sub  %g3, %l0, %g1
    6478:	84 24 00 03 	sub  %l0, %g3, %g2
    647c:	88 06 40 01 	add  %i1, %g1, %g4
    6480:	82 06 00 02 	add  %i0, %g2, %g1
    6484:	80 a4 00 03 	cmp  %l0, %g3
    6488:	06 80 00 0d 	bl  64bc <nis_dir_cmp+0x78>
    648c:	b0 10 20 03 	mov  3, %i0
    6490:	90 10 00 01 	mov  %g1, %o0
    6494:	c2 48 7f ff 	ldsb  [ %g1 + -1 ], %g1
    6498:	80 a0 60 2e 	cmp  %g1, 0x2e
    649c:	12 80 00 19 	bne  6500 <nis_dir_cmp+0xbc>
    64a0:	01 00 00 00 	nop 
    64a4:	40 00 70 0c 	call  224d4 <strcmp@plt>
    64a8:	01 00 00 00 	nop 
    64ac:	80 a0 00 08 	cmp  %g0, %o0
    64b0:	82 40 20 00 	addx  %g0, 0, %g1
    64b4:	10 80 00 13 	b  6500 <nis_dir_cmp+0xbc>
    64b8:	b0 00 60 02 	add  %g1, 2, %i0
    64bc:	c2 49 3f ff 	ldsb  [ %g4 + -1 ], %g1
    64c0:	90 10 00 04 	mov  %g4, %o0
    64c4:	80 a0 60 2e 	cmp  %g1, 0x2e
    64c8:	12 80 00 0e 	bne  6500 <nis_dir_cmp+0xbc>
    64cc:	92 10 00 11 	mov  %l1, %o1
    64d0:	40 00 70 01 	call  224d4 <strcmp@plt>
    64d4:	01 00 00 00 	nop 
    64d8:	80 a0 00 08 	cmp  %g0, %o0
    64dc:	82 60 20 00 	subx  %g0, 0, %g1
    64e0:	b0 08 60 02 	and  %g1, 2, %i0
    64e4:	10 80 00 07 	b  6500 <nis_dir_cmp+0xbc>
    64e8:	b0 06 20 01 	inc  %i0
    64ec:	40 00 6f fa 	call  224d4 <strcmp@plt>
    64f0:	01 00 00 00 	nop 
    64f4:	80 a0 00 08 	cmp  %g0, %o0
    64f8:	82 60 20 00 	subx  %g0, 0, %g1
    64fc:	b0 08 60 03 	and  %g1, 3, %i0
    6500:	81 c7 e0 08 	ret 
    6504:	81 e8 00 00 	restore 

00006508 <nis_destroy_object>:
nis_destroy_object():
    6508:	82 13 c0 00 	mov  %o7, %g1
    650c:	10 80 01 21 	b  6990 <nis_free_object>
    6510:	01 00 00 00 	nop 
    6514:	01 00 00 00 	nop 
    6518:	81 c3 e0 08 	retl 
    651c:	ae 03 c0 17 	add  %o7, %l7, %l7

00006520 <nis_local_directory>:
nis_local_directory():
    6520:	9d e3 bf 90 	save  %sp, -112, %sp
    6524:	21 00 00 00 	sethi  %hi(0), %l0
    6528:	2f 00 00 6e 	sethi  %hi(0x1b800), %l7
    652c:	7f ff ff fb 	call  6518 <nis_destroy_object+0x10>
    6530:	ae 05 e2 d4 	add  %l7, 0x2d4, %l7	! 1bad4 <__FRAME_END__+0xaaac>
    6534:	82 14 20 c8 	or  %l0, 0xc8, %g1
    6538:	f0 05 c0 01 	ld  [ %l7 + %g1 ], %i0
    653c:	c2 4e 00 00 	ldsb  [ %i0 ], %g1
    6540:	92 10 24 00 	mov  0x400, %o1
    6544:	80 a0 60 00 	cmp  %g1, 0
    6548:	12 80 00 12 	bne  6590 <nis_local_directory+0x70>
    654c:	90 10 00 18 	mov  %i0, %o0
    6550:	40 00 70 3e 	call  22648 <getdomainname@plt>
    6554:	01 00 00 00 	nop 
    6558:	80 a2 20 00 	cmp  %o0, 0
    655c:	92 10 20 00 	clr  %o1
    6560:	06 80 00 0b 	bl  658c <nis_local_directory+0x6c>
    6564:	90 10 00 18 	mov  %i0, %o0
    6568:	40 00 6f f0 	call  22528 <rawmemchr@plt>
    656c:	01 00 00 00 	nop 
    6570:	c2 4a 3f ff 	ldsb  [ %o0 + -1 ], %g1
    6574:	80 a0 60 2e 	cmp  %g1, 0x2e
    6578:	02 80 00 06 	be  6590 <nis_local_directory+0x70>
    657c:	82 10 20 2e 	mov  0x2e, %g1
    6580:	c2 2a 00 00 	stb  %g1, [ %o0 ]
    6584:	10 80 00 03 	b  6590 <nis_local_directory+0x70>
    6588:	c0 2a 20 01 	clrb  [ %o0 + 1 ]
    658c:	c0 2e 00 00 	clrb  [ %i0 ]
    6590:	82 14 20 c8 	or  %l0, 0xc8, %g1
    6594:	f0 05 c0 01 	ld  [ %l7 + %g1 ], %i0
    6598:	81 c7 e0 08 	ret 
    659c:	81 e8 00 00 	restore 

000065a0 <nis_local_group>:
nis_local_group():
    65a0:	9d e3 bf 90 	save  %sp, -112, %sp
    65a4:	23 00 00 00 	sethi  %hi(0), %l1
    65a8:	2f 00 00 6e 	sethi  %hi(0x1b800), %l7
    65ac:	7f ff ff db 	call  6518 <nis_destroy_object+0x10>
    65b0:	ae 05 e2 54 	add  %l7, 0x254, %l7	! 1ba54 <__FRAME_END__+0xaa2c>
    65b4:	82 14 60 cc 	or  %l1, 0xcc, %g1
    65b8:	e0 05 c0 01 	ld  [ %l7 + %g1 ], %l0
    65bc:	07 00 00 00 	sethi  %hi(0), %g3
    65c0:	c4 4c 00 00 	ldsb  [ %l0 ], %g2
    65c4:	80 a0 a0 00 	cmp  %g2, 0
    65c8:	12 80 00 25 	bne  665c <nis_local_group+0xbc>
    65cc:	86 10 e0 d8 	or  %g3, 0xd8, %g3
    65d0:	40 00 6f cd 	call  22504 <getenv@plt>
    65d4:	d0 05 c0 03 	ld  [ %l7 + %g3 ], %o0
    65d8:	b0 92 20 00 	orcc  %o0, 0, %i0
    65dc:	02 80 00 20 	be  665c <nis_local_group+0xbc>
    65e0:	82 14 60 cc 	or  %l1, 0xcc, %g1
    65e4:	40 00 70 22 	call  2266c <strlen@plt>
    65e8:	01 00 00 00 	nop 
    65ec:	80 a2 23 ff 	cmp  %o0, 0x3ff
    65f0:	92 10 00 18 	mov  %i0, %o1
    65f4:	18 80 00 19 	bgu  6658 <nis_local_group+0xb8>
    65f8:	90 10 00 10 	mov  %l0, %o0
    65fc:	40 00 70 25 	call  22690 <stpcpy@plt>
    6600:	01 00 00 00 	nop 
    6604:	c2 4a 3f ff 	ldsb  [ %o0 + -1 ], %g1
    6608:	80 a0 60 2e 	cmp  %g1, 0x2e
    660c:	02 80 00 13 	be  6658 <nis_local_group+0xb8>
    6610:	a4 10 00 08 	mov  %o0, %l2
    6614:	7f ff ff c3 	call  6520 <nis_local_directory>
    6618:	01 00 00 00 	nop 
    661c:	40 00 70 14 	call  2266c <strlen@plt>
    6620:	b0 10 00 08 	mov  %o0, %i0
    6624:	82 10 20 01 	mov  1, %g1
    6628:	84 02 00 12 	add  %o0, %l2, %g2
    662c:	82 20 40 10 	sub  %g1, %l0, %g1
    6630:	84 00 80 01 	add  %g2, %g1, %g2
    6634:	90 04 a0 01 	add  %l2, 1, %o0
    6638:	80 a0 a3 ff 	cmp  %g2, 0x3ff
    663c:	08 80 00 04 	bleu  664c <nis_local_group+0xac>
    6640:	92 10 00 18 	mov  %i0, %o1
    6644:	10 80 00 05 	b  6658 <nis_local_group+0xb8>
    6648:	c0 2c 00 00 	clrb  [ %l0 ]
    664c:	82 10 20 2e 	mov  0x2e, %g1
    6650:	40 00 70 a0 	call  228d0 <strcpy@plt>
    6654:	c2 2c 80 00 	stb  %g1, [ %l2 ]
    6658:	82 14 60 cc 	or  %l1, 0xcc, %g1
    665c:	f0 05 c0 01 	ld  [ %l7 + %g1 ], %i0
    6660:	81 c7 e0 08 	ret 
    6664:	81 e8 00 00 	restore 

00006668 <nis_local_host>:
nis_local_host():
    6668:	9d e3 bf 90 	save  %sp, -112, %sp
    666c:	25 00 00 00 	sethi  %hi(0), %l2
    6670:	2f 00 00 6e 	sethi  %hi(0x1b800), %l7
    6674:	7f ff ff a9 	call  6518 <nis_destroy_object+0x10>
    6678:	ae 05 e1 8c 	add  %l7, 0x18c, %l7	! 1b98c <__FRAME_END__+0xa964>
    667c:	82 14 a0 d0 	or  %l2, 0xd0, %g1
    6680:	e0 05 c0 01 	ld  [ %l7 + %g1 ], %l0
    6684:	c2 4c 00 00 	ldsb  [ %l0 ], %g1
    6688:	90 10 00 10 	mov  %l0, %o0
    668c:	80 a0 60 00 	cmp  %g1, 0
    6690:	02 80 00 05 	be  66a4 <nis_local_host+0x3c>
    6694:	92 10 24 00 	mov  0x400, %o1
    6698:	82 14 a0 d0 	or  %l2, 0xd0, %g1
    669c:	10 80 00 26 	b  6734 <nis_local_host+0xcc>
    66a0:	f0 05 c0 01 	ld  [ %l7 + %g1 ], %i0
    66a4:	40 00 70 3d 	call  22798 <gethostname@plt>
    66a8:	01 00 00 00 	nop 
    66ac:	80 a2 20 00 	cmp  %o0, 0
    66b0:	92 10 20 00 	clr  %o1
    66b4:	06 80 00 14 	bl  6704 <nis_local_host+0x9c>
    66b8:	90 10 00 10 	mov  %l0, %o0
    66bc:	40 00 6f 9b 	call  22528 <rawmemchr@plt>
    66c0:	b0 10 00 10 	mov  %l0, %i0
    66c4:	c2 4a 3f ff 	ldsb  [ %o0 + -1 ], %g1
    66c8:	a2 10 00 08 	mov  %o0, %l1
    66cc:	80 a0 60 2e 	cmp  %g1, 0x2e
    66d0:	02 80 00 19 	be  6734 <nis_local_host+0xcc>
    66d4:	a6 22 00 10 	sub  %o0, %l0, %l3
    66d8:	7f ff ff 92 	call  6520 <nis_local_directory>
    66dc:	01 00 00 00 	nop 
    66e0:	40 00 6f e3 	call  2266c <strlen@plt>
    66e4:	01 00 00 00 	nop 
    66e8:	90 02 00 13 	add  %o0, %l3, %o0
    66ec:	90 02 20 01 	inc  %o0
    66f0:	80 a2 24 00 	cmp  %o0, 0x400
    66f4:	08 80 00 06 	bleu  670c <nis_local_host+0xa4>
    66f8:	82 10 20 2e 	mov  0x2e, %g1
    66fc:	10 80 00 0e 	b  6734 <nis_local_host+0xcc>
    6700:	c0 2c 00 00 	clrb  [ %l0 ]
    6704:	10 bf ff e5 	b  6698 <nis_local_host+0x30>
    6708:	c0 2c 00 00 	clrb  [ %l0 ]
    670c:	7f ff ff 85 	call  6520 <nis_local_directory>
    6710:	c2 2c 40 00 	stb  %g1, [ %l1 ]
    6714:	92 10 00 08 	mov  %o0, %o1
    6718:	a2 04 60 01 	inc  %l1
    671c:	94 10 23 ff 	mov  0x3ff, %o2
    6720:	94 22 80 13 	sub  %o2, %l3, %o2
    6724:	40 00 70 3e 	call  2281c <strncpy@plt>
    6728:	90 10 00 11 	mov  %l1, %o0
    672c:	10 bf ff db 	b  6698 <nis_local_host+0x30>
    6730:	c0 2c 24 00 	clrb  [ %l0 + 0x400 ]
    6734:	81 c7 e0 08 	ret 
    6738:	81 e8 00 00 	restore 

0000673c <nis_local_principal>:
nis_local_principal():
    673c:	9d e3 bb 88 	save  %sp, -1144, %sp
    6740:	21 00 00 00 	sethi  %hi(0), %l0
    6744:	2f 00 00 6e 	sethi  %hi(0x1b800), %l7
    6748:	7f ff ff 74 	call  6518 <nis_destroy_object+0x10>
    674c:	ae 05 e0 b8 	add  %l7, 0xb8, %l7	! 1b8b8 <__FRAME_END__+0xa890>
    6750:	82 14 20 d4 	or  %l0, 0xd4, %g1
    6754:	f0 05 c0 01 	ld  [ %l7 + %g1 ], %i0
    6758:	c4 4e 00 00 	ldsb  [ %i0 ], %g2
    675c:	80 a0 a0 00 	cmp  %g2, 0
    6760:	12 80 00 5b 	bne  68cc <nis_local_principal+0x190>
    6764:	86 10 00 18 	mov  %i0, %g3
    6768:	40 00 70 57 	call  228c4 <geteuid@plt>
    676c:	01 00 00 00 	nop 
    6770:	a2 92 20 00 	orcc  %o0, 0, %l1
    6774:	02 80 00 1a 	be  67dc <nis_local_principal+0xa0>
    6778:	01 00 00 00 	nop 
    677c:	7f ff ff 69 	call  6520 <nis_local_directory>
    6780:	01 00 00 00 	nop 
    6784:	03 00 00 00 	sethi  %hi(0), %g1
    6788:	98 10 00 08 	mov  %o0, %o4
    678c:	82 10 60 dc 	or  %g1, 0xdc, %g1
    6790:	a4 07 bb e8 	add  %fp, -1048, %l2
    6794:	d4 05 c0 01 	ld  [ %l7 + %g1 ], %o2
    6798:	90 10 00 12 	mov  %l2, %o0
    679c:	92 10 23 ff 	mov  0x3ff, %o1
    67a0:	40 00 6f 89 	call  225c4 <snprintf@plt>
    67a4:	96 10 00 11 	mov  %l1, %o3
    67a8:	80 a2 23 fe 	cmp  %o0, 0x3fe
    67ac:	04 80 00 13 	ble  67f8 <nis_local_principal+0xbc>
    67b0:	84 07 bf f0 	add  %fp, -16, %g2
    67b4:	84 14 20 d4 	or  %l0, 0xd4, %g2
    67b8:	c6 05 c0 02 	ld  [ %l7 + %g2 ], %g3
    67bc:	03 1b 9b d8 	sethi  %hi(0x6e6f6000), %g1
    67c0:	05 00 00 19 	sethi  %hi(0x6400), %g2
    67c4:	82 10 62 6f 	or  %g1, 0x26f, %g1
    67c8:	84 10 a0 79 	or  %g2, 0x79, %g2
    67cc:	c2 20 c0 00 	st  %g1, [ %g3 ]
    67d0:	c4 30 e0 04 	sth  %g2, [ %g3 + 4 ]
    67d4:	10 80 00 3e 	b  68cc <nis_local_principal+0x190>
    67d8:	c0 28 e0 06 	clrb  [ %g3 + 6 ]
    67dc:	7f ff ff a3 	call  6668 <nis_local_host>
    67e0:	01 00 00 00 	nop 
    67e4:	92 10 00 08 	mov  %o0, %o1
    67e8:	40 00 70 3a 	call  228d0 <strcpy@plt>
    67ec:	90 10 00 18 	mov  %i0, %o0
    67f0:	10 80 00 37 	b  68cc <nis_local_principal+0x190>
    67f4:	86 10 00 08 	mov  %o0, %g3
    67f8:	86 00 80 08 	add  %g2, %o0, %g3
    67fc:	c2 48 fb f7 	ldsb  [ %g3 + -1033 ], %g1
    6800:	80 a0 60 2e 	cmp  %g1, 0x2e
    6804:	02 80 00 05 	be  6818 <nis_local_principal+0xdc>
    6808:	82 10 20 2e 	mov  0x2e, %g1
    680c:	c2 28 fb f8 	stb  %g1, [ %g3 + -1032 ]
    6810:	84 02 00 02 	add  %o0, %g2, %g2
    6814:	c0 28 bb f9 	clrb  [ %g2 + -1031 ]
    6818:	13 00 00 c0 	sethi  %hi(0x30000), %o1
    681c:	90 10 00 12 	mov  %l2, %o0
    6820:	92 12 60 03 	or  %o1, 3, %o1
    6824:	94 10 20 00 	clr  %o2
    6828:	40 00 0b 53 	call  9574 <nis_list>
    682c:	96 10 20 00 	clr  %o3
    6830:	a4 92 20 00 	orcc  %o0, 0, %l2
    6834:	02 bf ff e1 	be  67b8 <nis_local_principal+0x7c>
    6838:	84 14 20 d4 	or  %l0, 0xd4, %g2
    683c:	c2 04 80 00 	ld  [ %l2 ], %g1
    6840:	80 a0 60 00 	cmp  %g1, 0
    6844:	12 80 00 1e 	bne  68bc <nis_local_principal+0x180>
    6848:	01 00 00 00 	nop 
    684c:	c2 04 a0 04 	ld  [ %l2 + 4 ], %g1
    6850:	80 a0 60 01 	cmp  %g1, 1
    6854:	18 80 00 0b 	bgu  6880 <nis_local_principal+0x144>
    6858:	05 00 00 00 	sethi  %hi(0), %g2
    685c:	c2 04 a0 08 	ld  [ %l2 + 8 ], %g1
    6860:	c4 00 60 2c 	ld  [ %g1 + 0x2c ], %g2
    6864:	d2 00 a0 08 	ld  [ %g2 + 8 ], %o1
    6868:	40 00 70 1a 	call  228d0 <strcpy@plt>
    686c:	90 10 00 18 	mov  %i0, %o0
    6870:	40 00 00 57 	call  69cc <nis_freeresult>
    6874:	90 10 00 12 	mov  %l2, %o0
    6878:	10 80 00 15 	b  68cc <nis_local_principal+0x190>
    687c:	86 10 00 18 	mov  %i0, %g3
    6880:	03 00 00 00 	sethi  %hi(0), %g1
    6884:	84 10 a3 90 	or  %g2, 0x390, %g2
    6888:	82 10 60 e0 	or  %g1, 0xe0, %g1
    688c:	d2 05 c0 01 	ld  [ %l7 + %g1 ], %o1
    6890:	d0 05 c0 02 	ld  [ %l7 + %g2 ], %o0
    6894:	40 00 6f c7 	call  227b0 <__dcgettext@plt>
    6898:	94 10 20 05 	mov  5, %o2
    689c:	7f ff ff 21 	call  6520 <nis_local_directory>
    68a0:	a0 10 00 08 	mov  %o0, %l0
    68a4:	94 10 00 08 	mov  %o0, %o2
    68a8:	90 10 00 10 	mov  %l0, %o0
    68ac:	40 00 6f fa 	call  22894 <printf@plt>
    68b0:	92 10 00 11 	mov  %l1, %o1
    68b4:	10 bf ff eb 	b  6860 <nis_local_principal+0x124>
    68b8:	c2 04 a0 08 	ld  [ %l2 + 8 ], %g1
    68bc:	40 00 00 44 	call  69cc <nis_freeresult>
    68c0:	01 00 00 00 	nop 
    68c4:	10 bf ff bd 	b  67b8 <nis_local_principal+0x7c>
    68c8:	84 14 20 d4 	or  %l0, 0xd4, %g2
    68cc:	81 c7 e0 08 	ret 
    68d0:	91 e8 00 03 	restore  %g0, %g3, %o0
    68d4:	81 c3 e0 08 	retl 
    68d8:	ae 03 c0 17 	add  %o7, %l7, %l7

000068dc <__free_fdresult>:
__free_fdresult():
    68dc:	9d e3 bf 90 	save  %sp, -112, %sp
    68e0:	05 00 00 00 	sethi  %hi(0), %g2
    68e4:	2f 00 00 6d 	sethi  %hi(0x1b400), %l7
    68e8:	7f ff ff fb 	call  68d4 <nis_local_principal+0x198>
    68ec:	ae 05 e3 18 	add  %l7, 0x318, %l7	! 1b718 <__FRAME_END__+0xa6f0>
    68f0:	92 96 20 00 	orcc  %i0, 0, %o1
    68f4:	02 80 00 06 	be  690c <__free_fdresult+0x30>
    68f8:	84 10 a3 74 	or  %g2, 0x374, %g2
    68fc:	40 00 6e fc 	call  224ec <xdr_free@plt>
    6900:	d0 05 c0 02 	ld  [ %l7 + %g2 ], %o0
    6904:	10 80 6f b7 	b  227e0 <free@plt>
    6908:	81 e8 00 00 	restore 
    690c:	01 00 00 00 	nop 
    6910:	81 c7 e0 08 	ret 
    6914:	81 e8 00 00 	restore 

00006918 <nis_free_request>:
nis_free_request():
    6918:	9d e3 bf 90 	save  %sp, -112, %sp
    691c:	05 00 00 00 	sethi  %hi(0), %g2
    6920:	2f 00 00 6d 	sethi  %hi(0x1b400), %l7
    6924:	7f ff ff ec 	call  68d4 <nis_local_principal+0x198>
    6928:	ae 05 e2 dc 	add  %l7, 0x2dc, %l7	! 1b6dc <__FRAME_END__+0xa6b4>
    692c:	92 96 20 00 	orcc  %i0, 0, %o1
    6930:	02 80 00 06 	be  6948 <nis_free_request+0x30>
    6934:	84 10 a3 50 	or  %g2, 0x350, %g2
    6938:	40 00 6e ed 	call  224ec <xdr_free@plt>
    693c:	d0 05 c0 02 	ld  [ %l7 + %g2 ], %o0
    6940:	10 80 6f a8 	b  227e0 <free@plt>
    6944:	81 e8 00 00 	restore 
    6948:	01 00 00 00 	nop 
    694c:	81 c7 e0 08 	ret 
    6950:	81 e8 00 00 	restore 

00006954 <nis_free_directory>:
nis_free_directory():
    6954:	9d e3 bf 90 	save  %sp, -112, %sp
    6958:	05 00 00 01 	sethi  %hi(0x400), %g2
    695c:	2f 00 00 6d 	sethi  %hi(0x1b400), %l7
    6960:	7f ff ff dd 	call  68d4 <nis_local_principal+0x198>
    6964:	ae 05 e2 a0 	add  %l7, 0x2a0, %l7	! 1b6a0 <__FRAME_END__+0xa678>
    6968:	92 96 20 00 	orcc  %i0, 0, %o1
    696c:	02 80 00 06 	be  6984 <nis_free_directory+0x30>
    6970:	84 10 a0 04 	or  %g2, 4, %g2
    6974:	40 00 6e de 	call  224ec <xdr_free@plt>
    6978:	d0 05 c0 02 	ld  [ %l7 + %g2 ], %o0
    697c:	10 80 6f 99 	b  227e0 <free@plt>
    6980:	81 e8 00 00 	restore 
    6984:	01 00 00 00 	nop 
    6988:	81 c7 e0 08 	ret 
    698c:	81 e8 00 00 	restore 

00006990 <nis_free_object>:
nis_free_object():
    6990:	9d e3 bf 90 	save  %sp, -112, %sp
    6994:	05 00 00 00 	sethi  %hi(0), %g2
    6998:	2f 00 00 6d 	sethi  %hi(0x1b400), %l7
    699c:	7f ff ff ce 	call  68d4 <nis_local_principal+0x198>
    69a0:	ae 05 e2 64 	add  %l7, 0x264, %l7	! 1b664 <__FRAME_END__+0xa63c>
    69a4:	92 96 20 00 	orcc  %i0, 0, %o1
    69a8:	02 80 00 06 	be  69c0 <nis_free_object+0x30>
    69ac:	84 10 a3 80 	or  %g2, 0x380, %g2
    69b0:	40 00 6e cf 	call  224ec <xdr_free@plt>
    69b4:	d0 05 c0 02 	ld  [ %l7 + %g2 ], %o0
    69b8:	10 80 6f 8a 	b  227e0 <free@plt>
    69bc:	81 e8 00 00 	restore 
    69c0:	01 00 00 00 	nop 
    69c4:	81 c7 e0 08 	ret 
    69c8:	81 e8 00 00 	restore 

000069cc <nis_freeresult>:
nis_freeresult():
    69cc:	9d e3 bf 90 	save  %sp, -112, %sp
    69d0:	05 00 00 00 	sethi  %hi(0), %g2
    69d4:	2f 00 00 6d 	sethi  %hi(0x1b400), %l7
    69d8:	7f ff ff bf 	call  68d4 <nis_local_principal+0x198>
    69dc:	ae 05 e2 28 	add  %l7, 0x228, %l7	! 1b628 <__FRAME_END__+0xa600>
    69e0:	92 96 20 00 	orcc  %i0, 0, %o1
    69e4:	02 80 00 06 	be  69fc <nis_freeresult+0x30>
    69e8:	84 10 a3 60 	or  %g2, 0x360, %g2
    69ec:	40 00 6e c0 	call  224ec <xdr_free@plt>
    69f0:	d0 05 c0 02 	ld  [ %l7 + %g2 ], %o0
    69f4:	10 80 6f 7b 	b  227e0 <free@plt>
    69f8:	81 e8 00 00 	restore 
    69fc:	01 00 00 00 	nop 
    6a00:	81 c7 e0 08 	ret 
    6a04:	81 e8 00 00 	restore 
    6a08:	81 c3 e0 08 	retl 
    6a0c:	ae 03 c0 17 	add  %o7, %l7, %l7

00006a10 <read_nis_obj>:
read_nis_obj():
    6a10:	9d e3 bf 78 	save  %sp, -136, %sp
    6a14:	03 00 00 00 	sethi  %hi(0), %g1
    6a18:	2f 00 00 6d 	sethi  %hi(0x1b400), %l7
    6a1c:	7f ff ff fb 	call  6a08 <nis_freeresult+0x3c>
    6a20:	ae 05 e1 e4 	add  %l7, 0x1e4, %l7	! 1b5e4 <__FRAME_END__+0xa5bc>
    6a24:	82 10 60 e8 	or  %g1, 0xe8, %g1
    6a28:	90 10 00 18 	mov  %i0, %o0
    6a2c:	40 00 6f 82 	call  22834 <fopen@plt>
    6a30:	d2 05 c0 01 	ld  [ %l7 + %g1 ], %o1
    6a34:	a0 10 00 08 	mov  %o0, %l0
    6a38:	90 10 20 01 	mov  1, %o0
    6a3c:	80 a4 20 00 	cmp  %l0, 0
    6a40:	92 10 00 1b 	mov  %i3, %o1
    6a44:	02 80 00 24 	be  6ad4 <read_nis_obj+0xc4>
    6a48:	b0 10 20 00 	clr  %i0
    6a4c:	40 00 6f 5f 	call  227c8 <calloc@plt>
    6a50:	01 00 00 00 	nop 
    6a54:	b0 10 00 08 	mov  %o0, %i0
    6a58:	b6 07 bf d8 	add  %fp, -40, %i3
    6a5c:	94 10 20 01 	mov  1, %o2
    6a60:	90 10 00 1b 	mov  %i3, %o0
    6a64:	80 a6 20 00 	cmp  %i0, 0
    6a68:	02 80 00 10 	be  6aa8 <read_nis_obj+0x98>
    6a6c:	92 10 00 10 	mov  %l0, %o1
    6a70:	40 00 6f 74 	call  22840 <xdrstdio_create@plt>
    6a74:	01 00 00 00 	nop 
    6a78:	90 10 00 1b 	mov  %i3, %o0
    6a7c:	9f c6 40 00 	call  %i1
    6a80:	92 10 00 18 	mov  %i0, %o1
    6a84:	c2 07 bf dc 	ld  [ %fp + -36 ], %g1
    6a88:	b2 10 00 08 	mov  %o0, %i1
    6a8c:	c2 00 60 1c 	ld  [ %g1 + 0x1c ], %g1
    6a90:	80 a0 60 00 	cmp  %g1, 0
    6a94:	12 80 00 08 	bne  6ab4 <read_nis_obj+0xa4>
    6a98:	90 10 00 1b 	mov  %i3, %o0
    6a9c:	80 a6 60 00 	cmp  %i1, 0
    6aa0:	02 80 00 0a 	be  6ac8 <read_nis_obj+0xb8>
    6aa4:	90 10 00 18 	mov  %i0, %o0
    6aa8:	40 00 6f 2d 	call  2275c <fclose@plt>
    6aac:	90 10 00 10 	mov  %l0, %o0
    6ab0:	30 80 00 09 	b,a   6ad4 <read_nis_obj+0xc4>
    6ab4:	9f c0 40 00 	call  %g1
    6ab8:	01 00 00 00 	nop 
    6abc:	80 a6 60 00 	cmp  %i1, 0
    6ac0:	12 bf ff fa 	bne  6aa8 <read_nis_obj+0x98>
    6ac4:	90 10 00 18 	mov  %i0, %o0
    6ac8:	9f c6 80 00 	call  %i2
    6acc:	b0 10 20 00 	clr  %i0
    6ad0:	30 bf ff f6 	b,a   6aa8 <read_nis_obj+0x98>
    6ad4:	81 c7 e0 08 	ret 
    6ad8:	81 e8 00 00 	restore 

00006adc <write_nis_obj>:
write_nis_obj():
    6adc:	9d e3 bf 78 	save  %sp, -136, %sp
    6ae0:	03 00 00 00 	sethi  %hi(0), %g1
    6ae4:	2f 00 00 6d 	sethi  %hi(0x1b400), %l7
    6ae8:	7f ff ff c8 	call  6a08 <nis_freeresult+0x3c>
    6aec:	ae 05 e1 18 	add  %l7, 0x118, %l7	! 1b518 <__FRAME_END__+0xa4f0>
    6af0:	82 10 60 ec 	or  %g1, 0xec, %g1
    6af4:	90 10 00 18 	mov  %i0, %o0
    6af8:	40 00 6f 4f 	call  22834 <fopen@plt>
    6afc:	d2 05 c0 01 	ld  [ %l7 + %g1 ], %o1
    6b00:	a0 10 00 08 	mov  %o0, %l0
    6b04:	a2 07 bf d8 	add  %fp, -40, %l1
    6b08:	94 10 20 00 	clr  %o2
    6b0c:	90 10 00 11 	mov  %l1, %o0
    6b10:	92 94 20 00 	orcc  %l0, 0, %o1
    6b14:	02 80 00 13 	be  6b60 <write_nis_obj+0x84>
    6b18:	b0 10 20 00 	clr  %i0
    6b1c:	40 00 6f 49 	call  22840 <xdrstdio_create@plt>
    6b20:	01 00 00 00 	nop 
    6b24:	90 10 00 11 	mov  %l1, %o0
    6b28:	9f c6 80 00 	call  %i2
    6b2c:	92 10 00 19 	mov  %i1, %o1
    6b30:	c2 07 bf dc 	ld  [ %fp + -36 ], %g1
    6b34:	b0 10 00 08 	mov  %o0, %i0
    6b38:	c2 00 60 1c 	ld  [ %g1 + 0x1c ], %g1
    6b3c:	80 a0 60 00 	cmp  %g1, 0
    6b40:	12 80 00 05 	bne  6b54 <write_nis_obj+0x78>
    6b44:	90 10 00 11 	mov  %l1, %o0
    6b48:	40 00 6f 05 	call  2275c <fclose@plt>
    6b4c:	90 10 00 10 	mov  %l0, %o0
    6b50:	30 80 00 04 	b,a   6b60 <write_nis_obj+0x84>
    6b54:	9f c0 40 00 	call  %g1
    6b58:	01 00 00 00 	nop 
    6b5c:	30 bf ff fb 	b,a   6b48 <write_nis_obj+0x6c>
    6b60:	81 c7 e0 08 	ret 
    6b64:	81 e8 00 00 	restore 

00006b68 <readColdStartFile>:
readColdStartFile():
    6b68:	9d e3 bf 90 	save  %sp, -112, %sp
    6b6c:	03 00 00 00 	sethi  %hi(0), %g1
    6b70:	05 00 00 01 	sethi  %hi(0x400), %g2
    6b74:	07 00 00 00 	sethi  %hi(0), %g3
    6b78:	2f 00 00 6d 	sethi  %hi(0x1b400), %l7
    6b7c:	7f ff ff a3 	call  6a08 <nis_freeresult+0x3c>
    6b80:	ae 05 e0 84 	add  %l7, 0x84, %l7	! 1b484 <__FRAME_END__+0xa45c>
    6b84:	82 10 60 e4 	or  %g1, 0xe4, %g1
    6b88:	84 10 a0 04 	or  %g2, 4, %g2
    6b8c:	86 10 e3 b4 	or  %g3, 0x3b4, %g3
    6b90:	f0 05 c0 01 	ld  [ %l7 + %g1 ], %i0
    6b94:	f2 05 c0 02 	ld  [ %l7 + %g2 ], %i1
    6b98:	f4 05 c0 03 	ld  [ %l7 + %g3 ], %i2
    6b9c:	10 bf ff 9d 	b  6a10 <read_nis_obj>
    6ba0:	97 e8 20 1c 	restore  %g0, 0x1c, %o3
    6ba4:	01 00 00 00 	nop 

00006ba8 <writeColdStartFile>:
writeColdStartFile():
    6ba8:	9d e3 bf 90 	save  %sp, -112, %sp
    6bac:	03 00 00 00 	sethi  %hi(0), %g1
    6bb0:	05 00 00 01 	sethi  %hi(0x400), %g2
    6bb4:	2f 00 00 6d 	sethi  %hi(0x1b400), %l7
    6bb8:	7f ff ff 94 	call  6a08 <nis_freeresult+0x3c>
    6bbc:	ae 05 e0 48 	add  %l7, 0x48, %l7	! 1b448 <__FRAME_END__+0xa420>
    6bc0:	b2 10 00 18 	mov  %i0, %i1
    6bc4:	82 10 60 e4 	or  %g1, 0xe4, %g1
    6bc8:	84 10 a0 04 	or  %g2, 4, %g2
    6bcc:	f0 05 c0 01 	ld  [ %l7 + %g1 ], %i0
    6bd0:	f4 05 c0 02 	ld  [ %l7 + %g2 ], %i2
    6bd4:	10 bf ff c2 	b  6adc <write_nis_obj>
    6bd8:	81 e8 00 00 	restore 
    6bdc:	01 00 00 00 	nop 

00006be0 <nis_read_obj>:
nis_read_obj():
    6be0:	9d e3 bf 90 	save  %sp, -112, %sp
    6be4:	03 00 00 00 	sethi  %hi(0), %g1
    6be8:	05 00 00 00 	sethi  %hi(0), %g2
    6bec:	2f 00 00 6d 	sethi  %hi(0x1b400), %l7
    6bf0:	7f ff ff 86 	call  6a08 <nis_freeresult+0x3c>
    6bf4:	ae 05 e0 10 	add  %l7, 0x10, %l7	! 1b410 <__FRAME_END__+0xa3e8>
    6bf8:	82 10 63 80 	or  %g1, 0x380, %g1
    6bfc:	84 10 a3 bc 	or  %g2, 0x3bc, %g2
    6c00:	f2 05 c0 01 	ld  [ %l7 + %g1 ], %i1
    6c04:	f4 05 c0 02 	ld  [ %l7 + %g2 ], %i2
    6c08:	10 bf ff 82 	b  6a10 <read_nis_obj>
    6c0c:	97 e8 20 40 	restore  %g0, 0x40, %o3
    6c10:	01 00 00 00 	nop 

00006c14 <nis_write_obj>:
nis_write_obj():
    6c14:	9d e3 bf 90 	save  %sp, -112, %sp
    6c18:	03 00 00 00 	sethi  %hi(0), %g1
    6c1c:	2f 00 00 6c 	sethi  %hi(0x1b000), %l7
    6c20:	7f ff ff 7a 	call  6a08 <nis_freeresult+0x3c>
    6c24:	ae 05 e3 e0 	add  %l7, 0x3e0, %l7	! 1b3e0 <__FRAME_END__+0xa3b8>
    6c28:	82 10 63 80 	or  %g1, 0x380, %g1
    6c2c:	f4 05 c0 01 	ld  [ %l7 + %g1 ], %i2
    6c30:	10 bf ff ab 	b  6adc <write_nis_obj>
    6c34:	81 e8 00 00 	restore 
    6c38:	01 00 00 00 	nop 
    6c3c:	00 00 00 a4 	unimp  0xa4
    6c40:	00 00 00 bc 	unimp  0xbc
    6c44:	00 00 00 c8 	unimp  0xc8
    6c48:	00 00 00 d4 	unimp  0xd4
    6c4c:	00 00 00 e0 	unimp  0xe0
    6c50:	00 00 00 ec 	unimp  0xec
    6c54:	00 00 00 f8 	unimp  0xf8
    6c58:	00 00 01 04 	unimp  0x104
    6c5c:	00 00 00 b0 	unimp  0xb0
    6c60:	00 00 01 dc 	unimp  0x1dc
    6c64:	00 00 01 f0 	unimp  0x1f0
    6c68:	00 00 02 04 	unimp  0x204
    6c6c:	00 00 02 18 	unimp  0x218
    6c70:	00 00 02 2c 	unimp  0x22c
    6c74:	00 00 02 40 	unimp  0x240
    6c78:	00 00 02 54 	unimp  0x254
    6c7c:	00 00 01 c8 	unimp  0x1c8
    6c80:	00 00 0f 58 	unimp  0xf58
    6c84:	00 00 0f 58 	unimp  0xf58
    6c88:	00 00 0f 20 	unimp  0xf20
    6c8c:	00 00 0f 2c 	unimp  0xf2c
    6c90:	00 00 0f 38 	unimp  0xf38
    6c94:	00 00 0f 44 	unimp  0xf44
    6c98:	00 00 0f 50 	unimp  0xf50
    6c9c:	00 00 0e f4 	unimp  0xef4
    6ca0:	81 c3 e0 08 	retl 
    6ca4:	ae 03 c0 17 	add  %o7, %l7, %l7

00006ca8 <nis_nstype2str>:
nis_nstype2str():
    6ca8:	9d e3 bf 90 	save  %sp, -112, %sp
    6cac:	2f 00 00 6c 	sethi  %hi(0x1b000), %l7
    6cb0:	7f ff ff fc 	call  6ca0 <nis_write_obj+0x8c>
    6cb4:	ae 05 e3 50 	add  %l7, 0x350, %l7	! 1b350 <__FRAME_END__+0xa328>
    6cb8:	80 a6 20 08 	cmp  %i0, 8
    6cbc:	18 80 00 0a 	bgu  6ce4 <nis_nstype2str+0x3c>
    6cc0:	03 00 00 00 	sethi  %hi(0), %g1
    6cc4:	03 00 00 6c 	sethi  %hi(0x1b000), %g1
    6cc8:	82 10 63 c4 	or  %g1, 0x3c4, %g1	! 1b3c4 <__FRAME_END__+0xa39c>
    6ccc:	86 25 c0 01 	sub  %l7, %g1, %g3
    6cd0:	85 2e 20 02 	sll  %i0, 2, %g2
    6cd4:	c2 00 c0 02 	ld  [ %g3 + %g2 ], %g1
    6cd8:	81 c0 40 03 	jmp  %g1 + %g3
    6cdc:	01 00 00 00 	nop 
    6ce0:	03 00 00 00 	sethi  %hi(0), %g1
    6ce4:	10 80 00 19 	b  6d48 <nis_nstype2str+0xa0>
    6ce8:	82 10 60 f0 	or  %g1, 0xf0, %g1	! f0 <GLIBC_2.0+0xf0>
    6cec:	03 00 00 00 	sethi  %hi(0), %g1
    6cf0:	10 80 00 16 	b  6d48 <nis_nstype2str+0xa0>
    6cf4:	82 10 60 f4 	or  %g1, 0xf4, %g1	! f4 <GLIBC_2.0+0xf4>
    6cf8:	03 00 00 00 	sethi  %hi(0), %g1
    6cfc:	10 80 00 13 	b  6d48 <nis_nstype2str+0xa0>
    6d00:	82 10 60 f8 	or  %g1, 0xf8, %g1	! f8 <GLIBC_2.0+0xf8>
    6d04:	03 00 00 00 	sethi  %hi(0), %g1
    6d08:	10 80 00 10 	b  6d48 <nis_nstype2str+0xa0>
    6d0c:	82 10 60 fc 	or  %g1, 0xfc, %g1	! fc <GLIBC_2.0+0xfc>
    6d10:	03 00 00 00 	sethi  %hi(0), %g1
    6d14:	10 80 00 0d 	b  6d48 <nis_nstype2str+0xa0>
    6d18:	82 10 61 00 	or  %g1, 0x100, %g1	! 100 <GLIBC_2.0+0x100>
    6d1c:	03 00 00 00 	sethi  %hi(0), %g1
    6d20:	10 80 00 0a 	b  6d48 <nis_nstype2str+0xa0>
    6d24:	82 10 61 04 	or  %g1, 0x104, %g1	! 104 <GLIBC_2.0+0x104>
    6d28:	03 00 00 00 	sethi  %hi(0), %g1
    6d2c:	10 80 00 07 	b  6d48 <nis_nstype2str+0xa0>
    6d30:	82 10 61 08 	or  %g1, 0x108, %g1	! 108 <GLIBC_2.0+0x108>
    6d34:	03 00 00 00 	sethi  %hi(0), %g1
    6d38:	10 80 00 04 	b  6d48 <nis_nstype2str+0xa0>
    6d3c:	82 10 61 0c 	or  %g1, 0x10c, %g1	! 10c <GLIBC_2.0+0x10c>
    6d40:	03 00 00 00 	sethi  %hi(0), %g1
    6d44:	82 10 61 10 	or  %g1, 0x110, %g1	! 110 <GLIBC_2.0+0x110>
    6d48:	f0 05 c0 01 	ld  [ %l7 + %g1 ], %i0
    6d4c:	81 c7 e0 08 	ret 
    6d50:	81 e8 00 00 	restore 

00006d54 <print_ttl>:
print_ttl():
    6d54:	9d e3 bf 90 	save  %sp, -112, %sp
    6d58:	33 24 68 ac 	sethi  %hi(0x91a2b000), %i1
    6d5c:	b2 16 63 c5 	or  %i1, 0x3c5, %i1	! 91a2b3c5 <_end+0x91a065ed>
    6d60:	80 56 00 19 	umul  %i0, %i1, %g0
    6d64:	b3 40 00 00 	rd  %y, %i1
    6d68:	b3 36 60 0b 	srl  %i1, 0xb, %i1
    6d6c:	82 5e 6e 10 	smul  %i1, 0xe10, %g1
    6d70:	35 22 22 22 	sethi  %hi(0x88888800), %i2
    6d74:	b0 26 00 01 	sub  %i0, %g1, %i0
    6d78:	b4 16 a0 89 	or  %i2, 0x89, %i2
    6d7c:	80 56 00 1a 	umul  %i0, %i2, %g0
    6d80:	b5 40 00 00 	rd  %y, %i2
    6d84:	b5 36 a0 05 	srl  %i2, 5, %i2
    6d88:	b7 2e a0 04 	sll  %i2, 4, %i3
    6d8c:	b6 26 c0 1a 	sub  %i3, %i2, %i3
    6d90:	03 00 00 00 	sethi  %hi(0), %g1
    6d94:	b7 2e e0 02 	sll  %i3, 2, %i3
    6d98:	2f 00 00 6c 	sethi  %hi(0x1b000), %l7
    6d9c:	7f ff ff c1 	call  6ca0 <nis_write_obj+0x8c>
    6da0:	ae 05 e2 64 	add  %l7, 0x264, %l7	! 1b264 <__FRAME_END__+0xa23c>
    6da4:	82 10 61 14 	or  %g1, 0x114, %g1
    6da8:	b6 26 00 1b 	sub  %i0, %i3, %i3
    6dac:	f0 05 c0 01 	ld  [ %l7 + %g1 ], %i0
    6db0:	10 80 6e b9 	b  22894 <printf@plt>
    6db4:	81 e8 00 00 	restore 
    6db8:	01 00 00 00 	nop 

00006dbc <nis_print_objtype>:
nis_print_objtype():
    6dbc:	9d e3 bf 90 	save  %sp, -112, %sp
    6dc0:	2f 00 00 6c 	sethi  %hi(0x1b000), %l7
    6dc4:	7f ff ff b7 	call  6ca0 <nis_write_obj+0x8c>
    6dc8:	ae 05 e2 3c 	add  %l7, 0x23c, %l7	! 1b23c <__FRAME_END__+0xa214>
    6dcc:	80 a6 20 07 	cmp  %i0, 7
    6dd0:	18 80 00 08 	bgu  6df0 <nis_print_objtype+0x34>
    6dd4:	03 00 00 6c 	sethi  %hi(0x1b000), %g1
    6dd8:	82 10 63 a0 	or  %g1, 0x3a0, %g1	! 1b3a0 <__FRAME_END__+0xa378>
    6ddc:	86 25 c0 01 	sub  %l7, %g1, %g3
    6de0:	85 2e 20 02 	sll  %i0, 2, %g2
    6de4:	c2 00 c0 02 	ld  [ %g3 + %g2 ], %g1
    6de8:	81 c0 40 03 	jmp  %g1 + %g3
    6dec:	01 00 00 00 	nop 
    6df0:	03 00 00 00 	sethi  %hi(0), %g1
    6df4:	05 00 00 00 	sethi  %hi(0), %g2
    6df8:	82 10 63 90 	or  %g1, 0x390, %g1
    6dfc:	84 10 a1 18 	or  %g2, 0x118, %g2
    6e00:	d0 05 c0 01 	ld  [ %l7 + %g1 ], %o0
    6e04:	d2 05 c0 02 	ld  [ %l7 + %g2 ], %o1
    6e08:	40 00 6e 6a 	call  227b0 <__dcgettext@plt>
    6e0c:	94 10 20 05 	mov  5, %o2
    6e10:	03 00 00 00 	sethi  %hi(0), %g1
    6e14:	82 10 63 ac 	or  %g1, 0x3ac, %g1	! 3ac <GLIBC_2.0+0x3ac>
    6e18:	c4 05 c0 01 	ld  [ %l7 + %g1 ], %g2
    6e1c:	f2 00 80 00 	ld  [ %g2 ], %i1
    6e20:	10 80 6e 0d 	b  22654 <fputs@plt>
    6e24:	91 e8 00 08 	restore  %g0, %o0, %o0
    6e28:	03 00 00 00 	sethi  %hi(0), %g1
    6e2c:	05 00 00 00 	sethi  %hi(0), %g2
    6e30:	82 10 63 90 	or  %g1, 0x390, %g1
    6e34:	10 bf ff f3 	b  6e00 <nis_print_objtype+0x44>
    6e38:	84 10 a1 1c 	or  %g2, 0x11c, %g2
    6e3c:	03 00 00 00 	sethi  %hi(0), %g1
    6e40:	05 00 00 00 	sethi  %hi(0), %g2
    6e44:	82 10 63 90 	or  %g1, 0x390, %g1
    6e48:	10 bf ff ee 	b  6e00 <nis_print_objtype+0x44>
    6e4c:	84 10 a1 20 	or  %g2, 0x120, %g2
    6e50:	03 00 00 00 	sethi  %hi(0), %g1
    6e54:	05 00 00 00 	sethi  %hi(0), %g2
    6e58:	82 10 63 90 	or  %g1, 0x390, %g1
    6e5c:	10 bf ff e9 	b  6e00 <nis_print_objtype+0x44>
    6e60:	84 10 a1 24 	or  %g2, 0x124, %g2
    6e64:	03 00 00 00 	sethi  %hi(0), %g1
    6e68:	05 00 00 00 	sethi  %hi(0), %g2
    6e6c:	82 10 63 90 	or  %g1, 0x390, %g1
    6e70:	10 bf ff e4 	b  6e00 <nis_print_objtype+0x44>
    6e74:	84 10 a1 28 	or  %g2, 0x128, %g2
    6e78:	03 00 00 00 	sethi  %hi(0), %g1
    6e7c:	05 00 00 00 	sethi  %hi(0), %g2
    6e80:	82 10 63 90 	or  %g1, 0x390, %g1
    6e84:	10 bf ff df 	b  6e00 <nis_print_objtype+0x44>
    6e88:	84 10 a1 2c 	or  %g2, 0x12c, %g2
    6e8c:	03 00 00 00 	sethi  %hi(0), %g1
    6e90:	05 00 00 00 	sethi  %hi(0), %g2
    6e94:	82 10 63 90 	or  %g1, 0x390, %g1
    6e98:	10 bf ff da 	b  6e00 <nis_print_objtype+0x44>
    6e9c:	84 10 a1 30 	or  %g2, 0x130, %g2
    6ea0:	03 00 00 00 	sethi  %hi(0), %g1
    6ea4:	05 00 00 00 	sethi  %hi(0), %g2
    6ea8:	82 10 63 90 	or  %g1, 0x390, %g1
    6eac:	10 bf ff d5 	b  6e00 <nis_print_objtype+0x44>
    6eb0:	84 10 a1 34 	or  %g2, 0x134, %g2
    6eb4:	03 00 00 00 	sethi  %hi(0), %g1
    6eb8:	05 00 00 00 	sethi  %hi(0), %g2
    6ebc:	82 10 63 90 	or  %g1, 0x390, %g1
    6ec0:	10 bf ff d0 	b  6e00 <nis_print_objtype+0x44>
    6ec4:	84 10 a1 38 	or  %g2, 0x138, %g2

00006ec8 <nis_print_rights>:
nis_print_rights():
    6ec8:	9d e3 bf 78 	save  %sp, -136, %sp
    6ecc:	c0 2f bf e8 	clrb  [ %fp + -24 ]
    6ed0:	98 10 20 10 	mov  0x10, %o4
    6ed4:	96 07 bf f0 	add  %fp, -16, %o3
    6ed8:	2f 00 00 6c 	sethi  %hi(0x1b000), %l7
    6edc:	7f ff ff 71 	call  6ca0 <nis_write_obj+0x8c>
    6ee0:	ae 05 e1 24 	add  %l7, 0x124, %l7	! 1b124 <__FRAME_END__+0xa0fc>
    6ee4:	82 0e 20 01 	and  %i0, 1, %g1
    6ee8:	80 a0 00 01 	cmp  %g0, %g1
    6eec:	82 0e 20 02 	and  %i0, 2, %g1
    6ef0:	9a 40 3f ff 	addx  %g0, -1, %o5
    6ef4:	80 a0 00 01 	cmp  %g0, %g1
    6ef8:	82 0e 20 04 	and  %i0, 4, %g1
    6efc:	88 40 3f ff 	addx  %g0, -1, %g4
    6f00:	80 a0 00 01 	cmp  %g0, %g1
    6f04:	82 0e 20 08 	and  %i0, 8, %g1
    6f08:	86 40 3f ff 	addx  %g0, -1, %g3
    6f0c:	80 a0 00 01 	cmp  %g0, %g1
    6f10:	84 40 3f ff 	addx  %g0, -1, %g2
    6f14:	98 03 3f fc 	add  %o4, -4, %o4
    6f18:	9a 0b 7f bb 	and  %o5, -69, %o5
    6f1c:	88 09 3f c0 	and  %g4, -64, %g4
    6f20:	86 08 ff ca 	and  %g3, -54, %g3
    6f24:	84 08 bf c9 	and  %g2, -55, %g2
    6f28:	82 02 c0 0c 	add  %o3, %o4, %g1
    6f2c:	9a 03 60 72 	add  %o5, 0x72, %o5
    6f30:	88 01 20 6d 	add  %g4, 0x6d, %g4
    6f34:	86 00 e0 63 	add  %g3, 0x63, %g3
    6f38:	84 00 a0 64 	add  %g2, 0x64, %g2
    6f3c:	c4 28 7f eb 	stb  %g2, [ %g1 + -21 ]
    6f40:	da 28 7f e8 	stb  %o5, [ %g1 + -24 ]
    6f44:	c8 28 7f e9 	stb  %g4, [ %g1 + -23 ]
    6f48:	c6 28 7f ea 	stb  %g3, [ %g1 + -22 ]
    6f4c:	80 a3 20 00 	cmp  %o4, 0
    6f50:	14 bf ff e5 	bg  6ee4 <nis_print_rights+0x1c>
    6f54:	b1 36 20 08 	srl  %i0, 8, %i0
    6f58:	03 00 00 00 	sethi  %hi(0), %g1
    6f5c:	82 10 63 ac 	or  %g1, 0x3ac, %g1	! 3ac <GLIBC_2.0+0x3ac>
    6f60:	c4 05 c0 01 	ld  [ %l7 + %g1 ], %g2
    6f64:	d2 00 80 00 	ld  [ %g2 ], %o1
    6f68:	40 00 6d bb 	call  22654 <fputs@plt>
    6f6c:	90 07 bf d8 	add  %fp, -40, %o0
    6f70:	01 00 00 00 	nop 
    6f74:	81 c7 e0 08 	ret 
    6f78:	81 e8 00 00 	restore 

00006f7c <nis_print_directory>:
nis_print_directory():
    6f7c:	9d e3 bf 80 	save  %sp, -128, %sp
    6f80:	03 00 00 00 	sethi  %hi(0), %g1
    6f84:	2f 00 00 6c 	sethi  %hi(0x1b000), %l7
    6f88:	7f ff ff 46 	call  6ca0 <nis_write_obj+0x8c>
    6f8c:	ae 05 e0 78 	add  %l7, 0x78, %l7	! 1b078 <__FRAME_END__+0xa050>
    6f90:	82 10 63 90 	or  %g1, 0x390, %g1
    6f94:	05 00 00 00 	sethi  %hi(0), %g2
    6f98:	84 10 a1 3c 	or  %g2, 0x13c, %g2	! 13c <GLIBC_2.0+0x13c>
    6f9c:	e4 05 c0 01 	ld  [ %l7 + %g1 ], %l2
    6fa0:	d2 05 c0 02 	ld  [ %l7 + %g2 ], %o1
    6fa4:	94 10 20 05 	mov  5, %o2
    6fa8:	40 00 6e 02 	call  227b0 <__dcgettext@plt>
    6fac:	90 10 00 12 	mov  %l2, %o0
    6fb0:	40 00 6e 39 	call  22894 <printf@plt>
    6fb4:	d2 06 00 00 	ld  [ %i0 ], %o1
    6fb8:	03 00 00 00 	sethi  %hi(0), %g1
    6fbc:	82 10 61 40 	or  %g1, 0x140, %g1	! 140 <GLIBC_2.0+0x140>
    6fc0:	d2 05 c0 01 	ld  [ %l7 + %g1 ], %o1
    6fc4:	94 10 20 05 	mov  5, %o2
    6fc8:	40 00 6d fa 	call  227b0 <__dcgettext@plt>
    6fcc:	90 10 00 12 	mov  %l2, %o0
    6fd0:	a0 10 00 08 	mov  %o0, %l0
    6fd4:	7f ff ff 35 	call  6ca8 <nis_nstype2str>
    6fd8:	d0 06 20 04 	ld  [ %i0 + 4 ], %o0
    6fdc:	92 10 00 08 	mov  %o0, %o1
    6fe0:	40 00 6e 2d 	call  22894 <printf@plt>
    6fe4:	90 10 00 10 	mov  %l0, %o0
    6fe8:	c2 06 20 08 	ld  [ %i0 + 8 ], %g1
    6fec:	80 a0 60 00 	cmp  %g1, 0
    6ff0:	35 00 00 00 	sethi  %hi(0), %i2
    6ff4:	e2 06 20 0c 	ld  [ %i0 + 0xc ], %l1
    6ff8:	08 80 00 ab 	bleu  72a4 <nis_print_directory+0x328>
    6ffc:	a8 10 20 00 	clr  %l4
    7000:	03 00 00 00 	sethi  %hi(0), %g1
    7004:	82 10 63 ac 	or  %g1, 0x3ac, %g1	! 3ac <GLIBC_2.0+0x3ac>
    7008:	c2 27 bf ec 	st  %g1, [ %fp + -20 ]
    700c:	f2 05 c0 01 	ld  [ %l7 + %g1 ], %i1
    7010:	10 80 00 3e 	b  7108 <nis_print_directory+0x18c>
    7014:	c2 27 bf e8 	st  %g1, [ %fp + -24 ]
    7018:	84 16 a3 90 	or  %i2, 0x390, %g2
    701c:	82 10 61 44 	or  %g1, 0x144, %g1
    7020:	d0 05 c0 02 	ld  [ %l7 + %g2 ], %o0
    7024:	d2 05 c0 01 	ld  [ %l7 + %g1 ], %o1
    7028:	40 00 6d e2 	call  227b0 <__dcgettext@plt>
    702c:	94 10 20 05 	mov  5, %o2
    7030:	c4 07 bf ec 	ld  [ %fp + -20 ], %g2
    7034:	c2 05 c0 02 	ld  [ %l7 + %g2 ], %g1
    7038:	40 00 6d 87 	call  22654 <fputs@plt>
    703c:	d2 00 40 00 	ld  [ %g1 ], %o1
    7040:	21 00 00 00 	sethi  %hi(0), %l0
    7044:	05 00 00 00 	sethi  %hi(0), %g2
    7048:	a0 14 23 90 	or  %l0, 0x390, %l0
    704c:	82 10 a1 48 	or  %g2, 0x148, %g1
    7050:	e0 05 c0 10 	ld  [ %l7 + %l0 ], %l0
    7054:	d2 05 c0 01 	ld  [ %l7 + %g1 ], %o1
    7058:	94 10 20 05 	mov  5, %o2
    705c:	40 00 6d d5 	call  227b0 <__dcgettext@plt>
    7060:	90 10 00 10 	mov  %l0, %o0
    7064:	40 00 6e 0c 	call  22894 <printf@plt>
    7068:	d2 04 40 00 	ld  [ %l1 ], %o1
    706c:	05 00 00 00 	sethi  %hi(0), %g2
    7070:	82 10 a1 4c 	or  %g2, 0x14c, %g1	! 14c <GLIBC_2.0+0x14c>
    7074:	d2 05 c0 01 	ld  [ %l7 + %g1 ], %o1
    7078:	94 10 20 05 	mov  5, %o2
    707c:	40 00 6d cd 	call  227b0 <__dcgettext@plt>
    7080:	90 10 00 10 	mov  %l0, %o0
    7084:	40 00 6d 74 	call  22654 <fputs@plt>
    7088:	d2 06 40 00 	ld  [ %i1 ], %o1
    708c:	c2 04 60 0c 	ld  [ %l1 + 0xc ], %g1
    7090:	80 a0 60 01 	cmp  %g1, 1
    7094:	02 80 00 c5 	be  73a8 <nis_print_directory+0x42c>
    7098:	35 00 00 00 	sethi  %hi(0), %i2
    709c:	80 a0 60 01 	cmp  %g1, 1
    70a0:	0a 80 00 77 	bcs  727c <nis_print_directory+0x300>
    70a4:	80 a0 60 02 	cmp  %g1, 2
    70a8:	02 80 00 cc 	be  73d8 <nis_print_directory+0x45c>
    70ac:	80 a0 60 03 	cmp  %g1, 3
    70b0:	02 80 00 cd 	be  73e4 <nis_print_directory+0x468>
    70b4:	84 16 a3 90 	or  %i2, 0x390, %g2
    70b8:	03 00 00 00 	sethi  %hi(0), %g1
    70bc:	82 10 61 50 	or  %g1, 0x150, %g1	! 150 <GLIBC_2.0+0x150>
    70c0:	d2 05 c0 01 	ld  [ %l7 + %g1 ], %o1
    70c4:	94 10 20 05 	mov  5, %o2
    70c8:	40 00 6d ba 	call  227b0 <__dcgettext@plt>
    70cc:	d0 05 c0 02 	ld  [ %l7 + %g2 ], %o0
    70d0:	d4 04 60 10 	ld  [ %l1 + 0x10 ], %o2
    70d4:	95 2a a0 02 	sll  %o2, 2, %o2
    70d8:	94 02 bf fc 	add  %o2, -4, %o2
    70dc:	40 00 6d ee 	call  22894 <printf@plt>
    70e0:	d2 04 60 0c 	ld  [ %l1 + 0xc ], %o1
    70e4:	c2 04 60 04 	ld  [ %l1 + 4 ], %g1
    70e8:	80 a0 60 00 	cmp  %g1, 0
    70ec:	12 80 00 13 	bne  7138 <nis_print_directory+0x1bc>
    70f0:	03 00 00 00 	sethi  %hi(0), %g1
    70f4:	a8 05 20 01 	inc  %l4
    70f8:	c2 06 20 08 	ld  [ %i0 + 8 ], %g1
    70fc:	80 a0 40 14 	cmp  %g1, %l4
    7100:	08 80 00 69 	bleu  72a4 <nis_print_directory+0x328>
    7104:	a2 04 60 18 	add  %l1, 0x18, %l1
    7108:	80 a5 20 00 	cmp  %l4, 0
    710c:	02 bf ff c3 	be  7018 <nis_print_directory+0x9c>
    7110:	03 00 00 00 	sethi  %hi(0), %g1
    7114:	03 00 00 00 	sethi  %hi(0), %g1
    7118:	84 16 a3 90 	or  %i2, 0x390, %g2
    711c:	82 10 61 58 	or  %g1, 0x158, %g1
    7120:	d0 05 c0 02 	ld  [ %l7 + %g2 ], %o0
    7124:	d2 05 c0 01 	ld  [ %l7 + %g1 ], %o1
    7128:	40 00 6d a2 	call  227b0 <__dcgettext@plt>
    712c:	94 10 20 05 	mov  5, %o2
    7130:	10 bf ff c1 	b  7034 <nis_print_directory+0xb8>
    7134:	c4 07 bf e8 	ld  [ %fp + -24 ], %g2
    7138:	82 10 61 54 	or  %g1, 0x154, %g1
    713c:	84 16 a3 90 	or  %i2, 0x390, %g2
    7140:	d2 05 c0 01 	ld  [ %l7 + %g1 ], %o1
    7144:	d0 05 c0 02 	ld  [ %l7 + %g2 ], %o0
    7148:	94 10 20 05 	mov  5, %o2
    714c:	40 00 6d 99 	call  227b0 <__dcgettext@plt>
    7150:	e0 04 60 08 	ld  [ %l1 + 8 ], %l0
    7154:	40 00 6d d0 	call  22894 <printf@plt>
    7158:	d2 04 60 04 	ld  [ %l1 + 4 ], %o1
    715c:	c2 04 60 04 	ld  [ %l1 + 4 ], %g1
    7160:	80 a0 60 00 	cmp  %g1, 0
    7164:	08 bf ff e4 	bleu  70f4 <nis_print_directory+0x178>
    7168:	92 10 20 00 	clr  %o1
    716c:	3b 00 00 00 	sethi  %hi(0), %i5
    7170:	2b 00 00 00 	sethi  %hi(0), %l5
    7174:	37 00 00 00 	sethi  %hi(0), %i3
    7178:	ba 17 61 5c 	or  %i5, 0x15c, %i5
    717c:	aa 15 61 60 	or  %l5, 0x160, %l5
    7180:	27 00 00 00 	sethi  %hi(0), %l3
    7184:	2d 00 00 00 	sethi  %hi(0), %l6
    7188:	b6 16 e3 ac 	or  %i3, 0x3ac, %i3
    718c:	a6 14 e1 64 	or  %l3, 0x164, %l3
    7190:	ac 15 a1 68 	or  %l6, 0x168, %l6
    7194:	f6 05 c0 1b 	ld  [ %l7 + %i3 ], %i3
    7198:	fa 27 bf e4 	st  %i5, [ %fp + -28 ]
    719c:	10 80 00 20 	b  721c <nis_print_directory+0x2a0>
    71a0:	b8 10 00 15 	mov  %l5, %i4
    71a4:	40 00 6d bc 	call  22894 <printf@plt>
    71a8:	d0 05 c0 15 	ld  [ %l7 + %l5 ], %o0
    71ac:	d2 04 20 04 	ld  [ %l0 + 4 ], %o1
    71b0:	80 a2 60 00 	cmp  %o1, 0
    71b4:	02 80 00 06 	be  71cc <nis_print_directory+0x250>
    71b8:	01 00 00 00 	nop 
    71bc:	c2 4a 40 00 	ldsb  [ %o1 ], %g1
    71c0:	80 a0 60 00 	cmp  %g1, 0
    71c4:	12 80 00 26 	bne  725c <nis_print_directory+0x2e0>
    71c8:	c2 07 bf e4 	ld  [ %fp + -28 ], %g1
    71cc:	40 00 6d b2 	call  22894 <printf@plt>
    71d0:	d0 05 c0 1c 	ld  [ %l7 + %i4 ], %o0
    71d4:	d0 04 00 00 	ld  [ %l0 ], %o0
    71d8:	80 a2 20 00 	cmp  %o0, 0
    71dc:	22 80 00 07 	be,a   71f8 <nis_print_directory+0x27c>
    71e0:	d0 05 c0 16 	ld  [ %l7 + %l6 ], %o0
    71e4:	c2 4a 00 00 	ldsb  [ %o0 ], %g1
    71e8:	80 a0 60 00 	cmp  %g1, 0
    71ec:	12 80 00 20 	bne  726c <nis_print_directory+0x2f0>
    71f0:	01 00 00 00 	nop 
    71f4:	d0 05 c0 16 	ld  [ %l7 + %l6 ], %o0
    71f8:	92 10 20 01 	mov  1, %o1
    71fc:	94 10 20 02 	mov  2, %o2
    7200:	40 00 6d 96 	call  22858 <fwrite@plt>
    7204:	d6 06 c0 00 	ld  [ %i3 ], %o3
    7208:	c2 04 60 04 	ld  [ %l1 + 4 ], %g1
    720c:	92 10 00 12 	mov  %l2, %o1
    7210:	80 a0 40 12 	cmp  %g1, %l2
    7214:	08 bf ff b8 	bleu  70f4 <nis_print_directory+0x178>
    7218:	a0 04 20 0c 	add  %l0, 0xc, %l0
    721c:	a4 02 60 01 	add  %o1, 1, %l2
    7220:	92 10 00 12 	mov  %l2, %o1
    7224:	40 00 6d 9c 	call  22894 <printf@plt>
    7228:	d0 05 c0 13 	ld  [ %l7 + %l3 ], %o0
    722c:	d2 04 20 08 	ld  [ %l0 + 8 ], %o1
    7230:	80 a2 60 00 	cmp  %o1, 0
    7234:	02 bf ff dc 	be  71a4 <nis_print_directory+0x228>
    7238:	01 00 00 00 	nop 
    723c:	c2 4a 40 00 	ldsb  [ %o1 ], %g1
    7240:	80 a0 60 00 	cmp  %g1, 0
    7244:	02 bf ff d8 	be  71a4 <nis_print_directory+0x228>
    7248:	01 00 00 00 	nop 
    724c:	40 00 6d 92 	call  22894 <printf@plt>
    7250:	d0 05 c0 1d 	ld  [ %l7 + %i5 ], %o0
    7254:	10 bf ff d7 	b  71b0 <nis_print_directory+0x234>
    7258:	d2 04 20 04 	ld  [ %l0 + 4 ], %o1
    725c:	40 00 6d 8e 	call  22894 <printf@plt>
    7260:	d0 05 c0 01 	ld  [ %l7 + %g1 ], %o0
    7264:	10 bf ff dd 	b  71d8 <nis_print_directory+0x25c>
    7268:	d0 04 00 00 	ld  [ %l0 ], %o0
    726c:	40 00 6c d0 	call  225ac <puts@plt>
    7270:	01 00 00 00 	nop 
    7274:	10 bf ff e6 	b  720c <nis_print_directory+0x290>
    7278:	c2 04 60 04 	ld  [ %l1 + 4 ], %g1
    727c:	03 00 00 00 	sethi  %hi(0), %g1
    7280:	82 10 61 6c 	or  %g1, 0x16c, %g1	! 16c <GLIBC_2.0+0x16c>
    7284:	d2 05 c0 01 	ld  [ %l7 + %g1 ], %o1
    7288:	90 10 00 10 	mov  %l0, %o0
    728c:	40 00 6d 49 	call  227b0 <__dcgettext@plt>
    7290:	94 10 20 05 	mov  5, %o2
    7294:	40 00 6c f0 	call  22654 <fputs@plt>
    7298:	d2 06 40 00 	ld  [ %i1 ], %o1
    729c:	10 bf ff 93 	b  70e8 <nis_print_directory+0x16c>
    72a0:	c2 04 60 04 	ld  [ %l1 + 4 ], %g1
    72a4:	84 16 a3 90 	or  %i2, 0x390, %g2
    72a8:	03 00 00 00 	sethi  %hi(0), %g1
    72ac:	e4 05 c0 02 	ld  [ %l7 + %g2 ], %l2
    72b0:	82 10 61 70 	or  %g1, 0x170, %g1
    72b4:	94 10 20 05 	mov  5, %o2
    72b8:	d2 05 c0 01 	ld  [ %l7 + %g1 ], %o1
    72bc:	40 00 6d 3d 	call  227b0 <__dcgettext@plt>
    72c0:	90 10 00 12 	mov  %l2, %o0
    72c4:	05 00 00 00 	sethi  %hi(0), %g2
    72c8:	82 10 a3 ac 	or  %g2, 0x3ac, %g1	! 3ac <GLIBC_2.0+0x3ac>
    72cc:	e0 05 c0 01 	ld  [ %l7 + %g1 ], %l0
    72d0:	40 00 6c e1 	call  22654 <fputs@plt>
    72d4:	d2 04 00 00 	ld  [ %l0 ], %o1
    72d8:	7f ff fe 9f 	call  6d54 <print_ttl>
    72dc:	d0 06 20 10 	ld  [ %i0 + 0x10 ], %o0
    72e0:	03 00 00 00 	sethi  %hi(0), %g1
    72e4:	82 10 61 74 	or  %g1, 0x174, %g1	! 174 <GLIBC_2.0+0x174>
    72e8:	d2 05 c0 01 	ld  [ %l7 + %g1 ], %o1
    72ec:	94 10 20 05 	mov  5, %o2
    72f0:	40 00 6d 30 	call  227b0 <__dcgettext@plt>
    72f4:	90 10 00 12 	mov  %l2, %o0
    72f8:	40 00 6c d7 	call  22654 <fputs@plt>
    72fc:	d2 04 00 00 	ld  [ %l0 ], %o1
    7300:	c2 06 20 14 	ld  [ %i0 + 0x14 ], %g1
    7304:	80 a0 60 00 	cmp  %g1, 0
    7308:	02 80 00 43 	be  7414 <nis_print_directory+0x498>
    730c:	01 00 00 00 	nop 
    7310:	e2 06 20 18 	ld  [ %i0 + 0x18 ], %l1
    7314:	08 80 00 40 	bleu  7414 <nis_print_directory+0x498>
    7318:	a8 10 20 00 	clr  %l4
    731c:	2b 00 00 00 	sethi  %hi(0), %l5
    7320:	27 00 00 00 	sethi  %hi(0), %l3
    7324:	ac 10 00 12 	mov  %l2, %l6
    7328:	aa 15 61 78 	or  %l5, 0x178, %l5
    732c:	a6 14 e1 7c 	or  %l3, 0x17c, %l3
    7330:	a4 10 00 10 	mov  %l0, %l2
    7334:	7f ff fe e5 	call  6ec8 <nis_print_rights>
    7338:	d0 04 40 00 	ld  [ %l1 ], %o0
    733c:	94 10 20 05 	mov  5, %o2
    7340:	d2 05 c0 15 	ld  [ %l7 + %l5 ], %o1
    7344:	40 00 6d 1b 	call  227b0 <__dcgettext@plt>
    7348:	90 10 00 16 	mov  %l6, %o0
    734c:	a0 10 00 08 	mov  %o0, %l0
    7350:	7f ff fe 56 	call  6ca8 <nis_nstype2str>
    7354:	d0 04 60 04 	ld  [ %l1 + 4 ], %o0
    7358:	92 10 00 08 	mov  %o0, %o1
    735c:	40 00 6d 4e 	call  22894 <printf@plt>
    7360:	90 10 00 10 	mov  %l0, %o0
    7364:	94 10 20 05 	mov  5, %o2
    7368:	d2 05 c0 13 	ld  [ %l7 + %l3 ], %o1
    736c:	40 00 6d 11 	call  227b0 <__dcgettext@plt>
    7370:	90 10 00 16 	mov  %l6, %o0
    7374:	40 00 6c b8 	call  22654 <fputs@plt>
    7378:	d2 04 80 00 	ld  [ %l2 ], %o1
    737c:	7f ff fe d3 	call  6ec8 <nis_print_rights>
    7380:	d0 04 40 00 	ld  [ %l1 ], %o0
    7384:	90 10 20 0a 	mov  0xa, %o0
    7388:	40 00 6c ce 	call  226c0 <fputc@plt>
    738c:	d2 04 80 00 	ld  [ %l2 ], %o1
    7390:	a8 05 20 01 	inc  %l4
    7394:	c2 06 20 14 	ld  [ %i0 + 0x14 ], %g1
    7398:	80 a0 40 14 	cmp  %g1, %l4
    739c:	18 bf ff e6 	bgu  7334 <nis_print_directory+0x3b8>
    73a0:	a2 04 60 08 	add  %l1, 8, %l1
    73a4:	30 80 00 1c 	b,a   7414 <nis_print_directory+0x498>
    73a8:	03 00 00 00 	sethi  %hi(0), %g1
    73ac:	82 10 61 80 	or  %g1, 0x180, %g1	! 180 <GLIBC_2.0+0x180>
    73b0:	d2 05 c0 01 	ld  [ %l7 + %g1 ], %o1
    73b4:	90 10 00 10 	mov  %l0, %o0
    73b8:	40 00 6c fe 	call  227b0 <__dcgettext@plt>
    73bc:	94 10 20 05 	mov  5, %o2
    73c0:	d2 04 60 10 	ld  [ %l1 + 0x10 ], %o1
    73c4:	93 2a 60 02 	sll  %o1, 2, %o1
    73c8:	40 00 6d 33 	call  22894 <printf@plt>
    73cc:	92 02 7f fc 	add  %o1, -4, %o1
    73d0:	10 bf ff 46 	b  70e8 <nis_print_directory+0x16c>
    73d4:	c2 04 60 04 	ld  [ %l1 + 4 ], %g1
    73d8:	03 00 00 00 	sethi  %hi(0), %g1
    73dc:	10 bf ff f5 	b  73b0 <nis_print_directory+0x434>
    73e0:	82 10 61 84 	or  %g1, 0x184, %g1	! 184 <GLIBC_2.0+0x184>
    73e4:	03 00 00 00 	sethi  %hi(0), %g1
    73e8:	11 00 00 00 	sethi  %hi(0), %o0
    73ec:	82 10 61 88 	or  %g1, 0x188, %g1
    73f0:	90 12 23 90 	or  %o0, 0x390, %o0
    73f4:	d2 05 c0 01 	ld  [ %l7 + %g1 ], %o1
    73f8:	d0 05 c0 08 	ld  [ %l7 + %o0 ], %o0
    73fc:	40 00 6c ed 	call  227b0 <__dcgettext@plt>
    7400:	94 10 20 05 	mov  5, %o2
    7404:	40 00 6c 94 	call  22654 <fputs@plt>
    7408:	d2 06 40 00 	ld  [ %i1 ], %o1
    740c:	10 bf ff 37 	b  70e8 <nis_print_directory+0x16c>
    7410:	c2 04 60 04 	ld  [ %l1 + 4 ], %g1
    7414:	81 c7 e0 08 	ret 
    7418:	81 e8 00 00 	restore 

0000741c <nis_print_group>:
nis_print_group():
    741c:	9d e3 bf 90 	save  %sp, -112, %sp
    7420:	05 00 00 00 	sethi  %hi(0), %g2
    7424:	2f 00 00 6a 	sethi  %hi(0x1a800), %l7
    7428:	7f ff fe 1e 	call  6ca0 <nis_write_obj+0x8c>
    742c:	ae 05 e3 d8 	add  %l7, 0x3d8, %l7	! 1abd8 <__FRAME_END__+0x9bb0>
    7430:	84 10 a3 90 	or  %g2, 0x390, %g2
    7434:	03 00 00 00 	sethi  %hi(0), %g1
    7438:	e2 05 c0 02 	ld  [ %l7 + %g2 ], %l1
    743c:	82 10 61 8c 	or  %g1, 0x18c, %g1
    7440:	d2 05 c0 01 	ld  [ %l7 + %g1 ], %o1
    7444:	94 10 20 05 	mov  5, %o2
    7448:	40 00 6c da 	call  227b0 <__dcgettext@plt>
    744c:	90 10 00 11 	mov  %l1, %o0
    7450:	03 00 00 00 	sethi  %hi(0), %g1
    7454:	82 10 63 ac 	or  %g1, 0x3ac, %g1	! 3ac <GLIBC_2.0+0x3ac>
    7458:	e0 05 c0 01 	ld  [ %l7 + %g1 ], %l0
    745c:	40 00 6c 7e 	call  22654 <fputs@plt>
    7460:	d2 04 00 00 	ld  [ %l0 ], %o1
    7464:	d2 06 00 00 	ld  [ %i0 ], %o1
    7468:	80 a2 60 00 	cmp  %o1, 0
    746c:	12 80 00 1b 	bne  74d8 <nis_print_group+0xbc>
    7470:	03 00 00 00 	sethi  %hi(0), %g1
    7474:	03 00 00 00 	sethi  %hi(0), %g1
    7478:	82 10 61 94 	or  %g1, 0x194, %g1	! 194 <GLIBC_2.0+0x194>
    747c:	d2 05 c0 01 	ld  [ %l7 + %g1 ], %o1
    7480:	94 10 20 05 	mov  5, %o2
    7484:	40 00 6c cb 	call  227b0 <__dcgettext@plt>
    7488:	90 10 00 11 	mov  %l1, %o0
    748c:	40 00 6c 72 	call  22654 <fputs@plt>
    7490:	d2 04 00 00 	ld  [ %l0 ], %o1
    7494:	c2 06 20 04 	ld  [ %i0 + 4 ], %g1
    7498:	80 a0 60 00 	cmp  %g1, 0
    749c:	08 80 00 14 	bleu  74ec <nis_print_group+0xd0>
    74a0:	a0 10 20 00 	clr  %l0
    74a4:	23 00 00 00 	sethi  %hi(0), %l1
    74a8:	a2 14 61 98 	or  %l1, 0x198, %l1	! 198 <GLIBC_2.0+0x198>
    74ac:	c2 06 20 08 	ld  [ %i0 + 8 ], %g1
    74b0:	85 2c 20 02 	sll  %l0, 2, %g2
    74b4:	d2 00 40 02 	ld  [ %g1 + %g2 ], %o1
    74b8:	40 00 6c f7 	call  22894 <printf@plt>
    74bc:	d0 05 c0 11 	ld  [ %l7 + %l1 ], %o0
    74c0:	a0 04 20 01 	inc  %l0
    74c4:	c2 06 20 04 	ld  [ %i0 + 4 ], %g1
    74c8:	80 a0 40 10 	cmp  %g1, %l0
    74cc:	38 bf ff f9 	bgu,a   74b0 <nis_print_group+0x94>
    74d0:	c2 06 20 08 	ld  [ %i0 + 8 ], %g1
    74d4:	30 80 00 06 	b,a   74ec <nis_print_group+0xd0>
    74d8:	82 10 61 90 	or  %g1, 0x190, %g1
    74dc:	40 00 6c ee 	call  22894 <printf@plt>
    74e0:	d0 05 c0 01 	ld  [ %l7 + %g1 ], %o0
    74e4:	10 bf ff e5 	b  7478 <nis_print_group+0x5c>
    74e8:	03 00 00 00 	sethi  %hi(0), %g1
    74ec:	81 c7 e0 08 	ret 
    74f0:	81 e8 00 00 	restore 

000074f4 <nis_print_table>:
nis_print_table():
    74f4:	9d e3 bf 90 	save  %sp, -112, %sp
    74f8:	03 00 00 00 	sethi  %hi(0), %g1
    74fc:	2f 00 00 6a 	sethi  %hi(0x1a800), %l7
    7500:	7f ff fd e8 	call  6ca0 <nis_write_obj+0x8c>
    7504:	ae 05 e3 00 	add  %l7, 0x300, %l7	! 1ab00 <__FRAME_END__+0x9ad8>
    7508:	82 10 63 90 	or  %g1, 0x390, %g1
    750c:	05 00 00 00 	sethi  %hi(0), %g2
    7510:	84 10 a1 9c 	or  %g2, 0x19c, %g2	! 19c <GLIBC_2.0+0x19c>
    7514:	e0 05 c0 01 	ld  [ %l7 + %g1 ], %l0
    7518:	d2 05 c0 02 	ld  [ %l7 + %g2 ], %o1
    751c:	94 10 20 05 	mov  5, %o2
    7520:	40 00 6c a4 	call  227b0 <__dcgettext@plt>
    7524:	90 10 00 10 	mov  %l0, %o0
    7528:	40 00 6c db 	call  22894 <printf@plt>
    752c:	d2 06 00 00 	ld  [ %i0 ], %o1
    7530:	03 00 00 00 	sethi  %hi(0), %g1
    7534:	82 10 61 a0 	or  %g1, 0x1a0, %g1	! 1a0 <GLIBC_2.0+0x1a0>
    7538:	d2 05 c0 01 	ld  [ %l7 + %g1 ], %o1
    753c:	94 10 20 05 	mov  5, %o2
    7540:	40 00 6c 9c 	call  227b0 <__dcgettext@plt>
    7544:	90 10 00 10 	mov  %l0, %o0
    7548:	40 00 6c d3 	call  22894 <printf@plt>
    754c:	d2 06 20 04 	ld  [ %i0 + 4 ], %o1
    7550:	03 00 00 00 	sethi  %hi(0), %g1
    7554:	82 10 61 a4 	or  %g1, 0x1a4, %g1	! 1a4 <GLIBC_2.0+0x1a4>
    7558:	d2 05 c0 01 	ld  [ %l7 + %g1 ], %o1
    755c:	94 10 20 05 	mov  5, %o2
    7560:	40 00 6c 94 	call  227b0 <__dcgettext@plt>
    7564:	90 10 00 10 	mov  %l0, %o0
    7568:	40 00 6c cb 	call  22894 <printf@plt>
    756c:	d2 0e 20 08 	ldub  [ %i0 + 8 ], %o1
    7570:	03 00 00 00 	sethi  %hi(0), %g1
    7574:	82 10 61 a8 	or  %g1, 0x1a8, %g1	! 1a8 <GLIBC_2.0+0x1a8>
    7578:	d2 05 c0 01 	ld  [ %l7 + %g1 ], %o1
    757c:	94 10 20 05 	mov  5, %o2
    7580:	40 00 6c 8c 	call  227b0 <__dcgettext@plt>
    7584:	90 10 00 10 	mov  %l0, %o0
    7588:	40 00 6c c3 	call  22894 <printf@plt>
    758c:	d2 06 20 14 	ld  [ %i0 + 0x14 ], %o1
    7590:	03 00 00 00 	sethi  %hi(0), %g1
    7594:	82 10 61 ac 	or  %g1, 0x1ac, %g1	! 1ac <GLIBC_2.0+0x1ac>
    7598:	d2 05 c0 01 	ld  [ %l7 + %g1 ], %o1
    759c:	94 10 20 05 	mov  5, %o2
    75a0:	40 00 6c 84 	call  227b0 <__dcgettext@plt>
    75a4:	90 10 00 10 	mov  %l0, %o0
    75a8:	03 00 00 00 	sethi  %hi(0), %g1
    75ac:	82 10 63 ac 	or  %g1, 0x3ac, %g1	! 3ac <GLIBC_2.0+0x3ac>
    75b0:	e2 05 c0 01 	ld  [ %l7 + %g1 ], %l1
    75b4:	40 00 6c 28 	call  22654 <fputs@plt>
    75b8:	d2 04 40 00 	ld  [ %l1 ], %o1
    75bc:	c2 06 20 0c 	ld  [ %i0 + 0xc ], %g1
    75c0:	80 a0 60 00 	cmp  %g1, 0
    75c4:	39 00 00 00 	sethi  %hi(0), %i4
    75c8:	08 80 00 86 	bleu  77e0 <nis_print_table+0x2ec>
    75cc:	a8 10 20 00 	clr  %l4
    75d0:	aa 10 00 10 	mov  %l0, %l5
    75d4:	37 00 00 00 	sethi  %hi(0), %i3
    75d8:	35 00 00 00 	sethi  %hi(0), %i2
    75dc:	2d 00 00 00 	sethi  %hi(0), %l6
    75e0:	3b 00 00 00 	sethi  %hi(0), %i5
    75e4:	10 80 00 2b 	b  7690 <nis_print_table+0x19c>
    75e8:	a6 10 20 00 	clr  %l3
    75ec:	82 10 61 c0 	or  %g1, 0x1c0, %g1
    75f0:	d0 05 c0 01 	ld  [ %l7 + %g1 ], %o0
    75f4:	92 10 20 01 	mov  1, %o1
    75f8:	94 10 20 0b 	mov  0xb, %o2
    75fc:	40 00 6c 97 	call  22858 <fwrite@plt>
    7600:	d6 04 40 00 	ld  [ %l1 ], %o3
    7604:	80 8c 20 04 	btst  4, %l0
    7608:	12 80 00 6e 	bne  77c0 <nis_print_table+0x2cc>
    760c:	03 00 00 00 	sethi  %hi(0), %g1
    7610:	80 8c 20 40 	btst  0x40, %l0
    7614:	12 80 00 63 	bne  77a0 <nis_print_table+0x2ac>
    7618:	03 00 00 00 	sethi  %hi(0), %g1
    761c:	80 8c 20 02 	btst  2, %l0
    7620:	12 80 00 5b 	bne  778c <nis_print_table+0x298>
    7624:	03 00 00 00 	sethi  %hi(0), %g1
    7628:	82 15 a1 b8 	or  %l6, 0x1b8, %g1
    762c:	d6 04 40 00 	ld  [ %l1 ], %o3
    7630:	d0 05 c0 01 	ld  [ %l7 + %g1 ], %o0
    7634:	92 10 20 01 	mov  1, %o1
    7638:	40 00 6c 88 	call  22858 <fwrite@plt>
    763c:	94 10 20 02 	mov  2, %o2
    7640:	84 17 23 90 	or  %i4, 0x390, %g2
    7644:	82 17 61 bc 	or  %i5, 0x1bc, %g1
    7648:	d2 05 c0 01 	ld  [ %l7 + %g1 ], %o1
    764c:	d0 05 c0 02 	ld  [ %l7 + %g2 ], %o0
    7650:	40 00 6c 58 	call  227b0 <__dcgettext@plt>
    7654:	94 10 20 05 	mov  5, %o2
    7658:	40 00 6b ff 	call  22654 <fputs@plt>
    765c:	d2 04 40 00 	ld  [ %l1 ], %o1
    7660:	c2 06 20 10 	ld  [ %i0 + 0x10 ], %g1
    7664:	82 00 40 13 	add  %g1, %l3, %g1
    7668:	7f ff fe 18 	call  6ec8 <nis_print_rights>
    766c:	d0 00 60 08 	ld  [ %g1 + 8 ], %o0
    7670:	90 10 20 0a 	mov  0xa, %o0
    7674:	40 00 6c 13 	call  226c0 <fputc@plt>
    7678:	d2 04 40 00 	ld  [ %l1 ], %o1
    767c:	a8 05 20 01 	inc  %l4
    7680:	c2 06 20 0c 	ld  [ %i0 + 0xc ], %g1
    7684:	80 a0 40 14 	cmp  %g1, %l4
    7688:	08 80 00 56 	bleu  77e0 <nis_print_table+0x2ec>
    768c:	a6 04 e0 0c 	add  %l3, 0xc, %l3
    7690:	82 16 e1 b0 	or  %i3, 0x1b0, %g1
    7694:	d2 05 c0 01 	ld  [ %l7 + %g1 ], %o1
    7698:	94 10 20 05 	mov  5, %o2
    769c:	40 00 6c 45 	call  227b0 <__dcgettext@plt>
    76a0:	90 10 00 15 	mov  %l5, %o0
    76a4:	c2 06 20 10 	ld  [ %i0 + 0x10 ], %g1
    76a8:	d4 00 40 13 	ld  [ %g1 + %l3 ], %o2
    76ac:	40 00 6c 7a 	call  22894 <printf@plt>
    76b0:	92 10 00 14 	mov  %l4, %o1
    76b4:	82 16 a1 b4 	or  %i2, 0x1b4, %g1
    76b8:	d2 05 c0 01 	ld  [ %l7 + %g1 ], %o1
    76bc:	94 10 20 05 	mov  5, %o2
    76c0:	40 00 6c 3c 	call  227b0 <__dcgettext@plt>
    76c4:	90 10 00 15 	mov  %l5, %o0
    76c8:	40 00 6b e3 	call  22654 <fputs@plt>
    76cc:	d2 04 40 00 	ld  [ %l1 ], %o1
    76d0:	c2 06 20 10 	ld  [ %i0 + 0x10 ], %g1
    76d4:	82 00 40 13 	add  %g1, %l3, %g1
    76d8:	e0 00 60 04 	ld  [ %g1 + 4 ], %l0
    76dc:	90 10 20 28 	mov  0x28, %o0
    76e0:	40 00 6b f8 	call  226c0 <fputc@plt>
    76e4:	d2 04 40 00 	ld  [ %l1 ], %o1
    76e8:	a4 8c 20 08 	andcc  %l0, 8, %l2
    76ec:	12 80 00 20 	bne  776c <nis_print_table+0x278>
    76f0:	03 00 00 00 	sethi  %hi(0), %g1
    76f4:	80 8c 20 01 	btst  1, %l0
    76f8:	12 bf ff bd 	bne  75ec <nis_print_table+0xf8>
    76fc:	03 00 00 00 	sethi  %hi(0), %g1
    7700:	03 00 00 00 	sethi  %hi(0), %g1
    7704:	82 10 61 d4 	or  %g1, 0x1d4, %g1	! 1d4 <GLIBC_2.0+0x1d4>
    7708:	d0 05 c0 01 	ld  [ %l7 + %g1 ], %o0
    770c:	92 10 20 01 	mov  1, %o1
    7710:	94 10 20 0c 	mov  0xc, %o2
    7714:	40 00 6c 51 	call  22858 <fwrite@plt>
    7718:	d6 04 40 00 	ld  [ %l1 ], %o3
    771c:	80 a4 a0 00 	cmp  %l2, 0
    7720:	02 bf ff c3 	be  762c <nis_print_table+0x138>
    7724:	82 15 a1 b8 	or  %l6, 0x1b8, %g1
    7728:	80 8c 20 10 	btst  0x10, %l0
    772c:	22 80 00 0b 	be,a   7758 <nis_print_table+0x264>
    7730:	03 00 00 00 	sethi  %hi(0), %g1
    7734:	03 00 00 00 	sethi  %hi(0), %g1
    7738:	82 10 61 dc 	or  %g1, 0x1dc, %g1	! 1dc <GLIBC_2.0+0x1dc>
    773c:	d0 05 c0 01 	ld  [ %l7 + %g1 ], %o0
    7740:	92 10 20 01 	mov  1, %o1
    7744:	94 10 20 12 	mov  0x12, %o2
    7748:	40 00 6c 44 	call  22858 <fwrite@plt>
    774c:	d6 04 40 00 	ld  [ %l1 ], %o3
    7750:	10 bf ff b7 	b  762c <nis_print_table+0x138>
    7754:	82 15 a1 b8 	or  %l6, 0x1b8, %g1
    7758:	82 10 61 d8 	or  %g1, 0x1d8, %g1
    775c:	d0 05 c0 01 	ld  [ %l7 + %g1 ], %o0
    7760:	92 10 20 01 	mov  1, %o1
    7764:	10 bf ff f9 	b  7748 <nis_print_table+0x254>
    7768:	94 10 20 10 	mov  0x10, %o2
    776c:	82 10 61 d0 	or  %g1, 0x1d0, %g1
    7770:	d0 05 c0 01 	ld  [ %l7 + %g1 ], %o0
    7774:	92 10 20 01 	mov  1, %o1
    7778:	94 10 20 0c 	mov  0xc, %o2
    777c:	40 00 6c 37 	call  22858 <fwrite@plt>
    7780:	d6 04 40 00 	ld  [ %l1 ], %o3
    7784:	10 bf ff dd 	b  76f8 <nis_print_table+0x204>
    7788:	80 8c 20 01 	btst  1, %l0
    778c:	82 10 61 cc 	or  %g1, 0x1cc, %g1
    7790:	d0 05 c0 01 	ld  [ %l7 + %g1 ], %o0
    7794:	92 10 20 01 	mov  1, %o1
    7798:	10 bf ff ec 	b  7748 <nis_print_table+0x254>
    779c:	94 10 20 0b 	mov  0xb, %o2
    77a0:	82 10 61 c8 	or  %g1, 0x1c8, %g1
    77a4:	d0 05 c0 01 	ld  [ %l7 + %g1 ], %o0
    77a8:	92 10 20 01 	mov  1, %o1
    77ac:	94 10 20 0f 	mov  0xf, %o2
    77b0:	40 00 6c 2a 	call  22858 <fwrite@plt>
    77b4:	d6 04 40 00 	ld  [ %l1 ], %o3
    77b8:	10 bf ff 9a 	b  7620 <nis_print_table+0x12c>
    77bc:	80 8c 20 02 	btst  2, %l0
    77c0:	82 10 61 c4 	or  %g1, 0x1c4, %g1
    77c4:	d0 05 c0 01 	ld  [ %l7 + %g1 ], %o0
    77c8:	92 10 20 01 	mov  1, %o1
    77cc:	94 10 20 0d 	mov  0xd, %o2
    77d0:	40 00 6c 22 	call  22858 <fwrite@plt>
    77d4:	d6 04 40 00 	ld  [ %l1 ], %o3
    77d8:	10 bf ff 8f 	b  7614 <nis_print_table+0x120>
    77dc:	80 8c 20 40 	btst  0x40, %l0
    77e0:	81 c7 e0 08 	ret 
    77e4:	81 e8 00 00 	restore 

000077e8 <nis_print_link>:
nis_print_link():
    77e8:	9d e3 bf 90 	save  %sp, -112, %sp
    77ec:	03 00 00 00 	sethi  %hi(0), %g1
    77f0:	2f 00 00 6a 	sethi  %hi(0x1a800), %l7
    77f4:	7f ff fd 2b 	call  6ca0 <nis_write_obj+0x8c>
    77f8:	ae 05 e0 0c 	add  %l7, 0xc, %l7	! 1a80c <__FRAME_END__+0x97e4>
    77fc:	82 10 63 90 	or  %g1, 0x390, %g1
    7800:	05 00 00 00 	sethi  %hi(0), %g2
    7804:	e2 05 c0 01 	ld  [ %l7 + %g1 ], %l1
    7808:	84 10 a1 e0 	or  %g2, 0x1e0, %g2
    780c:	94 10 20 05 	mov  5, %o2
    7810:	d2 05 c0 02 	ld  [ %l7 + %g2 ], %o1
    7814:	40 00 6b e7 	call  227b0 <__dcgettext@plt>
    7818:	90 10 00 11 	mov  %l1, %o0
    781c:	03 00 00 00 	sethi  %hi(0), %g1
    7820:	82 10 63 ac 	or  %g1, 0x3ac, %g1	! 3ac <GLIBC_2.0+0x3ac>
    7824:	c4 05 c0 01 	ld  [ %l7 + %g1 ], %g2
    7828:	40 00 6b 8b 	call  22654 <fputs@plt>
    782c:	d2 00 80 00 	ld  [ %g2 ], %o1
    7830:	7f ff fd 63 	call  6dbc <nis_print_objtype>
    7834:	d0 06 00 00 	ld  [ %i0 ], %o0
    7838:	03 00 00 00 	sethi  %hi(0), %g1
    783c:	82 10 61 e4 	or  %g1, 0x1e4, %g1	! 1e4 <GLIBC_2.0+0x1e4>
    7840:	90 10 00 11 	mov  %l1, %o0
    7844:	d2 05 c0 01 	ld  [ %l7 + %g1 ], %o1
    7848:	94 10 20 05 	mov  5, %o2
    784c:	40 00 6b d9 	call  227b0 <__dcgettext@plt>
    7850:	a0 10 00 18 	mov  %i0, %l0
    7854:	f2 04 20 0c 	ld  [ %l0 + 0xc ], %i1
    7858:	10 80 6c 0f 	b  22894 <printf@plt>
    785c:	91 e8 00 08 	restore  %g0, %o0, %o0
    7860:	01 00 00 00 	nop 

00007864 <nis_print_entry>:
nis_print_entry():
    7864:	9d e3 bf 90 	save  %sp, -112, %sp
    7868:	05 00 00 00 	sethi  %hi(0), %g2
    786c:	2f 00 00 69 	sethi  %hi(0x1a400), %l7
    7870:	7f ff fd 0c 	call  6ca0 <nis_write_obj+0x8c>
    7874:	ae 05 e3 90 	add  %l7, 0x390, %l7	! 1a790 <__FRAME_END__+0x9768>
    7878:	84 10 a3 90 	or  %g2, 0x390, %g2
    787c:	03 00 00 00 	sethi  %hi(0), %g1
    7880:	82 10 61 e8 	or  %g1, 0x1e8, %g1	! 1e8 <GLIBC_2.0+0x1e8>
    7884:	e0 05 c0 02 	ld  [ %l7 + %g2 ], %l0
    7888:	d2 05 c0 01 	ld  [ %l7 + %g1 ], %o1
    788c:	94 10 20 05 	mov  5, %o2
    7890:	40 00 6b c8 	call  227b0 <__dcgettext@plt>
    7894:	90 10 00 10 	mov  %l0, %o0
    7898:	40 00 6b ff 	call  22894 <printf@plt>
    789c:	d2 06 00 00 	ld  [ %i0 ], %o1
    78a0:	c2 06 20 04 	ld  [ %i0 + 4 ], %g1
    78a4:	80 a0 60 00 	cmp  %g1, 0
    78a8:	08 80 00 43 	bleu  79b4 <nis_print_entry+0x150>
    78ac:	a2 10 20 00 	clr  %l1
    78b0:	03 00 00 00 	sethi  %hi(0), %g1
    78b4:	82 10 63 ac 	or  %g1, 0x3ac, %g1	! 3ac <GLIBC_2.0+0x3ac>
    78b8:	27 00 00 00 	sethi  %hi(0), %l3
    78bc:	2b 00 00 00 	sethi  %hi(0), %l5
    78c0:	39 00 00 00 	sethi  %hi(0), %i4
    78c4:	3b 00 00 00 	sethi  %hi(0), %i5
    78c8:	2d 00 00 00 	sethi  %hi(0), %l6
    78cc:	a4 10 00 10 	mov  %l0, %l2
    78d0:	a6 14 e1 ec 	or  %l3, 0x1ec, %l3
    78d4:	e8 05 c0 01 	ld  [ %l7 + %g1 ], %l4
    78d8:	aa 15 61 f0 	or  %l5, 0x1f0, %l5
    78dc:	b8 17 21 f4 	or  %i4, 0x1f4, %i4
    78e0:	ba 17 61 f8 	or  %i5, 0x1f8, %i5
    78e4:	ac 15 a1 fc 	or  %l6, 0x1fc, %l6
    78e8:	10 80 00 12 	b  7930 <nis_print_entry+0xcc>
    78ec:	a0 10 20 00 	clr  %l0
    78f0:	80 88 a0 01 	btst  1, %g2
    78f4:	12 80 00 2e 	bne  79ac <nis_print_entry+0x148>
    78f8:	86 00 40 10 	add  %g1, %l0, %g3
    78fc:	c2 00 e0 04 	ld  [ %g3 + 4 ], %g1
    7900:	92 10 20 01 	mov  1, %o1
    7904:	80 a0 60 00 	cmp  %g1, 0
    7908:	12 80 00 23 	bne  7994 <nis_print_entry+0x130>
    790c:	94 10 20 08 	mov  8, %o2
    7910:	d0 05 c0 1d 	ld  [ %l7 + %i5 ], %o0
    7914:	40 00 6b d1 	call  22858 <fwrite@plt>
    7918:	d6 05 00 00 	ld  [ %l4 ], %o3
    791c:	a2 04 60 01 	inc  %l1
    7920:	c2 06 20 04 	ld  [ %i0 + 4 ], %g1
    7924:	80 a0 40 11 	cmp  %g1, %l1
    7928:	08 80 00 23 	bleu  79b4 <nis_print_entry+0x150>
    792c:	a0 04 20 0c 	add  %l0, 0xc, %l0
    7930:	d2 05 c0 13 	ld  [ %l7 + %l3 ], %o1
    7934:	94 10 20 05 	mov  5, %o2
    7938:	40 00 6b 9e 	call  227b0 <__dcgettext@plt>
    793c:	90 10 00 12 	mov  %l2, %o0
    7940:	c2 06 20 08 	ld  [ %i0 + 8 ], %g1
    7944:	82 00 40 10 	add  %g1, %l0, %g1
    7948:	d4 00 60 04 	ld  [ %g1 + 4 ], %o2
    794c:	40 00 6b d2 	call  22894 <printf@plt>
    7950:	92 10 00 11 	mov  %l1, %o1
    7954:	c2 06 20 08 	ld  [ %i0 + 8 ], %g1
    7958:	c4 00 40 10 	ld  [ %g1 + %l0 ], %g2
    795c:	90 10 00 12 	mov  %l2, %o0
    7960:	80 88 a0 02 	btst  2, %g2
    7964:	02 bf ff e3 	be  78f0 <nis_print_entry+0x8c>
    7968:	94 10 20 05 	mov  5, %o2
    796c:	d2 05 c0 15 	ld  [ %l7 + %l5 ], %o1
    7970:	40 00 6b 90 	call  227b0 <__dcgettext@plt>
    7974:	a2 04 60 01 	inc  %l1
    7978:	40 00 6b 37 	call  22654 <fputs@plt>
    797c:	d2 05 00 00 	ld  [ %l4 ], %o1
    7980:	c2 06 20 04 	ld  [ %i0 + 4 ], %g1
    7984:	80 a0 40 11 	cmp  %g1, %l1
    7988:	18 bf ff ea 	bgu  7930 <nis_print_entry+0xcc>
    798c:	a0 04 20 0c 	add  %l0, 0xc, %l0
    7990:	30 80 00 09 	b,a   79b4 <nis_print_entry+0x150>
    7994:	92 10 00 01 	mov  %g1, %o1
    7998:	d4 00 e0 08 	ld  [ %g3 + 8 ], %o2
    799c:	40 00 6b be 	call  22894 <printf@plt>
    79a0:	d0 05 c0 16 	ld  [ %l7 + %l6 ], %o0
    79a4:	10 bf ff df 	b  7920 <nis_print_entry+0xbc>
    79a8:	a2 04 60 01 	inc  %l1
    79ac:	10 bf ff f1 	b  7970 <nis_print_entry+0x10c>
    79b0:	d2 05 c0 1c 	ld  [ %l7 + %i4 ], %o1
    79b4:	81 c7 e0 08 	ret 
    79b8:	81 e8 00 00 	restore 

000079bc <nis_print_object>:
nis_print_object():
    79bc:	9d e3 bf 88 	save  %sp, -120, %sp
    79c0:	03 00 00 00 	sethi  %hi(0), %g1
    79c4:	2f 00 00 69 	sethi  %hi(0x1a400), %l7
    79c8:	7f ff fc b6 	call  6ca0 <nis_write_obj+0x8c>
    79cc:	ae 05 e2 38 	add  %l7, 0x238, %l7	! 1a638 <__FRAME_END__+0x9610>
    79d0:	82 10 63 90 	or  %g1, 0x390, %g1
    79d4:	05 00 00 00 	sethi  %hi(0), %g2
    79d8:	84 10 a2 00 	or  %g2, 0x200, %g2	! 200 <GLIBC_2.0+0x200>
    79dc:	e2 05 c0 01 	ld  [ %l7 + %g1 ], %l1
    79e0:	d2 05 c0 02 	ld  [ %l7 + %g2 ], %o1
    79e4:	94 10 20 05 	mov  5, %o2
    79e8:	40 00 6b 72 	call  227b0 <__dcgettext@plt>
    79ec:	90 10 00 11 	mov  %l1, %o0
    79f0:	40 00 6b a9 	call  22894 <printf@plt>
    79f4:	d2 06 20 08 	ld  [ %i0 + 8 ], %o1
    79f8:	03 00 00 00 	sethi  %hi(0), %g1
    79fc:	82 10 62 04 	or  %g1, 0x204, %g1	! 204 <GLIBC_2.0+0x204>
    7a00:	d2 05 c0 01 	ld  [ %l7 + %g1 ], %o1
    7a04:	94 10 20 05 	mov  5, %o2
    7a08:	40 00 6b 6a 	call  227b0 <__dcgettext@plt>
    7a0c:	90 10 00 11 	mov  %l1, %o0
    7a10:	40 00 6b a1 	call  22894 <printf@plt>
    7a14:	d2 06 20 14 	ld  [ %i0 + 0x14 ], %o1
    7a18:	03 00 00 00 	sethi  %hi(0), %g1
    7a1c:	82 10 62 08 	or  %g1, 0x208, %g1	! 208 <GLIBC_2.0+0x208>
    7a20:	d2 05 c0 01 	ld  [ %l7 + %g1 ], %o1
    7a24:	94 10 20 05 	mov  5, %o2
    7a28:	40 00 6b 62 	call  227b0 <__dcgettext@plt>
    7a2c:	90 10 00 11 	mov  %l1, %o0
    7a30:	40 00 6b 99 	call  22894 <printf@plt>
    7a34:	d2 06 20 0c 	ld  [ %i0 + 0xc ], %o1
    7a38:	03 00 00 00 	sethi  %hi(0), %g1
    7a3c:	82 10 62 0c 	or  %g1, 0x20c, %g1	! 20c <GLIBC_2.0+0x20c>
    7a40:	d2 05 c0 01 	ld  [ %l7 + %g1 ], %o1
    7a44:	94 10 20 05 	mov  5, %o2
    7a48:	40 00 6b 5a 	call  227b0 <__dcgettext@plt>
    7a4c:	90 10 00 11 	mov  %l1, %o0
    7a50:	40 00 6b 91 	call  22894 <printf@plt>
    7a54:	d2 06 20 10 	ld  [ %i0 + 0x10 ], %o1
    7a58:	03 00 00 00 	sethi  %hi(0), %g1
    7a5c:	82 10 62 10 	or  %g1, 0x210, %g1	! 210 <GLIBC_2.0+0x210>
    7a60:	94 10 20 05 	mov  5, %o2
    7a64:	d2 05 c0 01 	ld  [ %l7 + %g1 ], %o1
    7a68:	40 00 6b 52 	call  227b0 <__dcgettext@plt>
    7a6c:	90 10 00 11 	mov  %l1, %o0
    7a70:	03 00 00 00 	sethi  %hi(0), %g1
    7a74:	82 10 63 ac 	or  %g1, 0x3ac, %g1	! 3ac <GLIBC_2.0+0x3ac>
    7a78:	e4 05 c0 01 	ld  [ %l7 + %g1 ], %l2
    7a7c:	40 00 6a f6 	call  22654 <fputs@plt>
    7a80:	d2 04 80 00 	ld  [ %l2 ], %o1
    7a84:	7f ff fd 11 	call  6ec8 <nis_print_rights>
    7a88:	d0 06 20 18 	ld  [ %i0 + 0x18 ], %o0
    7a8c:	03 00 00 00 	sethi  %hi(0), %g1
    7a90:	82 10 62 14 	or  %g1, 0x214, %g1	! 214 <GLIBC_2.0+0x214>
    7a94:	d2 05 c0 01 	ld  [ %l7 + %g1 ], %o1
    7a98:	94 10 20 05 	mov  5, %o2
    7a9c:	40 00 6b 45 	call  227b0 <__dcgettext@plt>
    7aa0:	90 10 00 11 	mov  %l1, %o0
    7aa4:	40 00 6b 7c 	call  22894 <printf@plt>
    7aa8:	01 00 00 00 	nop 
    7aac:	7f ff fc aa 	call  6d54 <print_ttl>
    7ab0:	d0 06 20 1c 	ld  [ %i0 + 0x1c ], %o0
    7ab4:	03 00 00 00 	sethi  %hi(0), %g1
    7ab8:	82 10 62 18 	or  %g1, 0x218, %g1	! 218 <GLIBC_2.0+0x218>
    7abc:	c4 06 00 00 	ld  [ %i0 ], %g2
    7ac0:	d2 05 c0 01 	ld  [ %l7 + %g1 ], %o1
    7ac4:	c4 27 bf ec 	st  %g2, [ %fp + -20 ]
    7ac8:	94 10 20 05 	mov  5, %o2
    7acc:	40 00 6b 39 	call  227b0 <__dcgettext@plt>
    7ad0:	90 10 00 11 	mov  %l1, %o0
    7ad4:	a0 10 00 08 	mov  %o0, %l0
    7ad8:	40 00 6b 27 	call  22774 <ctime@plt>
    7adc:	90 07 bf ec 	add  %fp, -20, %o0
    7ae0:	92 10 00 08 	mov  %o0, %o1
    7ae4:	40 00 6b 6c 	call  22894 <printf@plt>
    7ae8:	90 10 00 10 	mov  %l0, %o0
    7aec:	03 00 00 00 	sethi  %hi(0), %g1
    7af0:	c4 06 20 04 	ld  [ %i0 + 4 ], %g2
    7af4:	82 10 62 1c 	or  %g1, 0x21c, %g1
    7af8:	c4 27 bf ec 	st  %g2, [ %fp + -20 ]
    7afc:	d2 05 c0 01 	ld  [ %l7 + %g1 ], %o1
    7b00:	94 10 20 05 	mov  5, %o2
    7b04:	40 00 6b 2b 	call  227b0 <__dcgettext@plt>
    7b08:	90 10 00 11 	mov  %l1, %o0
    7b0c:	a0 10 00 08 	mov  %o0, %l0
    7b10:	40 00 6b 19 	call  22774 <ctime@plt>
    7b14:	90 07 bf ec 	add  %fp, -20, %o0
    7b18:	92 10 00 08 	mov  %o0, %o1
    7b1c:	40 00 6b 5e 	call  22894 <printf@plt>
    7b20:	90 10 00 10 	mov  %l0, %o0
    7b24:	03 00 00 00 	sethi  %hi(0), %g1
    7b28:	82 10 62 20 	or  %g1, 0x220, %g1	! 220 <GLIBC_2.0+0x220>
    7b2c:	d2 05 c0 01 	ld  [ %l7 + %g1 ], %o1
    7b30:	94 10 20 05 	mov  5, %o2
    7b34:	40 00 6b 1f 	call  227b0 <__dcgettext@plt>
    7b38:	90 10 00 11 	mov  %l1, %o0
    7b3c:	40 00 6a c6 	call  22654 <fputs@plt>
    7b40:	d2 04 80 00 	ld  [ %l2 ], %o1
    7b44:	7f ff fc 9e 	call  6dbc <nis_print_objtype>
    7b48:	d0 06 20 20 	ld  [ %i0 + 0x20 ], %o0
    7b4c:	c4 06 20 20 	ld  [ %i0 + 0x20 ], %g2
    7b50:	80 a0 a0 07 	cmp  %g2, 7
    7b54:	18 80 00 21 	bgu  7bd8 <nis_print_object+0x21c>
    7b58:	03 00 00 6c 	sethi  %hi(0x1b000), %g1
    7b5c:	82 10 63 80 	or  %g1, 0x380, %g1	! 1b380 <__FRAME_END__+0xa358>
    7b60:	86 25 c0 01 	sub  %l7, %g1, %g3
    7b64:	85 28 a0 02 	sll  %g2, 2, %g2
    7b68:	c2 00 c0 02 	ld  [ %g3 + %g2 ], %g1
    7b6c:	81 c0 40 03 	jmp  %g1 + %g3
    7b70:	01 00 00 00 	nop 
    7b74:	05 00 00 00 	sethi  %hi(0), %g2
    7b78:	03 00 00 00 	sethi  %hi(0), %g1
    7b7c:	84 10 a2 24 	or  %g2, 0x224, %g2
    7b80:	82 10 63 90 	or  %g1, 0x390, %g1
    7b84:	d2 05 c0 02 	ld  [ %l7 + %g2 ], %o1
    7b88:	d0 05 c0 01 	ld  [ %l7 + %g1 ], %o0
    7b8c:	40 00 6b 09 	call  227b0 <__dcgettext@plt>
    7b90:	94 10 20 05 	mov  5, %o2
    7b94:	40 00 6b 40 	call  22894 <printf@plt>
    7b98:	d2 06 20 24 	ld  [ %i0 + 0x24 ], %o1
    7b9c:	30 80 00 0f 	b,a   7bd8 <nis_print_object+0x21c>
    7ba0:	7f ff fc f7 	call  6f7c <nis_print_directory>
    7ba4:	90 06 20 24 	add  %i0, 0x24, %o0
    7ba8:	30 80 00 0c 	b,a   7bd8 <nis_print_object+0x21c>
    7bac:	7f ff fe 1c 	call  741c <nis_print_group>
    7bb0:	90 06 20 24 	add  %i0, 0x24, %o0
    7bb4:	30 80 00 09 	b,a   7bd8 <nis_print_object+0x21c>
    7bb8:	7f ff fe 4f 	call  74f4 <nis_print_table>
    7bbc:	90 06 20 24 	add  %i0, 0x24, %o0
    7bc0:	30 80 00 06 	b,a   7bd8 <nis_print_object+0x21c>
    7bc4:	7f ff ff 28 	call  7864 <nis_print_entry>
    7bc8:	90 06 20 24 	add  %i0, 0x24, %o0
    7bcc:	30 80 00 03 	b,a   7bd8 <nis_print_object+0x21c>
    7bd0:	7f ff ff 06 	call  77e8 <nis_print_link>
    7bd4:	90 06 20 24 	add  %i0, 0x24, %o0
    7bd8:	01 00 00 00 	nop 
    7bdc:	81 c7 e0 08 	ret 
    7be0:	81 e8 00 00 	restore 

00007be4 <nis_print_result>:
nis_print_result():
    7be4:	9d e3 bf 90 	save  %sp, -112, %sp
    7be8:	25 00 00 00 	sethi  %hi(0), %l2
    7bec:	2f 00 00 69 	sethi  %hi(0x1a400), %l7
    7bf0:	7f ff fc 2c 	call  6ca0 <nis_write_obj+0x8c>
    7bf4:	ae 05 e0 10 	add  %l7, 0x10, %l7	! 1a410 <__FRAME_END__+0x93e8>
    7bf8:	a4 14 a3 90 	or  %l2, 0x390, %l2
    7bfc:	03 00 00 00 	sethi  %hi(0), %g1
    7c00:	82 10 62 28 	or  %g1, 0x228, %g1	! 228 <GLIBC_2.0+0x228>
    7c04:	e2 05 c0 12 	ld  [ %l7 + %l2 ], %l1
    7c08:	d2 05 c0 01 	ld  [ %l7 + %g1 ], %o1
    7c0c:	94 10 20 05 	mov  5, %o2
    7c10:	40 00 6a e8 	call  227b0 <__dcgettext@plt>
    7c14:	90 10 00 11 	mov  %l1, %o0
    7c18:	a0 10 00 08 	mov  %o0, %l0
    7c1c:	40 00 00 26 	call  7cb4 <nis_sperrno>
    7c20:	d0 06 00 00 	ld  [ %i0 ], %o0
    7c24:	92 10 00 08 	mov  %o0, %o1
    7c28:	40 00 6b 1b 	call  22894 <printf@plt>
    7c2c:	90 10 00 10 	mov  %l0, %o0
    7c30:	03 00 00 00 	sethi  %hi(0), %g1
    7c34:	82 10 62 2c 	or  %g1, 0x22c, %g1	! 22c <GLIBC_2.0+0x22c>
    7c38:	d2 05 c0 01 	ld  [ %l7 + %g1 ], %o1
    7c3c:	94 10 20 05 	mov  5, %o2
    7c40:	40 00 6a dc 	call  227b0 <__dcgettext@plt>
    7c44:	90 10 00 11 	mov  %l1, %o0
    7c48:	40 00 6b 13 	call  22894 <printf@plt>
    7c4c:	d2 06 20 04 	ld  [ %i0 + 4 ], %o1
    7c50:	c2 06 20 04 	ld  [ %i0 + 4 ], %g1
    7c54:	80 a0 60 00 	cmp  %g1, 0
    7c58:	08 80 00 13 	bleu  7ca4 <nis_print_result+0xc0>
    7c5c:	a0 10 20 00 	clr  %l0
    7c60:	23 00 00 00 	sethi  %hi(0), %l1
    7c64:	a2 14 62 30 	or  %l1, 0x230, %l1	! 230 <GLIBC_2.0+0x230>
    7c68:	94 10 20 05 	mov  5, %o2
    7c6c:	d2 05 c0 11 	ld  [ %l7 + %l1 ], %o1
    7c70:	40 00 6a d0 	call  227b0 <__dcgettext@plt>
    7c74:	d0 05 c0 12 	ld  [ %l7 + %l2 ], %o0
    7c78:	40 00 6b 07 	call  22894 <printf@plt>
    7c7c:	92 10 00 10 	mov  %l0, %o1
    7c80:	83 2c 20 06 	sll  %l0, 6, %g1
    7c84:	d0 06 20 08 	ld  [ %i0 + 8 ], %o0
    7c88:	7f ff ff 4d 	call  79bc <nis_print_object>
    7c8c:	90 02 00 01 	add  %o0, %g1, %o0
    7c90:	a0 04 20 01 	inc  %l0
    7c94:	c2 06 20 04 	ld  [ %i0 + 4 ], %g1
    7c98:	80 a0 40 10 	cmp  %g1, %l0
    7c9c:	18 bf ff f4 	bgu  7c6c <nis_print_result+0x88>
    7ca0:	94 10 20 05 	mov  5, %o2
    7ca4:	81 c7 e0 08 	ret 
    7ca8:	81 e8 00 00 	restore 
    7cac:	81 c3 e0 08 	retl 
    7cb0:	ae 03 c0 17 	add  %o7, %l7, %l7

00007cb4 <nis_sperrno>:
nis_sperrno():
    7cb4:	9d e3 bf 90 	save  %sp, -112, %sp
    7cb8:	82 10 00 18 	mov  %i0, %g1
    7cbc:	07 00 00 00 	sethi  %hi(0), %g3
    7cc0:	09 00 00 00 	sethi  %hi(0), %g4
    7cc4:	b2 06 00 18 	add  %i0, %i0, %i1
    7cc8:	05 00 00 00 	sethi  %hi(0), %g2
    7ccc:	2f 00 00 68 	sethi  %hi(0x1a000), %l7
    7cd0:	7f ff ff f7 	call  7cac <nis_print_result+0xc8>
    7cd4:	ae 05 e3 30 	add  %l7, 0x330, %l7	! 1a330 <__FRAME_END__+0x9308>
    7cd8:	86 10 e2 38 	or  %g3, 0x238, %g3
    7cdc:	88 11 22 34 	or  %g4, 0x234, %g4
    7ce0:	b0 10 20 00 	clr  %i0
    7ce4:	b4 10 20 05 	mov  5, %i2
    7ce8:	80 a0 60 2f 	cmp  %g1, 0x2f
    7cec:	18 80 00 07 	bgu  7d08 <nis_sperrno+0x54>
    7cf0:	84 10 a2 40 	or  %g2, 0x240, %g2
    7cf4:	c2 05 c0 03 	ld  [ %l7 + %g3 ], %g1
    7cf8:	c4 10 40 19 	lduh  [ %g1 + %i1 ], %g2
    7cfc:	f2 05 c0 04 	ld  [ %l7 + %g4 ], %i1
    7d00:	10 80 6a 07 	b  2251c <dcgettext@plt>
    7d04:	93 e8 80 19 	restore  %g2, %i1, %o1
    7d08:	f0 05 c0 02 	ld  [ %l7 + %g2 ], %i0
    7d0c:	81 c7 e0 08 	ret 
    7d10:	81 e8 00 00 	restore 

00007d14 <nis_perror>:
nis_perror():
    7d14:	9d e3 bf 90 	save  %sp, -112, %sp
    7d18:	03 00 00 00 	sethi  %hi(0), %g1
    7d1c:	2f 00 00 68 	sethi  %hi(0x1a000), %l7
    7d20:	7f ff ff e3 	call  7cac <nis_print_result+0xc8>
    7d24:	ae 05 e2 e0 	add  %l7, 0x2e0, %l7	! 1a2e0 <__FRAME_END__+0x92b8>
    7d28:	82 10 63 b0 	or  %g1, 0x3b0, %g1
    7d2c:	e0 05 c0 01 	ld  [ %l7 + %g1 ], %l0
    7d30:	7f ff ff e1 	call  7cb4 <nis_sperrno>
    7d34:	90 10 00 18 	mov  %i0, %o0
    7d38:	03 00 00 00 	sethi  %hi(0), %g1
    7d3c:	b4 10 00 19 	mov  %i1, %i2
    7d40:	82 10 62 44 	or  %g1, 0x244, %g1
    7d44:	f0 04 00 00 	ld  [ %l0 ], %i0
    7d48:	f2 05 c0 01 	ld  [ %l7 + %g1 ], %i1
    7d4c:	10 80 6a 69 	b  226f0 <fprintf@plt>
    7d50:	97 e8 00 08 	restore  %g0, %o0, %o3
    7d54:	01 00 00 00 	nop 

00007d58 <nis_lerror>:
nis_lerror():
    7d58:	9d e3 bf 90 	save  %sp, -112, %sp
    7d5c:	2f 00 00 68 	sethi  %hi(0x1a000), %l7
    7d60:	7f ff ff d3 	call  7cac <nis_print_result+0xc8>
    7d64:	ae 05 e2 a0 	add  %l7, 0x2a0, %l7	! 1a2a0 <__FRAME_END__+0x9278>
    7d68:	7f ff ff d3 	call  7cb4 <nis_sperrno>
    7d6c:	90 10 00 18 	mov  %i0, %o0
    7d70:	03 00 00 00 	sethi  %hi(0), %g1
    7d74:	b4 10 00 19 	mov  %i1, %i2
    7d78:	82 10 62 48 	or  %g1, 0x248, %g1
    7d7c:	f2 05 c0 01 	ld  [ %l7 + %g1 ], %i1
    7d80:	b6 10 00 08 	mov  %o0, %i3
    7d84:	10 80 69 f8 	b  22564 <syslog@plt>
    7d88:	91 e8 20 03 	restore  %g0, 3, %o0
    7d8c:	01 00 00 00 	nop 

00007d90 <nis_sperror_r>:
nis_sperror_r():
    7d90:	9d e3 bf 90 	save  %sp, -112, %sp
    7d94:	2f 00 00 68 	sethi  %hi(0x1a000), %l7
    7d98:	7f ff ff c5 	call  7cac <nis_print_result+0xc8>
    7d9c:	ae 05 e2 68 	add  %l7, 0x268, %l7	! 1a268 <__FRAME_END__+0x9240>
    7da0:	7f ff ff c5 	call  7cb4 <nis_sperrno>
    7da4:	90 10 00 18 	mov  %i0, %o0
    7da8:	03 00 00 00 	sethi  %hi(0), %g1
    7dac:	98 10 00 08 	mov  %o0, %o4
    7db0:	82 10 62 48 	or  %g1, 0x248, %g1
    7db4:	90 10 00 1a 	mov  %i2, %o0
    7db8:	92 10 00 1b 	mov  %i3, %o1
    7dbc:	96 10 00 19 	mov  %i1, %o3
    7dc0:	40 00 6a 01 	call  225c4 <snprintf@plt>
    7dc4:	d4 05 c0 01 	ld  [ %l7 + %g1 ], %o2
    7dc8:	80 a2 00 1b 	cmp  %o0, %i3
    7dcc:	0a 80 00 06 	bcs  7de4 <nis_sperror_r+0x54>
    7dd0:	b0 10 00 1a 	mov  %i2, %i0
    7dd4:	40 00 69 ea 	call  2257c <__errno_location@plt>
    7dd8:	b0 10 20 00 	clr  %i0
    7ddc:	82 10 20 22 	mov  0x22, %g1
    7de0:	c2 22 00 00 	st  %g1, [ %o0 ]
    7de4:	81 c7 e0 08 	ret 
    7de8:	81 e8 00 00 	restore 

00007dec <nis_sperror>:
nis_sperror():
    7dec:	9d e3 bf 90 	save  %sp, -112, %sp
    7df0:	03 00 00 00 	sethi  %hi(0), %g1
    7df4:	2f 00 00 68 	sethi  %hi(0x1a000), %l7
    7df8:	7f ff ff ad 	call  7cac <nis_print_result+0xc8>
    7dfc:	ae 05 e2 08 	add  %l7, 0x208, %l7	! 1a208 <__FRAME_END__+0x91e0>
    7e00:	82 10 62 3c 	or  %g1, 0x23c, %g1
    7e04:	f4 05 c0 01 	ld  [ %l7 + %g1 ], %i2
    7e08:	10 bf ff e2 	b  7d90 <nis_sperror_r>
    7e0c:	97 e8 24 01 	restore  %g0, 0x401, %o3
    7e10:	01 00 00 00 	nop 
    7e14:	00 00 06 d4 	unimp  0x6d4
    7e18:	00 00 06 f8 	unimp  0x6f8
    7e1c:	00 00 06 f8 	unimp  0x6f8
    7e20:	00 00 06 f8 	unimp  0x6f8
    7e24:	00 00 06 f8 	unimp  0x6f8
    7e28:	00 00 06 a0 	unimp  0x6a0
    7e2c:	00 00 06 f8 	unimp  0x6f8
    7e30:	00 00 06 f8 	unimp  0x6f8
    7e34:	00 00 06 f8 	unimp  0x6f8
    7e38:	00 00 06 f8 	unimp  0x6f8
    7e3c:	00 00 06 f8 	unimp  0x6f8
    7e40:	00 00 06 d4 	unimp  0x6d4
    7e44:	00 00 06 f8 	unimp  0x6f8
    7e48:	00 00 06 d4 	unimp  0x6d4
    7e4c:	00 00 06 d4 	unimp  0x6d4
    7e50:	00 00 06 f8 	unimp  0x6f8
    7e54:	00 00 06 f8 	unimp  0x6f8
    7e58:	00 00 09 f0 	unimp  0x9f0
    7e5c:	00 00 08 2c 	unimp  0x82c
    7e60:	00 00 08 fc 	unimp  0x8fc
    7e64:	00 00 08 2c 	unimp  0x82c
    7e68:	00 00 08 14 	unimp  0x814

00007e6c <inetstr2int>:
inetstr2int():
    7e6c:	9d e3 bf 90 	save  %sp, -112, %sp
    7e70:	c2 4e 00 00 	ldsb  [ %i0 ], %g1
    7e74:	80 a0 60 00 	cmp  %g1, 0
    7e78:	92 10 00 18 	mov  %i0, %o1
    7e7c:	86 10 20 00 	clr  %g3
    7e80:	84 10 20 00 	clr  %g2
    7e84:	02 80 00 0c 	be  7eb4 <inetstr2int+0x48>
    7e88:	c2 0e 00 00 	ldub  [ %i0 ], %g1
    7e8c:	83 28 60 18 	sll  %g1, 0x18, %g1
    7e90:	83 38 60 18 	sra  %g1, 0x18, %g1
    7e94:	80 a0 60 2e 	cmp  %g1, 0x2e
    7e98:	22 80 00 0a 	be,a   7ec0 <inetstr2int+0x54>
    7e9c:	86 00 e0 01 	inc  %g3
    7ea0:	84 00 a0 01 	inc  %g2
    7ea4:	c2 4a 40 02 	ldsb  [ %o1 + %g2 ], %g1
    7ea8:	80 a0 60 00 	cmp  %g1, 0
    7eac:	12 bf ff f8 	bne  7e8c <inetstr2int+0x20>
    7eb0:	c2 0a 40 02 	ldub  [ %o1 + %g2 ], %g1
    7eb4:	40 00 6a 06 	call  226cc <inet_addr@plt>
    7eb8:	90 10 00 09 	mov  %o1, %o0
    7ebc:	30 80 00 0f 	b,a   7ef8 <inetstr2int+0x8c>
    7ec0:	80 a0 e0 04 	cmp  %g3, 4
    7ec4:	32 bf ff f8 	bne,a   7ea4 <inetstr2int+0x38>
    7ec8:	84 00 a0 01 	inc  %g2
    7ecc:	82 00 a0 08 	add  %g2, 8, %g1
    7ed0:	82 08 7f f8 	and  %g1, -8, %g1
    7ed4:	a0 10 00 0e 	mov  %sp, %l0
    7ed8:	9c 23 80 01 	sub  %sp, %g1, %sp
    7edc:	90 03 a0 60 	add  %sp, 0x60, %o0
    7ee0:	94 10 00 02 	mov  %g2, %o2
    7ee4:	40 00 6a 1b 	call  22750 <memcpy@plt>
    7ee8:	c0 2a 00 02 	clrb  [ %o0 + %g2 ]
    7eec:	40 00 69 f8 	call  226cc <inet_addr@plt>
    7ef0:	01 00 00 00 	nop 
    7ef4:	9c 10 00 10 	mov  %l0, %sp
    7ef8:	81 c7 e0 08 	ret 
    7efc:	91 e8 00 08 	restore  %g0, %o0, %o0

00007f00 <__nisbind_destroy>:
__nisbind_destroy():
    7f00:	9d e3 bf 90 	save  %sp, -112, %sp
    7f04:	d0 06 00 00 	ld  [ %i0 ], %o0
    7f08:	80 a2 20 00 	cmp  %o0, 0
    7f0c:	02 80 00 14 	be  7f5c <__nisbind_destroy+0x5c>
    7f10:	01 00 00 00 	nop 
    7f14:	c2 06 20 20 	ld  [ %i0 + 0x20 ], %g1
    7f18:	80 a0 60 00 	cmp  %g1, 0
    7f1c:	32 80 00 07 	bne,a   7f38 <__nisbind_destroy+0x38>
    7f20:	d0 02 00 00 	ld  [ %o0 ], %o0
    7f24:	c2 02 20 04 	ld  [ %o0 + 4 ], %g1
    7f28:	c4 00 60 10 	ld  [ %g1 + 0x10 ], %g2
    7f2c:	9f c0 80 00 	call  %g2
    7f30:	01 00 00 00 	nop 
    7f34:	30 80 00 0a 	b,a   7f5c <__nisbind_destroy+0x5c>
    7f38:	c4 02 20 20 	ld  [ %o0 + 0x20 ], %g2
    7f3c:	c2 00 a0 10 	ld  [ %g2 + 0x10 ], %g1
    7f40:	9f c0 40 00 	call  %g1
    7f44:	01 00 00 00 	nop 
    7f48:	d0 06 00 00 	ld  [ %i0 ], %o0
    7f4c:	c2 02 20 04 	ld  [ %o0 + 4 ], %g1
    7f50:	c4 00 60 10 	ld  [ %g1 + 0x10 ], %g2
    7f54:	9f c0 80 00 	call  %g2
    7f58:	01 00 00 00 	nop 
    7f5c:	01 00 00 00 	nop 
    7f60:	81 c7 e0 08 	ret 
    7f64:	81 e8 00 00 	restore 
    7f68:	81 c3 e0 08 	retl 
    7f6c:	ae 03 c0 17 	add  %o7, %l7, %l7

00007f70 <__nisbind_next>:
__nisbind_next():
    7f70:	9d e3 bf 90 	save  %sp, -112, %sp
    7f74:	d0 06 00 00 	ld  [ %i0 ], %o0
    7f78:	2f 00 00 68 	sethi  %hi(0x1a000), %l7
    7f7c:	7f ff ff fb 	call  7f68 <__nisbind_destroy+0x68>
    7f80:	ae 05 e0 84 	add  %l7, 0x84, %l7	! 1a084 <__FRAME_END__+0x905c>
    7f84:	80 a2 20 00 	cmp  %o0, 0
    7f88:	02 80 00 0b 	be  7fb4 <__nisbind_next+0x44>
    7f8c:	ba 10 00 18 	mov  %i0, %i5
    7f90:	c2 06 20 20 	ld  [ %i0 + 0x20 ], %g1
    7f94:	80 a0 60 00 	cmp  %g1, 0
    7f98:	32 80 00 5e 	bne,a   8110 <__nisbind_next+0x1a0>
    7f9c:	d0 02 00 00 	ld  [ %o0 ], %o0
    7fa0:	c2 02 20 04 	ld  [ %o0 + 4 ], %g1
    7fa4:	c4 00 60 10 	ld  [ %g1 + 0x10 ], %g2
    7fa8:	9f c0 80 00 	call  %g2
    7fac:	01 00 00 00 	nop 
    7fb0:	c0 27 40 00 	clr  [ %i5 ]
    7fb4:	f8 07 60 14 	ld  [ %i5 + 0x14 ], %i4
    7fb8:	f6 07 60 08 	ld  [ %i5 + 8 ], %i3
    7fbc:	80 a7 00 1b 	cmp  %i4, %i3
    7fc0:	1a 80 00 62 	bcc  8148 <__nisbind_next+0x1d8>
    7fc4:	b0 10 20 28 	mov  0x28, %i0
    7fc8:	ea 07 60 0c 	ld  [ %i5 + 0xc ], %l5
    7fcc:	82 05 40 15 	add  %l5, %l5, %g1
    7fd0:	88 00 40 15 	add  %g1, %l5, %g4
    7fd4:	e8 07 60 04 	ld  [ %i5 + 4 ], %l4
    7fd8:	83 29 20 03 	sll  %g4, 3, %g1
    7fdc:	82 05 00 01 	add  %l4, %g1, %g1
    7fe0:	c4 07 60 10 	ld  [ %i5 + 0x10 ], %g2
    7fe4:	a0 00 a0 01 	add  %g2, 1, %l0
    7fe8:	c6 00 60 04 	ld  [ %g1 + 4 ], %g3
    7fec:	80 a0 c0 10 	cmp  %g3, %l0
    7ff0:	08 80 00 1c 	bleu  8060 <__nisbind_next+0xf0>
    7ff4:	82 04 00 10 	add  %l0, %l0, %g1
    7ff8:	82 00 40 10 	add  %g1, %l0, %g1
    7ffc:	05 00 00 00 	sethi  %hi(0), %g2
    8000:	b0 10 a2 54 	or  %g2, 0x254, %i0	! 254 <GLIBC_2.0+0x254>
    8004:	a3 28 60 02 	sll  %g1, 2, %l1
    8008:	ac 10 00 04 	mov  %g4, %l6
    800c:	83 29 20 03 	sll  %g4, 3, %g1
    8010:	a6 05 00 01 	add  %l4, %g1, %l3
    8014:	c4 04 e0 08 	ld  [ %l3 + 8 ], %g2
    8018:	a4 00 80 11 	add  %g2, %l1, %l2
    801c:	d0 04 a0 04 	ld  [ %l2 + 4 ], %o0
    8020:	40 00 69 2d 	call  224d4 <strcmp@plt>
    8024:	d2 05 c0 18 	ld  [ %l7 + %i0 ], %o1
    8028:	a2 04 60 0c 	add  %l1, 0xc, %l1
    802c:	80 a2 20 00 	cmp  %o0, 0
    8030:	12 80 00 07 	bne  804c <__nisbind_next+0xdc>
    8034:	88 10 00 16 	mov  %l6, %g4
    8038:	c2 04 a0 08 	ld  [ %l2 + 8 ], %g1
    803c:	c4 48 40 00 	ldsb  [ %g1 ], %g2
    8040:	80 a0 a0 2d 	cmp  %g2, 0x2d
    8044:	22 80 00 40 	be,a   8144 <__nisbind_next+0x1d4>
    8048:	e0 27 60 10 	st  %l0, [ %i5 + 0x10 ]
    804c:	a0 04 20 01 	inc  %l0
    8050:	c2 04 e0 04 	ld  [ %l3 + 4 ], %g1
    8054:	80 a0 40 10 	cmp  %g1, %l0
    8058:	18 bf ff ee 	bgu  8010 <__nisbind_next+0xa0>
    805c:	83 29 20 03 	sll  %g4, 3, %g1
    8060:	82 07 20 01 	add  %i4, 1, %g1
    8064:	84 05 60 01 	add  %l5, 1, %g2
    8068:	80 a0 80 1b 	cmp  %g2, %i3
    806c:	0a 80 00 27 	bcs  8108 <__nisbind_next+0x198>
    8070:	c2 27 60 14 	st  %g1, [ %i5 + 0x14 ]
    8074:	c0 27 60 0c 	clr  [ %i5 + 0xc ]
    8078:	ea 07 60 0c 	ld  [ %i5 + 0xc ], %l5
    807c:	82 05 40 15 	add  %l5, %l5, %g1
    8080:	86 00 40 15 	add  %g1, %l5, %g3
    8084:	85 28 e0 03 	sll  %g3, 3, %g2
    8088:	84 05 00 02 	add  %l4, %g2, %g2
    808c:	c2 00 a0 04 	ld  [ %g2 + 4 ], %g1
    8090:	80 a0 60 00 	cmp  %g1, 0
    8094:	08 80 00 1b 	bleu  8100 <__nisbind_next+0x190>
    8098:	a6 10 20 00 	clr  %l3
    809c:	2b 00 00 00 	sethi  %hi(0), %l5
    80a0:	aa 15 62 54 	or  %l5, 0x254, %l5	! 254 <GLIBC_2.0+0x254>
    80a4:	ac 10 00 03 	mov  %g3, %l6
    80a8:	a4 10 20 00 	clr  %l2
    80ac:	83 28 e0 03 	sll  %g3, 3, %g1
    80b0:	a2 05 00 01 	add  %l4, %g1, %l1
    80b4:	c4 04 60 08 	ld  [ %l1 + 8 ], %g2
    80b8:	a0 00 80 12 	add  %g2, %l2, %l0
    80bc:	d0 04 20 04 	ld  [ %l0 + 4 ], %o0
    80c0:	40 00 69 05 	call  224d4 <strcmp@plt>
    80c4:	d2 05 c0 15 	ld  [ %l7 + %l5 ], %o1
    80c8:	a4 04 a0 0c 	add  %l2, 0xc, %l2
    80cc:	80 a2 20 00 	cmp  %o0, 0
    80d0:	12 80 00 07 	bne  80ec <__nisbind_next+0x17c>
    80d4:	86 10 00 16 	mov  %l6, %g3
    80d8:	c2 04 20 08 	ld  [ %l0 + 8 ], %g1
    80dc:	c4 48 40 00 	ldsb  [ %g1 ], %g2
    80e0:	80 a0 a0 2d 	cmp  %g2, 0x2d
    80e4:	22 80 00 16 	be,a   813c <__nisbind_next+0x1cc>
    80e8:	e6 27 60 10 	st  %l3, [ %i5 + 0x10 ]
    80ec:	a6 04 e0 01 	inc  %l3
    80f0:	c2 04 60 04 	ld  [ %l1 + 4 ], %g1
    80f4:	80 a0 40 13 	cmp  %g1, %l3
    80f8:	18 bf ff ee 	bgu  80b0 <__nisbind_next+0x140>
    80fc:	83 28 e0 03 	sll  %g3, 3, %g1
    8100:	10 80 00 12 	b  8148 <__nisbind_next+0x1d8>
    8104:	b0 10 20 28 	mov  0x28, %i0
    8108:	10 bf ff dc 	b  8078 <__nisbind_next+0x108>
    810c:	c4 27 60 0c 	st  %g2, [ %i5 + 0xc ]
    8110:	c2 02 20 20 	ld  [ %o0 + 0x20 ], %g1
    8114:	c4 00 60 10 	ld  [ %g1 + 0x10 ], %g2
    8118:	9f c0 80 00 	call  %g2
    811c:	01 00 00 00 	nop 
    8120:	d0 06 00 00 	ld  [ %i0 ], %o0
    8124:	c2 02 20 04 	ld  [ %o0 + 4 ], %g1
    8128:	c4 00 60 10 	ld  [ %g1 + 0x10 ], %g2
    812c:	9f c0 80 00 	call  %g2
    8130:	01 00 00 00 	nop 
    8134:	10 bf ff a0 	b  7fb4 <__nisbind_next+0x44>
    8138:	c0 27 40 00 	clr  [ %i5 ]
    813c:	10 80 00 03 	b  8148 <__nisbind_next+0x1d8>
    8140:	b0 10 20 00 	clr  %i0
    8144:	b0 10 20 00 	clr  %i0
    8148:	81 c7 e0 08 	ret 
    814c:	81 e8 00 00 	restore 

00008150 <__nisbind_connect>:
__nisbind_connect():
    8150:	9d e3 be 88 	save  %sp, -376, %sp
    8154:	2f 00 00 67 	sethi  %hi(0x19c00), %l7
    8158:	7f ff ff 84 	call  7f68 <__nisbind_destroy+0x68>
    815c:	ae 05 e2 a8 	add  %l7, 0x2a8, %l7	! 19ea8 <__FRAME_END__+0x8e80>
    8160:	80 a6 20 00 	cmp  %i0, 0
    8164:	02 80 00 82 	be  836c <__nisbind_connect+0x21c>
    8168:	82 10 20 28 	mov  0x28, %g1
    816c:	c4 06 20 0c 	ld  [ %i0 + 0xc ], %g2
    8170:	82 00 80 02 	add  %g2, %g2, %g1
    8174:	c8 06 20 10 	ld  [ %i0 + 0x10 ], %g4
    8178:	82 00 40 02 	add  %g1, %g2, %g1
    817c:	c6 06 20 04 	ld  [ %i0 + 4 ], %g3
    8180:	83 28 60 03 	sll  %g1, 3, %g1
    8184:	84 01 00 04 	add  %g4, %g4, %g2
    8188:	c0 26 20 28 	clr  [ %i0 + 0x28 ]
    818c:	c0 26 20 2c 	clr  [ %i0 + 0x2c ]
    8190:	c0 26 20 30 	clr  [ %i0 + 0x30 ]
    8194:	c0 26 20 34 	clr  [ %i0 + 0x34 ]
    8198:	a4 00 c0 01 	add  %g3, %g1, %l2
    819c:	84 00 80 04 	add  %g2, %g4, %g2
    81a0:	82 10 20 02 	mov  2, %g1
    81a4:	85 28 a0 02 	sll  %g2, 2, %g2
    81a8:	c6 04 a0 08 	ld  [ %l2 + 8 ], %g3
    81ac:	c2 36 20 28 	sth  %g1, [ %i0 + 0x28 ]
    81b0:	7f ff ff 2f 	call  7e6c <inetstr2int>
    81b4:	d0 00 c0 02 	ld  [ %g3 + %g2 ], %o0
    81b8:	80 a2 3f ff 	cmp  %o0, -1
    81bc:	d0 26 20 2c 	st  %o0, [ %i0 + 0x2c ]
    81c0:	02 80 00 6b 	be  836c <__nisbind_connect+0x21c>
    81c4:	82 10 20 28 	mov  0x28, %g1
    81c8:	a0 06 20 28 	add  %i0, 0x28, %l0
    81cc:	23 00 00 61 	sethi  %hi(0x18400), %l1
    81d0:	90 10 00 10 	mov  %l0, %o0
    81d4:	92 14 63 cc 	or  %l1, 0x3cc, %o1
    81d8:	94 10 20 03 	mov  3, %o2
    81dc:	40 00 16 b8 	call  dcbc <__pmap_getnisport>
    81e0:	96 10 20 11 	mov  0x11, %o3
    81e4:	91 2a 20 10 	sll  %o0, 0x10, %o0
    81e8:	80 a2 20 00 	cmp  %o0, 0
    81ec:	02 80 00 60 	be  836c <__nisbind_connect+0x21c>
    81f0:	82 10 20 1c 	mov  0x1c, %g1
    81f4:	c4 06 20 24 	ld  [ %i0 + 0x24 ], %g2
    81f8:	82 10 3f ff 	mov  -1, %g1
    81fc:	80 a0 a0 00 	cmp  %g2, 0
    8200:	12 80 00 29 	bne  82a4 <__nisbind_connect+0x154>
    8204:	c2 26 20 38 	st  %g1, [ %i0 + 0x38 ]
    8208:	90 10 00 10 	mov  %l0, %o0
    820c:	92 14 63 cc 	or  %l1, 0x3cc, %o1
    8210:	94 10 20 03 	mov  3, %o2
    8214:	96 06 20 38 	add  %i0, 0x38, %o3
    8218:	98 10 20 00 	clr  %o4
    821c:	40 00 68 8d 	call  22450 <clnttcp_create@plt>
    8220:	9a 10 20 00 	clr  %o5
    8224:	d0 26 00 00 	st  %o0, [ %i0 ]
    8228:	80 a2 20 00 	cmp  %o0, 0
    822c:	02 80 00 50 	be  836c <__nisbind_connect+0x21c>
    8230:	82 10 20 1c 	mov  0x1c, %g1
    8234:	03 00 00 00 	sethi  %hi(0), %g1
    8238:	82 10 62 4c 	or  %g1, 0x24c, %g1	! 24c <GLIBC_2.0+0x24c>
    823c:	c4 02 20 04 	ld  [ %o0 + 4 ], %g2
    8240:	d4 05 c0 01 	ld  [ %l7 + %g1 ], %o2
    8244:	c6 00 a0 14 	ld  [ %g2 + 0x14 ], %g3
    8248:	9f c0 c0 00 	call  %g3
    824c:	92 10 20 01 	mov  1, %o1
    8250:	d0 06 20 38 	ld  [ %i0 + 0x38 ], %o0
    8254:	92 10 20 02 	mov  2, %o1
    8258:	40 00 69 3b 	call  22744 <fcntl@plt>
    825c:	94 10 20 01 	mov  1, %o2
    8260:	80 a2 3f ff 	cmp  %o0, -1
    8264:	02 80 00 1f 	be  82e0 <__nisbind_connect+0x190>
    8268:	03 00 00 00 	sethi  %hi(0), %g1
    826c:	c2 06 20 20 	ld  [ %i0 + 0x20 ], %g1
    8270:	80 a0 60 00 	cmp  %g1, 0
    8274:	02 80 00 3e 	be  836c <__nisbind_connect+0x21c>
    8278:	82 10 20 00 	clr  %g1
    827c:	c2 04 a0 0c 	ld  [ %l2 + 0xc ], %g1
    8280:	80 a0 60 01 	cmp  %g1, 1
    8284:	22 80 00 1c 	be,a   82f4 <__nisbind_connect+0x1a4>
    8288:	03 1d 5b 9a 	sethi  %hi(0x756e6800), %g1
    828c:	e0 06 00 00 	ld  [ %i0 ], %l0
    8290:	40 00 69 1b 	call  226fc <authunix_create_default@plt>
    8294:	01 00 00 00 	nop 
    8298:	d0 24 00 00 	st  %o0, [ %l0 ]
    829c:	10 80 00 34 	b  836c <__nisbind_connect+0x21c>
    82a0:	82 10 20 00 	clr  %g1
    82a4:	03 00 00 00 	sethi  %hi(0), %g1
    82a8:	82 10 62 50 	or  %g1, 0x250, %g1	! 250 <GLIBC_2.0+0x250>
    82ac:	c4 05 c0 01 	ld  [ %l7 + %g1 ], %g2
    82b0:	c6 00 a0 04 	ld  [ %g2 + 4 ], %g3
    82b4:	c2 00 80 00 	ld  [ %g2 ], %g1
    82b8:	c2 27 bf e8 	st  %g1, [ %fp + -24 ]
    82bc:	c6 27 bf ec 	st  %g3, [ %fp + -20 ]
    82c0:	90 10 00 10 	mov  %l0, %o0
    82c4:	92 14 63 cc 	or  %l1, 0x3cc, %o1
    82c8:	94 10 20 03 	mov  3, %o2
    82cc:	96 07 bf e8 	add  %fp, -24, %o3
    82d0:	40 00 68 f9 	call  226b4 <clntudp_create@plt>
    82d4:	98 06 20 38 	add  %i0, 0x38, %o4
    82d8:	10 bf ff d4 	b  8228 <__nisbind_connect+0xd8>
    82dc:	d0 26 00 00 	st  %o0, [ %i0 ]
    82e0:	82 10 62 58 	or  %g1, 0x258, %g1
    82e4:	40 00 68 85 	call  224f8 <perror@plt>
    82e8:	d0 05 c0 01 	ld  [ %l7 + %g1 ], %o0
    82ec:	10 bf ff e1 	b  8270 <__nisbind_connect+0x120>
    82f0:	c2 06 20 20 	ld  [ %i0 + 0x20 ], %g1
    82f4:	05 00 00 0b 	sethi  %hi(0x2c00), %g2
    82f8:	82 10 61 78 	or  %g1, 0x178, %g1
    82fc:	84 10 a2 00 	or  %g2, 0x200, %g2
    8300:	c2 27 be e8 	st  %g1, [ %fp + -280 ]
    8304:	c4 37 be ec 	sth  %g2, [ %fp + -276 ]
    8308:	94 10 20 fa 	mov  0xfa, %o2
    830c:	d2 04 80 00 	ld  [ %l2 ], %o1
    8310:	40 00 69 43 	call  2281c <strncpy@plt>
    8314:	90 07 be ed 	add  %fp, -275, %o0
    8318:	a0 07 be e8 	add  %fp, -280, %l0
    831c:	92 10 20 2e 	mov  0x2e, %o1
    8320:	90 10 00 10 	mov  %l0, %o0
    8324:	40 00 68 51 	call  22468 <strchr@plt>
    8328:	c0 2f bf e7 	clrb  [ %fp + -25 ]
    832c:	82 10 20 40 	mov  0x40, %g1
    8330:	c2 2a 00 00 	stb  %g1, [ %o0 ]
    8334:	90 10 00 10 	mov  %l0, %o0
    8338:	e0 06 00 00 	ld  [ %i0 ], %l0
    833c:	92 04 a0 10 	add  %l2, 0x10, %o1
    8340:	94 10 21 2c 	mov  0x12c, %o2
    8344:	96 10 20 00 	clr  %o3
    8348:	40 00 68 cc 	call  22678 <authdes_pk_create@plt>
    834c:	98 10 20 00 	clr  %o4
    8350:	d0 24 00 00 	st  %o0, [ %l0 ]
    8354:	e0 06 00 00 	ld  [ %i0 ], %l0
    8358:	c2 04 00 00 	ld  [ %l0 ], %g1
    835c:	80 a0 60 00 	cmp  %g1, 0
    8360:	32 80 00 03 	bne,a   836c <__nisbind_connect+0x21c>
    8364:	82 10 20 00 	clr  %g1
    8368:	30 bf ff ca 	b,a   8290 <__nisbind_connect+0x140>
    836c:	81 c7 e0 08 	ret 
    8370:	91 e8 00 01 	restore  %g0, %g1, %o0

00008374 <__nisbind_create>:
__nisbind_create():
    8374:	9d e3 bf 90 	save  %sp, -112, %sp
    8378:	03 00 00 40 	sethi  %hi(0x10000), %g1
    837c:	90 10 00 18 	mov  %i0, %o0
    8380:	f4 26 20 08 	st  %i2, [ %i0 + 8 ]
    8384:	f2 26 20 04 	st  %i1, [ %i0 + 4 ]
    8388:	80 8e c0 01 	btst  %i3, %g1
    838c:	02 80 00 0e 	be  83c4 <__nisbind_create+0x50>
    8390:	c0 26 00 00 	clr  [ %i0 ]
    8394:	82 10 20 01 	mov  1, %g1
    8398:	c2 26 20 24 	st  %g1, [ %i0 + 0x24 ]
    839c:	03 00 00 80 	sethi  %hi(0x20000), %g1
    83a0:	80 8e c0 01 	btst  %i3, %g1
    83a4:	02 80 00 0d 	be  83d8 <__nisbind_create+0x64>
    83a8:	82 10 20 01 	mov  1, %g1
    83ac:	80 8e e0 20 	btst  0x20, %i3
    83b0:	02 80 00 0d 	be  83e4 <__nisbind_create+0x70>
    83b4:	c0 22 20 20 	clr  [ %o0 + 0x20 ]
    83b8:	82 10 20 01 	mov  1, %g1
    83bc:	10 80 00 0c 	b  83ec <__nisbind_create+0x78>
    83c0:	c2 22 20 1c 	st  %g1, [ %o0 + 0x1c ]
    83c4:	03 00 00 80 	sethi  %hi(0x20000), %g1
    83c8:	80 8e c0 01 	btst  %i3, %g1
    83cc:	12 bf ff f8 	bne  83ac <__nisbind_create+0x38>
    83d0:	c0 26 20 24 	clr  [ %i0 + 0x24 ]
    83d4:	82 10 20 01 	mov  1, %g1
    83d8:	80 8e e0 20 	btst  0x20, %i3
    83dc:	12 bf ff f7 	bne  83b8 <__nisbind_create+0x44>
    83e0:	c2 22 20 20 	st  %g1, [ %o0 + 0x20 ]
    83e4:	c0 22 20 1c 	clr  [ %o0 + 0x1c ]
    83e8:	82 10 20 01 	mov  1, %g1
    83ec:	84 10 3f ff 	mov  -1, %g2
    83f0:	c2 22 20 14 	st  %g1, [ %o0 + 0x14 ]
    83f4:	40 00 16 83 	call  de00 <__nis_findfastest>
    83f8:	c4 22 20 18 	st  %g2, [ %o0 + 0x18 ]
    83fc:	b1 3a 20 1f 	sra  %o0, 0x1f, %i0
    8400:	b0 26 00 08 	sub  %i0, %o0, %i0
    8404:	b1 3e 20 1f 	sra  %i0, 0x1f, %i0
    8408:	b0 0e 3f fb 	and  %i0, -5, %i0
    840c:	81 c7 e0 08 	ret 
    8410:	91 ee 20 05 	restore  %i0, 5, %o0

00008414 <__do_niscall3>:
__do_niscall3():
    8414:	9d e3 bf 80 	save  %sp, -128, %sp
    8418:	a0 96 20 00 	orcc  %i0, 0, %l0
    841c:	2f 00 00 66 	sethi  %hi(0x19800), %l7
    8420:	7f ff fe d2 	call  7f68 <__nisbind_destroy+0x68>
    8424:	ae 05 e3 e0 	add  %l7, 0x3e0, %l7	! 19be0 <__FRAME_END__+0x8bb8>
    8428:	e6 07 a0 5c 	ld  [ %fp + 0x5c ], %l3
    842c:	e8 07 a0 60 	ld  [ %fp + 0x60 ], %l4
    8430:	02 80 00 52 	be  8578 <__do_niscall3+0x164>
    8434:	b0 10 20 05 	mov  5, %i0
    8438:	23 00 00 00 	sethi  %hi(0), %l1
    843c:	a4 07 bf e8 	add  %fp, -24, %l2
    8440:	82 14 62 4c 	or  %l1, 0x24c, %g1
    8444:	d0 04 00 00 	ld  [ %l0 ], %o0
    8448:	c4 05 c0 01 	ld  [ %l7 + %g1 ], %g2
    844c:	c8 02 20 04 	ld  [ %o0 + 4 ], %g4
    8450:	c2 00 80 00 	ld  [ %g2 ], %g1
    8454:	c6 00 a0 04 	ld  [ %g2 + 4 ], %g3
    8458:	e4 23 a0 5c 	st  %l2, [ %sp + 0x5c ]
    845c:	c2 27 bf e8 	st  %g1, [ %fp + -24 ]
    8460:	c6 27 bf ec 	st  %g3, [ %fp + -20 ]
    8464:	c2 01 00 00 	ld  [ %g4 ], %g1
    8468:	92 10 00 19 	mov  %i1, %o1
    846c:	94 10 00 1a 	mov  %i2, %o2
    8470:	96 10 00 1b 	mov  %i3, %o3
    8474:	98 10 00 1c 	mov  %i4, %o4
    8478:	9f c0 40 00 	call  %g1
    847c:	9a 10 00 1d 	mov  %i5, %o5
    8480:	80 a2 20 00 	cmp  %o0, 0
    8484:	12 80 00 1a 	bne  84ec <__do_niscall3+0xd8>
    8488:	b0 10 20 1c 	mov  0x1c, %i0
    848c:	80 a6 60 10 	cmp  %i1, 0x10
    8490:	38 80 00 17 	bgu,a   84ec <__do_niscall3+0xd8>
    8494:	b0 10 20 00 	clr  %i0
    8498:	03 00 00 68 	sethi  %hi(0x1a000), %g1
    849c:	82 10 61 ec 	or  %g1, 0x1ec, %g1	! 1a1ec <__FRAME_END__+0x91c4>
    84a0:	86 25 c0 01 	sub  %l7, %g1, %g3
    84a4:	85 2e 60 02 	sll  %i1, 2, %g2
    84a8:	c2 00 c0 02 	ld  [ %g3 + %g2 ], %g1
    84ac:	81 c0 40 03 	jmp  %g1 + %g3
    84b0:	01 00 00 00 	nop 
    84b4:	c8 07 40 00 	ld  [ %i5 ], %g4
    84b8:	82 19 20 13 	xor  %g4, 0x13, %g1
    84bc:	80 a0 00 01 	cmp  %g0, %g1
    84c0:	84 60 3f ff 	subx  %g0, -1, %g2
    84c4:	80 a0 00 14 	cmp  %g0, %l4
    84c8:	82 40 20 00 	addx  %g0, 0, %g1
    84cc:	80 88 80 01 	btst  %g2, %g1
    84d0:	02 80 00 11 	be  8514 <__do_niscall3+0x100>
    84d4:	82 19 20 08 	xor  %g4, 8, %g1
    84d8:	90 10 00 10 	mov  %l0, %o0
    84dc:	92 07 60 0c 	add  %i5, 0xc, %o1
    84e0:	40 00 18 39 	call  e5c4 <__nis_do_callback>
    84e4:	94 10 00 14 	mov  %l4, %o2
    84e8:	b0 10 20 00 	clr  %i0
    84ec:	82 1e 20 1c 	xor  %i0, 0x1c, %g1
    84f0:	80 a0 00 01 	cmp  %g0, %g1
    84f4:	84 60 3f ff 	subx  %g0, -1, %g2
    84f8:	83 34 e0 02 	srl  %l3, 2, %g1
    84fc:	80 88 40 02 	btst  %g1, %g2
    8500:	12 bf ff d1 	bne  8444 <__do_niscall3+0x30>
    8504:	82 14 62 4c 	or  %l1, 0x24c, %g1
    8508:	30 80 00 1c 	b,a   8578 <__do_niscall3+0x164>
    850c:	c8 07 40 00 	ld  [ %i5 ], %g4
    8510:	82 19 20 08 	xor  %g4, 8, %g1
    8514:	80 a0 00 01 	cmp  %g0, %g1
    8518:	86 60 3f ff 	subx  %g0, -1, %g3
    851c:	82 19 20 14 	xor  %g4, 0x14, %g1
    8520:	80 a0 00 01 	cmp  %g0, %g1
    8524:	84 60 3f ff 	subx  %g0, -1, %g2
    8528:	80 90 c0 02 	orcc  %g3, %g2, %g0
    852c:	12 80 00 04 	bne  853c <__do_niscall3+0x128>
    8530:	80 a1 20 0c 	cmp  %g4, 0xc
    8534:	12 bf ff ee 	bne  84ec <__do_niscall3+0xd8>
    8538:	b0 10 20 00 	clr  %i0
    853c:	7f ff fe 8d 	call  7f70 <__nisbind_next>
    8540:	90 10 00 10 	mov  %l0, %o0
    8544:	80 a2 20 00 	cmp  %o0, 0
    8548:	12 bf ff e9 	bne  84ec <__do_niscall3+0xd8>
    854c:	b0 10 20 00 	clr  %i0
    8550:	7f ff ff 00 	call  8150 <__nisbind_connect>
    8554:	90 10 00 10 	mov  %l0, %o0
    8558:	80 a2 20 00 	cmp  %o0, 0
    855c:	02 bf ff ba 	be  8444 <__do_niscall3+0x30>
    8560:	82 14 62 4c 	or  %l1, 0x24c, %g1
    8564:	7f ff fe 83 	call  7f70 <__nisbind_next>
    8568:	90 10 00 10 	mov  %l0, %o0
    856c:	80 a2 20 00 	cmp  %o0, 0
    8570:	02 bf ff f8 	be  8550 <__do_niscall3+0x13c>
    8574:	b0 10 20 00 	clr  %i0
    8578:	81 c7 e0 08 	ret 
    857c:	81 e8 00 00 	restore 

00008580 <__do_niscall2>:
__do_niscall2():
    8580:	9d e3 bf 48 	save  %sp, -184, %sp
    8584:	e2 07 a0 60 	ld  [ %fp + 0x60 ], %l1
    8588:	92 10 00 18 	mov  %i0, %o1
    858c:	80 8c 60 20 	btst  0x20, %l1
    8590:	02 80 00 03 	be  859c <__do_niscall2+0x1c>
    8594:	94 10 00 19 	mov  %i1, %o2
    8598:	94 10 20 01 	mov  1, %o2
    859c:	a0 07 bf b0 	add  %fp, -80, %l0
    85a0:	90 10 00 10 	mov  %l0, %o0
    85a4:	7f ff ff 74 	call  8374 <__nisbind_create>
    85a8:	96 10 00 11 	mov  %l1, %o3
    85ac:	90 92 20 00 	orcc  %o0, 0, %o0
    85b0:	12 80 00 1b 	bne  861c <__do_niscall2+0x9c>
    85b4:	01 00 00 00 	nop 
    85b8:	7f ff fe e6 	call  8150 <__nisbind_connect>
    85bc:	90 10 00 10 	mov  %l0, %o0
    85c0:	80 a2 20 00 	cmp  %o0, 0
    85c4:	02 80 00 09 	be  85e8 <__do_niscall2+0x68>
    85c8:	90 10 00 10 	mov  %l0, %o0
    85cc:	7f ff fe 69 	call  7f70 <__nisbind_next>
    85d0:	01 00 00 00 	nop 
    85d4:	80 a2 20 00 	cmp  %o0, 0
    85d8:	02 bf ff f8 	be  85b8 <__do_niscall2+0x38>
    85dc:	01 00 00 00 	nop 
    85e0:	10 80 00 0f 	b  861c <__do_niscall2+0x9c>
    85e4:	90 10 20 05 	mov  5, %o0	! 5 <GLIBC_2.0+0x5>
    85e8:	c2 07 a0 64 	ld  [ %fp + 0x64 ], %g1
    85ec:	c2 23 a0 60 	st  %g1, [ %sp + 0x60 ]
    85f0:	92 10 00 1a 	mov  %i2, %o1
    85f4:	94 10 00 1b 	mov  %i3, %o2
    85f8:	96 10 00 1c 	mov  %i4, %o3
    85fc:	98 10 00 1d 	mov  %i5, %o4
    8600:	da 07 a0 5c 	ld  [ %fp + 0x5c ], %o5
    8604:	7f ff ff 84 	call  8414 <__do_niscall3>
    8608:	e2 23 a0 5c 	st  %l1, [ %sp + 0x5c ]
    860c:	b0 10 00 08 	mov  %o0, %i0
    8610:	7f ff fe 3c 	call  7f00 <__nisbind_destroy>
    8614:	90 10 00 10 	mov  %l0, %o0
    8618:	90 10 00 18 	mov  %i0, %o0
    861c:	81 c7 e0 08 	ret 
    8620:	91 e8 00 08 	restore  %g0, %o0, %o0

00008624 <rec_dirsearch>:
rec_dirsearch():
    8624:	9d e3 bf 78 	save  %sp, -136, %sp
    8628:	a8 10 00 18 	mov  %i0, %l4
    862c:	2f 00 00 66 	sethi  %hi(0x19800), %l7
    8630:	7f ff fe 4e 	call  7f68 <__nisbind_destroy+0x68>
    8634:	ae 05 e1 d0 	add  %l7, 0x1d0, %l7	! 199d0 <__FRAME_END__+0x89a8>
    8638:	90 10 00 14 	mov  %l4, %o0
    863c:	7f ff f7 82 	call  6444 <nis_dir_cmp>
    8640:	d2 06 40 00 	ld  [ %i1 ], %o1
    8644:	80 a2 20 04 	cmp  %o0, 4
    8648:	18 80 00 a9 	bgu  88ec <rec_dirsearch+0x2c8>
    864c:	b0 10 00 19 	mov  %i1, %i0
    8650:	03 00 00 68 	sethi  %hi(0x1a000), %g1
    8654:	82 10 61 a8 	or  %g1, 0x1a8, %g1	! 1a1a8 <__FRAME_END__+0x9180>
    8658:	86 25 c0 01 	sub  %l7, %g1, %g3
    865c:	85 2a 20 02 	sll  %o0, 2, %g2
    8660:	c2 00 c0 02 	ld  [ %g3 + %g2 ], %g1
    8664:	81 c0 40 03 	jmp  %g1 + %g3
    8668:	01 00 00 00 	nop 
    866c:	7f ff f8 ba 	call  6954 <nis_free_directory>
    8670:	90 10 00 19 	mov  %i1, %o0
    8674:	82 10 20 11 	mov  0x11, %g1
    8678:	c2 26 80 00 	st  %g1, [ %i2 ]
    867c:	10 80 00 bc 	b  896c <rec_dirsearch+0x348>
    8680:	90 10 20 00 	clr  %o0
    8684:	d0 06 40 00 	ld  [ %i1 ], %o0
    8688:	40 00 67 f9 	call  2266c <strlen@plt>
    868c:	a6 10 00 0e 	mov  %sp, %l3
    8690:	82 02 20 0a 	add  %o0, 0xa, %g1
    8694:	82 08 7f f8 	and  %g1, -8, %g1
    8698:	9c 23 80 01 	sub  %sp, %g1, %sp
    869c:	a0 03 a0 60 	add  %sp, 0x60, %l0
    86a0:	94 02 20 03 	add  %o0, 3, %o2
    86a4:	92 10 00 10 	mov  %l0, %o1
    86a8:	40 00 11 0c 	call  cad8 <nis_domain_of_r>
    86ac:	d0 06 40 00 	ld  [ %i1 ], %o0
    86b0:	92 10 00 10 	mov  %l0, %o1
    86b4:	40 00 0d 60 	call  bc34 <__nis_finddirectory>
    86b8:	90 10 00 19 	mov  %i1, %o0
    86bc:	a0 92 20 00 	orcc  %o0, 0, %l0
    86c0:	02 80 00 9c 	be  8930 <rec_dirsearch+0x30c>
    86c4:	01 00 00 00 	nop 
    86c8:	c2 04 00 00 	ld  [ %l0 ], %g1
    86cc:	c2 26 80 00 	st  %g1, [ %i2 ]
    86d0:	c4 04 00 00 	ld  [ %l0 ], %g2
    86d4:	80 a0 a0 00 	cmp  %g2, 0
    86d8:	12 80 00 5f 	bne  8854 <rec_dirsearch+0x230>
    86dc:	01 00 00 00 	nop 
    86e0:	7f ff f8 9d 	call  6954 <nis_free_directory>
    86e4:	90 10 00 19 	mov  %i1, %o0
    86e8:	90 10 20 01 	mov  1, %o0
    86ec:	40 00 68 37 	call  227c8 <calloc@plt>
    86f0:	92 10 20 1c 	mov  0x1c, %o1
    86f4:	a2 92 20 00 	orcc  %o0, 0, %l1
    86f8:	02 80 00 88 	be  8918 <rec_dirsearch+0x2f4>
    86fc:	a4 07 bf d8 	add  %fp, -40, %l2
    8700:	90 10 00 12 	mov  %l2, %o0
    8704:	d2 04 20 0c 	ld  [ %l0 + 0xc ], %o1
    8708:	d4 04 20 08 	ld  [ %l0 + 8 ], %o2
    870c:	40 00 67 f6 	call  226e4 <xdrmem_create@plt>
    8710:	96 10 20 01 	mov  1, %o3
    8714:	90 10 00 12 	mov  %l2, %o0
    8718:	40 00 07 04 	call  a328 <_xdr_directory_obj>
    871c:	92 10 00 11 	mov  %l1, %o1
    8720:	c2 07 bf dc 	ld  [ %fp + -36 ], %g1
    8724:	c2 00 60 1c 	ld  [ %g1 + 0x1c ], %g1
    8728:	80 a0 60 00 	cmp  %g1, 0
    872c:	12 80 00 75 	bne  8900 <rec_dirsearch+0x2dc>
    8730:	01 00 00 00 	nop 
    8734:	7f ff f8 6a 	call  68dc <__free_fdresult>
    8738:	90 10 00 10 	mov  %l0, %o0
    873c:	90 10 00 14 	mov  %l4, %o0
    8740:	92 10 00 11 	mov  %l1, %o1
    8744:	7f ff ff b8 	call  8624 <rec_dirsearch>
    8748:	94 10 00 1a 	mov  %i2, %o2
    874c:	10 80 00 88 	b  896c <rec_dirsearch+0x348>
    8750:	9c 10 00 13 	mov  %l3, %sp
    8754:	b2 10 00 0e 	mov  %sp, %i1
    8758:	40 00 67 c5 	call  2266c <strlen@plt>
    875c:	90 10 00 14 	mov  %l4, %o0
    8760:	82 02 20 0a 	add  %o0, 0xa, %g1
    8764:	82 08 7f f8 	and  %g1, -8, %g1
    8768:	9c 23 80 01 	sub  %sp, %g1, %sp
    876c:	a6 03 a0 60 	add  %sp, 0x60, %l3
    8770:	9c 23 80 01 	sub  %sp, %g1, %sp
    8774:	a2 03 a0 60 	add  %sp, 0x60, %l1
    8778:	a0 10 00 08 	mov  %o0, %l0
    877c:	9c 23 80 01 	sub  %sp, %g1, %sp
    8780:	a4 03 a0 60 	add  %sp, 0x60, %l2
    8784:	90 10 00 11 	mov  %l1, %o0
    8788:	40 00 68 52 	call  228d0 <strcpy@plt>
    878c:	92 10 00 14 	mov  %l4, %o1
    8790:	a0 04 20 03 	add  %l0, 3, %l0
    8794:	c2 4c 40 00 	ldsb  [ %l1 ], %g1
    8798:	80 a0 60 00 	cmp  %g1, 0
    879c:	02 80 00 50 	be  88dc <rec_dirsearch+0x2b8>
    87a0:	92 10 00 13 	mov  %l3, %o1
    87a4:	94 10 00 10 	mov  %l0, %o2
    87a8:	7f ff f5 3d 	call  5c9c <nis_leaf_of_r>
    87ac:	90 10 00 11 	mov  %l1, %o0
    87b0:	94 10 00 10 	mov  %l0, %o2
    87b4:	92 10 00 12 	mov  %l2, %o1
    87b8:	40 00 10 c8 	call  cad8 <nis_domain_of_r>
    87bc:	90 10 00 11 	mov  %l1, %o0
    87c0:	92 10 00 12 	mov  %l2, %o1
    87c4:	40 00 68 43 	call  228d0 <strcpy@plt>
    87c8:	90 10 00 11 	mov  %l1, %o0
    87cc:	90 10 00 11 	mov  %l1, %o0
    87d0:	7f ff f7 1d 	call  6444 <nis_dir_cmp>
    87d4:	d2 06 00 00 	ld  [ %i0 ], %o1
    87d8:	80 a2 20 00 	cmp  %o0, 0
    87dc:	32 bf ff ef 	bne,a   8798 <rec_dirsearch+0x174>
    87e0:	c2 4c 40 00 	ldsb  [ %l1 ], %g1
    87e4:	92 10 20 00 	clr  %o1
    87e8:	40 00 67 50 	call  22528 <rawmemchr@plt>
    87ec:	90 10 00 13 	mov  %l3, %o0
    87f0:	82 10 20 2e 	mov  0x2e, %g1
    87f4:	c2 2a 00 00 	stb  %g1, [ %o0 ]
    87f8:	92 10 00 11 	mov  %l1, %o1
    87fc:	40 00 68 35 	call  228d0 <strcpy@plt>
    8800:	90 02 20 01 	inc  %o0
    8804:	90 10 00 18 	mov  %i0, %o0
    8808:	40 00 0d 0b 	call  bc34 <__nis_finddirectory>
    880c:	92 10 00 13 	mov  %l3, %o1
    8810:	a0 92 20 00 	orcc  %o0, 0, %l0
    8814:	02 80 00 51 	be  8958 <rec_dirsearch+0x334>
    8818:	01 00 00 00 	nop 
    881c:	c2 04 00 00 	ld  [ %l0 ], %g1
    8820:	c2 26 80 00 	st  %g1, [ %i2 ]
    8824:	c4 04 00 00 	ld  [ %l0 ], %g2
    8828:	80 a0 a0 00 	cmp  %g2, 0
    882c:	02 80 00 0f 	be  8868 <rec_dirsearch+0x244>
    8830:	01 00 00 00 	nop 
    8834:	7f ff f8 2a 	call  68dc <__free_fdresult>
    8838:	01 00 00 00 	nop 
    883c:	90 10 00 18 	mov  %i0, %o0
    8840:	10 80 00 4b 	b  896c <rec_dirsearch+0x348>
    8844:	9c 10 00 19 	mov  %i1, %sp
    8848:	c0 26 80 00 	clr  [ %i2 ]
    884c:	10 80 00 48 	b  896c <rec_dirsearch+0x348>
    8850:	90 10 00 19 	mov  %i1, %o0
    8854:	7f ff f8 22 	call  68dc <__free_fdresult>
    8858:	01 00 00 00 	nop 
    885c:	90 10 00 19 	mov  %i1, %o0
    8860:	10 80 00 43 	b  896c <rec_dirsearch+0x348>
    8864:	9c 10 00 13 	mov  %l3, %sp
    8868:	7f ff f8 3b 	call  6954 <nis_free_directory>
    886c:	90 10 00 18 	mov  %i0, %o0
    8870:	90 10 20 01 	mov  1, %o0
    8874:	40 00 67 d5 	call  227c8 <calloc@plt>
    8878:	92 10 20 1c 	mov  0x1c, %o1
    887c:	a2 92 20 00 	orcc  %o0, 0, %l1
    8880:	02 80 00 30 	be  8940 <rec_dirsearch+0x31c>
    8884:	a4 07 bf d8 	add  %fp, -40, %l2
    8888:	90 10 00 12 	mov  %l2, %o0
    888c:	d2 04 20 0c 	ld  [ %l0 + 0xc ], %o1
    8890:	d4 04 20 08 	ld  [ %l0 + 8 ], %o2
    8894:	40 00 67 94 	call  226e4 <xdrmem_create@plt>
    8898:	96 10 20 01 	mov  1, %o3
    889c:	90 10 00 12 	mov  %l2, %o0
    88a0:	40 00 06 a2 	call  a328 <_xdr_directory_obj>
    88a4:	92 10 00 11 	mov  %l1, %o1
    88a8:	c2 07 bf dc 	ld  [ %fp + -36 ], %g1
    88ac:	c2 00 60 1c 	ld  [ %g1 + 0x1c ], %g1
    88b0:	80 a0 60 00 	cmp  %g1, 0
    88b4:	12 80 00 16 	bne  890c <rec_dirsearch+0x2e8>
    88b8:	01 00 00 00 	nop 
    88bc:	7f ff f8 08 	call  68dc <__free_fdresult>
    88c0:	90 10 00 10 	mov  %l0, %o0
    88c4:	90 10 00 14 	mov  %l4, %o0
    88c8:	92 10 00 11 	mov  %l1, %o1
    88cc:	7f ff ff 56 	call  8624 <rec_dirsearch>
    88d0:	94 10 00 1a 	mov  %i2, %o2
    88d4:	10 80 00 26 	b  896c <rec_dirsearch+0x348>
    88d8:	9c 10 00 19 	mov  %i1, %sp
    88dc:	7f ff f8 1e 	call  6954 <nis_free_directory>
    88e0:	90 10 00 18 	mov  %i0, %o0
    88e4:	10 bf ff 66 	b  867c <rec_dirsearch+0x58>
    88e8:	9c 10 00 19 	mov  %i1, %sp
    88ec:	7f ff f8 1a 	call  6954 <nis_free_directory>
    88f0:	90 10 00 19 	mov  %i1, %o0
    88f4:	82 10 20 28 	mov  0x28, %g1
    88f8:	10 bf ff 61 	b  867c <rec_dirsearch+0x58>
    88fc:	c2 26 80 00 	st  %g1, [ %i2 ]
    8900:	9f c0 40 00 	call  %g1
    8904:	90 10 00 12 	mov  %l2, %o0
    8908:	30 bf ff 8b 	b,a   8734 <rec_dirsearch+0x110>
    890c:	9f c0 40 00 	call  %g1
    8910:	90 10 00 12 	mov  %l2, %o0
    8914:	30 bf ff ea 	b,a   88bc <rec_dirsearch+0x298>
    8918:	7f ff f7 f1 	call  68dc <__free_fdresult>
    891c:	90 10 00 10 	mov  %l0, %o0
    8920:	82 10 20 0d 	mov  0xd, %g1
    8924:	c2 26 80 00 	st  %g1, [ %i2 ]
    8928:	10 bf ff 55 	b  867c <rec_dirsearch+0x58>
    892c:	9c 10 00 13 	mov  %l3, %sp
    8930:	7f ff f8 09 	call  6954 <nis_free_directory>
    8934:	90 10 00 19 	mov  %i1, %o0
    8938:	10 bf ff fb 	b  8924 <rec_dirsearch+0x300>
    893c:	82 10 20 0d 	mov  0xd, %g1
    8940:	7f ff f7 e7 	call  68dc <__free_fdresult>
    8944:	90 10 00 10 	mov  %l0, %o0
    8948:	82 10 20 0d 	mov  0xd, %g1
    894c:	c2 26 80 00 	st  %g1, [ %i2 ]
    8950:	10 bf ff 4b 	b  867c <rec_dirsearch+0x58>
    8954:	9c 10 00 19 	mov  %i1, %sp
    8958:	7f ff f7 ff 	call  6954 <nis_free_directory>
    895c:	90 10 00 18 	mov  %i0, %o0
    8960:	82 10 20 0d 	mov  0xd, %g1
    8964:	10 bf ff fb 	b  8950 <rec_dirsearch+0x32c>
    8968:	c2 26 80 00 	st  %g1, [ %i2 ]
    896c:	81 c7 e0 08 	ret 
    8970:	91 e8 00 08 	restore  %g0, %o0, %o0

00008974 <__nisfind_server>:
__nisfind_server():
    8974:	9d e3 bf 70 	save  %sp, -144, %sp
    8978:	a4 96 20 00 	orcc  %i0, 0, %l2
    897c:	02 80 00 69 	be  8b20 <__nisfind_server+0x1ac>
    8980:	b0 10 20 11 	mov  0x11, %i0
    8984:	c2 06 80 00 	ld  [ %i2 ], %g1
    8988:	80 a0 60 00 	cmp  %g1, 0
    898c:	02 80 00 04 	be  899c <__nisfind_server+0x28>
    8990:	a8 10 20 00 	clr  %l4
    8994:	10 80 00 63 	b  8b20 <__nisfind_server+0x1ac>
    8998:	b0 10 00 14 	mov  %l4, %i0
    899c:	7f ff f8 73 	call  6b68 <readColdStartFile>
    89a0:	b0 10 20 29 	mov  0x29, %i0
    89a4:	a0 10 00 08 	mov  %o0, %l0
    89a8:	80 a2 20 00 	cmp  %o0, 0
    89ac:	02 80 00 5d 	be  8b20 <__nisfind_server+0x1ac>
    89b0:	d0 26 80 00 	st  %o0, [ %i2 ]
    89b4:	b0 10 00 0e 	mov  %sp, %i0
    89b8:	40 00 67 2d 	call  2266c <strlen@plt>
    89bc:	90 10 00 12 	mov  %l2, %o0
    89c0:	82 02 20 0a 	add  %o0, 0xa, %g1
    89c4:	82 08 7f f8 	and  %g1, -8, %g1
    89c8:	9c 23 80 01 	sub  %sp, %g1, %sp
    89cc:	80 a6 60 00 	cmp  %i1, 0
    89d0:	a6 10 20 00 	clr  %l3
    89d4:	94 02 20 03 	add  %o0, 3, %o2
    89d8:	a2 03 a0 60 	add  %sp, 0x60, %l1
    89dc:	12 80 00 0e 	bne  8a14 <__nisfind_server+0xa0>
    89e0:	b2 10 00 12 	mov  %l2, %i1
    89e4:	90 10 00 19 	mov  %i1, %o0
    89e8:	7f ff f6 97 	call  6444 <nis_dir_cmp>
    89ec:	d2 04 00 00 	ld  [ %l0 ], %o1
    89f0:	80 a2 20 00 	cmp  %o0, 0
    89f4:	12 80 00 0d 	bne  8a28 <__nisfind_server+0xb4>
    89f8:	90 10 00 10 	mov  %l0, %o0
    89fc:	9c 10 00 18 	mov  %i0, %sp
    8a00:	80 a2 20 00 	cmp  %o0, 0
    8a04:	22 80 00 1c 	be,a   8a74 <__nisfind_server+0x100>
    8a08:	90 10 00 12 	mov  %l2, %o0
    8a0c:	10 bf ff e2 	b  8994 <__nisfind_server+0x20>
    8a10:	d0 26 80 00 	st  %o0, [ %i2 ]
    8a14:	90 10 00 12 	mov  %l2, %o0
    8a18:	40 00 10 30 	call  cad8 <nis_domain_of_r>
    8a1c:	92 10 00 11 	mov  %l1, %o1
    8a20:	10 bf ff f1 	b  89e4 <__nisfind_server+0x70>
    8a24:	b2 10 00 11 	mov  %l1, %i1
    8a28:	92 10 00 19 	mov  %i1, %o1
    8a2c:	40 00 0c 82 	call  bc34 <__nis_finddirectory>
    8a30:	90 10 00 10 	mov  %l0, %o0
    8a34:	a2 92 20 00 	orcc  %o0, 0, %l1
    8a38:	02 80 00 34 	be  8b08 <__nisfind_server+0x194>
    8a3c:	90 10 20 00 	clr  %o0
    8a40:	c2 04 40 00 	ld  [ %l1 ], %g1
    8a44:	80 a0 60 00 	cmp  %g1, 0
    8a48:	02 80 00 14 	be  8a98 <__nisfind_server+0x124>
    8a4c:	90 10 20 01 	mov  1, %o0
    8a50:	7f ff f7 a3 	call  68dc <__free_fdresult>
    8a54:	90 10 00 11 	mov  %l1, %o0
    8a58:	80 a4 e0 00 	cmp  %l3, 0
    8a5c:	22 bf ff e8 	be,a   89fc <__nisfind_server+0x88>
    8a60:	90 10 00 13 	mov  %l3, %o0
    8a64:	7f ff f7 bc 	call  6954 <nis_free_directory>
    8a68:	90 10 00 10 	mov  %l0, %o0
    8a6c:	10 bf ff e4 	b  89fc <__nisfind_server+0x88>
    8a70:	90 10 00 13 	mov  %l3, %o0
    8a74:	d2 06 80 00 	ld  [ %i2 ], %o1
    8a78:	7f ff fe eb 	call  8624 <rec_dirsearch>
    8a7c:	94 07 bf d4 	add  %fp, -44, %o2
    8a80:	80 a2 20 00 	cmp  %o0, 0
    8a84:	32 bf ff c4 	bne,a   8994 <__nisfind_server+0x20>
    8a88:	d0 26 80 00 	st  %o0, [ %i2 ]
    8a8c:	e8 07 bf d4 	ld  [ %fp + -44 ], %l4
    8a90:	10 bf ff c1 	b  8994 <__nisfind_server+0x20>
    8a94:	d0 26 80 00 	st  %o0, [ %i2 ]
    8a98:	40 00 67 4c 	call  227c8 <calloc@plt>
    8a9c:	92 10 20 1c 	mov  0x1c, %o1
    8aa0:	a6 92 20 00 	orcc  %o0, 0, %l3
    8aa4:	02 bf ff eb 	be  8a50 <__nisfind_server+0xdc>
    8aa8:	b2 07 bf d8 	add  %fp, -40, %i1
    8aac:	90 10 00 19 	mov  %i1, %o0
    8ab0:	d2 04 60 0c 	ld  [ %l1 + 0xc ], %o1
    8ab4:	d4 04 60 08 	ld  [ %l1 + 8 ], %o2
    8ab8:	40 00 67 0b 	call  226e4 <xdrmem_create@plt>
    8abc:	96 10 20 01 	mov  1, %o3
    8ac0:	90 10 00 19 	mov  %i1, %o0
    8ac4:	40 00 06 19 	call  a328 <_xdr_directory_obj>
    8ac8:	92 10 00 13 	mov  %l3, %o1
    8acc:	c2 07 bf dc 	ld  [ %fp + -36 ], %g1
    8ad0:	c2 00 60 1c 	ld  [ %g1 + 0x1c ], %g1
    8ad4:	80 a0 60 00 	cmp  %g1, 0
    8ad8:	12 80 00 0e 	bne  8b10 <__nisfind_server+0x19c>
    8adc:	01 00 00 00 	nop 
    8ae0:	d0 04 00 00 	ld  [ %l0 ], %o0
    8ae4:	40 00 66 7c 	call  224d4 <strcmp@plt>
    8ae8:	d2 04 c0 00 	ld  [ %l3 ], %o1
    8aec:	80 a2 20 00 	cmp  %o0, 0
    8af0:	02 bf ff d8 	be  8a50 <__nisfind_server+0xdc>
    8af4:	01 00 00 00 	nop 
    8af8:	7f ff f7 97 	call  6954 <nis_free_directory>
    8afc:	90 10 00 13 	mov  %l3, %o0
    8b00:	10 bf ff d4 	b  8a50 <__nisfind_server+0xdc>
    8b04:	a6 10 20 00 	clr  %l3
    8b08:	10 bf ff be 	b  8a00 <__nisfind_server+0x8c>
    8b0c:	9c 10 00 18 	mov  %i0, %sp
    8b10:	9f c0 40 00 	call  %g1
    8b14:	90 10 00 19 	mov  %i1, %o0
    8b18:	10 bf ff f3 	b  8ae4 <__nisfind_server+0x170>
    8b1c:	d0 04 00 00 	ld  [ %l0 ], %o0
    8b20:	81 c7 e0 08 	ret 
    8b24:	81 e8 00 00 	restore 

00008b28 <__prepare_niscall>:
__prepare_niscall():
    8b28:	9d e3 bf 90 	save  %sp, -112, %sp
    8b2c:	90 10 00 18 	mov  %i0, %o0
    8b30:	92 10 20 01 	mov  1, %o1
    8b34:	7f ff ff 90 	call  8974 <__nisfind_server>
    8b38:	94 10 00 19 	mov  %i1, %o2
    8b3c:	80 a2 20 00 	cmp  %o0, 0
    8b40:	12 80 00 26 	bne  8bd8 <__prepare_niscall+0xb0>
    8b44:	96 10 00 1b 	mov  %i3, %o3
    8b48:	80 8e e0 20 	btst  0x20, %i3
    8b4c:	12 80 00 1f 	bne  8bc8 <__prepare_niscall+0xa0>
    8b50:	c2 06 40 00 	ld  [ %i1 ], %g1
    8b54:	d4 00 60 08 	ld  [ %g1 + 8 ], %o2
    8b58:	d2 00 60 0c 	ld  [ %g1 + 0xc ], %o1
    8b5c:	7f ff fe 06 	call  8374 <__nisbind_create>
    8b60:	90 10 00 1a 	mov  %i2, %o0
    8b64:	b0 92 20 00 	orcc  %o0, 0, %i0
    8b68:	12 80 00 13 	bne  8bb4 <__prepare_niscall+0x8c>
    8b6c:	01 00 00 00 	nop 
    8b70:	7f ff fd 78 	call  8150 <__nisbind_connect>
    8b74:	90 10 00 1a 	mov  %i2, %o0
    8b78:	80 a2 20 00 	cmp  %o0, 0
    8b7c:	02 80 00 16 	be  8bd4 <__prepare_niscall+0xac>
    8b80:	90 10 00 1a 	mov  %i2, %o0
    8b84:	7f ff fc fb 	call  7f70 <__nisbind_next>
    8b88:	01 00 00 00 	nop 
    8b8c:	80 a2 20 00 	cmp  %o0, 0
    8b90:	02 bf ff f8 	be  8b70 <__prepare_niscall+0x48>
    8b94:	01 00 00 00 	nop 
    8b98:	7f ff fc da 	call  7f00 <__nisbind_destroy>
    8b9c:	90 10 00 1a 	mov  %i2, %o0
    8ba0:	90 10 00 1a 	mov  %i2, %o0
    8ba4:	92 10 20 00 	clr  %o1
    8ba8:	40 00 67 17 	call  22804 <memset@plt>
    8bac:	94 10 20 3c 	mov  0x3c, %o2
    8bb0:	b0 10 20 05 	mov  5, %i0
    8bb4:	7f ff f7 68 	call  6954 <nis_free_directory>
    8bb8:	d0 06 40 00 	ld  [ %i1 ], %o0
    8bbc:	c0 26 40 00 	clr  [ %i1 ]
    8bc0:	10 80 00 06 	b  8bd8 <__prepare_niscall+0xb0>
    8bc4:	90 10 00 18 	mov  %i0, %o0
    8bc8:	d2 00 60 0c 	ld  [ %g1 + 0xc ], %o1
    8bcc:	10 bf ff e4 	b  8b5c <__prepare_niscall+0x34>
    8bd0:	94 10 20 01 	mov  1, %o2
    8bd4:	90 10 20 00 	clr  %o0
    8bd8:	81 c7 e0 08 	ret 
    8bdc:	91 e8 00 08 	restore  %g0, %o0, %o0

00008be0 <__do_niscall>:
__do_niscall():
    8be0:	9d e3 bf 40 	save  %sp, -192, %sp
    8be4:	40 00 66 66 	call  2257c <__errno_location@plt>
    8be8:	c0 27 bf ac 	clr  [ %fp + -84 ]
    8bec:	a2 10 00 08 	mov  %o0, %l1
    8bf0:	e6 07 a0 5c 	ld  [ %fp + 0x5c ], %l3
    8bf4:	a0 07 bf b0 	add  %fp, -80, %l0
    8bf8:	90 10 00 18 	mov  %i0, %o0
    8bfc:	92 07 bf ac 	add  %fp, -84, %o1
    8c00:	94 10 00 10 	mov  %l0, %o2
    8c04:	96 10 00 13 	mov  %l3, %o3
    8c08:	7f ff ff c8 	call  8b28 <__prepare_niscall>
    8c0c:	e4 04 40 00 	ld  [ %l1 ], %l2
    8c10:	b0 10 00 08 	mov  %o0, %i0
    8c14:	90 10 00 10 	mov  %l0, %o0
    8c18:	80 a6 20 00 	cmp  %i0, 0
    8c1c:	92 10 00 19 	mov  %i1, %o1
    8c20:	94 10 00 1a 	mov  %i2, %o2
    8c24:	96 10 00 1b 	mov  %i3, %o3
    8c28:	98 10 00 1c 	mov  %i4, %o4
    8c2c:	12 80 00 0b 	bne  8c58 <__do_niscall+0x78>
    8c30:	9a 10 00 1d 	mov  %i5, %o5
    8c34:	c2 07 a0 60 	ld  [ %fp + 0x60 ], %g1
    8c38:	c2 23 a0 60 	st  %g1, [ %sp + 0x60 ]
    8c3c:	7f ff fd f6 	call  8414 <__do_niscall3>
    8c40:	e6 23 a0 5c 	st  %l3, [ %sp + 0x5c ]
    8c44:	b0 10 00 08 	mov  %o0, %i0
    8c48:	7f ff fc ae 	call  7f00 <__nisbind_destroy>
    8c4c:	90 10 00 10 	mov  %l0, %o0
    8c50:	7f ff f7 41 	call  6954 <nis_free_directory>
    8c54:	d0 07 bf ac 	ld  [ %fp + -84 ], %o0
    8c58:	e4 24 40 00 	st  %l2, [ %l1 ]
    8c5c:	81 c7 e0 08 	ret 
    8c60:	81 e8 00 00 	restore 
    8c64:	00 00 04 8c 	unimp  0x48c
    8c68:	00 00 04 8c 	unimp  0x48c
    8c6c:	00 00 04 68 	unimp  0x468
    8c70:	00 00 04 68 	unimp  0x468
    8c74:	00 00 04 68 	unimp  0x468
    8c78:	00 00 04 68 	unimp  0x468
    8c7c:	00 00 04 68 	unimp  0x468
    8c80:	00 00 04 68 	unimp  0x468
    8c84:	00 00 04 68 	unimp  0x468
    8c88:	00 00 04 68 	unimp  0x468
    8c8c:	00 00 04 68 	unimp  0x468
    8c90:	00 00 04 68 	unimp  0x468
    8c94:	00 00 04 68 	unimp  0x468
    8c98:	00 00 04 68 	unimp  0x468
    8c9c:	00 00 04 68 	unimp  0x468
    8ca0:	00 00 04 68 	unimp  0x468
    8ca4:	00 00 04 68 	unimp  0x468
    8ca8:	00 00 04 68 	unimp  0x468
    8cac:	00 00 04 68 	unimp  0x468
    8cb0:	00 00 04 68 	unimp  0x468
    8cb4:	00 00 04 68 	unimp  0x468
    8cb8:	00 00 04 68 	unimp  0x468
    8cbc:	00 00 04 68 	unimp  0x468
    8cc0:	00 00 04 68 	unimp  0x468
    8cc4:	00 00 04 68 	unimp  0x468
    8cc8:	00 00 04 8c 	unimp  0x48c
    8ccc:	00 00 04 8c 	unimp  0x48c
    8cd0:	00 00 04 68 	unimp  0x468
    8cd4:	00 00 04 68 	unimp  0x468
    8cd8:	00 00 04 68 	unimp  0x468
    8cdc:	00 00 04 68 	unimp  0x468
    8ce0:	00 00 04 68 	unimp  0x468
    8ce4:	00 00 04 68 	unimp  0x468
    8ce8:	00 00 04 68 	unimp  0x468
    8cec:	00 00 04 68 	unimp  0x468
    8cf0:	00 00 04 68 	unimp  0x468
    8cf4:	00 00 04 68 	unimp  0x468
    8cf8:	00 00 04 68 	unimp  0x468
    8cfc:	00 00 04 68 	unimp  0x468
    8d00:	00 00 04 68 	unimp  0x468
    8d04:	00 00 04 68 	unimp  0x468
    8d08:	00 00 04 8c 	unimp  0x48c
    8d0c:	81 c3 e0 08 	retl 
    8d10:	ae 03 c0 17 	add  %o7, %l7, %l7

00008d14 <nis_lookup>:
nis_lookup():
    8d14:	9d e3 bf 10 	save  %sp, -240, %sp
    8d18:	2f 00 00 64 	sethi  %hi(0x19000), %l7
    8d1c:	7f ff ff fc 	call  8d0c <__do_niscall+0x12c>
    8d20:	ae 05 e2 e4 	add  %l7, 0x2e4, %l7	! 192e4 <__FRAME_END__+0x82bc>
    8d24:	90 10 20 01 	mov  1, %o0
    8d28:	40 00 66 a8 	call  227c8 <calloc@plt>
    8d2c:	92 10 20 24 	mov  0x24, %o1
    8d30:	84 10 20 00 	clr  %g2
    8d34:	86 10 20 00 	clr  %g3
    8d38:	a0 10 00 18 	mov  %i0, %l0
    8d3c:	a2 10 00 08 	mov  %o0, %l1
    8d40:	c4 3f bf d8 	std  %g2, [ %fp + -40 ]
    8d44:	80 a2 20 00 	cmp  %o0, 0
    8d48:	ba 10 20 00 	clr  %i5
    8d4c:	ac 10 20 00 	clr  %l6
    8d50:	c0 27 bf 88 	clr  [ %fp + -120 ]
    8d54:	c0 27 bf 84 	clr  [ %fp + -124 ]
    8d58:	02 80 01 08 	be  9178 <nis_lookup+0x464>
    8d5c:	b0 10 20 00 	clr  %i0
    8d60:	80 8e 60 40 	btst  0x40, %i1
    8d64:	12 80 00 5e 	bne  8edc <nis_lookup+0x1c8>
    8d68:	a4 07 bf d8 	add  %fp, -40, %l2
    8d6c:	e0 27 bf d8 	st  %l0, [ %fp + -40 ]
    8d70:	e4 27 bf 80 	st  %l2, [ %fp + -128 ]
    8d74:	c2 04 80 00 	ld  [ %l2 ], %g1
    8d78:	c2 27 bf e0 	st  %g1, [ %fp + -32 ]
    8d7c:	b0 07 bf 98 	add  %fp, -104, %i0
    8d80:	c0 27 bf 8c 	clr  [ %fp + -116 ]
    8d84:	c0 27 bf e4 	clr  [ %fp + -28 ]
    8d88:	c0 27 bf e8 	clr  [ %fp + -24 ]
    8d8c:	d0 07 bf e0 	ld  [ %fp + -32 ], %o0
    8d90:	92 07 bf 8c 	add  %fp, -116, %o1
    8d94:	94 10 00 18 	mov  %i0, %o2
    8d98:	7f ff ff 64 	call  8b28 <__prepare_niscall>
    8d9c:	96 10 00 19 	mov  %i1, %o3
    8da0:	a0 92 20 00 	orcc  %o0, 0, %l0
    8da4:	12 80 00 f1 	bne  9168 <nis_lookup+0x454>
    8da8:	03 00 00 00 	sethi  %hi(0), %g1
    8dac:	82 10 63 60 	or  %g1, 0x360, %g1	! 360 <GLIBC_2.0+0x360>
    8db0:	27 00 00 00 	sethi  %hi(0), %l3
    8db4:	84 07 bf 90 	add  %fp, -112, %g2
    8db8:	a6 14 e2 5c 	or  %l3, 0x25c, %l3
    8dbc:	f8 05 c0 01 	ld  [ %l7 + %g1 ], %i4
    8dc0:	b4 07 bf e0 	add  %fp, -32, %i2
    8dc4:	c4 27 bf 7c 	st  %g2, [ %fp + -132 ]
    8dc8:	a8 10 00 0e 	mov  %sp, %l4
    8dcc:	40 00 66 28 	call  2266c <strlen@plt>
    8dd0:	d0 07 bf e0 	ld  [ %fp + -32 ], %o0
    8dd4:	82 02 20 08 	add  %o0, 8, %g1
    8dd8:	82 08 7f f8 	and  %g1, -8, %g1
    8ddc:	9c 23 80 01 	sub  %sp, %g1, %sp
    8de0:	b6 10 00 08 	mov  %o0, %i3
    8de4:	aa 03 a0 68 	add  %sp, 0x68, %l5
    8de8:	c4 05 c0 13 	ld  [ %l7 + %l3 ], %g2
    8dec:	c2 00 80 00 	ld  [ %g2 ], %g1
    8df0:	c6 00 a0 04 	ld  [ %g2 + 4 ], %g3
    8df4:	c2 27 bf 90 	st  %g1, [ %fp + -112 ]
    8df8:	c2 07 bf 98 	ld  [ %fp + -104 ], %g1
    8dfc:	c6 27 bf 94 	st  %g3, [ %fp + -108 ]
    8e00:	c4 00 60 04 	ld  [ %g1 + 4 ], %g2
    8e04:	c6 07 bf 7c 	ld  [ %fp + -132 ], %g3
    8e08:	c6 23 a0 5c 	st  %g3, [ %sp + 0x5c ]
    8e0c:	07 00 00 00 	sethi  %hi(0), %g3
    8e10:	82 10 e3 70 	or  %g3, 0x370, %g1	! 370 <GLIBC_2.0+0x370>
    8e14:	c6 00 80 00 	ld  [ %g2 ], %g3
    8e18:	d4 05 c0 01 	ld  [ %l7 + %g1 ], %o2
    8e1c:	d0 07 bf 98 	ld  [ %fp + -104 ], %o0
    8e20:	92 10 20 01 	mov  1, %o1
    8e24:	96 10 00 1a 	mov  %i2, %o3
    8e28:	98 10 00 1c 	mov  %i4, %o4
    8e2c:	9f c0 c0 00 	call  %g3
    8e30:	9a 10 00 11 	mov  %l1, %o5
    8e34:	80 a2 20 00 	cmp  %o0, 0
    8e38:	12 80 00 bd 	bne  912c <nis_lookup+0x418>
    8e3c:	80 8e 60 04 	btst  4, %i1
    8e40:	c8 04 40 00 	ld  [ %l1 ], %g4
    8e44:	80 a1 20 00 	cmp  %g4, 0
    8e48:	12 80 00 36 	bne  8f20 <nis_lookup+0x20c>
    8e4c:	a0 10 20 00 	clr  %l0
    8e50:	c4 04 60 08 	ld  [ %l1 + 8 ], %g2
    8e54:	c2 00 a0 20 	ld  [ %g2 + 0x20 ], %g1
    8e58:	80 a0 60 06 	cmp  %g1, 6
    8e5c:	12 80 00 90 	bne  909c <nis_lookup+0x388>
    8e60:	80 8e 60 01 	btst  1, %i1
    8e64:	02 80 00 8e 	be  909c <nis_lookup+0x388>
    8e68:	80 a5 a0 10 	cmp  %l6, 0x10
    8e6c:	14 80 00 8b 	bg  9098 <nis_lookup+0x384>
    8e70:	82 10 20 19 	mov  0x19, %g1
    8e74:	e0 00 a0 30 	ld  [ %g2 + 0x30 ], %l0
    8e78:	40 00 65 fd 	call  2266c <strlen@plt>
    8e7c:	90 10 00 10 	mov  %l0, %o0
    8e80:	82 02 20 08 	add  %o0, 8, %g1
    8e84:	82 08 7f f8 	and  %g1, -8, %g1
    8e88:	9c 23 80 01 	sub  %sp, %g1, %sp
    8e8c:	94 02 20 01 	add  %o0, 1, %o2
    8e90:	92 10 00 10 	mov  %l0, %o1
    8e94:	40 00 66 2f 	call  22750 <memcpy@plt>
    8e98:	90 03 a0 68 	add  %sp, 0x68, %o0
    8e9c:	d0 27 bf e0 	st  %o0, [ %fp + -32 ]
    8ea0:	90 10 00 1c 	mov  %i4, %o0
    8ea4:	40 00 65 92 	call  224ec <xdr_free@plt>
    8ea8:	92 10 00 11 	mov  %l1, %o1
    8eac:	ac 05 a0 01 	inc  %l6
    8eb0:	c0 24 40 00 	clr  [ %l1 ]
    8eb4:	c0 24 60 04 	clr  [ %l1 + 4 ]
    8eb8:	c0 24 60 08 	clr  [ %l1 + 8 ]
    8ebc:	c0 24 60 0c 	clr  [ %l1 + 0xc ]
    8ec0:	c0 24 60 10 	clr  [ %l1 + 0x10 ]
    8ec4:	c0 24 60 14 	clr  [ %l1 + 0x14 ]
    8ec8:	c0 24 60 18 	clr  [ %l1 + 0x18 ]
    8ecc:	c0 24 60 1c 	clr  [ %l1 + 0x1c ]
    8ed0:	c0 24 60 20 	clr  [ %l1 + 0x20 ]
    8ed4:	10 bf ff c5 	b  8de8 <nis_lookup+0xd4>
    8ed8:	ba 10 20 01 	mov  1, %i5
    8edc:	40 00 65 e4 	call  2266c <strlen@plt>
    8ee0:	90 10 00 10 	mov  %l0, %o0
    8ee4:	90 02 00 10 	add  %o0, %l0, %o0
    8ee8:	c2 4a 3f ff 	ldsb  [ %o0 + -1 ], %g1
    8eec:	80 a0 60 2e 	cmp  %g1, 0x2e
    8ef0:	02 bf ff 9f 	be  8d6c <nis_lookup+0x58>
    8ef4:	a4 07 bf d8 	add  %fp, -40, %l2
    8ef8:	7f ff f3 cc 	call  5e28 <nis_getnames>
    8efc:	90 10 00 10 	mov  %l0, %o0
    8f00:	82 07 bf d8 	add  %fp, -40, %g1
    8f04:	a4 92 20 00 	orcc  %o0, 0, %l2
    8f08:	12 bf ff 9b 	bne  8d74 <nis_lookup+0x60>
    8f0c:	c2 27 bf 80 	st  %g1, [ %fp + -128 ]
    8f10:	82 10 20 05 	mov  5, %g1
    8f14:	c2 24 40 00 	st  %g1, [ %l1 ]
    8f18:	10 80 00 98 	b  9178 <nis_lookup+0x464>
    8f1c:	b0 10 00 11 	mov  %l1, %i0
    8f20:	82 19 20 08 	xor  %g4, 8, %g1
    8f24:	80 a0 00 01 	cmp  %g0, %g1
    8f28:	86 60 3f ff 	subx  %g0, -1, %g3
    8f2c:	82 19 20 14 	xor  %g4, 0x14, %g1
    8f30:	80 a0 00 01 	cmp  %g0, %g1
    8f34:	84 60 3f ff 	subx  %g0, -1, %g2
    8f38:	80 90 c0 02 	orcc  %g3, %g2, %g0
    8f3c:	12 80 00 05 	bne  8f50 <nis_lookup+0x23c>
    8f40:	80 a7 60 00 	cmp  %i5, 0
    8f44:	80 a1 20 0c 	cmp  %g4, 0xc
    8f48:	12 80 00 55 	bne  909c <nis_lookup+0x388>
    8f4c:	80 a7 60 00 	cmp  %i5, 0
    8f50:	02 80 00 2a 	be  8ff8 <nis_lookup+0x2e4>
    8f54:	01 00 00 00 	nop 
    8f58:	7f ff fb ea 	call  7f00 <__nisbind_destroy>
    8f5c:	90 10 00 18 	mov  %i0, %o0
    8f60:	7f ff f6 7d 	call  6954 <nis_free_directory>
    8f64:	d0 07 bf 8c 	ld  [ %fp + -116 ], %o0
    8f68:	c0 27 bf 8c 	clr  [ %fp + -116 ]
    8f6c:	d0 07 bf e0 	ld  [ %fp + -32 ], %o0
    8f70:	92 10 20 01 	mov  1, %o1
    8f74:	7f ff fe 80 	call  8974 <__nisfind_server>
    8f78:	94 07 bf 8c 	add  %fp, -116, %o2
    8f7c:	80 a2 20 00 	cmp  %o0, 0
    8f80:	12 80 00 15 	bne  8fd4 <nis_lookup+0x2c0>
    8f84:	c2 07 bf 8c 	ld  [ %fp + -116 ], %g1
    8f88:	d4 00 60 08 	ld  [ %g1 + 8 ], %o2
    8f8c:	90 10 00 18 	mov  %i0, %o0
    8f90:	d2 00 60 0c 	ld  [ %g1 + 0xc ], %o1
    8f94:	7f ff fc f8 	call  8374 <__nisbind_create>
    8f98:	96 10 00 19 	mov  %i1, %o3
    8f9c:	10 80 00 0a 	b  8fc4 <nis_lookup+0x2b0>
    8fa0:	80 a2 20 00 	cmp  %o0, 0
    8fa4:	7f ff fc 6b 	call  8150 <__nisbind_connect>
    8fa8:	90 10 00 18 	mov  %i0, %o0
    8fac:	80 a2 20 00 	cmp  %o0, 0
    8fb0:	22 bf ff 8f 	be,a   8dec <nis_lookup+0xd8>
    8fb4:	c4 05 c0 13 	ld  [ %l7 + %l3 ], %g2
    8fb8:	7f ff fb ee 	call  7f70 <__nisbind_next>
    8fbc:	90 10 00 18 	mov  %i0, %o0
    8fc0:	80 a2 20 00 	cmp  %o0, 0
    8fc4:	02 bf ff f8 	be  8fa4 <nis_lookup+0x290>
    8fc8:	01 00 00 00 	nop 
    8fcc:	7f ff f6 62 	call  6954 <nis_free_directory>
    8fd0:	d0 07 bf 8c 	ld  [ %fp + -116 ], %o0
    8fd4:	9c 10 00 14 	mov  %l4, %sp
    8fd8:	c6 07 bf 80 	ld  [ %fp + -128 ], %g3
    8fdc:	80 a0 c0 12 	cmp  %g3, %l2
    8fe0:	22 80 00 66 	be,a   9178 <nis_lookup+0x464>
    8fe4:	b0 10 00 11 	mov  %l1, %i0
    8fe8:	7f ff f5 06 	call  6400 <nis_freenames>
    8fec:	90 10 00 12 	mov  %l2, %o0
    8ff0:	10 80 00 62 	b  9178 <nis_lookup+0x464>
    8ff4:	b0 10 00 11 	mov  %l1, %i0
    8ff8:	7f ff fb de 	call  7f70 <__nisbind_next>
    8ffc:	90 10 00 18 	mov  %i0, %o0
    9000:	80 a2 20 00 	cmp  %o0, 0
    9004:	02 bf ff e8 	be  8fa4 <nis_lookup+0x290>
    9008:	92 10 00 15 	mov  %l5, %o1
    900c:	94 06 e0 01 	add  %i3, 1, %o2
    9010:	40 00 0e b2 	call  cad8 <nis_domain_of_r>
    9014:	d0 07 bf e0 	ld  [ %fp + -32 ], %o0
    9018:	40 00 65 95 	call  2266c <strlen@plt>
    901c:	90 10 00 15 	mov  %l5, %o0
    9020:	82 02 20 08 	add  %o0, 8, %g1
    9024:	82 08 7f f8 	and  %g1, -8, %g1
    9028:	9c 23 80 01 	sub  %sp, %g1, %sp
    902c:	94 02 20 01 	add  %o0, 1, %o2
    9030:	90 03 a0 68 	add  %sp, 0x68, %o0
    9034:	40 00 65 c7 	call  22750 <memcpy@plt>
    9038:	92 10 00 15 	mov  %l5, %o1
    903c:	d0 27 bf e0 	st  %o0, [ %fp + -32 ]
    9040:	c2 0d 40 00 	ldub  [ %l5 ], %g1
    9044:	82 80 7f d2 	addcc  %g1, -46, %g1
    9048:	22 80 00 02 	be,a   9050 <nis_lookup+0x33c>
    904c:	c2 0d 60 01 	ldub  [ %l5 + 1 ], %g1
    9050:	80 a0 60 00 	cmp  %g1, 0
    9054:	02 80 00 47 	be  9170 <nis_lookup+0x45c>
    9058:	82 10 20 05 	mov  5, %g1
    905c:	7f ff fb a9 	call  7f00 <__nisbind_destroy>
    9060:	90 10 00 18 	mov  %i0, %o0
    9064:	7f ff f6 3c 	call  6954 <nis_free_directory>
    9068:	d0 07 bf 8c 	ld  [ %fp + -116 ], %o0
    906c:	c0 27 bf 8c 	clr  [ %fp + -116 ]
    9070:	d0 07 bf e0 	ld  [ %fp + -32 ], %o0
    9074:	92 07 bf 8c 	add  %fp, -116, %o1
    9078:	94 10 00 18 	mov  %i0, %o2
    907c:	7f ff fe ab 	call  8b28 <__prepare_niscall>
    9080:	96 10 00 19 	mov  %i1, %o3
    9084:	a0 92 20 00 	orcc  %o0, 0, %l0
    9088:	22 bf ff 59 	be,a   8dec <nis_lookup+0xd8>
    908c:	c4 05 c0 13 	ld  [ %l7 + %l3 ], %g2
    9090:	10 bf ff d1 	b  8fd4 <nis_lookup+0x2c0>
    9094:	e0 24 40 00 	st  %l0, [ %l1 ]
    9098:	c2 24 40 00 	st  %g1, [ %l1 ]
    909c:	9c 10 00 14 	mov  %l4, %sp
    90a0:	7f ff fb 98 	call  7f00 <__nisbind_destroy>
    90a4:	90 10 00 18 	mov  %i0, %o0
    90a8:	7f ff f6 2b 	call  6954 <nis_free_directory>
    90ac:	d0 07 bf 8c 	ld  [ %fp + -116 ], %o0
    90b0:	80 a4 20 00 	cmp  %l0, 0
    90b4:	32 bf ff c9 	bne,a   8fd8 <nis_lookup+0x2c4>
    90b8:	e0 24 40 00 	st  %l0, [ %l1 ]
    90bc:	c4 04 40 00 	ld  [ %l1 ], %g2
    90c0:	80 a0 a0 29 	cmp  %g2, 0x29
    90c4:	08 80 00 14 	bleu  9114 <nis_lookup+0x400>
    90c8:	03 00 00 64 	sethi  %hi(0x19000), %g1
    90cc:	80 a5 a0 00 	cmp  %l6, 0
    90d0:	12 80 00 1e 	bne  9148 <nis_lookup+0x434>
    90d4:	c6 07 bf 84 	ld  [ %fp + -124 ], %g3
    90d8:	86 00 e0 01 	inc  %g3
    90dc:	83 28 e0 02 	sll  %g3, 2, %g1
    90e0:	c2 04 80 01 	ld  [ %l2 + %g1 ], %g1
    90e4:	80 a0 60 00 	cmp  %g1, 0
    90e8:	12 80 00 16 	bne  9140 <nis_lookup+0x42c>
    90ec:	c6 27 bf 84 	st  %g3, [ %fp + -124 ]
    90f0:	c2 07 bf 88 	ld  [ %fp + -120 ], %g1
    90f4:	82 00 60 01 	inc  %g1
    90f8:	c2 27 bf 88 	st  %g1, [ %fp + -120 ]
    90fc:	c4 07 bf 88 	ld  [ %fp + -120 ], %g2
    9100:	80 a0 a0 00 	cmp  %g2, 0
    9104:	22 bf ff 20 	be,a   8d84 <nis_lookup+0x70>
    9108:	c0 27 bf 8c 	clr  [ %fp + -116 ]
    910c:	10 bf ff b4 	b  8fdc <nis_lookup+0x2c8>
    9110:	c6 07 bf 80 	ld  [ %fp + -128 ], %g3
    9114:	82 10 63 9c 	or  %g1, 0x39c, %g1
    9118:	86 25 c0 01 	sub  %l7, %g1, %g3
    911c:	85 28 a0 02 	sll  %g2, 2, %g2
    9120:	c2 00 c0 02 	ld  [ %g3 + %g2 ], %g1
    9124:	81 c0 40 03 	jmp  %g1 + %g3
    9128:	01 00 00 00 	nop 
    912c:	a0 10 20 1c 	mov  0x1c, %l0	! 1c <GLIBC_2.0+0x1c>
    9130:	9c 10 00 14 	mov  %l4, %sp
    9134:	12 bf ff 25 	bne  8dc8 <nis_lookup+0xb4>
    9138:	ba 10 20 00 	clr  %i5
    913c:	30 bf ff d9 	b,a   90a0 <nis_lookup+0x38c>
    9140:	10 bf ff ef 	b  90fc <nis_lookup+0x3e8>
    9144:	c2 27 bf e0 	st  %g1, [ %fp + -32 ]
    9148:	40 00 65 a6 	call  227e0 <free@plt>
    914c:	d0 07 bf e0 	ld  [ %fp + -32 ], %o0
    9150:	c4 07 bf 88 	ld  [ %fp + -120 ], %g2
    9154:	82 10 20 19 	mov  0x19, %g1
    9158:	84 00 a0 01 	inc  %g2
    915c:	c2 24 40 00 	st  %g1, [ %l1 ]
    9160:	10 bf ff e7 	b  90fc <nis_lookup+0x3e8>
    9164:	c4 27 bf 88 	st  %g2, [ %fp + -120 ]
    9168:	10 bf ff 9c 	b  8fd8 <nis_lookup+0x2c4>
    916c:	e0 24 40 00 	st  %l0, [ %l1 ]
    9170:	10 bf ff 99 	b  8fd4 <nis_lookup+0x2c0>
    9174:	c2 24 40 00 	st  %g1, [ %l1 ]
    9178:	81 c7 e0 08 	ret 
    917c:	81 e8 00 00 	restore 

00009180 <__create_ib_request>:
__create_ib_request():
    9180:	9d e3 bf 90 	save  %sp, -112, %sp
    9184:	90 10 20 01 	mov  1, %o0
    9188:	40 00 65 90 	call  227c8 <calloc@plt>
    918c:	92 10 20 2c 	mov  0x2c, %o1
    9190:	a2 10 00 18 	mov  %i0, %l1
    9194:	a0 10 00 08 	mov  %o0, %l0
    9198:	80 a2 20 00 	cmp  %o0, 0
    919c:	aa 10 20 00 	clr  %l5
    91a0:	a8 10 20 00 	clr  %l4
    91a4:	ba 10 20 00 	clr  %i5
    91a8:	02 80 00 87 	be  93c4 <__create_ib_request+0x244>
    91ac:	b0 10 20 00 	clr  %i0
    91b0:	f2 22 20 0c 	st  %i1, [ %o0 + 0xc ]
    91b4:	40 00 65 2e 	call  2266c <strlen@plt>
    91b8:	90 10 00 11 	mov  %l1, %o0
    91bc:	82 02 20 08 	add  %o0, 8, %g1
    91c0:	82 08 7f f8 	and  %g1, -8, %g1
    91c4:	9c 23 80 01 	sub  %sp, %g1, %sp
    91c8:	94 02 20 01 	add  %o0, 1, %o2
    91cc:	92 10 00 11 	mov  %l1, %o1
    91d0:	40 00 65 60 	call  22750 <memcpy@plt>
    91d4:	90 03 a0 60 	add  %sp, 0x60, %o0
    91d8:	c2 4a 00 00 	ldsb  [ %o0 ], %g1
    91dc:	80 a0 60 5b 	cmp  %g1, 0x5b
    91e0:	02 80 00 08 	be  9200 <__create_ib_request+0x80>
    91e4:	b2 10 00 08 	mov  %o0, %i1
    91e8:	40 00 65 66 	call  22780 <__strdup@plt>
    91ec:	b0 10 00 10 	mov  %l0, %i0
    91f0:	80 a2 20 00 	cmp  %o0, 0
    91f4:	12 80 00 74 	bne  93c4 <__create_ib_request+0x244>
    91f8:	d0 24 00 00 	st  %o0, [ %l0 ]
    91fc:	30 80 00 0a 	b,a   9224 <__create_ib_request+0xa4>
    9200:	40 00 64 9a 	call  22468 <strchr@plt>
    9204:	92 10 20 5d 	mov  0x5d, %o1
    9208:	80 a2 20 00 	cmp  %o0, 0
    920c:	02 80 00 06 	be  9224 <__create_ib_request+0xa4>
    9210:	d0 24 00 00 	st  %o0, [ %l0 ]
    9214:	c2 4a 20 01 	ldsb  [ %o0 + 1 ], %g1
    9218:	80 a0 60 2c 	cmp  %g1, 0x2c
    921c:	22 80 00 06 	be,a   9234 <__create_ib_request+0xb4>
    9220:	c2 4a 3f ff 	ldsb  [ %o0 + -1 ], %g1
    9224:	40 00 65 6f 	call  227e0 <free@plt>
    9228:	90 10 00 10 	mov  %l0, %o0
    922c:	10 80 00 66 	b  93c4 <__create_ib_request+0x244>
    9230:	b0 10 20 00 	clr  %i0
    9234:	80 a0 60 2c 	cmp  %g1, 0x2c
    9238:	22 80 00 03 	be,a   9244 <__create_ib_request+0xc4>
    923c:	c0 2a 3f ff 	clrb  [ %o0 + -1 ]
    9240:	c0 2a 00 00 	clrb  [ %o0 ]
    9244:	d0 04 00 00 	ld  [ %l0 ], %o0
    9248:	90 02 20 02 	add  %o0, 2, %o0
    924c:	40 00 65 4d 	call  22780 <__strdup@plt>
    9250:	d0 24 00 00 	st  %o0, [ %l0 ]
    9254:	80 a2 20 00 	cmp  %o0, 0
    9258:	02 80 00 47 	be  9374 <__create_ib_request+0x1f4>
    925c:	d0 24 00 00 	st  %o0, [ %l0 ]
    9260:	b2 86 60 01 	inccc  %i1
    9264:	22 80 00 3f 	be,a   9360 <__create_ib_request+0x1e0>
    9268:	ea 24 20 08 	st  %l5, [ %l0 + 8 ]
    926c:	c2 4e 40 00 	ldsb  [ %i1 ], %g1
    9270:	80 a0 60 00 	cmp  %g1, 0
    9274:	22 80 00 3b 	be,a   9360 <__create_ib_request+0x1e0>
    9278:	ea 24 20 08 	st  %l5, [ %l0 + 8 ]
    927c:	b8 10 20 00 	clr  %i4
    9280:	92 10 20 3d 	mov  0x3d, %o1
    9284:	40 00 64 79 	call  22468 <strchr@plt>
    9288:	90 10 00 19 	mov  %i1, %o0
    928c:	b0 10 00 08 	mov  %o0, %i0
    9290:	90 10 00 19 	mov  %i1, %o0
    9294:	40 00 64 75 	call  22468 <strchr@plt>
    9298:	92 10 20 2c 	mov  0x2c, %o1
    929c:	a4 10 00 19 	mov  %i1, %l2
    92a0:	b2 10 00 08 	mov  %o0, %i1
    92a4:	90 10 00 15 	mov  %l5, %o0
    92a8:	80 a6 60 00 	cmp  %i1, 0
    92ac:	02 80 00 04 	be  92bc <__create_ib_request+0x13c>
    92b0:	ac 05 20 01 	add  %l4, 1, %l6
    92b4:	c0 2e 40 00 	clrb  [ %i1 ]
    92b8:	b2 06 60 01 	inc  %i1
    92bc:	80 a6 20 00 	cmp  %i0, 0
    92c0:	02 80 00 3e 	be  93b8 <__create_ib_request+0x238>
    92c4:	80 a5 80 1d 	cmp  %l6, %i5
    92c8:	c0 2e 00 00 	clrb  [ %i0 ]
    92cc:	0a 80 00 09 	bcs  92f0 <__create_ib_request+0x170>
    92d0:	b0 06 20 01 	inc  %i0
    92d4:	b8 07 20 0c 	add  %i4, 0xc, %i4
    92d8:	40 00 65 15 	call  2272c <realloc@plt>
    92dc:	92 10 00 1c 	mov  %i4, %o1
    92e0:	80 a2 20 00 	cmp  %o0, 0
    92e4:	02 80 00 24 	be  9374 <__create_ib_request+0x1f4>
    92e8:	ba 07 60 01 	inc  %i5
    92ec:	aa 10 00 08 	mov  %o0, %l5
    92f0:	82 05 00 14 	add  %l4, %l4, %g1
    92f4:	82 00 40 14 	add  %g1, %l4, %g1
    92f8:	a3 28 60 02 	sll  %g1, 2, %l1
    92fc:	40 00 65 21 	call  22780 <__strdup@plt>
    9300:	90 10 00 12 	mov  %l2, %o0
    9304:	82 10 00 08 	mov  %o0, %g1
    9308:	a6 05 40 11 	add  %l5, %l1, %l3
    930c:	90 10 00 18 	mov  %i0, %o0
    9310:	80 a0 60 00 	cmp  %g1, 0
    9314:	02 80 00 18 	be  9374 <__create_ib_request+0x1f4>
    9318:	c2 25 40 11 	st  %g1, [ %l5 + %l1 ]
    931c:	40 00 64 d4 	call  2266c <strlen@plt>
    9320:	01 00 00 00 	nop 
    9324:	90 02 20 01 	inc  %o0
    9328:	d0 24 e0 04 	st  %o0, [ %l3 + 4 ]
    932c:	40 00 65 15 	call  22780 <__strdup@plt>
    9330:	90 10 00 18 	mov  %i0, %o0
    9334:	80 a2 20 00 	cmp  %o0, 0
    9338:	02 80 00 0d 	be  936c <__create_ib_request+0x1ec>
    933c:	d0 24 e0 08 	st  %o0, [ %l3 + 8 ]
    9340:	80 a6 60 00 	cmp  %i1, 0
    9344:	02 80 00 06 	be  935c <__create_ib_request+0x1dc>
    9348:	a8 10 00 16 	mov  %l6, %l4
    934c:	c2 4e 40 00 	ldsb  [ %i1 ], %g1
    9350:	80 a0 60 00 	cmp  %g1, 0
    9354:	12 bf ff cc 	bne  9284 <__create_ib_request+0x104>
    9358:	92 10 20 3d 	mov  0x3d, %o1
    935c:	ea 24 20 08 	st  %l5, [ %l0 + 8 ]
    9360:	e8 24 20 04 	st  %l4, [ %l0 + 4 ]
    9364:	10 80 00 18 	b  93c4 <__create_ib_request+0x244>
    9368:	b0 10 00 10 	mov  %l0, %i0
    936c:	40 00 65 1d 	call  227e0 <free@plt>
    9370:	d0 05 40 11 	ld  [ %l5 + %l1 ], %o0
    9374:	a8 05 3f ff 	add  %l4, -1, %l4
    9378:	80 a5 3f ff 	cmp  %l4, -1
    937c:	02 80 00 0d 	be  93b0 <__create_ib_request+0x230>
    9380:	82 05 00 14 	add  %l4, %l4, %g1
    9384:	82 00 40 14 	add  %g1, %l4, %g1
    9388:	a3 28 60 02 	sll  %g1, 2, %l1
    938c:	40 00 65 15 	call  227e0 <free@plt>
    9390:	d0 04 40 15 	ld  [ %l1 + %l5 ], %o0
    9394:	82 05 40 11 	add  %l5, %l1, %g1
    9398:	40 00 65 12 	call  227e0 <free@plt>
    939c:	d0 00 60 08 	ld  [ %g1 + 8 ], %o0
    93a0:	a8 05 3f ff 	add  %l4, -1, %l4
    93a4:	80 a5 3f ff 	cmp  %l4, -1
    93a8:	12 bf ff f9 	bne  938c <__create_ib_request+0x20c>
    93ac:	a2 04 7f f4 	add  %l1, -12, %l1
    93b0:	40 00 65 0c 	call  227e0 <free@plt>
    93b4:	90 10 00 15 	mov  %l5, %o0
    93b8:	7f ff f5 58 	call  6918 <nis_free_request>
    93bc:	90 10 00 10 	mov  %l0, %o0
    93c0:	b0 10 20 00 	clr  %i0
    93c4:	81 c7 e0 08 	ret 
    93c8:	81 e8 00 00 	restore 
    93cc:	81 c3 e0 08 	retl 
    93d0:	ae 03 c0 17 	add  %o7, %l7, %l7

000093d4 <__follow_path>:
__follow_path():
    93d4:	9d e3 bf 48 	save  %sp, -184, %sp
    93d8:	c2 06 00 00 	ld  [ %i0 ], %g1
    93dc:	2f 00 00 63 	sethi  %hi(0x18c00), %l7
    93e0:	7f ff ff fb 	call  93cc <__create_ib_request+0x24c>
    93e4:	ae 05 e0 20 	add  %l7, 0x20, %l7	! 18c20 <__FRAME_END__+0x7bf8>
    93e8:	80 a0 60 00 	cmp  %g1, 0
    93ec:	02 80 00 1d 	be  9460 <__follow_path+0x8c>
    93f0:	03 00 00 00 	sethi  %hi(0), %g1
    93f4:	d0 06 40 00 	ld  [ %i1 ], %o0
    93f8:	b6 92 20 00 	orcc  %o0, 0, %i3
    93fc:	02 80 00 5c 	be  956c <__follow_path+0x198>
    9400:	b0 10 20 02 	mov  2, %i0
    9404:	90 10 00 1b 	mov  %i3, %o0
    9408:	40 00 64 18 	call  22468 <strchr@plt>
    940c:	92 10 20 3a 	mov  0x3a, %o1
    9410:	80 a2 20 00 	cmp  %o0, 0
    9414:	02 80 00 05 	be  9428 <__follow_path+0x54>
    9418:	d0 26 40 00 	st  %o0, [ %i1 ]
    941c:	c0 2a 00 00 	clrb  [ %o0 ]
    9420:	82 02 20 01 	add  %o0, 1, %g1
    9424:	c2 26 40 00 	st  %g1, [ %i1 ]
    9428:	c2 4e c0 00 	ldsb  [ %i3 ], %g1
    942c:	80 a0 60 00 	cmp  %g1, 0
    9430:	02 80 00 4f 	be  956c <__follow_path+0x198>
    9434:	b0 10 20 02 	mov  2, %i0
    9438:	40 00 64 d2 	call  22780 <__strdup@plt>
    943c:	90 10 00 1b 	mov  %i3, %o0
    9440:	b6 92 20 00 	orcc  %o0, 0, %i3
    9444:	02 80 00 4a 	be  956c <__follow_path+0x198>
    9448:	b0 10 20 0d 	mov  0xd, %i0
    944c:	40 00 64 e5 	call  227e0 <free@plt>
    9450:	d0 06 80 00 	ld  [ %i2 ], %o0
    9454:	f6 26 80 00 	st  %i3, [ %i2 ]
    9458:	10 80 00 45 	b  956c <__follow_path+0x198>
    945c:	b0 10 20 00 	clr  %i0
    9460:	82 10 62 60 	or  %g1, 0x260, %g1
    9464:	d8 05 c0 01 	ld  [ %l7 + %g1 ], %o4
    9468:	d0 06 c0 00 	ld  [ %i3 ], %o0
    946c:	d4 02 20 04 	ld  [ %o0 + 4 ], %o2
    9470:	82 07 bf b0 	add  %fp, -80, %g1
    9474:	c2 23 a0 5c 	st  %g1, [ %sp + 0x5c ]
    9478:	c2 06 80 00 	ld  [ %i2 ], %g1
    947c:	c2 27 bf b8 	st  %g1, [ %fp + -72 ]
    9480:	1b 00 00 00 	sethi  %hi(0), %o5
    9484:	25 00 00 00 	sethi  %hi(0), %l2
    9488:	d6 03 20 04 	ld  [ %o4 + 4 ], %o3
    948c:	c8 03 00 00 	ld  [ %o4 ], %g4
    9490:	9a 13 63 70 	or  %o5, 0x370, %o5
    9494:	92 14 a3 60 	or  %l2, 0x360, %o1
    9498:	c2 02 80 00 	ld  [ %o2 ], %g1
    949c:	84 10 20 00 	clr  %g2
    94a0:	86 10 20 00 	clr  %g3
    94a4:	d6 27 bf b4 	st  %o3, [ %fp + -76 ]
    94a8:	d4 05 c0 0d 	ld  [ %l7 + %o5 ], %o2
    94ac:	d8 05 c0 09 	ld  [ %l7 + %o1 ], %o4
    94b0:	a2 07 bf c8 	add  %fp, -56, %l1
    94b4:	c4 3f bf e0 	std  %g2, [ %fp + -32 ]
    94b8:	c8 27 bf b0 	st  %g4, [ %fp + -80 ]
    94bc:	c4 3f bf c8 	std  %g2, [ %fp + -56 ]
    94c0:	c4 3f bf d0 	std  %g2, [ %fp + -48 ]
    94c4:	c4 3f bf d8 	std  %g2, [ %fp + -40 ]
    94c8:	c0 27 bf e8 	clr  [ %fp + -24 ]
    94cc:	c0 27 bf bc 	clr  [ %fp + -68 ]
    94d0:	c0 27 bf c0 	clr  [ %fp + -64 ]
    94d4:	92 10 20 01 	mov  1, %o1
    94d8:	96 07 bf b8 	add  %fp, -72, %o3
    94dc:	9f c0 40 00 	call  %g1
    94e0:	9a 10 00 11 	mov  %l1, %o5
    94e4:	a0 92 20 00 	orcc  %o0, 0, %l0
    94e8:	02 80 00 11 	be  952c <__follow_path+0x158>
    94ec:	c2 07 bf c8 	ld  [ %fp + -56 ], %g1
    94f0:	03 00 00 00 	sethi  %hi(0), %g1
    94f4:	82 10 62 68 	or  %g1, 0x268, %g1	! 268 <GLIBC_2.0+0x268>
    94f8:	d0 05 c0 01 	ld  [ %l7 + %g1 ], %o0
    94fc:	40 00 64 a1 	call  22780 <__strdup@plt>
    9500:	01 00 00 00 	nop 
    9504:	80 a4 20 00 	cmp  %l0, 0
    9508:	02 80 00 13 	be  9554 <__follow_path+0x180>
    950c:	b6 10 00 08 	mov  %o0, %i3
    9510:	f6 26 00 00 	st  %i3, [ %i0 ]
    9514:	80 a6 e0 00 	cmp  %i3, 0
    9518:	02 80 00 15 	be  956c <__follow_path+0x198>
    951c:	b0 10 20 0d 	mov  0xd, %i0
    9520:	90 10 00 1b 	mov  %i3, %o0
    9524:	10 bf ff b5 	b  93f8 <__follow_path+0x24>
    9528:	f6 26 40 00 	st  %i3, [ %i1 ]
    952c:	80 a0 60 00 	cmp  %g1, 0
    9530:	12 bf ff f1 	bne  94f4 <__follow_path+0x120>
