
/home/inouema/work/LEON/linux/snapgear-2.6-p42/romfs/bin/sh:     ファイル形式 elf32-sparc

セクション .init の逆アセンブル:

00011508 <_init>:
_init():
   11508:	9d e3 bf a0 	save  %sp, -96, %sp
   1150c:	40 00 00 2a 	call  115b4 <frame_dummy>
   11510:	01 00 00 00 	nop 
   11514:	40 00 24 0f 	call  1a550 <__do_global_ctors_aux>
   11518:	01 00 00 00 	nop 
   1151c:	81 c7 e0 08 	ret 
   11520:	81 e8 00 00 	restore 
セクション .text の逆アセンブル:

00011524 <_start>:
_start():
   11524:	bc 10 00 00 	mov  %g0, %fp
   11528:	9c 23 a0 18 	sub  %sp, 0x18, %sp
   1152c:	d2 03 a0 58 	ld  [ %sp + 0x58 ], %o1
   11530:	94 03 a0 5c 	add  %sp, 0x5c, %o2
   11534:	11 00 00 45 	sethi  %hi(0x11400), %o0
   11538:	17 00 00 69 	sethi  %hi(0x1a400), %o3
   1153c:	19 00 00 69 	sethi  %hi(0x1a400), %o4
   11540:	90 12 22 00 	or  %o0, 0x200, %o0
   11544:	96 12 e0 74 	or  %o3, 0x74, %o3
   11548:	98 13 20 ec 	or  %o4, 0xec, %o4
   1154c:	9a 10 00 01 	mov  %g1, %o5
   11550:	40 00 6b ad 	call  2c404 <__libc_start_main@plt>
   11554:	01 00 00 00 	nop 
   11558:	00 00 00 00 	unimp  0

0001155c <__do_global_dtors_aux>:
__do_global_dtors_aux():
   1155c:	9d e3 bf 98 	save  %sp, -104, %sp
   11560:	23 00 00 b3 	sethi  %hi(0x2cc00), %l1
   11564:	c2 0c 62 48 	ldub  [ %l1 + 0x248 ], %g1	! 2ce48 <completed.1>
   11568:	80 a0 60 00 	cmp  %g1, 0
   1156c:	12 80 00 0d 	bne  115a0 <__do_global_dtors_aux+0x44>
   11570:	21 00 00 b1 	sethi  %hi(0x2c400), %l0
   11574:	10 80 00 05 	b  11588 <__do_global_dtors_aux+0x2c>
   11578:	c2 04 21 e4 	ld  [ %l0 + 0x1e4 ], %g1	! 2c5e4 <p.0>
   1157c:	9f c0 80 00 	call  %g2
   11580:	c2 24 21 e4 	st  %g1, [ %l0 + 0x1e4 ]
   11584:	c2 04 21 e4 	ld  [ %l0 + 0x1e4 ], %g1
   11588:	c4 00 40 00 	ld  [ %g1 ], %g2
   1158c:	80 a0 a0 00 	cmp  %g2, 0
   11590:	12 bf ff fb 	bne  1157c <__do_global_dtors_aux+0x20>
   11594:	82 00 60 04 	add  %g1, 4, %g1
   11598:	82 10 20 01 	mov  1, %g1
   1159c:	c2 2c 62 48 	stb  %g1, [ %l1 + 0x248 ]
   115a0:	81 c7 e0 08 	ret 
   115a4:	81 e8 00 00 	restore 

000115a8 <call___do_global_dtors_aux>:
call___do_global_dtors_aux():
   115a8:	9d e3 bf 98 	save  %sp, -104, %sp
   115ac:	81 c7 e0 08 	ret 
   115b0:	81 e8 00 00 	restore 

000115b4 <frame_dummy>:
frame_dummy():
   115b4:	05 00 00 b0 	sethi  %hi(0x2c000), %g2
   115b8:	c2 00 a0 10 	ld  [ %g2 + 0x10 ], %g1	! 2c010 <__JCR_END__>
   115bc:	80 a0 60 00 	cmp  %g1, 0
   115c0:	02 80 00 0a 	be  115e8 <frame_dummy+0x34>
   115c4:	90 10 a0 10 	or  %g2, 0x10, %o0
   115c8:	03 00 00 00 	sethi  %hi(0), %g1
   115cc:	82 10 60 00 	mov  %g1, %g1	! 0 <_init-0x11508>
   115d0:	80 a0 60 00 	cmp  %g1, 0
   115d4:	02 80 00 05 	be  115e8 <frame_dummy+0x34>
   115d8:	01 00 00 00 	nop 
   115dc:	82 13 c0 00 	mov  %o7, %g1
   115e0:	10 bf ba 88 	b  0 <_init-0x11508>
   115e4:	01 00 00 00 	nop 
   115e8:	01 00 00 00 	nop 
   115ec:	81 c3 e0 08 	retl 
   115f0:	01 00 00 00 	nop 

000115f4 <call_frame_dummy>:
call_frame_dummy():
   115f4:	9d e3 bf 98 	save  %sp, -104, %sp
   115f8:	81 c7 e0 08 	ret 
   115fc:	81 e8 00 00 	restore 

00011600 <main>:
main():
   11600:	9d e3 bf 00 	save  %sp, -256, %sp
   11604:	f0 27 a0 44 	st  %i0, [ %fp + 0x44 ]
   11608:	f2 27 a0 48 	st  %i1, [ %fp + 0x48 ]
   1160c:	f4 27 a0 4c 	st  %i2, [ %fp + 0x4c ]
   11610:	c0 27 bf 60 	clr  [ %fp + -160 ]
   11614:	c2 07 a0 44 	ld  [ %fp + 0x44 ], %g1
   11618:	80 a0 60 01 	cmp  %g1, 1
   1161c:	04 80 00 3d 	ble  11710 <main+0x110>
   11620:	01 00 00 00 	nop 
   11624:	84 10 20 04 	mov  4, %g2	! 4 <_init-0x11504>
   11628:	c2 07 a0 48 	ld  [ %fp + 0x48 ], %g1
   1162c:	82 00 80 01 	add  %g2, %g1, %g1
   11630:	05 00 00 69 	sethi  %hi(0x1a400), %g2
   11634:	d0 00 40 00 	ld  [ %g1 ], %o0
   11638:	92 10 a1 b8 	or  %g2, 0x1b8, %o1
   1163c:	40 00 6a ee 	call  2c1f4 <strcmp@plt>
   11640:	01 00 00 00 	nop 
   11644:	82 10 00 08 	mov  %o0, %g1
   11648:	80 a0 60 00 	cmp  %g1, 0
   1164c:	12 80 00 31 	bne  11710 <main+0x110>
   11650:	01 00 00 00 	nop 
   11654:	03 00 00 b4 	sethi  %hi(0x2d000), %g1
   11658:	82 10 63 e8 	or  %g1, 0x3e8, %g1	! 2d3e8 <buf>
   1165c:	c0 28 40 00 	clrb  [ %g1 ]
   11660:	82 10 20 02 	mov  2, %g1
   11664:	c2 27 bf 60 	st  %g1, [ %fp + -160 ]
   11668:	c4 07 bf 60 	ld  [ %fp + -160 ], %g2
   1166c:	c2 07 a0 44 	ld  [ %fp + 0x44 ], %g1
   11670:	80 a0 80 01 	cmp  %g2, %g1
   11674:	16 80 00 1e 	bge  116ec <main+0xec>
   11678:	01 00 00 00 	nop 
   1167c:	c2 07 bf 60 	ld  [ %fp + -160 ], %g1
   11680:	85 28 60 02 	sll  %g1, 2, %g2
   11684:	c2 07 a0 48 	ld  [ %fp + 0x48 ], %g1
   11688:	84 00 80 01 	add  %g2, %g1, %g2
   1168c:	03 00 00 b4 	sethi  %hi(0x2d000), %g1
   11690:	90 10 63 e8 	or  %g1, 0x3e8, %o0	! 2d3e8 <buf>
   11694:	d2 00 80 00 	ld  [ %g2 ], %o1
   11698:	94 10 21 00 	mov  0x100, %o2
   1169c:	40 00 6a be 	call  2c194 <strncat@plt>
   116a0:	01 00 00 00 	nop 
   116a4:	c2 07 bf 60 	ld  [ %fp + -160 ], %g1
   116a8:	84 00 60 01 	add  %g1, 1, %g2
   116ac:	c2 07 a0 44 	ld  [ %fp + 0x44 ], %g1
   116b0:	80 a0 80 01 	cmp  %g2, %g1
   116b4:	16 80 00 09 	bge  116d8 <main+0xd8>
   116b8:	01 00 00 00 	nop 
   116bc:	03 00 00 b4 	sethi  %hi(0x2d000), %g1
   116c0:	90 10 63 e8 	or  %g1, 0x3e8, %o0	! 2d3e8 <buf>
   116c4:	03 00 00 69 	sethi  %hi(0x1a400), %g1
   116c8:	92 10 61 c0 	or  %g1, 0x1c0, %o1	! 1a5c0 <_IO_stdin_used+0x10>
   116cc:	94 10 21 00 	mov  0x100, %o2
   116d0:	40 00 6a b1 	call  2c194 <strncat@plt>
   116d4:	01 00 00 00 	nop 
   116d8:	c2 07 bf 60 	ld  [ %fp + -160 ], %g1
   116dc:	82 00 60 01 	inc  %g1
   116e0:	c2 27 bf 60 	st  %g1, [ %fp + -160 ]
   116e4:	10 bf ff e1 	b  11668 <main+0x68>
   116e8:	01 00 00 00 	nop 
   116ec:	03 00 00 b4 	sethi  %hi(0x2d000), %g1
   116f0:	90 10 63 e8 	or  %g1, 0x3e8, %o0	! 2d3e8 <buf>
   116f4:	40 00 01 71 	call  11cb8 <command>
   116f8:	01 00 00 00 	nop 
   116fc:	03 00 00 b3 	sethi  %hi(0x2cc00), %g1
   11700:	82 10 62 50 	or  %g1, 0x250, %g1	! 2ce50 <exit_code>
   11704:	d0 00 40 00 	ld  [ %g1 ], %o0
   11708:	40 00 6b 75 	call  2c4dc <exit@plt>
   1170c:	01 00 00 00 	nop 
   11710:	c2 07 a0 44 	ld  [ %fp + 0x44 ], %g1
   11714:	80 a0 60 01 	cmp  %g1, 1
   11718:	04 80 00 1b 	ble  11784 <main+0x184>
   1171c:	01 00 00 00 	nop 
   11720:	84 10 20 04 	mov  4, %g2	! 4 <_init-0x11504>
   11724:	c2 07 a0 48 	ld  [ %fp + 0x48 ], %g1
   11728:	82 00 80 01 	add  %g2, %g1, %g1
   1172c:	05 00 00 69 	sethi  %hi(0x1a400), %g2
   11730:	d0 00 40 00 	ld  [ %g1 ], %o0
   11734:	92 10 a1 c8 	or  %g2, 0x1c8, %o1
   11738:	40 00 6a af 	call  2c1f4 <strcmp@plt>
   1173c:	01 00 00 00 	nop 
   11740:	82 10 00 08 	mov  %o0, %g1
   11744:	80 a0 60 00 	cmp  %g1, 0
   11748:	02 80 00 0f 	be  11784 <main+0x184>
   1174c:	01 00 00 00 	nop 
   11750:	c2 07 bf 60 	ld  [ %fp + -160 ], %g1
   11754:	82 00 60 01 	inc  %g1
   11758:	c2 27 bf 60 	st  %g1, [ %fp + -160 ]
   1175c:	84 10 20 04 	mov  4, %g2
   11760:	c2 07 a0 48 	ld  [ %fp + 0x48 ], %g1
   11764:	84 00 80 01 	add  %g2, %g1, %g2
   11768:	03 00 00 69 	sethi  %hi(0x1a400), %g1
   1176c:	90 10 61 d0 	or  %g1, 0x1d0, %o0	! 1a5d0 <_IO_stdin_used+0x20>
   11770:	d2 00 80 00 	ld  [ %g2 ], %o1
   11774:	40 00 6b 8d 	call  2c5a8 <printf@plt>
   11778:	01 00 00 00 	nop 
   1177c:	10 80 00 08 	b  1179c <main+0x19c>
   11780:	01 00 00 00 	nop 
   11784:	03 00 00 69 	sethi  %hi(0x1a400), %g1
   11788:	90 10 61 f0 	or  %g1, 0x1f0, %o0	! 1a5f0 <_IO_stdin_used+0x40>
   1178c:	03 00 00 b1 	sethi  %hi(0x2c400), %g1
   11790:	92 10 61 e8 	or  %g1, 0x1e8, %o1	! 2c5e8 <version>
   11794:	40 00 6b 85 	call  2c5a8 <printf@plt>
   11798:	01 00 00 00 	nop 
   1179c:	03 00 00 b3 	sethi  %hi(0x2cc00), %g1
   117a0:	82 10 62 3c 	or  %g1, 0x23c, %g1	! 2ce3c <stdout@@GLIBC_2.0>
   117a4:	d0 00 40 00 	ld  [ %g1 ], %o0
   117a8:	40 00 6a ab 	call  2c254 <fflush@plt>
   117ac:	01 00 00 00 	nop 
   117b0:	90 10 20 02 	mov  2, %o0	! 2 <_init-0x11506>
   117b4:	03 00 00 4b 	sethi  %hi(0x12c00), %g1
   117b8:	92 10 61 a0 	or  %g1, 0x1a0, %o1	! 12da0 <catchint>
   117bc:	40 00 6a a3 	call  2c248 <signal@plt>
   117c0:	01 00 00 00 	nop 
   117c4:	90 10 20 03 	mov  3, %o0	! 3 <_init-0x11505>
   117c8:	03 00 00 4b 	sethi  %hi(0x12c00), %g1
   117cc:	92 10 62 04 	or  %g1, 0x204, %o1	! 12e04 <catchquit>
   117d0:	40 00 6a 9e 	call  2c248 <signal@plt>
   117d4:	01 00 00 00 	nop 
   117d8:	82 07 bf 68 	add  %fp, -152, %g1
   117dc:	90 10 00 01 	mov  %g1, %o0
   117e0:	92 10 20 00 	clr  %o1
   117e4:	94 10 20 8c 	mov  0x8c, %o2
   117e8:	40 00 6b 52 	call  2c530 <memset@plt>
   117ec:	01 00 00 00 	nop 
   117f0:	03 00 00 4b 	sethi  %hi(0x12c00), %g1
   117f4:	82 10 62 68 	or  %g1, 0x268, %g1	! 12e68 <catchchild>
   117f8:	c2 27 bf 68 	st  %g1, [ %fp + -152 ]
   117fc:	82 10 20 02 	mov  2, %g1
   11800:	c2 27 bf ec 	st  %g1, [ %fp + -20 ]
   11804:	82 07 bf 68 	add  %fp, -152, %g1
   11808:	90 10 20 14 	mov  0x14, %o0
   1180c:	92 10 00 01 	mov  %g1, %o1
   11810:	94 10 20 00 	clr  %o2
   11814:	40 00 6a 5d 	call  2c188 <sigaction@plt>
   11818:	01 00 00 00 	nop 
   1181c:	03 00 00 69 	sethi  %hi(0x1a400), %g1
   11820:	90 10 62 18 	or  %g1, 0x218, %o0	! 1a618 <_IO_stdin_used+0x68>
   11824:	40 00 6a 83 	call  2c230 <getenv@plt>
   11828:	01 00 00 00 	nop 
   1182c:	82 10 00 08 	mov  %o0, %g1
   11830:	80 a0 60 00 	cmp  %g1, 0
   11834:	12 80 00 06 	bne  1184c <main+0x24c>
   11838:	01 00 00 00 	nop 
   1183c:	03 00 00 69 	sethi  %hi(0x1a400), %g1
   11840:	90 10 62 20 	or  %g1, 0x220, %o0	! 1a620 <_IO_stdin_used+0x70>
   11844:	40 00 6a 96 	call  2c29c <putenv@plt>
   11848:	01 00 00 00 	nop 
   1184c:	c2 07 bf 60 	ld  [ %fp + -160 ], %g1
   11850:	80 a0 60 00 	cmp  %g1, 0
   11854:	02 80 00 0a 	be  1187c <main+0x27c>
   11858:	01 00 00 00 	nop 
   1185c:	82 10 20 04 	mov  4, %g1	! 4 <_init-0x11504>
   11860:	c4 07 a0 48 	ld  [ %fp + 0x48 ], %g2
   11864:	82 00 40 02 	add  %g1, %g2, %g1
   11868:	d0 00 40 00 	ld  [ %g1 ], %o0
   1186c:	40 00 00 0d 	call  118a0 <readfile>
   11870:	01 00 00 00 	nop 
   11874:	10 80 00 05 	b  11888 <main+0x288>
   11878:	01 00 00 00 	nop 
   1187c:	90 10 20 00 	clr  %o0	! 0 <_init-0x11508>
   11880:	40 00 00 08 	call  118a0 <readfile>
   11884:	01 00 00 00 	nop 
   11888:	03 00 00 b3 	sethi  %hi(0x2cc00), %g1
   1188c:	82 10 62 50 	or  %g1, 0x250, %g1	! 2ce50 <exit_code>
   11890:	d0 00 40 00 	ld  [ %g1 ], %o0
   11894:	40 00 6b 12 	call  2c4dc <exit@plt>
   11898:	01 00 00 00 	nop 
   1189c:	01 00 00 00 	nop 

000118a0 <readfile>:
readfile():
   118a0:	9d e3 bf 88 	save  %sp, -120, %sp
   118a4:	f0 27 a0 44 	st  %i0, [ %fp + 0x44 ]
   118a8:	03 00 00 b3 	sethi  %hi(0x2cc00), %g1
   118ac:	82 10 63 88 	or  %g1, 0x388, %g1	! 2cf88 <sourcecount>
   118b0:	c2 00 40 00 	ld  [ %g1 ], %g1
   118b4:	80 a0 60 09 	cmp  %g1, 9
   118b8:	04 80 00 0b 	ble  118e4 <readfile+0x44>
   118bc:	01 00 00 00 	nop 
   118c0:	03 00 00 b3 	sethi  %hi(0x2cc00), %g1
   118c4:	82 10 62 40 	or  %g1, 0x240, %g1	! 2ce40 <stderr@@GLIBC_2.0>
   118c8:	d0 00 40 00 	ld  [ %g1 ], %o0
   118cc:	03 00 00 69 	sethi  %hi(0x1a400), %g1
   118d0:	92 10 62 38 	or  %g1, 0x238, %o1	! 1a638 <_IO_stdin_used+0x88>
   118d4:	40 00 6a c9 	call  2c3f8 <fprintf@plt>
   118d8:	01 00 00 00 	nop 
   118dc:	10 80 00 f5 	b  11cb0 <readfile+0x410>
   118e0:	01 00 00 00 	nop 
   118e4:	03 00 00 b3 	sethi  %hi(0x2cc00), %g1
   118e8:	82 10 62 44 	or  %g1, 0x244, %g1	! 2ce44 <stdin@@GLIBC_2.0>
   118ec:	c2 00 40 00 	ld  [ %g1 ], %g1
   118f0:	c2 27 bf f4 	st  %g1, [ %fp + -12 ]
   118f4:	c2 07 a0 44 	ld  [ %fp + 0x44 ], %g1
   118f8:	80 a0 60 00 	cmp  %g1, 0
   118fc:	02 80 00 12 	be  11944 <readfile+0xa4>
   11900:	01 00 00 00 	nop 
   11904:	d0 07 a0 44 	ld  [ %fp + 0x44 ], %o0
   11908:	03 00 00 69 	sethi  %hi(0x1a400), %g1
   1190c:	92 10 62 50 	or  %g1, 0x250, %o1	! 1a650 <_IO_stdin_used+0xa0>
   11910:	40 00 6b 17 	call  2c56c <fopen@plt>
   11914:	01 00 00 00 	nop 
   11918:	82 10 00 08 	mov  %o0, %g1
   1191c:	c2 27 bf f4 	st  %g1, [ %fp + -12 ]
   11920:	c2 07 bf f4 	ld  [ %fp + -12 ], %g1
   11924:	80 a0 60 00 	cmp  %g1, 0
   11928:	12 80 00 07 	bne  11944 <readfile+0xa4>
   1192c:	01 00 00 00 	nop 
   11930:	d0 07 a0 44 	ld  [ %fp + 0x44 ], %o0
   11934:	40 00 6a 3c 	call  2c224 <perror@plt>
   11938:	01 00 00 00 	nop 
   1193c:	10 80 00 dd 	b  11cb0 <readfile+0x410>
   11940:	01 00 00 00 	nop 
   11944:	03 00 00 b3 	sethi  %hi(0x2cc00), %g1
   11948:	88 10 63 60 	or  %g1, 0x360, %g4	! 2cf60 <sourcefiles>
   1194c:	03 00 00 b3 	sethi  %hi(0x2cc00), %g1
   11950:	9a 10 63 88 	or  %g1, 0x388, %o5	! 2cf88 <sourcecount>
   11954:	c4 03 40 00 	ld  [ %o5 ], %g2
   11958:	82 10 00 02 	mov  %g2, %g1
   1195c:	87 28 60 02 	sll  %g1, 2, %g3
   11960:	c2 07 bf f4 	ld  [ %fp + -12 ], %g1
   11964:	c2 21 00 03 	st  %g1, [ %g4 + %g3 ]
   11968:	84 00 a0 01 	inc  %g2
   1196c:	c4 23 40 00 	st  %g2, [ %o5 ]
   11970:	d0 07 bf f4 	ld  [ %fp + -12 ], %o0
   11974:	40 00 6a 1d 	call  2c1e8 <fileno@plt>
   11978:	01 00 00 00 	nop 
   1197c:	82 10 00 08 	mov  %o0, %g1
   11980:	90 10 00 01 	mov  %g1, %o0
   11984:	40 00 6a e8 	call  2c524 <isatty@plt>
   11988:	01 00 00 00 	nop 
   1198c:	82 10 00 08 	mov  %o0, %g1
   11990:	c2 27 bf ec 	st  %g1, [ %fp + -20 ]
   11994:	03 00 00 b3 	sethi  %hi(0x2cc00), %g1
   11998:	82 10 62 3c 	or  %g1, 0x23c, %g1	! 2ce3c <stdout@@GLIBC_2.0>
   1199c:	d0 00 40 00 	ld  [ %g1 ], %o0
   119a0:	40 00 6a 2d 	call  2c254 <fflush@plt>
   119a4:	01 00 00 00 	nop 
   119a8:	03 00 00 b3 	sethi  %hi(0x2cc00), %g1
   119ac:	82 10 62 44 	or  %g1, 0x244, %g1	! 2ce44 <stdin@@GLIBC_2.0>
   119b0:	c4 07 bf f4 	ld  [ %fp + -12 ], %g2
   119b4:	c2 00 40 00 	ld  [ %g1 ], %g1
   119b8:	80 a0 80 01 	cmp  %g2, %g1
   119bc:	12 80 00 04 	bne  119cc <readfile+0x12c>
   119c0:	01 00 00 00 	nop 
   119c4:	40 00 04 d1 	call  12d08 <showprompt>
   119c8:	01 00 00 00 	nop 
   119cc:	03 00 00 b5 	sethi  %hi(0x2d400), %g1
   119d0:	82 10 62 48 	or  %g1, 0x248, %g1	! 2d648 <intflag>
   119d4:	c2 00 40 00 	ld  [ %g1 ], %g1
   119d8:	80 a0 60 00 	cmp  %g1, 0
   119dc:	02 80 00 19 	be  11a40 <readfile+0x1a0>
   119e0:	01 00 00 00 	nop 
   119e4:	c2 07 bf ec 	ld  [ %fp + -20 ], %g1
   119e8:	80 a0 60 00 	cmp  %g1, 0
   119ec:	12 80 00 15 	bne  11a40 <readfile+0x1a0>
   119f0:	01 00 00 00 	nop 
   119f4:	03 00 00 b3 	sethi  %hi(0x2cc00), %g1
   119f8:	82 10 62 44 	or  %g1, 0x244, %g1	! 2ce44 <stdin@@GLIBC_2.0>
   119fc:	c4 07 bf f4 	ld  [ %fp + -12 ], %g2
   11a00:	c2 00 40 00 	ld  [ %g1 ], %g1
   11a04:	80 a0 80 01 	cmp  %g2, %g1
   11a08:	02 80 00 0e 	be  11a40 <readfile+0x1a0>
   11a0c:	01 00 00 00 	nop 
   11a10:	d0 07 bf f4 	ld  [ %fp + -12 ], %o0
   11a14:	40 00 6a 91 	call  2c458 <fclose@plt>
   11a18:	01 00 00 00 	nop 
   11a1c:	03 00 00 b3 	sethi  %hi(0x2cc00), %g1
   11a20:	84 10 63 88 	or  %g1, 0x388, %g2	! 2cf88 <sourcecount>
   11a24:	03 00 00 b3 	sethi  %hi(0x2cc00), %g1
   11a28:	82 10 63 88 	or  %g1, 0x388, %g1	! 2cf88 <sourcecount>
   11a2c:	c2 00 40 00 	ld  [ %g1 ], %g1
   11a30:	82 00 7f ff 	add  %g1, -1, %g1
   11a34:	c2 20 80 00 	st  %g1, [ %g2 ]
   11a38:	10 80 00 9e 	b  11cb0 <readfile+0x410>
   11a3c:	01 00 00 00 	nop 
   11a40:	03 00 00 b4 	sethi  %hi(0x2d000), %g1
   11a44:	90 10 63 e8 	or  %g1, 0x3e8, %o0	! 2d3e8 <buf>
   11a48:	92 10 20 ff 	mov  0xff, %o1
   11a4c:	d4 07 bf f4 	ld  [ %fp + -12 ], %o2
   11a50:	40 00 6a 46 	call  2c368 <fgets@plt>
   11a54:	01 00 00 00 	nop 
   11a58:	82 10 00 08 	mov  %o0, %g1
   11a5c:	80 a0 60 00 	cmp  %g1, 0
   11a60:	12 80 00 15 	bne  11ab4 <readfile+0x214>
   11a64:	01 00 00 00 	nop 
   11a68:	d0 07 bf f4 	ld  [ %fp + -12 ], %o0
   11a6c:	40 00 69 c4 	call  2c17c <ferror@plt>
   11a70:	01 00 00 00 	nop 
   11a74:	82 10 00 08 	mov  %o0, %g1
   11a78:	80 a0 60 00 	cmp  %g1, 0
   11a7c:	02 80 00 60 	be  11bfc <readfile+0x35c>
   11a80:	01 00 00 00 	nop 
   11a84:	40 00 6a 0c 	call  2c2b4 <__errno_location@plt>
   11a88:	01 00 00 00 	nop 
   11a8c:	82 10 00 08 	mov  %o0, %g1
   11a90:	c2 00 40 00 	ld  [ %g1 ], %g1
   11a94:	80 a0 60 04 	cmp  %g1, 4
   11a98:	12 80 00 59 	bne  11bfc <readfile+0x35c>
   11a9c:	01 00 00 00 	nop 
   11aa0:	d0 07 bf f4 	ld  [ %fp + -12 ], %o0
   11aa4:	40 00 6a 19 	call  2c308 <clearerr@plt>
   11aa8:	01 00 00 00 	nop 
   11aac:	10 bf ff ba 	b  11994 <readfile+0xf4>
   11ab0:	01 00 00 00 	nop 
   11ab4:	03 00 00 b4 	sethi  %hi(0x2d000), %g1
   11ab8:	90 10 63 e8 	or  %g1, 0x3e8, %o0	! 2d3e8 <buf>
   11abc:	40 00 6a 34 	call  2c38c <strlen@plt>
   11ac0:	01 00 00 00 	nop 
   11ac4:	82 10 00 08 	mov  %o0, %g1
   11ac8:	c2 27 bf f0 	st  %g1, [ %fp + -16 ]
   11acc:	c2 07 bf f0 	ld  [ %fp + -16 ], %g1
   11ad0:	80 a0 60 00 	cmp  %g1, 0
   11ad4:	04 80 00 1c 	ble  11b44 <readfile+0x2a4>
   11ad8:	01 00 00 00 	nop 
   11adc:	40 00 6a b0 	call  2c59c <__ctype_b_loc@plt>
   11ae0:	01 00 00 00 	nop 
   11ae4:	82 10 00 08 	mov  %o0, %g1
   11ae8:	86 10 00 01 	mov  %g1, %g3
   11aec:	03 00 00 b4 	sethi  %hi(0x2d000), %g1
   11af0:	84 10 63 e8 	or  %g1, 0x3e8, %g2	! 2d3e8 <buf>
   11af4:	c2 07 bf f0 	ld  [ %fp + -16 ], %g1
   11af8:	82 00 80 01 	add  %g2, %g1, %g1
   11afc:	c2 08 7f ff 	ldub  [ %g1 + -1 ], %g1
   11b00:	83 28 60 18 	sll  %g1, 0x18, %g1
   11b04:	83 38 60 18 	sra  %g1, 0x18, %g1
   11b08:	84 00 40 01 	add  %g1, %g1, %g2
   11b0c:	c2 00 c0 00 	ld  [ %g3 ], %g1
   11b10:	82 00 80 01 	add  %g2, %g1, %g1
   11b14:	c2 10 40 00 	lduh  [ %g1 ], %g1
   11b18:	83 28 60 10 	sll  %g1, 0x10, %g1
   11b1c:	83 30 60 10 	srl  %g1, 0x10, %g1
   11b20:	82 08 60 20 	and  %g1, 0x20, %g1
   11b24:	80 a0 60 00 	cmp  %g1, 0
   11b28:	02 80 00 07 	be  11b44 <readfile+0x2a4>
   11b2c:	01 00 00 00 	nop 
   11b30:	c2 07 bf f0 	ld  [ %fp + -16 ], %g1
   11b34:	82 00 7f ff 	add  %g1, -1, %g1
   11b38:	c2 27 bf f0 	st  %g1, [ %fp + -16 ]
   11b3c:	10 bf ff e4 	b  11acc <readfile+0x22c>
   11b40:	01 00 00 00 	nop 
   11b44:	03 00 00 b4 	sethi  %hi(0x2d000), %g1
   11b48:	84 10 63 e8 	or  %g1, 0x3e8, %g2	! 2d3e8 <buf>
   11b4c:	c2 07 bf f0 	ld  [ %fp + -16 ], %g1
   11b50:	82 00 80 01 	add  %g2, %g1, %g1
   11b54:	c0 28 40 00 	clrb  [ %g1 ]
   11b58:	03 00 00 b3 	sethi  %hi(0x2cc00), %g1
   11b5c:	82 10 62 44 	or  %g1, 0x244, %g1	! 2ce44 <stdin@@GLIBC_2.0>
   11b60:	c4 07 bf f4 	ld  [ %fp + -12 ], %g2
   11b64:	c2 00 40 00 	ld  [ %g1 ], %g1
   11b68:	80 a0 80 01 	cmp  %g2, %g1
   11b6c:	02 80 00 08 	be  11b8c <readfile+0x2ec>
   11b70:	01 00 00 00 	nop 
   11b74:	03 00 00 69 	sethi  %hi(0x1a400), %g1
   11b78:	90 10 62 58 	or  %g1, 0x258, %o0	! 1a658 <_IO_stdin_used+0xa8>
   11b7c:	03 00 00 b4 	sethi  %hi(0x2d000), %g1
   11b80:	92 10 63 e8 	or  %g1, 0x3e8, %o1	! 2d3e8 <buf>
   11b84:	40 00 6a 89 	call  2c5a8 <printf@plt>
   11b88:	01 00 00 00 	nop 
   11b8c:	03 00 00 b4 	sethi  %hi(0x2d000), %g1
   11b90:	82 10 63 e8 	or  %g1, 0x3e8, %g1	! 2d3e8 <buf>
   11b94:	c2 27 bf e8 	st  %g1, [ %fp + -24 ]
   11b98:	c2 07 bf e8 	ld  [ %fp + -24 ], %g1
   11b9c:	c2 08 40 00 	ldub  [ %g1 ], %g1
   11ba0:	83 28 60 18 	sll  %g1, 0x18, %g1
   11ba4:	83 38 60 18 	sra  %g1, 0x18, %g1
   11ba8:	80 a0 60 20 	cmp  %g1, 0x20
   11bac:	12 80 00 07 	bne  11bc8 <readfile+0x328>
   11bb0:	01 00 00 00 	nop 
   11bb4:	c2 07 bf e8 	ld  [ %fp + -24 ], %g1
   11bb8:	82 00 60 01 	inc  %g1
   11bbc:	c2 27 bf e8 	st  %g1, [ %fp + -24 ]
   11bc0:	10 bf ff f6 	b  11b98 <readfile+0x2f8>
   11bc4:	01 00 00 00 	nop 
   11bc8:	c2 07 bf e8 	ld  [ %fp + -24 ], %g1
   11bcc:	c2 08 40 00 	ldub  [ %g1 ], %g1
   11bd0:	83 28 60 18 	sll  %g1, 0x18, %g1
   11bd4:	83 38 60 18 	sra  %g1, 0x18, %g1
   11bd8:	80 a0 60 23 	cmp  %g1, 0x23
   11bdc:	02 bf ff 6e 	be  11994 <readfile+0xf4>
   11be0:	01 00 00 00 	nop 
   11be4:	03 00 00 b4 	sethi  %hi(0x2d000), %g1
   11be8:	90 10 63 e8 	or  %g1, 0x3e8, %o0	! 2d3e8 <buf>
   11bec:	40 00 00 33 	call  11cb8 <command>
   11bf0:	01 00 00 00 	nop 
   11bf4:	10 bf ff 68 	b  11994 <readfile+0xf4>
   11bf8:	01 00 00 00 	nop 
   11bfc:	d0 07 bf f4 	ld  [ %fp + -12 ], %o0
   11c00:	40 00 69 5f 	call  2c17c <ferror@plt>
   11c04:	01 00 00 00 	nop 
   11c08:	82 10 00 08 	mov  %o0, %g1
   11c0c:	80 a0 60 00 	cmp  %g1, 0
   11c10:	02 80 00 10 	be  11c50 <readfile+0x3b0>
   11c14:	01 00 00 00 	nop 
   11c18:	03 00 00 69 	sethi  %hi(0x1a400), %g1
   11c1c:	90 10 62 68 	or  %g1, 0x268, %o0	! 1a668 <_IO_stdin_used+0xb8>
   11c20:	40 00 69 81 	call  2c224 <perror@plt>
   11c24:	01 00 00 00 	nop 
   11c28:	03 00 00 b3 	sethi  %hi(0x2cc00), %g1
   11c2c:	82 10 62 44 	or  %g1, 0x244, %g1	! 2ce44 <stdin@@GLIBC_2.0>
   11c30:	c4 07 bf f4 	ld  [ %fp + -12 ], %g2
   11c34:	c2 00 40 00 	ld  [ %g1 ], %g1
   11c38:	80 a0 80 01 	cmp  %g2, %g1
   11c3c:	12 80 00 05 	bne  11c50 <readfile+0x3b0>
   11c40:	01 00 00 00 	nop 
   11c44:	90 10 20 01 	mov  1, %o0	! 1 <_init-0x11507>
   11c48:	40 00 6a 25 	call  2c4dc <exit@plt>
   11c4c:	01 00 00 00 	nop 
   11c50:	d0 07 bf f4 	ld  [ %fp + -12 ], %o0
   11c54:	40 00 69 ad 	call  2c308 <clearerr@plt>
   11c58:	01 00 00 00 	nop 
   11c5c:	03 00 00 b3 	sethi  %hi(0x2cc00), %g1
   11c60:	82 10 62 44 	or  %g1, 0x244, %g1	! 2ce44 <stdin@@GLIBC_2.0>
   11c64:	c4 07 bf f4 	ld  [ %fp + -12 ], %g2
   11c68:	c2 00 40 00 	ld  [ %g1 ], %g1
   11c6c:	80 a0 80 01 	cmp  %g2, %g1
   11c70:	02 80 00 09 	be  11c94 <readfile+0x3f4>
   11c74:	01 00 00 00 	nop 
   11c78:	d0 07 bf f4 	ld  [ %fp + -12 ], %o0
   11c7c:	40 00 69 f7 	call  2c458 <fclose@plt>
   11c80:	01 00 00 00 	nop 
   11c84:	03 00 00 69 	sethi  %hi(0x1a400), %g1
   11c88:	90 10 62 80 	or  %g1, 0x280, %o0	! 1a680 <_IO_stdin_used+0xd0>
   11c8c:	40 00 6a 47 	call  2c5a8 <printf@plt>
   11c90:	01 00 00 00 	nop 
   11c94:	03 00 00 b3 	sethi  %hi(0x2cc00), %g1
   11c98:	84 10 63 88 	or  %g1, 0x388, %g2	! 2cf88 <sourcecount>
   11c9c:	03 00 00 b3 	sethi  %hi(0x2cc00), %g1
   11ca0:	82 10 63 88 	or  %g1, 0x388, %g1	! 2cf88 <sourcecount>
   11ca4:	c2 00 40 00 	ld  [ %g1 ], %g1
   11ca8:	82 00 7f ff 	add  %g1, -1, %g1
   11cac:	c2 20 80 00 	st  %g1, [ %g2 ]
   11cb0:	81 c7 e0 08 	ret 
   11cb4:	81 e8 00 00 	restore 

00011cb8 <command>:
command():
   11cb8:	9d e3 bf 70 	save  %sp, -144, %sp
   11cbc:	f0 27 a0 44 	st  %i0, [ %fp + 0x44 ]
   11cc0:	84 07 bf d0 	add  %fp, -48, %g2
   11cc4:	03 00 00 b3 	sethi  %hi(0x2cc00), %g1
   11cc8:	86 10 62 50 	or  %g1, 0x250, %g3	! 2ce50 <exit_code>
   11ccc:	90 10 00 02 	mov  %g2, %o0
   11cd0:	03 00 00 69 	sethi  %hi(0x1a400), %g1
   11cd4:	92 10 62 a0 	or  %g1, 0x2a0, %o1	! 1a6a0 <_IO_stdin_used+0xf0>
   11cd8:	d4 00 c0 00 	ld  [ %g3 ], %o2
   11cdc:	40 00 69 c4 	call  2c3ec <sprintf@plt>
   11ce0:	01 00 00 00 	nop 
   11ce4:	03 00 00 b5 	sethi  %hi(0x2d400), %g1
   11ce8:	82 10 62 48 	or  %g1, 0x248, %g1	! 2d648 <intflag>
   11cec:	c0 20 40 00 	clr  [ %g1 ]
   11cf0:	03 00 00 b3 	sethi  %hi(0x2cc00), %g1
   11cf4:	82 10 62 50 	or  %g1, 0x250, %g1	! 2ce50 <exit_code>
   11cf8:	c0 20 40 00 	clr  [ %g1 ]
   11cfc:	40 00 1e 0a 	call  19524 <freechunks>
   11d00:	01 00 00 00 	nop 
   11d04:	c2 07 a0 44 	ld  [ %fp + 0x44 ], %g1
   11d08:	c2 08 40 00 	ldub  [ %g1 ], %g1
   11d0c:	83 28 60 18 	sll  %g1, 0x18, %g1
   11d10:	83 38 60 18 	sra  %g1, 0x18, %g1
   11d14:	80 a0 60 20 	cmp  %g1, 0x20
   11d18:	02 80 00 0b 	be  11d44 <command+0x8c>
   11d1c:	01 00 00 00 	nop 
   11d20:	c2 07 a0 44 	ld  [ %fp + 0x44 ], %g1
   11d24:	c2 08 40 00 	ldub  [ %g1 ], %g1
   11d28:	83 28 60 18 	sll  %g1, 0x18, %g1
   11d2c:	83 38 60 18 	sra  %g1, 0x18, %g1
   11d30:	80 a0 60 09 	cmp  %g1, 9
   11d34:	02 80 00 04 	be  11d44 <command+0x8c>
   11d38:	01 00 00 00 	nop 
   11d3c:	10 80 00 07 	b  11d58 <command+0xa0>
   11d40:	01 00 00 00 	nop 
   11d44:	c2 07 a0 44 	ld  [ %fp + 0x44 ], %g1
   11d48:	82 00 60 01 	inc  %g1
   11d4c:	c2 27 a0 44 	st  %g1, [ %fp + 0x44 ]
   11d50:	10 bf ff ed 	b  11d04 <command+0x4c>
   11d54:	01 00 00 00 	nop 
   11d58:	d0 07 a0 44 	ld  [ %fp + 0x44 ], %o0
   11d5c:	92 10 20 26 	mov  0x26, %o1
   11d60:	40 00 69 10 	call  2c1a0 <strchr@plt>
   11d64:	01 00 00 00 	nop 
   11d68:	82 10 00 08 	mov  %o0, %g1
   11d6c:	c2 27 bf e4 	st  %g1, [ %fp + -28 ]
   11d70:	c2 07 bf e4 	ld  [ %fp + -28 ], %g1
   11d74:	80 a0 60 00 	cmp  %g1, 0
   11d78:	02 80 00 08 	be  11d98 <command+0xe0>
   11d7c:	01 00 00 00 	nop 
   11d80:	c2 07 bf e4 	ld  [ %fp + -28 ], %g1
   11d84:	c0 28 40 00 	clrb  [ %g1 ]
   11d88:	82 10 20 01 	mov  1, %g1
   11d8c:	c2 27 bf e8 	st  %g1, [ %fp + -24 ]
   11d90:	10 80 00 03 	b  11d9c <command+0xe4>
   11d94:	01 00 00 00 	nop 
   11d98:	c0 27 bf e8 	clr  [ %fp + -24 ]
   11d9c:	84 07 bf d0 	add  %fp, -48, %g2
   11da0:	03 00 00 69 	sethi  %hi(0x1a400), %g1
   11da4:	90 10 62 a8 	or  %g1, 0x2a8, %o0	! 1a6a8 <_IO_stdin_used+0xf8>
   11da8:	92 10 00 02 	mov  %g2, %o1
   11dac:	94 10 20 01 	mov  1, %o2
   11db0:	40 00 69 32 	call  2c278 <setenv@plt>
   11db4:	01 00 00 00 	nop 
   11db8:	d0 07 a0 44 	ld  [ %fp + 0x44 ], %o0
   11dbc:	40 00 1d f1 	call  19580 <expandenvvar>
   11dc0:	01 00 00 00 	nop 
   11dc4:	82 10 00 08 	mov  %o0, %g1
   11dc8:	c2 27 a0 44 	st  %g1, [ %fp + 0x44 ]
   11dcc:	c2 07 a0 44 	ld  [ %fp + 0x44 ], %g1
   11dd0:	80 a0 60 00 	cmp  %g1, 0
   11dd4:	12 80 00 04 	bne  11de4 <command+0x12c>
   11dd8:	01 00 00 00 	nop 
   11ddc:	10 80 00 80 	b  11fdc <command+0x324>
   11de0:	01 00 00 00 	nop 
   11de4:	c2 07 a0 44 	ld  [ %fp + 0x44 ], %g1
   11de8:	c2 08 40 00 	ldub  [ %g1 ], %g1
   11dec:	83 28 60 18 	sll  %g1, 0x18, %g1
   11df0:	83 38 60 18 	sra  %g1, 0x18, %g1
   11df4:	80 a0 60 00 	cmp  %g1, 0
   11df8:	02 80 00 79 	be  11fdc <command+0x324>
   11dfc:	01 00 00 00 	nop 
   11e00:	82 07 bf ec 	add  %fp, -20, %g1
   11e04:	84 07 bf f0 	add  %fp, -16, %g2
   11e08:	d0 07 a0 44 	ld  [ %fp + 0x44 ], %o0
   11e0c:	92 10 00 01 	mov  %g1, %o1
   11e10:	94 10 00 02 	mov  %g2, %o2
   11e14:	40 00 1c d8 	call  19174 <makeargs>
   11e18:	01 00 00 00 	nop 
   11e1c:	82 10 00 08 	mov  %o0, %g1
   11e20:	80 a0 60 00 	cmp  %g1, 0
   11e24:	12 80 00 04 	bne  11e34 <command+0x17c>
   11e28:	01 00 00 00 	nop 
   11e2c:	10 80 00 6c 	b  11fdc <command+0x324>
   11e30:	01 00 00 00 	nop 
   11e34:	c2 07 bf f0 	ld  [ %fp + -16 ], %g1
   11e38:	d0 00 40 00 	ld  [ %g1 ], %o0
   11e3c:	40 00 03 34 	call  12b0c <findalias>
   11e40:	01 00 00 00 	nop 
   11e44:	82 10 00 08 	mov  %o0, %g1
   11e48:	c2 27 bf f4 	st  %g1, [ %fp + -12 ]
   11e4c:	c2 07 bf f4 	ld  [ %fp + -12 ], %g1
   11e50:	80 a0 60 00 	cmp  %g1, 0
   11e54:	02 80 00 2b 	be  11f00 <command+0x248>
   11e58:	01 00 00 00 	nop 
   11e5c:	03 00 00 b4 	sethi  %hi(0x2d000), %g1
   11e60:	82 10 63 e8 	or  %g1, 0x3e8, %g1	! 2d3e8 <buf>
   11e64:	c2 27 a0 44 	st  %g1, [ %fp + 0x44 ]
   11e68:	c2 07 bf f4 	ld  [ %fp + -12 ], %g1
   11e6c:	d0 07 a0 44 	ld  [ %fp + 0x44 ], %o0
   11e70:	d2 00 60 04 	ld  [ %g1 + 4 ], %o1
   11e74:	40 00 69 d6 	call  2c5cc <strcpy@plt>
   11e78:	01 00 00 00 	nop 
   11e7c:	c2 07 bf ec 	ld  [ %fp + -20 ], %g1
   11e80:	82 00 7f ff 	add  %g1, -1, %g1
   11e84:	c2 27 bf ec 	st  %g1, [ %fp + -20 ]
   11e88:	80 a0 60 00 	cmp  %g1, 0
   11e8c:	04 80 00 10 	ble  11ecc <command+0x214>
   11e90:	01 00 00 00 	nop 
   11e94:	d0 07 a0 44 	ld  [ %fp + 0x44 ], %o0
   11e98:	03 00 00 69 	sethi  %hi(0x1a400), %g1
   11e9c:	92 10 61 c0 	or  %g1, 0x1c0, %o1	! 1a5c0 <_IO_stdin_used+0x10>
   11ea0:	40 00 69 62 	call  2c428 <strcat@plt>
   11ea4:	01 00 00 00 	nop 
   11ea8:	c2 07 bf f0 	ld  [ %fp + -16 ], %g1
   11eac:	82 00 60 04 	add  %g1, 4, %g1
   11eb0:	c2 27 bf f0 	st  %g1, [ %fp + -16 ]
   11eb4:	d0 07 a0 44 	ld  [ %fp + 0x44 ], %o0
   11eb8:	d2 00 40 00 	ld  [ %g1 ], %o1
   11ebc:	40 00 69 5b 	call  2c428 <strcat@plt>
   11ec0:	01 00 00 00 	nop 
   11ec4:	10 bf ff ee 	b  11e7c <command+0x1c4>
   11ec8:	01 00 00 00 	nop 
   11ecc:	82 07 bf ec 	add  %fp, -20, %g1
   11ed0:	84 07 bf f0 	add  %fp, -16, %g2
   11ed4:	d0 07 a0 44 	ld  [ %fp + 0x44 ], %o0
   11ed8:	92 10 00 01 	mov  %g1, %o1
   11edc:	94 10 00 02 	mov  %g2, %o2
   11ee0:	40 00 1c a5 	call  19174 <makeargs>
   11ee4:	01 00 00 00 	nop 
   11ee8:	82 10 00 08 	mov  %o0, %g1
   11eec:	80 a0 60 00 	cmp  %g1, 0
   11ef0:	12 80 00 04 	bne  11f00 <command+0x248>
   11ef4:	01 00 00 00 	nop 
   11ef8:	10 80 00 39 	b  11fdc <command+0x324>
   11efc:	01 00 00 00 	nop 
   11f00:	c2 07 bf ec 	ld  [ %fp + -20 ], %g1
   11f04:	80 a0 60 01 	cmp  %g1, 1
   11f08:	12 80 00 1d 	bne  11f7c <command+0x2c4>
   11f0c:	01 00 00 00 	nop 
   11f10:	c2 07 bf f0 	ld  [ %fp + -16 ], %g1
   11f14:	d0 00 40 00 	ld  [ %g1 ], %o0
   11f18:	92 10 20 3d 	mov  0x3d, %o1
   11f1c:	40 00 68 f5 	call  2c2f0 <index@plt>
   11f20:	01 00 00 00 	nop 
   11f24:	82 10 00 08 	mov  %o0, %g1
   11f28:	c2 27 bf e4 	st  %g1, [ %fp + -28 ]
   11f2c:	c2 07 bf f0 	ld  [ %fp + -16 ], %g1
   11f30:	c4 00 40 00 	ld  [ %g1 ], %g2
   11f34:	c2 07 bf e4 	ld  [ %fp + -28 ], %g1
   11f38:	80 a0 80 01 	cmp  %g2, %g1
   11f3c:	1a 80 00 10 	bcc  11f7c <command+0x2c4>
   11f40:	01 00 00 00 	nop 
   11f44:	86 07 bf e4 	add  %fp, -28, %g3
   11f48:	c2 00 c0 00 	ld  [ %g3 ], %g1
   11f4c:	84 10 00 01 	mov  %g1, %g2
   11f50:	c0 28 80 00 	clrb  [ %g2 ]
   11f54:	82 00 60 01 	inc  %g1
   11f58:	c2 20 c0 00 	st  %g1, [ %g3 ]
   11f5c:	c2 07 bf f0 	ld  [ %fp + -16 ], %g1
   11f60:	d0 00 40 00 	ld  [ %g1 ], %o0
   11f64:	d2 07 bf e4 	ld  [ %fp + -28 ], %o1
   11f68:	94 10 20 01 	mov  1, %o2
   11f6c:	40 00 68 c3 	call  2c278 <setenv@plt>
   11f70:	01 00 00 00 	nop 
   11f74:	10 80 00 1a 	b  11fdc <command+0x324>
   11f78:	01 00 00 00 	nop 
   11f7c:	c2 07 bf f0 	ld  [ %fp + -16 ], %g1
   11f80:	d0 00 40 00 	ld  [ %g1 ], %o0
   11f84:	40 00 00 19 	call  11fe8 <command_in_path>
   11f88:	01 00 00 00 	nop 
   11f8c:	82 10 00 08 	mov  %o0, %g1
   11f90:	80 a0 60 00 	cmp  %g1, 0
   11f94:	12 80 00 0c 	bne  11fc4 <command+0x30c>
   11f98:	01 00 00 00 	nop 
   11f9c:	d0 07 bf ec 	ld  [ %fp + -20 ], %o0
   11fa0:	d2 07 bf f0 	ld  [ %fp + -16 ], %o1
   11fa4:	40 00 00 8c 	call  121d4 <trybuiltin>
   11fa8:	01 00 00 00 	nop 
   11fac:	82 10 00 08 	mov  %o0, %g1
   11fb0:	80 a0 60 00 	cmp  %g1, 0
   11fb4:	02 80 00 04 	be  11fc4 <command+0x30c>
   11fb8:	01 00 00 00 	nop 
   11fbc:	10 80 00 08 	b  11fdc <command+0x324>
   11fc0:	01 00 00 00 	nop 
   11fc4:	d0 07 a0 44 	ld  [ %fp + 0x44 ], %o0
   11fc8:	d2 07 bf e8 	ld  [ %fp + -24 ], %o1
   11fcc:	d4 07 bf ec 	ld  [ %fp + -20 ], %o2
   11fd0:	d6 07 bf f0 	ld  [ %fp + -16 ], %o3
   11fd4:	40 00 01 2b 	call  12480 <runcmd>
   11fd8:	01 00 00 00 	nop 
   11fdc:	01 00 00 00 	nop 
   11fe0:	81 c7 e0 08 	ret 
   11fe4:	81 e8 00 00 	restore 

00011fe8 <command_in_path>:
command_in_path():
   11fe8:	9d e3 bf 30 	save  %sp, -208, %sp
   11fec:	f0 27 a0 44 	st  %i0, [ %fp + 0x44 ]
   11ff0:	d0 07 a0 44 	ld  [ %fp + 0x44 ], %o0
   11ff4:	92 10 20 2f 	mov  0x2f, %o1
   11ff8:	40 00 68 6a 	call  2c1a0 <strchr@plt>
   11ffc:	01 00 00 00 	nop 
   12000:	82 10 00 08 	mov  %o0, %g1
   12004:	80 a0 60 00 	cmp  %g1, 0
   12008:	12 80 00 5d 	bne  1217c <command_in_path+0x194>
   1200c:	01 00 00 00 	nop 
   12010:	03 00 00 69 	sethi  %hi(0x1a400), %g1
   12014:	90 10 62 18 	or  %g1, 0x218, %o0	! 1a618 <_IO_stdin_used+0x68>
   12018:	40 00 68 86 	call  2c230 <getenv@plt>
   1201c:	01 00 00 00 	nop 
   12020:	82 10 00 08 	mov  %o0, %g1
   12024:	c2 27 bf 9c 	st  %g1, [ %fp + -100 ]
   12028:	c2 07 bf 9c 	ld  [ %fp + -100 ], %g1
   1202c:	80 a0 60 00 	cmp  %g1, 0
   12030:	02 80 00 65 	be  121c4 <command_in_path+0x1dc>
   12034:	01 00 00 00 	nop 
   12038:	c2 07 bf 9c 	ld  [ %fp + -100 ], %g1
   1203c:	c2 08 40 00 	ldub  [ %g1 ], %g1
   12040:	83 28 60 18 	sll  %g1, 0x18, %g1
   12044:	83 38 60 18 	sra  %g1, 0x18, %g1
   12048:	80 a0 60 00 	cmp  %g1, 0
   1204c:	02 80 00 5e 	be  121c4 <command_in_path+0x1dc>
   12050:	01 00 00 00 	nop 
   12054:	03 00 00 b3 	sethi  %hi(0x2cc00), %g1
   12058:	90 10 62 58 	or  %g1, 0x258, %o0	! 2ce58 <path_copy.0>
   1205c:	d2 07 bf 9c 	ld  [ %fp + -100 ], %o1
   12060:	40 00 69 5b 	call  2c5cc <strcpy@plt>
   12064:	01 00 00 00 	nop 
   12068:	03 00 00 b3 	sethi  %hi(0x2cc00), %g1
   1206c:	90 10 62 58 	or  %g1, 0x258, %o0	! 2ce58 <path_copy.0>
   12070:	92 10 20 3a 	mov  0x3a, %o1
   12074:	40 00 68 4b 	call  2c1a0 <strchr@plt>
   12078:	01 00 00 00 	nop 
   1207c:	82 10 00 08 	mov  %o0, %g1
   12080:	c2 27 bf 98 	st  %g1, [ %fp + -104 ]
   12084:	c2 07 bf 98 	ld  [ %fp + -104 ], %g1
   12088:	80 a0 60 00 	cmp  %g1, 0
   1208c:	02 80 00 04 	be  1209c <command_in_path+0xb4>
   12090:	01 00 00 00 	nop 
   12094:	c2 07 bf 98 	ld  [ %fp + -104 ], %g1
   12098:	c0 28 40 00 	clrb  [ %g1 ]
   1209c:	03 00 00 b3 	sethi  %hi(0x2cc00), %g1
   120a0:	82 10 62 58 	or  %g1, 0x258, %g1	! 2ce58 <path_copy.0>
   120a4:	c2 08 40 00 	ldub  [ %g1 ], %g1
   120a8:	83 28 60 18 	sll  %g1, 0x18, %g1
   120ac:	83 38 60 18 	sra  %g1, 0x18, %g1
   120b0:	80 a0 60 00 	cmp  %g1, 0
   120b4:	02 80 00 08 	be  120d4 <command_in_path+0xec>
   120b8:	01 00 00 00 	nop 
   120bc:	03 00 00 b3 	sethi  %hi(0x2cc00), %g1
   120c0:	90 10 62 58 	or  %g1, 0x258, %o0	! 2ce58 <path_copy.0>
   120c4:	03 00 00 69 	sethi  %hi(0x1a400), %g1
   120c8:	92 10 62 b0 	or  %g1, 0x2b0, %o1	! 1a6b0 <_IO_stdin_used+0x100>
   120cc:	40 00 68 d7 	call  2c428 <strcat@plt>
   120d0:	01 00 00 00 	nop 
   120d4:	03 00 00 b3 	sethi  %hi(0x2cc00), %g1
   120d8:	90 10 62 58 	or  %g1, 0x258, %o0	! 2ce58 <path_copy.0>
   120dc:	d2 07 a0 44 	ld  [ %fp + 0x44 ], %o1
   120e0:	40 00 68 d2 	call  2c428 <strcat@plt>
   120e4:	01 00 00 00 	nop 
   120e8:	84 07 bf a0 	add  %fp, -96, %g2
   120ec:	03 00 00 b3 	sethi  %hi(0x2cc00), %g1
   120f0:	90 10 62 58 	or  %g1, 0x258, %o0	! 2ce58 <path_copy.0>
   120f4:	92 10 00 02 	mov  %g2, %o1
   120f8:	40 00 20 ff 	call  1a4f4 <__stat>
   120fc:	01 00 00 00 	nop 
   12100:	82 10 00 08 	mov  %o0, %g1
   12104:	80 a0 60 00 	cmp  %g1, 0
   12108:	12 80 00 0b 	bne  12134 <command_in_path+0x14c>
   1210c:	01 00 00 00 	nop 
   12110:	c2 07 bf b0 	ld  [ %fp + -80 ], %g1
   12114:	82 08 60 49 	and  %g1, 0x49, %g1
   12118:	80 a0 60 00 	cmp  %g1, 0
   1211c:	02 80 00 06 	be  12134 <command_in_path+0x14c>
   12120:	01 00 00 00 	nop 
   12124:	82 10 20 01 	mov  1, %g1	! 1 <_init-0x11507>
   12128:	c2 27 bf 94 	st  %g1, [ %fp + -108 ]
   1212c:	10 80 00 27 	b  121c8 <command_in_path+0x1e0>
   12130:	01 00 00 00 	nop 
   12134:	d0 07 bf 9c 	ld  [ %fp + -100 ], %o0
   12138:	92 10 20 3a 	mov  0x3a, %o1
   1213c:	40 00 68 19 	call  2c1a0 <strchr@plt>
   12140:	01 00 00 00 	nop 
   12144:	82 10 00 08 	mov  %o0, %g1
   12148:	c2 27 bf 98 	st  %g1, [ %fp + -104 ]
   1214c:	c2 07 bf 98 	ld  [ %fp + -104 ], %g1
   12150:	80 a0 60 00 	cmp  %g1, 0
   12154:	02 80 00 07 	be  12170 <command_in_path+0x188>
   12158:	01 00 00 00 	nop 
   1215c:	c2 07 bf 98 	ld  [ %fp + -104 ], %g1
   12160:	82 00 60 01 	inc  %g1
   12164:	c2 27 bf 9c 	st  %g1, [ %fp + -100 ]
   12168:	10 bf ff b0 	b  12028 <command_in_path+0x40>
   1216c:	01 00 00 00 	nop 
   12170:	c0 27 bf 9c 	clr  [ %fp + -100 ]
   12174:	10 bf ff ad 	b  12028 <command_in_path+0x40>
   12178:	01 00 00 00 	nop 
   1217c:	82 07 bf a0 	add  %fp, -96, %g1
   12180:	d0 07 a0 44 	ld  [ %fp + 0x44 ], %o0
   12184:	92 10 00 01 	mov  %g1, %o1
   12188:	40 00 20 db 	call  1a4f4 <__stat>
   1218c:	01 00 00 00 	nop 
   12190:	82 10 00 08 	mov  %o0, %g1
   12194:	80 a0 60 00 	cmp  %g1, 0
   12198:	12 80 00 0b 	bne  121c4 <command_in_path+0x1dc>
   1219c:	01 00 00 00 	nop 
   121a0:	c2 07 bf b0 	ld  [ %fp + -80 ], %g1
   121a4:	82 08 60 49 	and  %g1, 0x49, %g1
   121a8:	80 a0 60 00 	cmp  %g1, 0
   121ac:	02 80 00 06 	be  121c4 <command_in_path+0x1dc>
   121b0:	01 00 00 00 	nop 
   121b4:	82 10 20 01 	mov  1, %g1	! 1 <_init-0x11507>
   121b8:	c2 27 bf 94 	st  %g1, [ %fp + -108 ]
   121bc:	10 80 00 03 	b  121c8 <command_in_path+0x1e0>
   121c0:	01 00 00 00 	nop 
   121c4:	c0 27 bf 94 	clr  [ %fp + -108 ]
   121c8:	f0 07 bf 94 	ld  [ %fp + -108 ], %i0
   121cc:	81 c7 e0 08 	ret 
   121d0:	81 e8 00 00 	restore 

000121d4 <trybuiltin>:
trybuiltin():
   121d4:	9d e3 bd e8 	save  %sp, -536, %sp
   121d8:	f0 27 a0 44 	st  %i0, [ %fp + 0x44 ]
   121dc:	f2 27 a0 48 	st  %i1, [ %fp + 0x48 ]
   121e0:	03 00 00 b1 	sethi  %hi(0x2c400), %g1
   121e4:	82 10 61 f0 	or  %g1, 0x1f0, %g1	! 2c5f0 <cmdtab>
   121e8:	82 00 7f cc 	add  %g1, -52, %g1
   121ec:	c2 27 bf f4 	st  %g1, [ %fp + -12 ]
   121f0:	c2 07 bf f4 	ld  [ %fp + -12 ], %g1
   121f4:	82 00 60 34 	add  %g1, 0x34, %g1
   121f8:	c2 27 bf f4 	st  %g1, [ %fp + -12 ]
   121fc:	c2 07 bf f4 	ld  [ %fp + -12 ], %g1
   12200:	c2 08 40 00 	ldub  [ %g1 ], %g1
   12204:	83 28 60 18 	sll  %g1, 0x18, %g1
   12208:	83 38 60 18 	sra  %g1, 0x18, %g1
   1220c:	80 a0 60 00 	cmp  %g1, 0
   12210:	12 80 00 05 	bne  12224 <trybuiltin+0x50>
   12214:	01 00 00 00 	nop 
   12218:	c0 27 be 4c 	clr  [ %fp + -436 ]
   1221c:	10 80 00 96 	b  12474 <trybuiltin+0x2a0>
   12220:	01 00 00 00 	nop 
   12224:	c2 07 a0 48 	ld  [ %fp + 0x48 ], %g1
   12228:	d0 00 40 00 	ld  [ %g1 ], %o0
   1222c:	d2 07 bf f4 	ld  [ %fp + -12 ], %o1
   12230:	40 00 67 f1 	call  2c1f4 <strcmp@plt>
   12234:	01 00 00 00 	nop 
   12238:	82 10 00 08 	mov  %o0, %g1
   1223c:	80 a0 60 00 	cmp  %g1, 0
   12240:	02 80 00 04 	be  12250 <trybuiltin+0x7c>
   12244:	01 00 00 00 	nop 
   12248:	10 bf ff ea 	b  121f0 <trybuiltin+0x1c>
   1224c:	01 00 00 00 	nop 
   12250:	c2 07 bf f4 	ld  [ %fp + -12 ], %g1
   12254:	c4 00 60 2c 	ld  [ %g1 + 0x2c ], %g2
   12258:	c2 07 a0 44 	ld  [ %fp + 0x44 ], %g1
   1225c:	80 a0 80 01 	cmp  %g2, %g1
   12260:	14 80 00 0a 	bg  12288 <trybuiltin+0xb4>
   12264:	01 00 00 00 	nop 
   12268:	c2 07 bf f4 	ld  [ %fp + -12 ], %g1
   1226c:	c4 00 60 30 	ld  [ %g1 + 0x30 ], %g2
   12270:	c2 07 a0 44 	ld  [ %fp + 0x44 ], %g1
   12274:	80 a0 80 01 	cmp  %g2, %g1
   12278:	06 80 00 04 	bl  12288 <trybuiltin+0xb4>
   1227c:	01 00 00 00 	nop 
   12280:	10 80 00 16 	b  122d8 <trybuiltin+0x104>
   12284:	01 00 00 00 	nop 
   12288:	03 00 00 b3 	sethi  %hi(0x2cc00), %g1
   1228c:	84 10 62 40 	or  %g1, 0x240, %g2	! 2ce40 <stderr@@GLIBC_2.0>
   12290:	c2 07 bf f4 	ld  [ %fp + -12 ], %g1
   12294:	86 00 60 0a 	add  %g1, 0xa, %g3
   12298:	d0 00 80 00 	ld  [ %g2 ], %o0
   1229c:	03 00 00 69 	sethi  %hi(0x1a400), %g1
   122a0:	92 10 62 b8 	or  %g1, 0x2b8, %o1	! 1a6b8 <_IO_stdin_used+0x108>
   122a4:	d4 07 bf f4 	ld  [ %fp + -12 ], %o2
   122a8:	96 10 00 03 	mov  %g3, %o3
   122ac:	40 00 68 53 	call  2c3f8 <fprintf@plt>
   122b0:	01 00 00 00 	nop 
   122b4:	03 00 00 b3 	sethi  %hi(0x2cc00), %g1
   122b8:	82 10 62 40 	or  %g1, 0x240, %g1	! 2ce40 <stderr@@GLIBC_2.0>
   122bc:	d0 00 40 00 	ld  [ %g1 ], %o0
   122c0:	40 00 67 e5 	call  2c254 <fflush@plt>
   122c4:	01 00 00 00 	nop 
   122c8:	82 10 20 01 	mov  1, %g1	! 1 <_init-0x11507>
   122cc:	c2 27 be 4c 	st  %g1, [ %fp + -436 ]
   122d0:	10 80 00 69 	b  12474 <trybuiltin+0x2a0>
   122d4:	01 00 00 00 	nop 
   122d8:	c2 07 a0 48 	ld  [ %fp + 0x48 ], %g1
   122dc:	c2 00 40 00 	ld  [ %g1 ], %g1
   122e0:	c2 27 bf 18 	st  %g1, [ %fp + -232 ]
   122e4:	82 10 20 01 	mov  1, %g1
   122e8:	c2 27 bf ec 	st  %g1, [ %fp + -20 ]
   122ec:	c0 27 bf f0 	clr  [ %fp + -16 ]
   122f0:	c2 07 bf f0 	ld  [ %fp + -16 ], %g1
   122f4:	82 00 60 01 	inc  %g1
   122f8:	84 10 00 01 	mov  %g1, %g2
   122fc:	c4 27 bf f0 	st  %g2, [ %fp + -16 ]
   12300:	c2 07 a0 44 	ld  [ %fp + 0x44 ], %g1
   12304:	80 a0 80 01 	cmp  %g2, %g1
   12308:	16 80 00 52 	bge  12450 <trybuiltin+0x27c>
   1230c:	01 00 00 00 	nop 
   12310:	c2 07 bf f0 	ld  [ %fp + -16 ], %g1
   12314:	85 28 60 02 	sll  %g1, 2, %g2
   12318:	c2 07 a0 48 	ld  [ %fp + 0x48 ], %g1
   1231c:	82 00 80 01 	add  %g2, %g1, %g1
   12320:	84 07 be 50 	add  %fp, -432, %g2
   12324:	d0 00 40 00 	ld  [ %g1 ], %o0
   12328:	92 10 20 32 	mov  0x32, %o1
   1232c:	94 10 00 02 	mov  %g2, %o2
   12330:	40 00 19 74 	call  18900 <expandwildcards>
   12334:	01 00 00 00 	nop 
   12338:	82 10 00 08 	mov  %o0, %g1
   1233c:	c2 27 bf e8 	st  %g1, [ %fp + -24 ]
   12340:	c2 07 bf e8 	ld  [ %fp + -24 ], %g1
   12344:	80 a0 60 00 	cmp  %g1, 0
   12348:	16 80 00 06 	bge  12360 <trybuiltin+0x18c>
   1234c:	01 00 00 00 	nop 
   12350:	82 10 20 01 	mov  1, %g1	! 1 <_init-0x11507>
   12354:	c2 27 be 4c 	st  %g1, [ %fp + -436 ]
   12358:	10 80 00 47 	b  12474 <trybuiltin+0x2a0>
   1235c:	01 00 00 00 	nop 
   12360:	c2 07 bf ec 	ld  [ %fp + -20 ], %g1
   12364:	c4 07 bf e8 	ld  [ %fp + -24 ], %g2
   12368:	82 00 40 02 	add  %g1, %g2, %g1
   1236c:	80 a0 60 31 	cmp  %g1, 0x31
   12370:	04 80 00 0d 	ble  123a4 <trybuiltin+0x1d0>
   12374:	01 00 00 00 	nop 
   12378:	03 00 00 b3 	sethi  %hi(0x2cc00), %g1
   1237c:	82 10 62 40 	or  %g1, 0x240, %g1	! 2ce40 <stderr@@GLIBC_2.0>
   12380:	d0 00 40 00 	ld  [ %g1 ], %o0
   12384:	03 00 00 69 	sethi  %hi(0x1a400), %g1
   12388:	92 10 62 c8 	or  %g1, 0x2c8, %o1	! 1a6c8 <_IO_stdin_used+0x118>
   1238c:	40 00 68 1b 	call  2c3f8 <fprintf@plt>
   12390:	01 00 00 00 	nop 
   12394:	82 10 20 01 	mov  1, %g1	! 1 <_init-0x11507>
   12398:	c2 27 be 4c 	st  %g1, [ %fp + -436 ]
   1239c:	10 80 00 36 	b  12474 <trybuiltin+0x2a0>
   123a0:	01 00 00 00 	nop 
   123a4:	c2 07 bf e8 	ld  [ %fp + -24 ], %g1
   123a8:	80 a0 60 00 	cmp  %g1, 0
   123ac:	12 80 00 10 	bne  123ec <trybuiltin+0x218>
   123b0:	01 00 00 00 	nop 
   123b4:	9a 07 bf ec 	add  %fp, -20, %o5
   123b8:	c6 03 40 00 	ld  [ %o5 ], %g3
   123bc:	82 10 00 03 	mov  %g3, %g1
   123c0:	85 28 60 02 	sll  %g1, 2, %g2
   123c4:	82 07 bf f8 	add  %fp, -8, %g1
   123c8:	88 00 80 01 	add  %g2, %g1, %g4
   123cc:	c2 07 bf f0 	ld  [ %fp + -16 ], %g1
   123d0:	85 28 60 02 	sll  %g1, 2, %g2
   123d4:	c2 07 a0 48 	ld  [ %fp + 0x48 ], %g1
   123d8:	82 00 80 01 	add  %g2, %g1, %g1
   123dc:	c2 00 40 00 	ld  [ %g1 ], %g1
   123e0:	c2 21 3f 20 	st  %g1, [ %g4 + -224 ]
   123e4:	86 00 e0 01 	inc  %g3
   123e8:	c6 23 40 00 	st  %g3, [ %o5 ]
   123ec:	c0 27 bf e4 	clr  [ %fp + -28 ]
   123f0:	c4 07 bf e4 	ld  [ %fp + -28 ], %g2
   123f4:	c2 07 bf e8 	ld  [ %fp + -24 ], %g1
   123f8:	80 a0 80 01 	cmp  %g2, %g1
   123fc:	16 bf ff bd 	bge  122f0 <trybuiltin+0x11c>
   12400:	01 00 00 00 	nop 
   12404:	9a 07 bf ec 	add  %fp, -20, %o5
   12408:	c6 03 40 00 	ld  [ %o5 ], %g3
   1240c:	82 10 00 03 	mov  %g3, %g1
   12410:	85 28 60 02 	sll  %g1, 2, %g2
   12414:	82 07 bf f8 	add  %fp, -8, %g1
   12418:	88 00 80 01 	add  %g2, %g1, %g4
   1241c:	c2 07 bf e4 	ld  [ %fp + -28 ], %g1
   12420:	85 28 60 02 	sll  %g1, 2, %g2
   12424:	82 07 bf f8 	add  %fp, -8, %g1
   12428:	82 00 80 01 	add  %g2, %g1, %g1
   1242c:	c2 00 7e 58 	ld  [ %g1 + -424 ], %g1
   12430:	c2 21 3f 20 	st  %g1, [ %g4 + -224 ]
   12434:	86 00 e0 01 	inc  %g3
   12438:	c6 23 40 00 	st  %g3, [ %o5 ]
   1243c:	c2 07 bf e4 	ld  [ %fp + -28 ], %g1
   12440:	82 00 60 01 	inc  %g1
   12444:	c2 27 bf e4 	st  %g1, [ %fp + -28 ]
   12448:	10 bf ff ea 	b  123f0 <trybuiltin+0x21c>
   1244c:	01 00 00 00 	nop 
   12450:	c2 07 bf f4 	ld  [ %fp + -12 ], %g1
   12454:	84 07 bf 18 	add  %fp, -232, %g2
   12458:	c2 00 60 28 	ld  [ %g1 + 0x28 ], %g1
   1245c:	d0 07 bf ec 	ld  [ %fp + -20 ], %o0
   12460:	92 10 00 02 	mov  %g2, %o1
   12464:	9f c0 40 00 	call  %g1
   12468:	01 00 00 00 	nop 
   1246c:	82 10 20 01 	mov  1, %g1	! 1 <_init-0x11507>
   12470:	c2 27 be 4c 	st  %g1, [ %fp + -436 ]
   12474:	f0 07 be 4c 	ld  [ %fp + -436 ], %i0
   12478:	81 c7 e0 08 	ret 
   1247c:	81 e8 00 00 	restore 

00012480 <runcmd>:
runcmd():
   12480:	9d e3 bd 48 	save  %sp, -696, %sp
   12484:	f0 27 a0 44 	st  %i0, [ %fp + 0x44 ]
   12488:	f2 27 a0 48 	st  %i1, [ %fp + 0x48 ]
   1248c:	f4 27 a0 4c 	st  %i2, [ %fp + 0x4c ]
   12490:	f6 27 a0 50 	st  %i3, [ %fp + 0x50 ]
   12494:	c2 07 a0 50 	ld  [ %fp + 0x50 ], %g1
   12498:	c2 00 40 00 	ld  [ %g1 ], %g1
   1249c:	c2 27 bf 10 	st  %g1, [ %fp + -240 ]
   124a0:	82 10 20 01 	mov  1, %g1
   124a4:	c2 27 bf e4 	st  %g1, [ %fp + -28 ]
   124a8:	c0 27 bf e8 	clr  [ %fp + -24 ]
   124ac:	c2 07 bf e8 	ld  [ %fp + -24 ], %g1
   124b0:	82 00 60 01 	inc  %g1
   124b4:	84 10 00 01 	mov  %g1, %g2
   124b8:	c4 27 bf e8 	st  %g2, [ %fp + -24 ]
   124bc:	c2 07 a0 4c 	ld  [ %fp + 0x4c ], %g1
   124c0:	80 a0 80 01 	cmp  %g2, %g1
   124c4:	16 80 00 4e 	bge  125fc <runcmd+0x17c>
   124c8:	01 00 00 00 	nop 
   124cc:	c2 07 bf e8 	ld  [ %fp + -24 ], %g1
   124d0:	85 28 60 02 	sll  %g1, 2, %g2
   124d4:	c2 07 a0 50 	ld  [ %fp + 0x50 ], %g1
   124d8:	82 00 80 01 	add  %g2, %g1, %g1
   124dc:	84 07 be 48 	add  %fp, -440, %g2
   124e0:	d0 00 40 00 	ld  [ %g1 ], %o0
   124e4:	92 10 20 32 	mov  0x32, %o1
   124e8:	94 10 00 02 	mov  %g2, %o2
   124ec:	40 00 19 05 	call  18900 <expandwildcards>
   124f0:	01 00 00 00 	nop 
   124f4:	82 10 00 08 	mov  %o0, %g1
   124f8:	c2 27 bf e0 	st  %g1, [ %fp + -32 ]
   124fc:	c2 07 bf e0 	ld  [ %fp + -32 ], %g1
   12500:	80 a0 60 00 	cmp  %g1, 0
   12504:	16 80 00 04 	bge  12514 <runcmd+0x94>
   12508:	01 00 00 00 	nop 
   1250c:	10 80 01 5d 	b  12a80 <runcmd+0x600>
   12510:	01 00 00 00 	nop 
   12514:	c2 07 bf e4 	ld  [ %fp + -28 ], %g1
   12518:	c4 07 bf e0 	ld  [ %fp + -32 ], %g2
   1251c:	82 00 40 02 	add  %g1, %g2, %g1
   12520:	80 a0 60 31 	cmp  %g1, 0x31
   12524:	04 80 00 0b 	ble  12550 <runcmd+0xd0>
   12528:	01 00 00 00 	nop 
   1252c:	03 00 00 b3 	sethi  %hi(0x2cc00), %g1
   12530:	82 10 62 40 	or  %g1, 0x240, %g1	! 2ce40 <stderr@@GLIBC_2.0>
   12534:	d0 00 40 00 	ld  [ %g1 ], %o0
   12538:	03 00 00 69 	sethi  %hi(0x1a400), %g1
   1253c:	92 10 62 c8 	or  %g1, 0x2c8, %o1	! 1a6c8 <_IO_stdin_used+0x118>
   12540:	40 00 67 ae 	call  2c3f8 <fprintf@plt>
   12544:	01 00 00 00 	nop 
   12548:	10 80 01 4e 	b  12a80 <runcmd+0x600>
   1254c:	01 00 00 00 	nop 
   12550:	c2 07 bf e0 	ld  [ %fp + -32 ], %g1
   12554:	80 a0 60 00 	cmp  %g1, 0
   12558:	12 80 00 10 	bne  12598 <runcmd+0x118>
   1255c:	01 00 00 00 	nop 
   12560:	9a 07 bf e4 	add  %fp, -28, %o5
   12564:	c6 03 40 00 	ld  [ %o5 ], %g3
   12568:	82 10 00 03 	mov  %g3, %g1
   1256c:	85 28 60 02 	sll  %g1, 2, %g2
   12570:	82 07 bf f8 	add  %fp, -8, %g1
   12574:	88 00 80 01 	add  %g2, %g1, %g4
   12578:	c2 07 bf e8 	ld  [ %fp + -24 ], %g1
   1257c:	85 28 60 02 	sll  %g1, 2, %g2
   12580:	c2 07 a0 50 	ld  [ %fp + 0x50 ], %g1
   12584:	82 00 80 01 	add  %g2, %g1, %g1
   12588:	c2 00 40 00 	ld  [ %g1 ], %g1
   1258c:	c2 21 3f 18 	st  %g1, [ %g4 + -232 ]
   12590:	86 00 e0 01 	inc  %g3
   12594:	c6 23 40 00 	st  %g3, [ %o5 ]
   12598:	c0 27 bf dc 	clr  [ %fp + -36 ]
   1259c:	c4 07 bf dc 	ld  [ %fp + -36 ], %g2
   125a0:	c2 07 bf e0 	ld  [ %fp + -32 ], %g1
   125a4:	80 a0 80 01 	cmp  %g2, %g1
   125a8:	16 bf ff c1 	bge  124ac <runcmd+0x2c>
   125ac:	01 00 00 00 	nop 
   125b0:	9a 07 bf e4 	add  %fp, -28, %o5
   125b4:	c6 03 40 00 	ld  [ %o5 ], %g3
   125b8:	82 10 00 03 	mov  %g3, %g1
   125bc:	85 28 60 02 	sll  %g1, 2, %g2
   125c0:	82 07 bf f8 	add  %fp, -8, %g1
   125c4:	88 00 80 01 	add  %g2, %g1, %g4
   125c8:	c2 07 bf dc 	ld  [ %fp + -36 ], %g1
   125cc:	85 28 60 02 	sll  %g1, 2, %g2
   125d0:	82 07 bf f8 	add  %fp, -8, %g1
   125d4:	82 00 80 01 	add  %g2, %g1, %g1
   125d8:	c2 00 7e 50 	ld  [ %g1 + -432 ], %g1
   125dc:	c2 21 3f 18 	st  %g1, [ %g4 + -232 ]
   125e0:	86 00 e0 01 	inc  %g3
   125e4:	c6 23 40 00 	st  %g3, [ %o5 ]
   125e8:	c2 07 bf dc 	ld  [ %fp + -36 ], %g1
   125ec:	82 00 60 01 	inc  %g1
   125f0:	c2 27 bf dc 	st  %g1, [ %fp + -36 ]
   125f4:	10 bf ff ea 	b  1259c <runcmd+0x11c>
   125f8:	01 00 00 00 	nop 
   125fc:	c2 07 bf e4 	ld  [ %fp + -28 ], %g1
   12600:	85 28 60 02 	sll  %g1, 2, %g2
   12604:	82 07 bf f8 	add  %fp, -8, %g1
   12608:	82 00 80 01 	add  %g2, %g1, %g1
   1260c:	c0 20 7f 18 	clr  [ %g1 + -232 ]
   12610:	c0 27 bf f4 	clr  [ %fp + -12 ]
   12614:	c2 07 bf f4 	ld  [ %fp + -12 ], %g1
   12618:	80 a0 60 00 	cmp  %g1, 0
   1261c:	02 80 00 0c 	be  1264c <runcmd+0x1cc>
   12620:	01 00 00 00 	nop 
   12624:	03 00 00 69 	sethi  %hi(0x1a400), %g1
   12628:	90 10 62 e0 	or  %g1, 0x2e0, %o0	! 1a6e0 <_IO_stdin_used+0x130>
   1262c:	d2 07 a0 44 	ld  [ %fp + 0x44 ], %o1
   12630:	40 00 67 de 	call  2c5a8 <printf@plt>
   12634:	01 00 00 00 	nop 
   12638:	d0 07 a0 44 	ld  [ %fp + 0x44 ], %o0
   1263c:	40 00 67 21 	call  2c2c0 <system@plt>
   12640:	01 00 00 00 	nop 
   12644:	10 80 01 0f 	b  12a80 <runcmd+0x600>
   12648:	01 00 00 00 	nop 
   1264c:	c2 07 a0 48 	ld  [ %fp + 0x48 ], %g1
   12650:	80 a0 60 00 	cmp  %g1, 0
   12654:	12 80 00 06 	bne  1266c <runcmd+0x1ec>
   12658:	01 00 00 00 	nop 
   1265c:	90 10 20 14 	mov  0x14, %o0	! 14 <_init-0x114f4>
   12660:	92 10 20 00 	clr  %o1
   12664:	40 00 66 f9 	call  2c248 <signal@plt>
   12668:	01 00 00 00 	nop 
   1266c:	40 00 66 eb 	call  2c218 <vfork@plt>
   12670:	01 00 00 00 	nop 
   12674:	82 10 00 08 	mov  %o0, %g1
   12678:	c2 27 bf f0 	st  %g1, [ %fp + -16 ]
   1267c:	c2 07 bf f0 	ld  [ %fp + -16 ], %g1
   12680:	80 a0 60 00 	cmp  %g1, 0
   12684:	12 80 00 52 	bne  127cc <runcmd+0x34c>
   12688:	01 00 00 00 	nop 
   1268c:	c0 27 bd b4 	clr  [ %fp + -588 ]
   12690:	03 00 00 b3 	sethi  %hi(0x2cc00), %g1
   12694:	82 10 63 88 	or  %g1, 0x388, %g1	! 2cf88 <sourcecount>
   12698:	c4 07 bd b4 	ld  [ %fp + -588 ], %g2
   1269c:	c2 00 40 00 	ld  [ %g1 ], %g1
   126a0:	80 a0 80 01 	cmp  %g2, %g1
   126a4:	16 80 00 1d 	bge  12718 <runcmd+0x298>
   126a8:	01 00 00 00 	nop 
   126ac:	03 00 00 b3 	sethi  %hi(0x2cc00), %g1
   126b0:	86 10 63 60 	or  %g1, 0x360, %g3	! 2cf60 <sourcefiles>
   126b4:	c2 07 bd b4 	ld  [ %fp + -588 ], %g1
   126b8:	85 28 60 02 	sll  %g1, 2, %g2
   126bc:	03 00 00 b3 	sethi  %hi(0x2cc00), %g1
   126c0:	82 10 62 44 	or  %g1, 0x244, %g1	! 2ce44 <stdin@@GLIBC_2.0>
   126c4:	c4 00 c0 02 	ld  [ %g3 + %g2 ], %g2
   126c8:	c2 00 40 00 	ld  [ %g1 ], %g1
   126cc:	80 a0 80 01 	cmp  %g2, %g1
   126d0:	02 80 00 0d 	be  12704 <runcmd+0x284>
   126d4:	01 00 00 00 	nop 
   126d8:	03 00 00 b3 	sethi  %hi(0x2cc00), %g1
   126dc:	84 10 63 60 	or  %g1, 0x360, %g2	! 2cf60 <sourcefiles>
   126e0:	c2 07 bd b4 	ld  [ %fp + -588 ], %g1
   126e4:	83 28 60 02 	sll  %g1, 2, %g1
   126e8:	d0 00 80 01 	ld  [ %g2 + %g1 ], %o0
   126ec:	40 00 66 bf 	call  2c1e8 <fileno@plt>
   126f0:	01 00 00 00 	nop 
   126f4:	82 10 00 08 	mov  %o0, %g1
   126f8:	90 10 00 01 	mov  %g1, %o0
   126fc:	40 00 66 c1 	call  2c200 <close@plt>
   12700:	01 00 00 00 	nop 
   12704:	c2 07 bd b4 	ld  [ %fp + -588 ], %g1
   12708:	82 00 60 01 	inc  %g1
   1270c:	c2 27 bd b4 	st  %g1, [ %fp + -588 ]
   12710:	10 bf ff e0 	b  12690 <runcmd+0x210>
   12714:	01 00 00 00 	nop 
   12718:	90 10 20 02 	mov  2, %o0	! 2 <_init-0x11506>
   1271c:	92 10 20 00 	clr  %o1
   12720:	40 00 66 ca 	call  2c248 <signal@plt>
   12724:	01 00 00 00 	nop 
   12728:	90 10 20 03 	mov  3, %o0	! 3 <_init-0x11505>
   1272c:	92 10 20 00 	clr  %o1
   12730:	40 00 66 c6 	call  2c248 <signal@plt>
   12734:	01 00 00 00 	nop 
   12738:	90 10 20 14 	mov  0x14, %o0	! 14 <_init-0x114f4>
   1273c:	92 10 20 00 	clr  %o1
   12740:	40 00 66 c2 	call  2c248 <signal@plt>
   12744:	01 00 00 00 	nop 
   12748:	82 07 bf 10 	add  %fp, -240, %g1
   1274c:	d0 07 bf 10 	ld  [ %fp + -240 ], %o0
   12750:	92 10 00 01 	mov  %g1, %o1
   12754:	40 00 67 1a 	call  2c3bc <execvp@plt>
   12758:	01 00 00 00 	nop 
   1275c:	40 00 66 d6 	call  2c2b4 <__errno_location@plt>
   12760:	01 00 00 00 	nop 
   12764:	82 10 00 08 	mov  %o0, %g1
   12768:	c2 00 40 00 	ld  [ %g1 ], %g1
   1276c:	80 a0 60 02 	cmp  %g1, 2
   12770:	02 80 00 0b 	be  1279c <runcmd+0x31c>
   12774:	01 00 00 00 	nop 
   12778:	40 00 66 cf 	call  2c2b4 <__errno_location@plt>
   1277c:	01 00 00 00 	nop 
   12780:	82 10 00 08 	mov  %o0, %g1
   12784:	d0 00 40 00 	ld  [ %g1 ], %o0
   12788:	40 00 66 bf 	call  2c284 <strerror@plt>
   1278c:	01 00 00 00 	nop 
   12790:	d0 27 bd ac 	st  %o0, [ %fp + -596 ]
   12794:	10 80 00 05 	b  127a8 <runcmd+0x328>
   12798:	01 00 00 00 	nop 
   1279c:	03 00 00 69 	sethi  %hi(0x1a400), %g1
   127a0:	82 10 63 00 	or  %g1, 0x300, %g1	! 1a700 <_IO_stdin_used+0x150>
   127a4:	c2 27 bd ac 	st  %g1, [ %fp + -596 ]
   127a8:	03 00 00 69 	sethi  %hi(0x1a400), %g1
   127ac:	90 10 63 20 	or  %g1, 0x320, %o0	! 1a720 <_IO_stdin_used+0x170>
   127b0:	d2 07 bf 10 	ld  [ %fp + -240 ], %o1
   127b4:	d4 07 bd ac 	ld  [ %fp + -596 ], %o2
   127b8:	40 00 67 7c 	call  2c5a8 <printf@plt>
   127bc:	01 00 00 00 	nop 
   127c0:	90 10 20 00 	clr  %o0	! 0 <_init-0x11508>
   127c4:	40 00 67 5e 	call  2c53c <_exit@plt>
   127c8:	01 00 00 00 	nop 
   127cc:	c2 07 bf f0 	ld  [ %fp + -16 ], %g1
   127d0:	80 a0 60 00 	cmp  %g1, 0
   127d4:	16 80 00 19 	bge  12838 <runcmd+0x3b8>
   127d8:	01 00 00 00 	nop 
   127dc:	82 07 bd b8 	add  %fp, -584, %g1
   127e0:	90 10 00 01 	mov  %g1, %o0
   127e4:	92 10 20 00 	clr  %o1
   127e8:	94 10 20 8c 	mov  0x8c, %o2
   127ec:	40 00 67 51 	call  2c530 <memset@plt>
   127f0:	01 00 00 00 	nop 
   127f4:	03 00 00 4b 	sethi  %hi(0x12c00), %g1
   127f8:	82 10 62 68 	or  %g1, 0x268, %g1	! 12e68 <catchchild>
   127fc:	c2 27 bd b8 	st  %g1, [ %fp + -584 ]
   12800:	82 10 20 02 	mov  2, %g1
   12804:	c2 27 be 3c 	st  %g1, [ %fp + -452 ]
   12808:	82 07 bd b8 	add  %fp, -584, %g1
   1280c:	90 10 20 14 	mov  0x14, %o0
   12810:	92 10 00 01 	mov  %g1, %o1
   12814:	94 10 20 00 	clr  %o2
   12818:	40 00 66 5c 	call  2c188 <sigaction@plt>
   1281c:	01 00 00 00 	nop 
   12820:	03 00 00 69 	sethi  %hi(0x1a400), %g1
   12824:	90 10 63 28 	or  %g1, 0x328, %o0	! 1a728 <_IO_stdin_used+0x178>
   12828:	40 00 66 7f 	call  2c224 <perror@plt>
   1282c:	01 00 00 00 	nop 
   12830:	10 80 00 94 	b  12a80 <runcmd+0x600>
   12834:	01 00 00 00 	nop 
   12838:	c2 07 a0 48 	ld  [ %fp + 0x48 ], %g1
   1283c:	80 a0 60 00 	cmp  %g1, 0
   12840:	02 80 00 09 	be  12864 <runcmd+0x3e4>
   12844:	01 00 00 00 	nop 
   12848:	03 00 00 69 	sethi  %hi(0x1a400), %g1
   1284c:	90 10 63 38 	or  %g1, 0x338, %o0	! 1a738 <_IO_stdin_used+0x188>
   12850:	d2 07 bf f0 	ld  [ %fp + -16 ], %o1
   12854:	40 00 67 55 	call  2c5a8 <printf@plt>
   12858:	01 00 00 00 	nop 
   1285c:	10 80 00 89 	b  12a80 <runcmd+0x600>
   12860:	01 00 00 00 	nop 
   12864:	c2 07 bf f0 	ld  [ %fp + -16 ], %g1
   12868:	80 a0 60 00 	cmp  %g1, 0
   1286c:	02 80 00 7e 	be  12a64 <runcmd+0x5e4>
   12870:	01 00 00 00 	nop 
   12874:	c0 27 bf ec 	clr  [ %fp + -20 ]
   12878:	03 00 00 b3 	sethi  %hi(0x2cc00), %g1
   1287c:	82 10 61 dc 	or  %g1, 0x1dc, %g1	! 2cddc <intcrlf>
   12880:	c0 20 40 00 	clr  [ %g1 ]
   12884:	82 07 bf ec 	add  %fp, -20, %g1
   12888:	d0 07 bf f0 	ld  [ %fp + -16 ], %o0
   1288c:	92 10 00 01 	mov  %g1, %o1
   12890:	94 10 20 00 	clr  %o2
   12894:	96 10 20 00 	clr  %o3
   12898:	40 00 66 24 	call  2c128 <wait4@plt>
   1289c:	01 00 00 00 	nop 
   128a0:	82 10 00 08 	mov  %o0, %g1
   128a4:	c2 27 bd b4 	st  %g1, [ %fp + -588 ]
   128a8:	c2 07 bd b4 	ld  [ %fp + -588 ], %g1
   128ac:	80 a0 60 00 	cmp  %g1, 0
   128b0:	16 80 00 0b 	bge  128dc <runcmd+0x45c>
   128b4:	01 00 00 00 	nop 
   128b8:	40 00 66 7f 	call  2c2b4 <__errno_location@plt>
   128bc:	01 00 00 00 	nop 
   128c0:	82 10 00 08 	mov  %o0, %g1
   128c4:	c2 00 40 00 	ld  [ %g1 ], %g1
   128c8:	80 a0 60 04 	cmp  %g1, 4
   128cc:	12 80 00 04 	bne  128dc <runcmd+0x45c>
   128d0:	01 00 00 00 	nop 
   128d4:	10 bf ff ec 	b  12884 <runcmd+0x404>
   128d8:	01 00 00 00 	nop 
   128dc:	c2 07 bd b4 	ld  [ %fp + -588 ], %g1
   128e0:	80 a0 60 00 	cmp  %g1, 0
   128e4:	16 80 00 04 	bge  128f4 <runcmd+0x474>
   128e8:	01 00 00 00 	nop 
   128ec:	10 80 00 15 	b  12940 <runcmd+0x4c0>
   128f0:	01 00 00 00 	nop 
   128f4:	c4 07 bd b4 	ld  [ %fp + -588 ], %g2
   128f8:	c2 07 bf f0 	ld  [ %fp + -16 ], %g1
   128fc:	80 a0 80 01 	cmp  %g2, %g1
   12900:	02 bf ff e1 	be  12884 <runcmd+0x404>
   12904:	01 00 00 00 	nop 
   12908:	40 00 66 2c 	call  2c1b8 <getpid@plt>
   1290c:	01 00 00 00 	nop 
   12910:	84 10 00 08 	mov  %o0, %g2
   12914:	03 00 00 b3 	sethi  %hi(0x2cc00), %g1
   12918:	82 10 62 40 	or  %g1, 0x240, %g1	! 2ce40 <stderr@@GLIBC_2.0>
   1291c:	d0 00 40 00 	ld  [ %g1 ], %o0
   12920:	03 00 00 69 	sethi  %hi(0x1a400), %g1
   12924:	92 10 63 40 	or  %g1, 0x340, %o1	! 1a740 <_IO_stdin_used+0x190>
   12928:	94 10 00 02 	mov  %g2, %o2
   1292c:	d6 07 bd b4 	ld  [ %fp + -588 ], %o3
   12930:	40 00 66 b2 	call  2c3f8 <fprintf@plt>
   12934:	01 00 00 00 	nop 
   12938:	10 bf ff d3 	b  12884 <runcmd+0x404>
   1293c:	01 00 00 00 	nop 
   12940:	03 00 00 4b 	sethi  %hi(0x12c00), %g1
   12944:	82 10 62 68 	or  %g1, 0x268, %g1	! 12e68 <catchchild>
   12948:	c2 27 bd b8 	st  %g1, [ %fp + -584 ]
   1294c:	82 07 bd b8 	add  %fp, -584, %g1
   12950:	82 00 60 04 	add  %g1, 4, %g1
   12954:	90 10 00 01 	mov  %g1, %o0
   12958:	92 10 20 00 	clr  %o1
   1295c:	94 10 20 80 	mov  0x80, %o2
   12960:	40 00 66 f4 	call  2c530 <memset@plt>
   12964:	01 00 00 00 	nop 
   12968:	82 10 20 02 	mov  2, %g1	! 2 <_init-0x11506>
   1296c:	c2 27 be 3c 	st  %g1, [ %fp + -452 ]
   12970:	82 07 bd b8 	add  %fp, -584, %g1
   12974:	90 10 20 14 	mov  0x14, %o0
   12978:	92 10 00 01 	mov  %g1, %o1
   1297c:	94 10 20 00 	clr  %o2
   12980:	40 00 66 02 	call  2c188 <sigaction@plt>
   12984:	01 00 00 00 	nop 
   12988:	03 00 00 b3 	sethi  %hi(0x2cc00), %g1
   1298c:	84 10 61 dc 	or  %g1, 0x1dc, %g2	! 2cddc <intcrlf>
   12990:	82 10 20 01 	mov  1, %g1
   12994:	c2 20 80 00 	st  %g1, [ %g2 ]
   12998:	c2 07 bf ec 	ld  [ %fp + -20 ], %g1
   1299c:	c2 27 bd b0 	st  %g1, [ %fp + -592 ]
   129a0:	c2 07 bd b0 	ld  [ %fp + -592 ], %g1
   129a4:	82 08 60 7f 	and  %g1, 0x7f, %g1
   129a8:	80 a0 60 00 	cmp  %g1, 0
   129ac:	12 80 00 1a 	bne  12a14 <runcmd+0x594>
   129b0:	01 00 00 00 	nop 
   129b4:	c2 07 bf ec 	ld  [ %fp + -20 ], %g1
   129b8:	c2 27 bd b0 	st  %g1, [ %fp + -592 ]
   129bc:	c4 07 bd b0 	ld  [ %fp + -592 ], %g2
   129c0:	03 00 00 3f 	sethi  %hi(0xfc00), %g1
   129c4:	82 10 63 00 	or  %g1, 0x300, %g1	! ff00 <_init-0x1608>
   129c8:	82 08 80 01 	and  %g2, %g1, %g1
   129cc:	83 38 60 08 	sra  %g1, 8, %g1
   129d0:	80 a0 60 00 	cmp  %g1, 0
   129d4:	12 80 00 04 	bne  129e4 <runcmd+0x564>
   129d8:	01 00 00 00 	nop 
   129dc:	10 80 00 29 	b  12a80 <runcmd+0x600>
   129e0:	01 00 00 00 	nop 
   129e4:	03 00 00 b3 	sethi  %hi(0x2cc00), %g1
   129e8:	86 10 62 50 	or  %g1, 0x250, %g3	! 2ce50 <exit_code>
   129ec:	c2 07 bf ec 	ld  [ %fp + -20 ], %g1
   129f0:	c2 27 bd b0 	st  %g1, [ %fp + -592 ]
   129f4:	c4 07 bd b0 	ld  [ %fp + -592 ], %g2
   129f8:	03 00 00 3f 	sethi  %hi(0xfc00), %g1
   129fc:	82 10 63 00 	or  %g1, 0x300, %g1	! ff00 <_init-0x1608>
   12a00:	82 08 80 01 	and  %g2, %g1, %g1
   12a04:	83 38 60 08 	sra  %g1, 8, %g1
   12a08:	c2 20 c0 00 	st  %g1, [ %g3 ]
   12a0c:	10 80 00 06 	b  12a24 <runcmd+0x5a4>
   12a10:	01 00 00 00 	nop 
   12a14:	03 00 00 b3 	sethi  %hi(0x2cc00), %g1
   12a18:	84 10 62 50 	or  %g1, 0x250, %g2	! 2ce50 <exit_code>
   12a1c:	82 10 20 01 	mov  1, %g1
   12a20:	c2 20 80 00 	st  %g1, [ %g2 ]
   12a24:	03 00 00 b3 	sethi  %hi(0x2cc00), %g1
   12a28:	82 10 62 40 	or  %g1, 0x240, %g1	! 2ce40 <stderr@@GLIBC_2.0>
   12a2c:	d0 00 40 00 	ld  [ %g1 ], %o0
   12a30:	03 00 00 69 	sethi  %hi(0x1a400), %g1
   12a34:	92 10 63 58 	or  %g1, 0x358, %o1	! 1a758 <_IO_stdin_used+0x1a8>
   12a38:	d4 07 bf f0 	ld  [ %fp + -16 ], %o2
   12a3c:	d6 07 bf ec 	ld  [ %fp + -20 ], %o3
   12a40:	40 00 66 6e 	call  2c3f8 <fprintf@plt>
   12a44:	01 00 00 00 	nop 
   12a48:	03 00 00 b3 	sethi  %hi(0x2cc00), %g1
   12a4c:	82 10 62 40 	or  %g1, 0x240, %g1	! 2ce40 <stderr@@GLIBC_2.0>
   12a50:	d0 00 40 00 	ld  [ %g1 ], %o0
   12a54:	40 00 66 00 	call  2c254 <fflush@plt>
   12a58:	01 00 00 00 	nop 
   12a5c:	10 80 00 09 	b  12a80 <runcmd+0x600>
   12a60:	01 00 00 00 	nop 
   12a64:	c2 07 a0 50 	ld  [ %fp + 0x50 ], %g1
   12a68:	d0 00 40 00 	ld  [ %g1 ], %o0
   12a6c:	40 00 65 ee 	call  2c224 <perror@plt>
   12a70:	01 00 00 00 	nop 
   12a74:	90 10 20 01 	mov  1, %o0	! 1 <_init-0x11507>
   12a78:	40 00 66 99 	call  2c4dc <exit@plt>
   12a7c:	01 00 00 00 	nop 
   12a80:	01 00 00 00 	nop 
   12a84:	81 c7 e0 08 	ret 
   12a88:	81 e8 00 00 	restore 

00012a8c <do_help>:
do_help():
   12a8c:	9d e3 bf 90 	save  %sp, -112, %sp
   12a90:	f0 27 a0 44 	st  %i0, [ %fp + 0x44 ]
   12a94:	f2 27 a0 48 	st  %i1, [ %fp + 0x48 ]
   12a98:	03 00 00 b1 	sethi  %hi(0x2c400), %g1
   12a9c:	82 10 61 f0 	or  %g1, 0x1f0, %g1	! 2c5f0 <cmdtab>
   12aa0:	c2 27 bf f4 	st  %g1, [ %fp + -12 ]
   12aa4:	c2 07 bf f4 	ld  [ %fp + -12 ], %g1
   12aa8:	80 a0 60 00 	cmp  %g1, 0
   12aac:	02 80 00 16 	be  12b04 <do_help+0x78>
   12ab0:	01 00 00 00 	nop 
   12ab4:	c2 07 bf f4 	ld  [ %fp + -12 ], %g1
   12ab8:	c2 08 40 00 	ldub  [ %g1 ], %g1
   12abc:	83 28 60 18 	sll  %g1, 0x18, %g1
   12ac0:	83 38 60 18 	sra  %g1, 0x18, %g1
   12ac4:	80 a0 60 00 	cmp  %g1, 0
   12ac8:	02 80 00 0f 	be  12b04 <do_help+0x78>
   12acc:	01 00 00 00 	nop 
   12ad0:	c2 07 bf f4 	ld  [ %fp + -12 ], %g1
   12ad4:	84 00 60 0a 	add  %g1, 0xa, %g2
   12ad8:	03 00 00 69 	sethi  %hi(0x1a400), %g1
   12adc:	90 10 63 70 	or  %g1, 0x370, %o0	! 1a770 <_IO_stdin_used+0x1c0>
   12ae0:	d2 07 bf f4 	ld  [ %fp + -12 ], %o1
   12ae4:	94 10 00 02 	mov  %g2, %o2
   12ae8:	40 00 66 b0 	call  2c5a8 <printf@plt>
   12aec:	01 00 00 00 	nop 
   12af0:	c2 07 bf f4 	ld  [ %fp + -12 ], %g1
   12af4:	82 00 60 34 	add  %g1, 0x34, %g1
   12af8:	c2 27 bf f4 	st  %g1, [ %fp + -12 ]
   12afc:	10 bf ff ea 	b  12aa4 <do_help+0x18>
   12b00:	01 00 00 00 	nop 
   12b04:	81 c7 e0 08 	ret 
   12b08:	81 e8 00 00 	restore 

00012b0c <findalias>:
findalias():
   12b0c:	9d e3 bf 88 	save  %sp, -120, %sp
   12b10:	f0 27 a0 44 	st  %i0, [ %fp + 0x44 ]
   12b14:	03 00 00 b3 	sethi  %hi(0x2cc00), %g1
   12b18:	82 10 63 5c 	or  %g1, 0x35c, %g1	! 2cf5c <aliascount>
   12b1c:	c2 00 40 00 	ld  [ %g1 ], %g1
   12b20:	c2 27 bf f0 	st  %g1, [ %fp + -16 ]
   12b24:	03 00 00 b3 	sethi  %hi(0x2cc00), %g1
   12b28:	82 10 63 58 	or  %g1, 0x358, %g1	! 2cf58 <aliastable>
   12b2c:	c2 00 40 00 	ld  [ %g1 ], %g1
   12b30:	c2 27 bf f4 	st  %g1, [ %fp + -12 ]
   12b34:	82 07 bf f0 	add  %fp, -16, %g1
   12b38:	c4 00 40 00 	ld  [ %g1 ], %g2
   12b3c:	86 10 00 02 	mov  %g2, %g3
   12b40:	84 00 bf ff 	add  %g2, -1, %g2
   12b44:	c4 20 40 00 	st  %g2, [ %g1 ]
   12b48:	80 a0 e0 00 	cmp  %g3, 0
   12b4c:	04 80 00 14 	ble  12b9c <findalias+0x90>
   12b50:	01 00 00 00 	nop 
   12b54:	c2 07 bf f4 	ld  [ %fp + -12 ], %g1
   12b58:	d0 07 a0 44 	ld  [ %fp + 0x44 ], %o0
   12b5c:	d2 00 40 00 	ld  [ %g1 ], %o1
   12b60:	40 00 65 a5 	call  2c1f4 <strcmp@plt>
   12b64:	01 00 00 00 	nop 
   12b68:	82 10 00 08 	mov  %o0, %g1
   12b6c:	80 a0 60 00 	cmp  %g1, 0
   12b70:	12 80 00 06 	bne  12b88 <findalias+0x7c>
   12b74:	01 00 00 00 	nop 
   12b78:	c2 07 bf f4 	ld  [ %fp + -12 ], %g1
   12b7c:	c2 27 bf ec 	st  %g1, [ %fp + -20 ]
   12b80:	10 80 00 08 	b  12ba0 <findalias+0x94>
   12b84:	01 00 00 00 	nop 
   12b88:	c2 07 bf f4 	ld  [ %fp + -12 ], %g1
   12b8c:	82 00 60 08 	add  %g1, 8, %g1
   12b90:	c2 27 bf f4 	st  %g1, [ %fp + -12 ]
   12b94:	10 bf ff e8 	b  12b34 <findalias+0x28>
   12b98:	01 00 00 00 	nop 
   12b9c:	c0 27 bf ec 	clr  [ %fp + -20 ]
   12ba0:	f0 07 bf ec 	ld  [ %fp + -20 ], %i0
   12ba4:	81 c7 e0 08 	ret 
   12ba8:	81 e8 00 00 	restore 

00012bac <do_source>:
do_source():
   12bac:	9d e3 bf 98 	save  %sp, -104, %sp
   12bb0:	f0 27 a0 44 	st  %i0, [ %fp + 0x44 ]
   12bb4:	f2 27 a0 48 	st  %i1, [ %fp + 0x48 ]
   12bb8:	82 10 20 04 	mov  4, %g1
   12bbc:	c4 07 a0 48 	ld  [ %fp + 0x48 ], %g2
   12bc0:	82 00 40 02 	add  %g1, %g2, %g1
   12bc4:	d0 00 40 00 	ld  [ %g1 ], %o0
   12bc8:	7f ff fb 36 	call  118a0 <readfile>
   12bcc:	01 00 00 00 	nop 
   12bd0:	01 00 00 00 	nop 
   12bd4:	81 c7 e0 08 	ret 
   12bd8:	81 e8 00 00 	restore 

00012bdc <do_pid>:
do_pid():
   12bdc:	9d e3 bf 98 	save  %sp, -104, %sp
   12be0:	f0 27 a0 44 	st  %i0, [ %fp + 0x44 ]
   12be4:	f2 27 a0 48 	st  %i1, [ %fp + 0x48 ]
   12be8:	40 00 65 74 	call  2c1b8 <getpid@plt>
   12bec:	01 00 00 00 	nop 
   12bf0:	84 10 00 08 	mov  %o0, %g2
   12bf4:	03 00 00 69 	sethi  %hi(0x1a400), %g1
   12bf8:	90 10 63 80 	or  %g1, 0x380, %o0	! 1a780 <_IO_stdin_used+0x1d0>
   12bfc:	92 10 00 02 	mov  %g2, %o1
   12c00:	40 00 66 6a 	call  2c5a8 <printf@plt>
   12c04:	01 00 00 00 	nop 
   12c08:	01 00 00 00 	nop 
   12c0c:	81 c7 e0 08 	ret 
   12c10:	81 e8 00 00 	restore 

00012c14 <do_exec>:
do_exec():
   12c14:	9d e3 bf 98 	save  %sp, -104, %sp
   12c18:	f0 27 a0 44 	st  %i0, [ %fp + 0x44 ]
   12c1c:	f2 27 a0 48 	st  %i1, [ %fp + 0x48 ]
   12c20:	03 00 00 b3 	sethi  %hi(0x2cc00), %g1
   12c24:	84 10 63 88 	or  %g1, 0x388, %g2	! 2cf88 <sourcecount>
   12c28:	03 00 00 b3 	sethi  %hi(0x2cc00), %g1
   12c2c:	82 10 63 88 	or  %g1, 0x388, %g1	! 2cf88 <sourcecount>
   12c30:	c2 00 40 00 	ld  [ %g1 ], %g1
   12c34:	82 00 7f ff 	add  %g1, -1, %g1
   12c38:	c2 20 80 00 	st  %g1, [ %g2 ]
   12c3c:	80 a0 60 00 	cmp  %g1, 0
   12c40:	06 80 00 1a 	bl  12ca8 <do_exec+0x94>
   12c44:	01 00 00 00 	nop 
   12c48:	03 00 00 b3 	sethi  %hi(0x2cc00), %g1
   12c4c:	86 10 63 60 	or  %g1, 0x360, %g3	! 2cf60 <sourcefiles>
   12c50:	03 00 00 b3 	sethi  %hi(0x2cc00), %g1
   12c54:	82 10 63 88 	or  %g1, 0x388, %g1	! 2cf88 <sourcecount>
   12c58:	c2 00 40 00 	ld  [ %g1 ], %g1
   12c5c:	85 28 60 02 	sll  %g1, 2, %g2
   12c60:	03 00 00 b3 	sethi  %hi(0x2cc00), %g1
   12c64:	82 10 62 44 	or  %g1, 0x244, %g1	! 2ce44 <stdin@@GLIBC_2.0>
   12c68:	c4 00 c0 02 	ld  [ %g3 + %g2 ], %g2
   12c6c:	c2 00 40 00 	ld  [ %g1 ], %g1
   12c70:	80 a0 80 01 	cmp  %g2, %g1
   12c74:	02 bf ff eb 	be  12c20 <do_exec+0xc>
   12c78:	01 00 00 00 	nop 
   12c7c:	03 00 00 b3 	sethi  %hi(0x2cc00), %g1
   12c80:	84 10 63 60 	or  %g1, 0x360, %g2	! 2cf60 <sourcefiles>
   12c84:	03 00 00 b3 	sethi  %hi(0x2cc00), %g1
   12c88:	82 10 63 88 	or  %g1, 0x388, %g1	! 2cf88 <sourcecount>
   12c8c:	c2 00 40 00 	ld  [ %g1 ], %g1
   12c90:	83 28 60 02 	sll  %g1, 2, %g1
   12c94:	d0 00 80 01 	ld  [ %g2 + %g1 ], %o0
   12c98:	40 00 65 f0 	call  2c458 <fclose@plt>
   12c9c:	01 00 00 00 	nop 
   12ca0:	10 bf ff e0 	b  12c20 <do_exec+0xc>
   12ca4:	01 00 00 00 	nop 
   12ca8:	c2 07 a0 44 	ld  [ %fp + 0x44 ], %g1
   12cac:	85 28 60 02 	sll  %g1, 2, %g2
   12cb0:	c2 07 a0 48 	ld  [ %fp + 0x48 ], %g1
   12cb4:	82 00 80 01 	add  %g2, %g1, %g1
   12cb8:	c0 20 40 00 	clr  [ %g1 ]
   12cbc:	84 10 20 04 	mov  4, %g2
   12cc0:	c2 07 a0 48 	ld  [ %fp + 0x48 ], %g1
   12cc4:	84 00 80 01 	add  %g2, %g1, %g2
   12cc8:	c2 07 a0 48 	ld  [ %fp + 0x48 ], %g1
   12ccc:	82 00 60 04 	add  %g1, 4, %g1
   12cd0:	d0 00 80 00 	ld  [ %g2 ], %o0
   12cd4:	92 10 00 01 	mov  %g1, %o1
   12cd8:	40 00 65 b9 	call  2c3bc <execvp@plt>
   12cdc:	01 00 00 00 	nop 
   12ce0:	84 10 20 04 	mov  4, %g2	! 4 <_init-0x11504>
   12ce4:	c2 07 a0 48 	ld  [ %fp + 0x48 ], %g1
   12ce8:	82 00 80 01 	add  %g2, %g1, %g1
   12cec:	d0 00 40 00 	ld  [ %g1 ], %o0
   12cf0:	40 00 65 4d 	call  2c224 <perror@plt>
   12cf4:	01 00 00 00 	nop 
   12cf8:	90 10 20 01 	mov  1, %o0	! 1 <_init-0x11507>
   12cfc:	40 00 65 f8 	call  2c4dc <exit@plt>
   12d00:	01 00 00 00 	nop 
   12d04:	01 00 00 00 	nop 

00012d08 <showprompt>:
showprompt():
   12d08:	9d e3 bf 50 	save  %sp, -176, %sp
   12d0c:	03 00 00 69 	sethi  %hi(0x1a400), %g1
   12d10:	90 10 63 88 	or  %g1, 0x388, %o0	! 1a788 <_IO_stdin_used+0x1d8>
   12d14:	40 00 65 47 	call  2c230 <getenv@plt>
   12d18:	01 00 00 00 	nop 
   12d1c:	82 10 00 08 	mov  %o0, %g1
   12d20:	c2 27 bf f4 	st  %g1, [ %fp + -12 ]
   12d24:	c2 07 bf f4 	ld  [ %fp + -12 ], %g1
   12d28:	80 a0 60 00 	cmp  %g1, 0
   12d2c:	02 80 00 09 	be  12d50 <showprompt+0x48>
   12d30:	01 00 00 00 	nop 
   12d34:	03 00 00 69 	sethi  %hi(0x1a400), %g1
   12d38:	90 10 63 90 	or  %g1, 0x390, %o0	! 1a790 <_IO_stdin_used+0x1e0>
   12d3c:	d2 07 bf f4 	ld  [ %fp + -12 ], %o1
   12d40:	40 00 66 1a 	call  2c5a8 <printf@plt>
   12d44:	01 00 00 00 	nop 
   12d48:	10 80 00 0e 	b  12d80 <showprompt+0x78>
   12d4c:	01 00 00 00 	nop 
   12d50:	c0 2f bf b0 	clrb  [ %fp + -80 ]
   12d54:	82 07 bf b0 	add  %fp, -80, %g1
   12d58:	90 10 00 01 	mov  %g1, %o0
   12d5c:	92 10 20 3b 	mov  0x3b, %o1
   12d60:	40 00 65 ee 	call  2c518 <getcwd@plt>
   12d64:	01 00 00 00 	nop 
   12d68:	84 07 bf b0 	add  %fp, -80, %g2
   12d6c:	03 00 00 69 	sethi  %hi(0x1a400), %g1
   12d70:	90 10 63 98 	or  %g1, 0x398, %o0	! 1a798 <_IO_stdin_used+0x1e8>
   12d74:	92 10 00 02 	mov  %g2, %o1
   12d78:	40 00 66 0c 	call  2c5a8 <printf@plt>
   12d7c:	01 00 00 00 	nop 
   12d80:	03 00 00 b3 	sethi  %hi(0x2cc00), %g1
   12d84:	82 10 62 3c 	or  %g1, 0x23c, %g1	! 2ce3c <stdout@@GLIBC_2.0>
   12d88:	d0 00 40 00 	ld  [ %g1 ], %o0
   12d8c:	40 00 65 32 	call  2c254 <fflush@plt>
   12d90:	01 00 00 00 	nop 
   12d94:	01 00 00 00 	nop 
   12d98:	81 c7 e0 08 	ret 
   12d9c:	81 e8 00 00 	restore 

00012da0 <catchint>:
catchint():
   12da0:	9d e3 bf 98 	save  %sp, -104, %sp
   12da4:	90 10 20 02 	mov  2, %o0
   12da8:	03 00 00 4b 	sethi  %hi(0x12c00), %g1
   12dac:	92 10 61 a0 	or  %g1, 0x1a0, %o1	! 12da0 <catchint>
   12db0:	40 00 65 26 	call  2c248 <signal@plt>
   12db4:	01 00 00 00 	nop 
   12db8:	03 00 00 b5 	sethi  %hi(0x2d400), %g1
   12dbc:	84 10 62 48 	or  %g1, 0x248, %g2	! 2d648 <intflag>
   12dc0:	82 10 20 01 	mov  1, %g1
   12dc4:	c2 20 80 00 	st  %g1, [ %g2 ]
   12dc8:	03 00 00 b3 	sethi  %hi(0x2cc00), %g1
   12dcc:	82 10 61 dc 	or  %g1, 0x1dc, %g1	! 2cddc <intcrlf>
   12dd0:	c2 00 40 00 	ld  [ %g1 ], %g1
   12dd4:	80 a0 60 00 	cmp  %g1, 0
   12dd8:	02 80 00 08 	be  12df8 <catchint+0x58>
   12ddc:	01 00 00 00 	nop 
   12de0:	90 10 20 01 	mov  1, %o0	! 1 <_init-0x11507>
   12de4:	03 00 00 69 	sethi  %hi(0x1a400), %g1
   12de8:	92 10 63 a0 	or  %g1, 0x3a0, %o1	! 1a7a0 <_IO_stdin_used+0x1f0>
   12dec:	94 10 20 01 	mov  1, %o2
   12df0:	40 00 64 f8 	call  2c1d0 <write@plt>
   12df4:	01 00 00 00 	nop 
   12df8:	01 00 00 00 	nop 
   12dfc:	81 c7 e0 08 	ret 
   12e00:	81 e8 00 00 	restore 

00012e04 <catchquit>:
catchquit():
   12e04:	9d e3 bf 98 	save  %sp, -104, %sp
   12e08:	90 10 20 03 	mov  3, %o0
   12e0c:	03 00 00 4b 	sethi  %hi(0x12c00), %g1
   12e10:	92 10 62 04 	or  %g1, 0x204, %o1	! 12e04 <catchquit>
   12e14:	40 00 65 0d 	call  2c248 <signal@plt>
   12e18:	01 00 00 00 	nop 
   12e1c:	03 00 00 b5 	sethi  %hi(0x2d400), %g1
   12e20:	84 10 62 48 	or  %g1, 0x248, %g2	! 2d648 <intflag>
   12e24:	82 10 20 01 	mov  1, %g1
   12e28:	c2 20 80 00 	st  %g1, [ %g2 ]
   12e2c:	03 00 00 b3 	sethi  %hi(0x2cc00), %g1
   12e30:	82 10 61 dc 	or  %g1, 0x1dc, %g1	! 2cddc <intcrlf>
   12e34:	c2 00 40 00 	ld  [ %g1 ], %g1
   12e38:	80 a0 60 00 	cmp  %g1, 0
   12e3c:	02 80 00 08 	be  12e5c <catchquit+0x58>
   12e40:	01 00 00 00 	nop 
   12e44:	90 10 20 01 	mov  1, %o0	! 1 <_init-0x11507>
   12e48:	03 00 00 69 	sethi  %hi(0x1a400), %g1
   12e4c:	92 10 63 a0 	or  %g1, 0x3a0, %o1	! 1a7a0 <_IO_stdin_used+0x1f0>
   12e50:	94 10 20 01 	mov  1, %o2
   12e54:	40 00 64 df 	call  2c1d0 <write@plt>
   12e58:	01 00 00 00 	nop 
   12e5c:	01 00 00 00 	nop 
   12e60:	81 c7 e0 08 	ret 
   12e64:	81 e8 00 00 	restore 

00012e68 <catchchild>:
catchchild():
   12e68:	9d e3 bf 60 	save  %sp, -160, %sp
   12e6c:	82 07 bf c8 	add  %fp, -56, %g1
   12e70:	90 10 3f ff 	mov  -1, %o0
   12e74:	92 10 00 01 	mov  %g1, %o1
   12e78:	94 10 20 02 	mov  2, %o2
   12e7c:	96 10 20 00 	clr  %o3
   12e80:	40 00 64 aa 	call  2c128 <wait4@plt>
   12e84:	01 00 00 00 	nop 
   12e88:	82 10 00 08 	mov  %o0, %g1
   12e8c:	c2 27 bf cc 	st  %g1, [ %fp + -52 ]
   12e90:	c2 07 bf c8 	ld  [ %fp + -56 ], %g1
   12e94:	c2 27 bf c4 	st  %g1, [ %fp + -60 ]
   12e98:	c2 07 bf c4 	ld  [ %fp + -60 ], %g1
   12e9c:	82 08 60 ff 	and  %g1, 0xff, %g1
   12ea0:	80 a0 60 7f 	cmp  %g1, 0x7f
   12ea4:	12 80 00 0f 	bne  12ee0 <catchchild+0x78>
   12ea8:	01 00 00 00 	nop 
   12eac:	40 00 64 c3 	call  2c1b8 <getpid@plt>
   12eb0:	01 00 00 00 	nop 
   12eb4:	82 10 00 08 	mov  %o0, %g1
   12eb8:	84 07 bf d0 	add  %fp, -48, %g2
   12ebc:	90 10 00 02 	mov  %g2, %o0
   12ec0:	05 00 00 69 	sethi  %hi(0x1a400), %g2
   12ec4:	92 10 a3 a8 	or  %g2, 0x3a8, %o1	! 1a7a8 <_IO_stdin_used+0x1f8>
   12ec8:	94 10 00 01 	mov  %g1, %o2
   12ecc:	d6 07 bf cc 	ld  [ %fp + -52 ], %o3
   12ed0:	40 00 65 47 	call  2c3ec <sprintf@plt>
   12ed4:	01 00 00 00 	nop 
   12ed8:	10 80 00 0d 	b  12f0c <catchchild+0xa4>
   12edc:	01 00 00 00 	nop 
   12ee0:	40 00 64 b6 	call  2c1b8 <getpid@plt>
   12ee4:	01 00 00 00 	nop 
   12ee8:	82 10 00 08 	mov  %o0, %g1
   12eec:	84 07 bf d0 	add  %fp, -48, %g2
   12ef0:	90 10 00 02 	mov  %g2, %o0
   12ef4:	05 00 00 69 	sethi  %hi(0x1a400), %g2
   12ef8:	92 10 a3 c8 	or  %g2, 0x3c8, %o1	! 1a7c8 <_IO_stdin_used+0x218>
   12efc:	94 10 00 01 	mov  %g1, %o2
   12f00:	d6 07 bf cc 	ld  [ %fp + -52 ], %o3
   12f04:	40 00 65 3a 	call  2c3ec <sprintf@plt>
   12f08:	01 00 00 00 	nop 
   12f0c:	03 00 00 b3 	sethi  %hi(0x2cc00), %g1
   12f10:	82 10 61 dc 	or  %g1, 0x1dc, %g1	! 2cddc <intcrlf>
   12f14:	c2 00 40 00 	ld  [ %g1 ], %g1
   12f18:	80 a0 60 00 	cmp  %g1, 0
   12f1c:	02 80 00 08 	be  12f3c <catchchild+0xd4>
   12f20:	01 00 00 00 	nop 
   12f24:	90 10 20 01 	mov  1, %o0	! 1 <_init-0x11507>
   12f28:	03 00 00 69 	sethi  %hi(0x1a400), %g1
   12f2c:	92 10 63 a0 	or  %g1, 0x3a0, %o1	! 1a7a0 <_IO_stdin_used+0x1f0>
   12f30:	94 10 20 01 	mov  1, %o2
   12f34:	40 00 64 a7 	call  2c1d0 <write@plt>
   12f38:	01 00 00 00 	nop 
   12f3c:	82 07 bf d0 	add  %fp, -48, %g1
   12f40:	90 10 00 01 	mov  %g1, %o0
   12f44:	40 00 65 12 	call  2c38c <strlen@plt>
   12f48:	01 00 00 00 	nop 
   12f4c:	82 10 00 08 	mov  %o0, %g1
   12f50:	84 10 00 01 	mov  %g1, %g2
   12f54:	82 07 bf d0 	add  %fp, -48, %g1
   12f58:	90 10 20 01 	mov  1, %o0
   12f5c:	92 10 00 01 	mov  %g1, %o1
   12f60:	94 10 00 02 	mov  %g2, %o2
   12f64:	40 00 64 9b 	call  2c1d0 <write@plt>
   12f68:	01 00 00 00 	nop 
   12f6c:	01 00 00 00 	nop 
   12f70:	81 c7 e0 08 	ret 
   12f74:	81 e8 00 00 	restore 

00012f78 <do_echo>:
do_echo():
   12f78:	9d e3 bf 90 	save  %sp, -112, %sp
   12f7c:	f0 27 a0 44 	st  %i0, [ %fp + 0x44 ]
   12f80:	f2 27 a0 48 	st  %i1, [ %fp + 0x48 ]
   12f84:	82 10 20 01 	mov  1, %g1
   12f88:	c2 27 bf f4 	st  %g1, [ %fp + -12 ]
   12f8c:	c2 07 a0 44 	ld  [ %fp + 0x44 ], %g1
   12f90:	84 10 00 01 	mov  %g1, %g2
   12f94:	82 00 7f ff 	add  %g1, -1, %g1
   12f98:	c2 27 a0 44 	st  %g1, [ %fp + 0x44 ]
   12f9c:	80 a0 a0 01 	cmp  %g2, 1
   12fa0:	04 80 00 19 	ble  13004 <do_echo+0x8c>
   12fa4:	01 00 00 00 	nop 
   12fa8:	c2 07 bf f4 	ld  [ %fp + -12 ], %g1
   12fac:	80 a0 60 00 	cmp  %g1, 0
   12fb0:	12 80 00 08 	bne  12fd0 <do_echo+0x58>
   12fb4:	01 00 00 00 	nop 
   12fb8:	03 00 00 b3 	sethi  %hi(0x2cc00), %g1
   12fbc:	82 10 62 3c 	or  %g1, 0x23c, %g1	! 2ce3c <stdout@@GLIBC_2.0>
   12fc0:	90 10 20 20 	mov  0x20, %o0
   12fc4:	d2 00 40 00 	ld  [ %g1 ], %o1
   12fc8:	40 00 65 03 	call  2c3d4 <fputc@plt>
   12fcc:	01 00 00 00 	nop 
   12fd0:	c0 27 bf f4 	clr  [ %fp + -12 ]
   12fd4:	c2 07 a0 48 	ld  [ %fp + 0x48 ], %g1
   12fd8:	82 00 60 04 	add  %g1, 4, %g1
   12fdc:	84 10 00 01 	mov  %g1, %g2
   12fe0:	c4 27 a0 48 	st  %g2, [ %fp + 0x48 ]
   12fe4:	03 00 00 b3 	sethi  %hi(0x2cc00), %g1
   12fe8:	82 10 62 3c 	or  %g1, 0x23c, %g1	! 2ce3c <stdout@@GLIBC_2.0>
   12fec:	d0 00 80 00 	ld  [ %g2 ], %o0
   12ff0:	d2 00 40 00 	ld  [ %g1 ], %o1
   12ff4:	40 00 64 e3 	call  2c380 <fputs@plt>
   12ff8:	01 00 00 00 	nop 
   12ffc:	10 bf ff e4 	b  12f8c <do_echo+0x14>
   13000:	01 00 00 00 	nop 
   13004:	03 00 00 b3 	sethi  %hi(0x2cc00), %g1
   13008:	82 10 62 3c 	or  %g1, 0x23c, %g1	! 2ce3c <stdout@@GLIBC_2.0>
   1300c:	90 10 20 0a 	mov  0xa, %o0
   13010:	d2 00 40 00 	ld  [ %g1 ], %o1
   13014:	40 00 64 f0 	call  2c3d4 <fputc@plt>
   13018:	01 00 00 00 	nop 
   1301c:	01 00 00 00 	nop 
   13020:	81 c7 e0 08 	ret 
   13024:	81 e8 00 00 	restore 

00013028 <do_pwd>:
do_pwd():
   13028:	9d e3 be 98 	save  %sp, -360, %sp
   1302c:	f0 27 a0 44 	st  %i0, [ %fp + 0x44 ]
   13030:	f2 27 a0 48 	st  %i1, [ %fp + 0x48 ]
   13034:	82 07 be f8 	add  %fp, -264, %g1
   13038:	90 10 00 01 	mov  %g1, %o0
   1303c:	92 10 21 00 	mov  0x100, %o1
   13040:	40 00 65 36 	call  2c518 <getcwd@plt>
   13044:	01 00 00 00 	nop 
   13048:	82 10 00 08 	mov  %o0, %g1
   1304c:	80 a0 60 00 	cmp  %g1, 0
   13050:	12 80 00 0b 	bne  1307c <do_pwd+0x54>
   13054:	01 00 00 00 	nop 
   13058:	03 00 00 b3 	sethi  %hi(0x2cc00), %g1
   1305c:	82 10 62 40 	or  %g1, 0x240, %g1	! 2ce40 <stderr@@GLIBC_2.0>
   13060:	d0 00 40 00 	ld  [ %g1 ], %o0
   13064:	03 00 00 69 	sethi  %hi(0x1a400), %g1
   13068:	92 10 63 e0 	or  %g1, 0x3e0, %o1	! 1a7e0 <_IO_stdin_used+0x230>
   1306c:	40 00 64 e3 	call  2c3f8 <fprintf@plt>
   13070:	01 00 00 00 	nop 
   13074:	10 80 00 08 	b  13094 <do_pwd+0x6c>
   13078:	01 00 00 00 	nop 
   1307c:	84 07 be f8 	add  %fp, -264, %g2
   13080:	03 00 00 6a 	sethi  %hi(0x1a800), %g1
   13084:	90 10 60 00 	mov  %g1, %o0	! 1a800 <_IO_stdin_used+0x250>
   13088:	92 10 00 02 	mov  %g2, %o1
   1308c:	40 00 65 47 	call  2c5a8 <printf@plt>
   13090:	01 00 00 00 	nop 
   13094:	01 00 00 00 	nop 
   13098:	81 c7 e0 08 	ret 
   1309c:	81 e8 00 00 	restore 

000130a0 <do_time>:
do_time():
   130a0:	9d e3 bf 90 	save  %sp, -112, %sp
   130a4:	f0 27 a0 44 	st  %i0, [ %fp + 0x44 ]
   130a8:	f2 27 a0 48 	st  %i1, [ %fp + 0x48 ]
   130ac:	82 07 bf f0 	add  %fp, -16, %g1
   130b0:	90 10 00 01 	mov  %g1, %o0
   130b4:	92 10 20 00 	clr  %o1
   130b8:	40 00 64 fa 	call  2c4a0 <gettimeofday@plt>
   130bc:	01 00 00 00 	nop 
   130c0:	03 00 00 6a 	sethi  %hi(0x1a800), %g1
   130c4:	90 10 60 08 	or  %g1, 8, %o0	! 1a808 <_IO_stdin_used+0x258>
   130c8:	d2 07 bf f0 	ld  [ %fp + -16 ], %o1
   130cc:	d4 07 bf f4 	ld  [ %fp + -12 ], %o2
   130d0:	40 00 65 36 	call  2c5a8 <printf@plt>
   130d4:	01 00 00 00 	nop 
   130d8:	01 00 00 00 	nop 
   130dc:	81 c7 e0 08 	ret 
   130e0:	81 e8 00 00 	restore 

000130e4 <do_cd>:
do_cd():
   130e4:	9d e3 bf 90 	save  %sp, -112, %sp
   130e8:	f0 27 a0 44 	st  %i0, [ %fp + 0x44 ]
   130ec:	f2 27 a0 48 	st  %i1, [ %fp + 0x48 ]
   130f0:	c2 07 a0 44 	ld  [ %fp + 0x44 ], %g1
   130f4:	80 a0 60 01 	cmp  %g1, 1
   130f8:	04 80 00 09 	ble  1311c <do_cd+0x38>
   130fc:	01 00 00 00 	nop 
   13100:	84 10 20 04 	mov  4, %g2	! 4 <_init-0x11504>
   13104:	c2 07 a0 48 	ld  [ %fp + 0x48 ], %g1
   13108:	82 00 80 01 	add  %g2, %g1, %g1
   1310c:	c2 00 40 00 	ld  [ %g1 ], %g1
   13110:	c2 27 bf f4 	st  %g1, [ %fp + -12 ]
   13114:	10 80 00 15 	b  13168 <do_cd+0x84>
   13118:	01 00 00 00 	nop 
   1311c:	03 00 00 6a 	sethi  %hi(0x1a800), %g1
   13120:	90 10 60 28 	or  %g1, 0x28, %o0	! 1a828 <_IO_stdin_used+0x278>
   13124:	40 00 64 43 	call  2c230 <getenv@plt>
   13128:	01 00 00 00 	nop 
   1312c:	82 10 00 08 	mov  %o0, %g1
   13130:	c2 27 bf f4 	st  %g1, [ %fp + -12 ]
   13134:	c2 07 bf f4 	ld  [ %fp + -12 ], %g1
   13138:	80 a0 60 00 	cmp  %g1, 0
   1313c:	12 80 00 0b 	bne  13168 <do_cd+0x84>
   13140:	01 00 00 00 	nop 
   13144:	03 00 00 b3 	sethi  %hi(0x2cc00), %g1
   13148:	82 10 62 40 	or  %g1, 0x240, %g1	! 2ce40 <stderr@@GLIBC_2.0>
   1314c:	d0 00 40 00 	ld  [ %g1 ], %o0
   13150:	03 00 00 6a 	sethi  %hi(0x1a800), %g1
   13154:	92 10 60 30 	or  %g1, 0x30, %o1	! 1a830 <_IO_stdin_used+0x280>
   13158:	40 00 64 a8 	call  2c3f8 <fprintf@plt>
   1315c:	01 00 00 00 	nop 
   13160:	10 80 00 0c 	b  13190 <do_cd+0xac>
   13164:	01 00 00 00 	nop 
   13168:	d0 07 bf f4 	ld  [ %fp + -12 ], %o0
   1316c:	40 00 64 82 	call  2c374 <chdir@plt>
   13170:	01 00 00 00 	nop 
   13174:	82 10 00 08 	mov  %o0, %g1
   13178:	80 a0 60 00 	cmp  %g1, 0
   1317c:	16 80 00 05 	bge  13190 <do_cd+0xac>
   13180:	01 00 00 00 	nop 
   13184:	d0 07 bf f4 	ld  [ %fp + -12 ], %o0
   13188:	40 00 64 27 	call  2c224 <perror@plt>
   1318c:	01 00 00 00 	nop 
   13190:	01 00 00 00 	nop 
   13194:	81 c7 e0 08 	ret 
   13198:	81 e8 00 00 	restore 

0001319c <do_mkdir>:
do_mkdir():
   1319c:	9d e3 bf 98 	save  %sp, -104, %sp
   131a0:	f0 27 a0 44 	st  %i0, [ %fp + 0x44 ]
   131a4:	f2 27 a0 48 	st  %i1, [ %fp + 0x48 ]
   131a8:	c2 07 a0 44 	ld  [ %fp + 0x44 ], %g1
   131ac:	84 10 00 01 	mov  %g1, %g2
   131b0:	82 00 7f ff 	add  %g1, -1, %g1
   131b4:	c2 27 a0 44 	st  %g1, [ %fp + 0x44 ]
   131b8:	80 a0 a0 01 	cmp  %g2, 1
   131bc:	04 80 00 18 	ble  1321c <do_mkdir+0x80>
   131c0:	01 00 00 00 	nop 
   131c4:	84 10 20 04 	mov  4, %g2	! 4 <_init-0x11504>
   131c8:	c2 07 a0 48 	ld  [ %fp + 0x48 ], %g1
   131cc:	82 00 80 01 	add  %g2, %g1, %g1
   131d0:	d0 00 40 00 	ld  [ %g1 ], %o0
   131d4:	92 10 21 ff 	mov  0x1ff, %o1
   131d8:	40 00 63 dd 	call  2c14c <mkdir@plt>
   131dc:	01 00 00 00 	nop 
   131e0:	82 10 00 08 	mov  %o0, %g1
   131e4:	80 a0 60 00 	cmp  %g1, 0
   131e8:	16 80 00 08 	bge  13208 <do_mkdir+0x6c>
   131ec:	01 00 00 00 	nop 
   131f0:	82 10 20 04 	mov  4, %g1	! 4 <_init-0x11504>
   131f4:	c4 07 a0 48 	ld  [ %fp + 0x48 ], %g2
   131f8:	82 00 40 02 	add  %g1, %g2, %g1
   131fc:	d0 00 40 00 	ld  [ %g1 ], %o0
   13200:	40 00 64 09 	call  2c224 <perror@plt>
   13204:	01 00 00 00 	nop 
   13208:	c2 07 a0 48 	ld  [ %fp + 0x48 ], %g1
   1320c:	82 00 60 04 	add  %g1, 4, %g1
   13210:	c2 27 a0 48 	st  %g1, [ %fp + 0x48 ]
   13214:	10 bf ff e5 	b  131a8 <do_mkdir+0xc>
   13218:	01 00 00 00 	nop 
   1321c:	81 c7 e0 08 	ret 
   13220:	81 e8 00 00 	restore 

00013224 <do_sleep>:
do_sleep():
   13224:	9d e3 bf 98 	save  %sp, -104, %sp
   13228:	f0 27 a0 44 	st  %i0, [ %fp + 0x44 ]
   1322c:	f2 27 a0 48 	st  %i1, [ %fp + 0x48 ]
   13230:	c2 07 a0 44 	ld  [ %fp + 0x44 ], %g1
   13234:	80 a0 60 01 	cmp  %g1, 1
   13238:	04 80 00 0c 	ble  13268 <do_sleep+0x44>
   1323c:	01 00 00 00 	nop 
   13240:	84 10 20 04 	mov  4, %g2	! 4 <_init-0x11504>
   13244:	c2 07 a0 48 	ld  [ %fp + 0x48 ], %g1
   13248:	82 00 80 01 	add  %g2, %g1, %g1
   1324c:	d0 00 40 00 	ld  [ %g1 ], %o0
   13250:	40 00 64 a6 	call  2c4e8 <atoi@plt>
   13254:	01 00 00 00 	nop 
   13258:	82 10 00 08 	mov  %o0, %g1
   1325c:	90 10 00 01 	mov  %g1, %o0
   13260:	40 00 64 4e 	call  2c398 <sleep@plt>
   13264:	01 00 00 00 	nop 
   13268:	01 00 00 00 	nop 
   1326c:	81 c7 e0 08 	ret 
   13270:	81 e8 00 00 	restore 

00013274 <do_mknod>:
do_mknod():
   13274:	9d e3 bf 88 	save  %sp, -120, %sp
   13278:	f0 27 a0 44 	st  %i0, [ %fp + 0x44 ]
   1327c:	f2 27 a0 48 	st  %i1, [ %fp + 0x48 ]
   13280:	82 10 21 b6 	mov  0x1b6, %g1
   13284:	c2 27 bf f0 	st  %g1, [ %fp + -16 ]
   13288:	84 10 20 08 	mov  8, %g2
   1328c:	c2 07 a0 48 	ld  [ %fp + 0x48 ], %g1
   13290:	82 00 80 01 	add  %g2, %g1, %g1
   13294:	05 00 00 6a 	sethi  %hi(0x1a800), %g2
   13298:	d0 00 40 00 	ld  [ %g1 ], %o0
   1329c:	92 10 a0 50 	or  %g2, 0x50, %o1
   132a0:	40 00 63 d5 	call  2c1f4 <strcmp@plt>
   132a4:	01 00 00 00 	nop 
   132a8:	82 10 00 08 	mov  %o0, %g1
   132ac:	80 a0 60 00 	cmp  %g1, 0
   132b0:	12 80 00 08 	bne  132d0 <do_mknod+0x5c>
   132b4:	01 00 00 00 	nop 
   132b8:	c2 07 bf f0 	ld  [ %fp + -16 ], %g1
   132bc:	05 00 00 18 	sethi  %hi(0x6000), %g2
   132c0:	82 10 40 02 	or  %g1, %g2, %g1
   132c4:	c2 27 bf f0 	st  %g1, [ %fp + -16 ]
   132c8:	10 80 00 1d 	b  1333c <do_mknod+0xc8>
   132cc:	01 00 00 00 	nop 
   132d0:	84 10 20 08 	mov  8, %g2	! 8 <_init-0x11500>
   132d4:	c2 07 a0 48 	ld  [ %fp + 0x48 ], %g1
   132d8:	82 00 80 01 	add  %g2, %g1, %g1
   132dc:	05 00 00 6a 	sethi  %hi(0x1a800), %g2
   132e0:	d0 00 40 00 	ld  [ %g1 ], %o0
   132e4:	92 10 a0 58 	or  %g2, 0x58, %o1
   132e8:	40 00 63 c3 	call  2c1f4 <strcmp@plt>
   132ec:	01 00 00 00 	nop 
   132f0:	82 10 00 08 	mov  %o0, %g1
   132f4:	80 a0 60 00 	cmp  %g1, 0
   132f8:	12 80 00 08 	bne  13318 <do_mknod+0xa4>
   132fc:	01 00 00 00 	nop 
   13300:	c2 07 bf f0 	ld  [ %fp + -16 ], %g1
   13304:	05 00 00 08 	sethi  %hi(0x2000), %g2
   13308:	82 10 40 02 	or  %g1, %g2, %g1
   1330c:	c2 27 bf f0 	st  %g1, [ %fp + -16 ]
   13310:	10 80 00 0b 	b  1333c <do_mknod+0xc8>
   13314:	01 00 00 00 	nop 
   13318:	03 00 00 b3 	sethi  %hi(0x2cc00), %g1
   1331c:	82 10 62 40 	or  %g1, 0x240, %g1	! 2ce40 <stderr@@GLIBC_2.0>
   13320:	d0 00 40 00 	ld  [ %g1 ], %o0
   13324:	03 00 00 6a 	sethi  %hi(0x1a800), %g1
   13328:	92 10 60 60 	or  %g1, 0x60, %o1	! 1a860 <_IO_stdin_used+0x2b0>
   1332c:	40 00 64 33 	call  2c3f8 <fprintf@plt>
   13330:	01 00 00 00 	nop 
   13334:	10 80 00 9c 	b  135a4 <do_mknod+0x330>
   13338:	01 00 00 00 	nop 
   1333c:	c0 27 bf ec 	clr  [ %fp + -20 ]
   13340:	84 10 20 0c 	mov  0xc, %g2
   13344:	c2 07 a0 48 	ld  [ %fp + 0x48 ], %g1
   13348:	82 00 80 01 	add  %g2, %g1, %g1
   1334c:	c2 00 40 00 	ld  [ %g1 ], %g1
   13350:	c2 27 bf f4 	st  %g1, [ %fp + -12 ]
   13354:	c2 07 bf f4 	ld  [ %fp + -12 ], %g1
   13358:	c2 08 40 00 	ldub  [ %g1 ], %g1
   1335c:	83 28 60 18 	sll  %g1, 0x18, %g1
   13360:	83 38 60 18 	sra  %g1, 0x18, %g1
   13364:	80 a0 60 2f 	cmp  %g1, 0x2f
   13368:	04 80 00 1b 	ble  133d4 <do_mknod+0x160>
   1336c:	01 00 00 00 	nop 
   13370:	c2 07 bf f4 	ld  [ %fp + -12 ], %g1
   13374:	c2 08 40 00 	ldub  [ %g1 ], %g1
   13378:	83 28 60 18 	sll  %g1, 0x18, %g1
   1337c:	83 38 60 18 	sra  %g1, 0x18, %g1
   13380:	80 a0 60 39 	cmp  %g1, 0x39
   13384:	14 80 00 14 	bg  133d4 <do_mknod+0x160>
   13388:	01 00 00 00 	nop 
   1338c:	c4 07 bf ec 	ld  [ %fp + -20 ], %g2
   13390:	82 10 00 02 	mov  %g2, %g1
   13394:	83 28 60 02 	sll  %g1, 2, %g1
   13398:	82 00 40 02 	add  %g1, %g2, %g1
   1339c:	86 00 40 01 	add  %g1, %g1, %g3
   133a0:	88 07 bf f4 	add  %fp, -12, %g4
   133a4:	c4 01 00 00 	ld  [ %g4 ], %g2
   133a8:	82 10 00 02 	mov  %g2, %g1
   133ac:	c2 08 40 00 	ldub  [ %g1 ], %g1
   133b0:	83 28 60 18 	sll  %g1, 0x18, %g1
   133b4:	83 38 60 18 	sra  %g1, 0x18, %g1
   133b8:	82 00 c0 01 	add  %g3, %g1, %g1
   133bc:	82 00 7f d0 	add  %g1, -48, %g1
   133c0:	84 00 a0 01 	inc  %g2
   133c4:	c4 21 00 00 	st  %g2, [ %g4 ]
   133c8:	c2 27 bf ec 	st  %g1, [ %fp + -20 ]
   133cc:	10 bf ff e2 	b  13354 <do_mknod+0xe0>
   133d0:	01 00 00 00 	nop 
   133d4:	c2 07 bf f4 	ld  [ %fp + -12 ], %g1
   133d8:	c2 08 40 00 	ldub  [ %g1 ], %g1
   133dc:	83 28 60 18 	sll  %g1, 0x18, %g1
   133e0:	83 38 60 18 	sra  %g1, 0x18, %g1
   133e4:	80 a0 60 00 	cmp  %g1, 0
   133e8:	12 80 00 0c 	bne  13418 <do_mknod+0x1a4>
   133ec:	01 00 00 00 	nop 
   133f0:	c2 07 bf ec 	ld  [ %fp + -20 ], %g1
   133f4:	80 a0 60 00 	cmp  %g1, 0
   133f8:	06 80 00 08 	bl  13418 <do_mknod+0x1a4>
   133fc:	01 00 00 00 	nop 
   13400:	c2 07 bf ec 	ld  [ %fp + -20 ], %g1
   13404:	80 a0 60 ff 	cmp  %g1, 0xff
   13408:	14 80 00 04 	bg  13418 <do_mknod+0x1a4>
   1340c:	01 00 00 00 	nop 
   13410:	10 80 00 0b 	b  1343c <do_mknod+0x1c8>
   13414:	01 00 00 00 	nop 
   13418:	03 00 00 b3 	sethi  %hi(0x2cc00), %g1
   1341c:	82 10 62 40 	or  %g1, 0x240, %g1	! 2ce40 <stderr@@GLIBC_2.0>
   13420:	d0 00 40 00 	ld  [ %g1 ], %o0
   13424:	03 00 00 6a 	sethi  %hi(0x1a800), %g1
   13428:	92 10 60 78 	or  %g1, 0x78, %o1	! 1a878 <_IO_stdin_used+0x2c8>
   1342c:	40 00 63 f3 	call  2c3f8 <fprintf@plt>
   13430:	01 00 00 00 	nop 
   13434:	10 80 00 5c 	b  135a4 <do_mknod+0x330>
   13438:	01 00 00 00 	nop 
   1343c:	c0 27 bf e8 	clr  [ %fp + -24 ]
   13440:	84 10 20 10 	mov  0x10, %g2
   13444:	c2 07 a0 48 	ld  [ %fp + 0x48 ], %g1
   13448:	82 00 80 01 	add  %g2, %g1, %g1
   1344c:	c2 00 40 00 	ld  [ %g1 ], %g1
   13450:	c2 27 bf f4 	st  %g1, [ %fp + -12 ]
   13454:	c2 07 bf f4 	ld  [ %fp + -12 ], %g1
   13458:	c2 08 40 00 	ldub  [ %g1 ], %g1
   1345c:	83 28 60 18 	sll  %g1, 0x18, %g1
   13460:	83 38 60 18 	sra  %g1, 0x18, %g1
   13464:	80 a0 60 2f 	cmp  %g1, 0x2f
   13468:	04 80 00 1b 	ble  134d4 <do_mknod+0x260>
   1346c:	01 00 00 00 	nop 
   13470:	c2 07 bf f4 	ld  [ %fp + -12 ], %g1
   13474:	c2 08 40 00 	ldub  [ %g1 ], %g1
   13478:	83 28 60 18 	sll  %g1, 0x18, %g1
   1347c:	83 38 60 18 	sra  %g1, 0x18, %g1
   13480:	80 a0 60 39 	cmp  %g1, 0x39
   13484:	14 80 00 14 	bg  134d4 <do_mknod+0x260>
   13488:	01 00 00 00 	nop 
   1348c:	c4 07 bf e8 	ld  [ %fp + -24 ], %g2
   13490:	82 10 00 02 	mov  %g2, %g1
   13494:	83 28 60 02 	sll  %g1, 2, %g1
   13498:	82 00 40 02 	add  %g1, %g2, %g1
   1349c:	86 00 40 01 	add  %g1, %g1, %g3
   134a0:	88 07 bf f4 	add  %fp, -12, %g4
   134a4:	c4 01 00 00 	ld  [ %g4 ], %g2
   134a8:	82 10 00 02 	mov  %g2, %g1
   134ac:	c2 08 40 00 	ldub  [ %g1 ], %g1
   134b0:	83 28 60 18 	sll  %g1, 0x18, %g1
   134b4:	83 38 60 18 	sra  %g1, 0x18, %g1
   134b8:	82 00 c0 01 	add  %g3, %g1, %g1
   134bc:	82 00 7f d0 	add  %g1, -48, %g1
   134c0:	84 00 a0 01 	inc  %g2
   134c4:	c4 21 00 00 	st  %g2, [ %g4 ]
   134c8:	c2 27 bf e8 	st  %g1, [ %fp + -24 ]
   134cc:	10 bf ff e2 	b  13454 <do_mknod+0x1e0>
   134d0:	01 00 00 00 	nop 
   134d4:	c2 07 bf f4 	ld  [ %fp + -12 ], %g1
   134d8:	c2 08 40 00 	ldub  [ %g1 ], %g1
   134dc:	83 28 60 18 	sll  %g1, 0x18, %g1
   134e0:	83 38 60 18 	sra  %g1, 0x18, %g1
   134e4:	80 a0 60 00 	cmp  %g1, 0
   134e8:	12 80 00 0c 	bne  13518 <do_mknod+0x2a4>
   134ec:	01 00 00 00 	nop 
   134f0:	c2 07 bf e8 	ld  [ %fp + -24 ], %g1
   134f4:	80 a0 60 00 	cmp  %g1, 0
   134f8:	06 80 00 08 	bl  13518 <do_mknod+0x2a4>
   134fc:	01 00 00 00 	nop 
   13500:	c2 07 bf e8 	ld  [ %fp + -24 ], %g1
   13504:	80 a0 60 ff 	cmp  %g1, 0xff
   13508:	14 80 00 04 	bg  13518 <do_mknod+0x2a4>
   1350c:	01 00 00 00 	nop 
   13510:	10 80 00 0b 	b  1353c <do_mknod+0x2c8>
   13514:	01 00 00 00 	nop 
   13518:	03 00 00 b3 	sethi  %hi(0x2cc00), %g1
   1351c:	82 10 62 40 	or  %g1, 0x240, %g1	! 2ce40 <stderr@@GLIBC_2.0>
   13520:	d0 00 40 00 	ld  [ %g1 ], %o0
   13524:	03 00 00 6a 	sethi  %hi(0x1a800), %g1
   13528:	92 10 60 90 	or  %g1, 0x90, %o1	! 1a890 <_IO_stdin_used+0x2e0>
   1352c:	40 00 63 b3 	call  2c3f8 <fprintf@plt>
   13530:	01 00 00 00 	nop 
   13534:	10 80 00 1c 	b  135a4 <do_mknod+0x330>
   13538:	01 00 00 00 	nop 
   1353c:	84 10 20 04 	mov  4, %g2	! 4 <_init-0x11504>
   13540:	c2 07 a0 48 	ld  [ %fp + 0x48 ], %g1
   13544:	9a 00 80 01 	add  %g2, %g1, %o5
   13548:	c2 07 bf ec 	ld  [ %fp + -20 ], %g1
   1354c:	85 28 60 08 	sll  %g1, 8, %g2
   13550:	c2 07 bf e8 	ld  [ %fp + -24 ], %g1
   13554:	82 00 80 01 	add  %g2, %g1, %g1
   13558:	89 38 60 1f 	sra  %g1, 0x1f, %g4
   1355c:	86 10 00 01 	mov  %g1, %g3
   13560:	84 10 00 04 	mov  %g4, %g2
   13564:	d0 03 40 00 	ld  [ %o5 ], %o0
   13568:	d2 07 bf f0 	ld  [ %fp + -16 ], %o1
   1356c:	94 10 00 02 	mov  %g2, %o2
   13570:	96 10 00 03 	mov  %g3, %o3
   13574:	40 00 1b ee 	call  1a52c <__mknod>
   13578:	01 00 00 00 	nop 
   1357c:	82 10 00 08 	mov  %o0, %g1
   13580:	80 a0 60 00 	cmp  %g1, 0
   13584:	16 80 00 08 	bge  135a4 <do_mknod+0x330>
   13588:	01 00 00 00 	nop 
   1358c:	82 10 20 04 	mov  4, %g1	! 4 <_init-0x11504>
   13590:	c4 07 a0 48 	ld  [ %fp + 0x48 ], %g2
   13594:	82 00 40 02 	add  %g1, %g2, %g1
   13598:	d0 00 40 00 	ld  [ %g1 ], %o0
   1359c:	40 00 63 22 	call  2c224 <perror@plt>
   135a0:	01 00 00 00 	nop 
   135a4:	01 00 00 00 	nop 
   135a8:	81 c7 e0 08 	ret 
   135ac:	81 e8 00 00 	restore 

000135b0 <do_rmdir>:
do_rmdir():
   135b0:	9d e3 bf 98 	save  %sp, -104, %sp
   135b4:	f0 27 a0 44 	st  %i0, [ %fp + 0x44 ]
   135b8:	f2 27 a0 48 	st  %i1, [ %fp + 0x48 ]
   135bc:	c2 07 a0 44 	ld  [ %fp + 0x44 ], %g1
   135c0:	84 10 00 01 	mov  %g1, %g2
   135c4:	82 00 7f ff 	add  %g1, -1, %g1
   135c8:	c2 27 a0 44 	st  %g1, [ %fp + 0x44 ]
   135cc:	80 a0 a0 01 	cmp  %g2, 1
   135d0:	04 80 00 17 	ble  1362c <do_rmdir+0x7c>
   135d4:	01 00 00 00 	nop 
   135d8:	84 10 20 04 	mov  4, %g2	! 4 <_init-0x11504>
   135dc:	c2 07 a0 48 	ld  [ %fp + 0x48 ], %g1
   135e0:	82 00 80 01 	add  %g2, %g1, %g1
   135e4:	d0 00 40 00 	ld  [ %g1 ], %o0
   135e8:	40 00 63 a5 	call  2c47c <rmdir@plt>
   135ec:	01 00 00 00 	nop 
   135f0:	82 10 00 08 	mov  %o0, %g1
   135f4:	80 a0 60 00 	cmp  %g1, 0
   135f8:	16 80 00 08 	bge  13618 <do_rmdir+0x68>
   135fc:	01 00 00 00 	nop 
   13600:	82 10 20 04 	mov  4, %g1	! 4 <_init-0x11504>
   13604:	c4 07 a0 48 	ld  [ %fp + 0x48 ], %g2
   13608:	82 00 40 02 	add  %g1, %g2, %g1
   1360c:	d0 00 40 00 	ld  [ %g1 ], %o0
   13610:	40 00 63 05 	call  2c224 <perror@plt>
   13614:	01 00 00 00 	nop 
   13618:	c2 07 a0 48 	ld  [ %fp + 0x48 ], %g1
   1361c:	82 00 60 04 	add  %g1, 4, %g1
   13620:	c2 27 a0 48 	st  %g1, [ %fp + 0x48 ]
   13624:	10 bf ff e6 	b  135bc <do_rmdir+0xc>
   13628:	01 00 00 00 	nop 
   1362c:	81 c7 e0 08 	ret 
   13630:	81 e8 00 00 	restore 

00013634 <do_sync>:
do_sync():
   13634:	9d e3 bf 98 	save  %sp, -104, %sp
   13638:	f0 27 a0 44 	st  %i0, [ %fp + 0x44 ]
   1363c:	f2 27 a0 48 	st  %i1, [ %fp + 0x48 ]
   13640:	40 00 63 e0 	call  2c5c0 <sync@plt>
   13644:	01 00 00 00 	nop 
   13648:	01 00 00 00 	nop 
   1364c:	81 c7 e0 08 	ret 
   13650:	81 e8 00 00 	restore 

00013654 <do_rm>:
do_rm():
   13654:	9d e3 bf 98 	save  %sp, -104, %sp
   13658:	f0 27 a0 44 	st  %i0, [ %fp + 0x44 ]
   1365c:	f2 27 a0 48 	st  %i1, [ %fp + 0x48 ]
   13660:	c2 07 a0 44 	ld  [ %fp + 0x44 ], %g1
   13664:	84 10 00 01 	mov  %g1, %g2
   13668:	82 00 7f ff 	add  %g1, -1, %g1
   1366c:	c2 27 a0 44 	st  %g1, [ %fp + 0x44 ]
   13670:	80 a0 a0 01 	cmp  %g2, 1
   13674:	04 80 00 17 	ble  136d0 <do_rm+0x7c>
   13678:	01 00 00 00 	nop 
   1367c:	84 10 20 04 	mov  4, %g2	! 4 <_init-0x11504>
   13680:	c2 07 a0 48 	ld  [ %fp + 0x48 ], %g1
   13684:	82 00 80 01 	add  %g2, %g1, %g1
   13688:	d0 00 40 00 	ld  [ %g1 ], %o0
   1368c:	40 00 62 f5 	call  2c260 <unlink@plt>
   13690:	01 00 00 00 	nop 
   13694:	82 10 00 08 	mov  %o0, %g1
   13698:	80 a0 60 00 	cmp  %g1, 0
   1369c:	16 80 00 08 	bge  136bc <do_rm+0x68>
   136a0:	01 00 00 00 	nop 
   136a4:	82 10 20 04 	mov  4, %g1	! 4 <_init-0x11504>
   136a8:	c4 07 a0 48 	ld  [ %fp + 0x48 ], %g2
   136ac:	82 00 40 02 	add  %g1, %g2, %g1
   136b0:	d0 00 40 00 	ld  [ %g1 ], %o0
   136b4:	40 00 62 dc 	call  2c224 <perror@plt>
   136b8:	01 00 00 00 	nop 
   136bc:	c2 07 a0 48 	ld  [ %fp + 0x48 ], %g1
   136c0:	82 00 60 04 	add  %g1, 4, %g1
   136c4:	c2 27 a0 48 	st  %g1, [ %fp + 0x48 ]
   136c8:	10 bf ff e6 	b  13660 <do_rm+0xc>
   136cc:	01 00 00 00 	nop 
   136d0:	81 c7 e0 08 	ret 
   136d4:	81 e8 00 00 	restore 

000136d8 <do_chmod>:
do_chmod():
   136d8:	9d e3 bf 90 	save  %sp, -112, %sp
   136dc:	f0 27 a0 44 	st  %i0, [ %fp + 0x44 ]
   136e0:	f2 27 a0 48 	st  %i1, [ %fp + 0x48 ]
   136e4:	c0 27 bf f0 	clr  [ %fp + -16 ]
   136e8:	84 10 20 04 	mov  4, %g2
   136ec:	c2 07 a0 48 	ld  [ %fp + 0x48 ], %g1
   136f0:	82 00 80 01 	add  %g2, %g1, %g1
   136f4:	c2 00 40 00 	ld  [ %g1 ], %g1
   136f8:	c2 27 bf f4 	st  %g1, [ %fp + -12 ]
   136fc:	c2 07 bf f4 	ld  [ %fp + -12 ], %g1
   13700:	c2 08 40 00 	ldub  [ %g1 ], %g1
   13704:	83 28 60 18 	sll  %g1, 0x18, %g1
   13708:	83 38 60 18 	sra  %g1, 0x18, %g1
   1370c:	80 a0 60 2f 	cmp  %g1, 0x2f
   13710:	04 80 00 18 	ble  13770 <do_chmod+0x98>
   13714:	01 00 00 00 	nop 
   13718:	c2 07 bf f4 	ld  [ %fp + -12 ], %g1
   1371c:	c2 08 40 00 	ldub  [ %g1 ], %g1
   13720:	83 28 60 18 	sll  %g1, 0x18, %g1
   13724:	83 38 60 18 	sra  %g1, 0x18, %g1
   13728:	80 a0 60 37 	cmp  %g1, 0x37
   1372c:	14 80 00 11 	bg  13770 <do_chmod+0x98>
   13730:	01 00 00 00 	nop 
   13734:	c2 07 bf f0 	ld  [ %fp + -16 ], %g1
   13738:	87 28 60 03 	sll  %g1, 3, %g3
   1373c:	88 07 bf f4 	add  %fp, -12, %g4
   13740:	c4 01 00 00 	ld  [ %g4 ], %g2
   13744:	82 10 00 02 	mov  %g2, %g1
   13748:	c2 08 40 00 	ldub  [ %g1 ], %g1
   1374c:	83 28 60 18 	sll  %g1, 0x18, %g1
   13750:	83 38 60 18 	sra  %g1, 0x18, %g1
   13754:	82 00 c0 01 	add  %g3, %g1, %g1
   13758:	82 00 7f d0 	add  %g1, -48, %g1
   1375c:	84 00 a0 01 	inc  %g2
   13760:	c4 21 00 00 	st  %g2, [ %g4 ]
   13764:	c2 27 bf f0 	st  %g1, [ %fp + -16 ]
   13768:	10 bf ff e5 	b  136fc <do_chmod+0x24>
   1376c:	01 00 00 00 	nop 
   13770:	c2 07 bf f4 	ld  [ %fp + -12 ], %g1
   13774:	c2 08 40 00 	ldub  [ %g1 ], %g1
   13778:	83 28 60 18 	sll  %g1, 0x18, %g1
   1377c:	83 38 60 18 	sra  %g1, 0x18, %g1
   13780:	80 a0 60 00 	cmp  %g1, 0
   13784:	02 80 00 0b 	be  137b0 <do_chmod+0xd8>
   13788:	01 00 00 00 	nop 
   1378c:	03 00 00 b3 	sethi  %hi(0x2cc00), %g1
   13790:	82 10 62 40 	or  %g1, 0x240, %g1	! 2ce40 <stderr@@GLIBC_2.0>
   13794:	d0 00 40 00 	ld  [ %g1 ], %o0
   13798:	03 00 00 6a 	sethi  %hi(0x1a800), %g1
   1379c:	92 10 60 a8 	or  %g1, 0xa8, %o1	! 1a8a8 <_IO_stdin_used+0x2f8>
   137a0:	40 00 63 16 	call  2c3f8 <fprintf@plt>
   137a4:	01 00 00 00 	nop 
   137a8:	10 80 00 25 	b  1383c <do_chmod+0x164>
   137ac:	01 00 00 00 	nop 
   137b0:	c2 07 a0 44 	ld  [ %fp + 0x44 ], %g1
   137b4:	82 00 7f ff 	add  %g1, -1, %g1
   137b8:	c2 27 a0 44 	st  %g1, [ %fp + 0x44 ]
   137bc:	c2 07 a0 48 	ld  [ %fp + 0x48 ], %g1
   137c0:	82 00 60 04 	add  %g1, 4, %g1
   137c4:	c2 27 a0 48 	st  %g1, [ %fp + 0x48 ]
   137c8:	c2 07 a0 44 	ld  [ %fp + 0x44 ], %g1
   137cc:	84 10 00 01 	mov  %g1, %g2
   137d0:	82 00 7f ff 	add  %g1, -1, %g1
   137d4:	c2 27 a0 44 	st  %g1, [ %fp + 0x44 ]
   137d8:	80 a0 a0 01 	cmp  %g2, 1
   137dc:	04 80 00 18 	ble  1383c <do_chmod+0x164>
   137e0:	01 00 00 00 	nop 
   137e4:	84 10 20 04 	mov  4, %g2	! 4 <_init-0x11504>
   137e8:	c2 07 a0 48 	ld  [ %fp + 0x48 ], %g1
   137ec:	82 00 80 01 	add  %g2, %g1, %g1
   137f0:	d0 00 40 00 	ld  [ %g1 ], %o0
   137f4:	d2 07 bf f0 	ld  [ %fp + -16 ], %o1
   137f8:	40 00 62 b5 	call  2c2cc <chmod@plt>
   137fc:	01 00 00 00 	nop 
   13800:	82 10 00 08 	mov  %o0, %g1
   13804:	80 a0 60 00 	cmp  %g1, 0
   13808:	16 80 00 08 	bge  13828 <do_chmod+0x150>
   1380c:	01 00 00 00 	nop 
   13810:	82 10 20 04 	mov  4, %g1	! 4 <_init-0x11504>
   13814:	c4 07 a0 48 	ld  [ %fp + 0x48 ], %g2
   13818:	82 00 40 02 	add  %g1, %g2, %g1
   1381c:	d0 00 40 00 	ld  [ %g1 ], %o0
   13820:	40 00 62 81 	call  2c224 <perror@plt>
   13824:	01 00 00 00 	nop 
   13828:	c2 07 a0 48 	ld  [ %fp + 0x48 ], %g1
   1382c:	82 00 60 04 	add  %g1, 4, %g1
   13830:	c2 27 a0 48 	st  %g1, [ %fp + 0x48 ]
   13834:	10 bf ff e5 	b  137c8 <do_chmod+0xf0>
   13838:	01 00 00 00 	nop 
   1383c:	81 c7 e0 08 	ret 
   13840:	81 e8 00 00 	restore 

00013844 <do_chown>:
do_chown():
   13844:	9d e3 bf 30 	save  %sp, -208, %sp
   13848:	f0 27 a0 44 	st  %i0, [ %fp + 0x44 ]
   1384c:	f2 27 a0 48 	st  %i1, [ %fp + 0x48 ]
   13850:	84 10 20 04 	mov  4, %g2
   13854:	c2 07 a0 48 	ld  [ %fp + 0x48 ], %g1
   13858:	82 00 80 01 	add  %g2, %g1, %g1
   1385c:	c2 00 40 00 	ld  [ %g1 ], %g1
   13860:	c2 27 bf f4 	st  %g1, [ %fp + -12 ]
   13864:	c2 07 bf f4 	ld  [ %fp + -12 ], %g1
   13868:	c2 08 40 00 	ldub  [ %g1 ], %g1
   1386c:	83 28 60 18 	sll  %g1, 0x18, %g1
   13870:	83 38 60 18 	sra  %g1, 0x18, %g1
   13874:	80 a0 60 2f 	cmp  %g1, 0x2f
   13878:	04 80 00 3a 	ble  13960 <do_chown+0x11c>
   1387c:	01 00 00 00 	nop 
   13880:	c2 07 bf f4 	ld  [ %fp + -12 ], %g1
   13884:	c2 08 40 00 	ldub  [ %g1 ], %g1
   13888:	83 28 60 18 	sll  %g1, 0x18, %g1
   1388c:	83 38 60 18 	sra  %g1, 0x18, %g1
   13890:	80 a0 60 39 	cmp  %g1, 0x39
   13894:	14 80 00 33 	bg  13960 <do_chown+0x11c>
   13898:	01 00 00 00 	nop 
   1389c:	c0 27 bf f0 	clr  [ %fp + -16 ]
   138a0:	c2 07 bf f4 	ld  [ %fp + -12 ], %g1
   138a4:	c2 08 40 00 	ldub  [ %g1 ], %g1
   138a8:	83 28 60 18 	sll  %g1, 0x18, %g1
   138ac:	83 38 60 18 	sra  %g1, 0x18, %g1
   138b0:	80 a0 60 2f 	cmp  %g1, 0x2f
   138b4:	04 80 00 1b 	ble  13920 <do_chown+0xdc>
   138b8:	01 00 00 00 	nop 
   138bc:	c2 07 bf f4 	ld  [ %fp + -12 ], %g1
   138c0:	c2 08 40 00 	ldub  [ %g1 ], %g1
   138c4:	83 28 60 18 	sll  %g1, 0x18, %g1
   138c8:	83 38 60 18 	sra  %g1, 0x18, %g1
   138cc:	80 a0 60 39 	cmp  %g1, 0x39
   138d0:	14 80 00 14 	bg  13920 <do_chown+0xdc>
   138d4:	01 00 00 00 	nop 
   138d8:	c4 07 bf f0 	ld  [ %fp + -16 ], %g2
   138dc:	82 10 00 02 	mov  %g2, %g1
   138e0:	83 28 60 02 	sll  %g1, 2, %g1
   138e4:	82 00 40 02 	add  %g1, %g2, %g1
   138e8:	86 00 40 01 	add  %g1, %g1, %g3
   138ec:	88 07 bf f4 	add  %fp, -12, %g4
   138f0:	c4 01 00 00 	ld  [ %g4 ], %g2
   138f4:	82 10 00 02 	mov  %g2, %g1
   138f8:	c2 08 40 00 	ldub  [ %g1 ], %g1
   138fc:	83 28 60 18 	sll  %g1, 0x18, %g1
   13900:	83 38 60 18 	sra  %g1, 0x18, %g1
   13904:	82 00 c0 01 	add  %g3, %g1, %g1
   13908:	82 00 7f d0 	add  %g1, -48, %g1
   1390c:	84 00 a0 01 	inc  %g2
   13910:	c4 21 00 00 	st  %g2, [ %g4 ]
   13914:	c2 27 bf f0 	st  %g1, [ %fp + -16 ]
   13918:	10 bf ff e2 	b  138a0 <do_chown+0x5c>
   1391c:	01 00 00 00 	nop 
   13920:	c2 07 bf f4 	ld  [ %fp + -12 ], %g1
   13924:	c2 08 40 00 	ldub  [ %g1 ], %g1
   13928:	83 28 60 18 	sll  %g1, 0x18, %g1
   1392c:	83 38 60 18 	sra  %g1, 0x18, %g1
   13930:	80 a0 60 00 	cmp  %g1, 0
   13934:	02 80 00 20 	be  139b4 <do_chown+0x170>
   13938:	01 00 00 00 	nop 
   1393c:	03 00 00 b3 	sethi  %hi(0x2cc00), %g1
   13940:	82 10 62 40 	or  %g1, 0x240, %g1	! 2ce40 <stderr@@GLIBC_2.0>
   13944:	d0 00 40 00 	ld  [ %g1 ], %o0
   13948:	03 00 00 6a 	sethi  %hi(0x1a800), %g1
   1394c:	92 10 60 c0 	or  %g1, 0xc0, %o1	! 1a8c0 <_IO_stdin_used+0x310>
   13950:	40 00 62 aa 	call  2c3f8 <fprintf@plt>
   13954:	01 00 00 00 	nop 
   13958:	10 80 00 43 	b  13a64 <do_chown+0x220>
   1395c:	01 00 00 00 	nop 
   13960:	d0 07 bf f4 	ld  [ %fp + -12 ], %o0
   13964:	40 00 62 db 	call  2c4d0 <getpwnam@plt>
   13968:	01 00 00 00 	nop 
   1396c:	82 10 00 08 	mov  %o0, %g1
   13970:	c2 27 bf ec 	st  %g1, [ %fp + -20 ]
   13974:	c2 07 bf ec 	ld  [ %fp + -20 ], %g1
   13978:	80 a0 60 00 	cmp  %g1, 0
   1397c:	12 80 00 0b 	bne  139a8 <do_chown+0x164>
   13980:	01 00 00 00 	nop 
   13984:	03 00 00 b3 	sethi  %hi(0x2cc00), %g1
   13988:	82 10 62 40 	or  %g1, 0x240, %g1	! 2ce40 <stderr@@GLIBC_2.0>
   1398c:	d0 00 40 00 	ld  [ %g1 ], %o0
   13990:	03 00 00 6a 	sethi  %hi(0x1a800), %g1
   13994:	92 10 60 d0 	or  %g1, 0xd0, %o1	! 1a8d0 <_IO_stdin_used+0x320>
   13998:	40 00 62 98 	call  2c3f8 <fprintf@plt>
   1399c:	01 00 00 00 	nop 
   139a0:	10 80 00 31 	b  13a64 <do_chown+0x220>
   139a4:	01 00 00 00 	nop 
   139a8:	c2 07 bf ec 	ld  [ %fp + -20 ], %g1
   139ac:	c2 00 60 08 	ld  [ %g1 + 8 ], %g1
   139b0:	c2 27 bf f0 	st  %g1, [ %fp + -16 ]
   139b4:	c2 07 a0 44 	ld  [ %fp + 0x44 ], %g1
   139b8:	82 00 7f ff 	add  %g1, -1, %g1
   139bc:	c2 27 a0 44 	st  %g1, [ %fp + 0x44 ]
   139c0:	c2 07 a0 48 	ld  [ %fp + 0x48 ], %g1
   139c4:	82 00 60 04 	add  %g1, 4, %g1
   139c8:	c2 27 a0 48 	st  %g1, [ %fp + 0x48 ]
   139cc:	c2 07 a0 44 	ld  [ %fp + 0x44 ], %g1
   139d0:	84 10 00 01 	mov  %g1, %g2
   139d4:	82 00 7f ff 	add  %g1, -1, %g1
   139d8:	c2 27 a0 44 	st  %g1, [ %fp + 0x44 ]
   139dc:	80 a0 a0 01 	cmp  %g2, 1
   139e0:	04 80 00 21 	ble  13a64 <do_chown+0x220>
   139e4:	01 00 00 00 	nop 
   139e8:	c2 07 a0 48 	ld  [ %fp + 0x48 ], %g1
   139ec:	82 00 60 04 	add  %g1, 4, %g1
   139f0:	c2 27 a0 48 	st  %g1, [ %fp + 0x48 ]
   139f4:	c2 07 a0 48 	ld  [ %fp + 0x48 ], %g1
   139f8:	84 07 bf 90 	add  %fp, -112, %g2
   139fc:	d0 00 40 00 	ld  [ %g1 ], %o0
   13a00:	92 10 00 02 	mov  %g2, %o1
   13a04:	40 00 1a bc 	call  1a4f4 <__stat>
   13a08:	01 00 00 00 	nop 
   13a0c:	82 10 00 08 	mov  %o0, %g1
   13a10:	80 a0 60 00 	cmp  %g1, 0
   13a14:	06 80 00 0e 	bl  13a4c <do_chown+0x208>
   13a18:	01 00 00 00 	nop 
   13a1c:	c2 07 a0 48 	ld  [ %fp + 0x48 ], %g1
   13a20:	d0 00 40 00 	ld  [ %g1 ], %o0
   13a24:	d2 07 bf f0 	ld  [ %fp + -16 ], %o1
   13a28:	d4 07 bf ac 	ld  [ %fp + -84 ], %o2
   13a2c:	40 00 62 85 	call  2c440 <chown@plt>
   13a30:	01 00 00 00 	nop 
   13a34:	82 10 00 08 	mov  %o0, %g1
   13a38:	80 a0 60 00 	cmp  %g1, 0
   13a3c:	06 80 00 04 	bl  13a4c <do_chown+0x208>
   13a40:	01 00 00 00 	nop 
   13a44:	10 bf ff e2 	b  139cc <do_chown+0x188>
   13a48:	01 00 00 00 	nop 
   13a4c:	c2 07 a0 48 	ld  [ %fp + 0x48 ], %g1
   13a50:	d0 00 40 00 	ld  [ %g1 ], %o0
   13a54:	40 00 61 f4 	call  2c224 <perror@plt>
   13a58:	01 00 00 00 	nop 
   13a5c:	10 bf ff dc 	b  139cc <do_chown+0x188>
   13a60:	01 00 00 00 	nop 
   13a64:	81 c7 e0 08 	ret 
   13a68:	81 e8 00 00 	restore 

00013a6c <do_chgrp>:
do_chgrp():
   13a6c:	9d e3 bf 30 	save  %sp, -208, %sp
   13a70:	f0 27 a0 44 	st  %i0, [ %fp + 0x44 ]
   13a74:	f2 27 a0 48 	st  %i1, [ %fp + 0x48 ]
   13a78:	84 10 20 04 	mov  4, %g2
   13a7c:	c2 07 a0 48 	ld  [ %fp + 0x48 ], %g1
   13a80:	82 00 80 01 	add  %g2, %g1, %g1
   13a84:	c2 00 40 00 	ld  [ %g1 ], %g1
   13a88:	c2 27 bf f4 	st  %g1, [ %fp + -12 ]
   13a8c:	c2 07 bf f4 	ld  [ %fp + -12 ], %g1
   13a90:	c2 08 40 00 	ldub  [ %g1 ], %g1
   13a94:	83 28 60 18 	sll  %g1, 0x18, %g1
   13a98:	83 38 60 18 	sra  %g1, 0x18, %g1
   13a9c:	80 a0 60 2f 	cmp  %g1, 0x2f
   13aa0:	04 80 00 3a 	ble  13b88 <do_chgrp+0x11c>
   13aa4:	01 00 00 00 	nop 
   13aa8:	c2 07 bf f4 	ld  [ %fp + -12 ], %g1
   13aac:	c2 08 40 00 	ldub  [ %g1 ], %g1
   13ab0:	83 28 60 18 	sll  %g1, 0x18, %g1
   13ab4:	83 38 60 18 	sra  %g1, 0x18, %g1
   13ab8:	80 a0 60 39 	cmp  %g1, 0x39
   13abc:	14 80 00 33 	bg  13b88 <do_chgrp+0x11c>
   13ac0:	01 00 00 00 	nop 
   13ac4:	c0 27 bf f0 	clr  [ %fp + -16 ]
   13ac8:	c2 07 bf f4 	ld  [ %fp + -12 ], %g1
   13acc:	c2 08 40 00 	ldub  [ %g1 ], %g1
   13ad0:	83 28 60 18 	sll  %g1, 0x18, %g1
   13ad4:	83 38 60 18 	sra  %g1, 0x18, %g1
   13ad8:	80 a0 60 2f 	cmp  %g1, 0x2f
   13adc:	04 80 00 1b 	ble  13b48 <do_chgrp+0xdc>
   13ae0:	01 00 00 00 	nop 
   13ae4:	c2 07 bf f4 	ld  [ %fp + -12 ], %g1
   13ae8:	c2 08 40 00 	ldub  [ %g1 ], %g1
   13aec:	83 28 60 18 	sll  %g1, 0x18, %g1
   13af0:	83 38 60 18 	sra  %g1, 0x18, %g1
   13af4:	80 a0 60 39 	cmp  %g1, 0x39
   13af8:	14 80 00 14 	bg  13b48 <do_chgrp+0xdc>
   13afc:	01 00 00 00 	nop 
   13b00:	c4 07 bf f0 	ld  [ %fp + -16 ], %g2
   13b04:	82 10 00 02 	mov  %g2, %g1
   13b08:	83 28 60 02 	sll  %g1, 2, %g1
   13b0c:	82 00 40 02 	add  %g1, %g2, %g1
   13b10:	86 00 40 01 	add  %g1, %g1, %g3
   13b14:	88 07 bf f4 	add  %fp, -12, %g4
   13b18:	c4 01 00 00 	ld  [ %g4 ], %g2
   13b1c:	82 10 00 02 	mov  %g2, %g1
   13b20:	c2 08 40 00 	ldub  [ %g1 ], %g1
   13b24:	83 28 60 18 	sll  %g1, 0x18, %g1
   13b28:	83 38 60 18 	sra  %g1, 0x18, %g1
   13b2c:	82 00 c0 01 	add  %g3, %g1, %g1
   13b30:	82 00 7f d0 	add  %g1, -48, %g1
   13b34:	84 00 a0 01 	inc  %g2
   13b38:	c4 21 00 00 	st  %g2, [ %g4 ]
   13b3c:	c2 27 bf f0 	st  %g1, [ %fp + -16 ]
   13b40:	10 bf ff e2 	b  13ac8 <do_chgrp+0x5c>
   13b44:	01 00 00 00 	nop 
   13b48:	c2 07 bf f4 	ld  [ %fp + -12 ], %g1
   13b4c:	c2 08 40 00 	ldub  [ %g1 ], %g1
   13b50:	83 28 60 18 	sll  %g1, 0x18, %g1
   13b54:	83 38 60 18 	sra  %g1, 0x18, %g1
   13b58:	80 a0 60 00 	cmp  %g1, 0
   13b5c:	02 80 00 20 	be  13bdc <do_chgrp+0x170>
   13b60:	01 00 00 00 	nop 
   13b64:	03 00 00 b3 	sethi  %hi(0x2cc00), %g1
   13b68:	82 10 62 40 	or  %g1, 0x240, %g1	! 2ce40 <stderr@@GLIBC_2.0>
   13b6c:	d0 00 40 00 	ld  [ %g1 ], %o0
   13b70:	03 00 00 6a 	sethi  %hi(0x1a800), %g1
   13b74:	92 10 60 e8 	or  %g1, 0xe8, %o1	! 1a8e8 <_IO_stdin_used+0x338>
   13b78:	40 00 62 20 	call  2c3f8 <fprintf@plt>
   13b7c:	01 00 00 00 	nop 
   13b80:	10 80 00 43 	b  13c8c <do_chgrp+0x220>
   13b84:	01 00 00 00 	nop 
   13b88:	d0 07 bf f4 	ld  [ %fp + -12 ], %o0
   13b8c:	40 00 61 73 	call  2c158 <getgrnam@plt>
   13b90:	01 00 00 00 	nop 
   13b94:	82 10 00 08 	mov  %o0, %g1
   13b98:	c2 27 bf ec 	st  %g1, [ %fp + -20 ]
   13b9c:	c2 07 bf ec 	ld  [ %fp + -20 ], %g1
   13ba0:	80 a0 60 00 	cmp  %g1, 0
   13ba4:	12 80 00 0b 	bne  13bd0 <do_chgrp+0x164>
   13ba8:	01 00 00 00 	nop 
   13bac:	03 00 00 b3 	sethi  %hi(0x2cc00), %g1
   13bb0:	82 10 62 40 	or  %g1, 0x240, %g1	! 2ce40 <stderr@@GLIBC_2.0>
   13bb4:	d0 00 40 00 	ld  [ %g1 ], %o0
   13bb8:	03 00 00 6a 	sethi  %hi(0x1a800), %g1
   13bbc:	92 10 60 f8 	or  %g1, 0xf8, %o1	! 1a8f8 <_IO_stdin_used+0x348>
   13bc0:	40 00 62 0e 	call  2c3f8 <fprintf@plt>
   13bc4:	01 00 00 00 	nop 
   13bc8:	10 80 00 31 	b  13c8c <do_chgrp+0x220>
   13bcc:	01 00 00 00 	nop 
   13bd0:	c2 07 bf ec 	ld  [ %fp + -20 ], %g1
   13bd4:	c2 00 60 08 	ld  [ %g1 + 8 ], %g1
   13bd8:	c2 27 bf f0 	st  %g1, [ %fp + -16 ]
   13bdc:	c2 07 a0 44 	ld  [ %fp + 0x44 ], %g1
   13be0:	82 00 7f ff 	add  %g1, -1, %g1
   13be4:	c2 27 a0 44 	st  %g1, [ %fp + 0x44 ]
   13be8:	c2 07 a0 48 	ld  [ %fp + 0x48 ], %g1
   13bec:	82 00 60 04 	add  %g1, 4, %g1
   13bf0:	c2 27 a0 48 	st  %g1, [ %fp + 0x48 ]
   13bf4:	c2 07 a0 44 	ld  [ %fp + 0x44 ], %g1
   13bf8:	84 10 00 01 	mov  %g1, %g2
   13bfc:	82 00 7f ff 	add  %g1, -1, %g1
   13c00:	c2 27 a0 44 	st  %g1, [ %fp + 0x44 ]
   13c04:	80 a0 a0 01 	cmp  %g2, 1
   13c08:	04 80 00 21 	ble  13c8c <do_chgrp+0x220>
   13c0c:	01 00 00 00 	nop 
   13c10:	c2 07 a0 48 	ld  [ %fp + 0x48 ], %g1
   13c14:	82 00 60 04 	add  %g1, 4, %g1
   13c18:	c2 27 a0 48 	st  %g1, [ %fp + 0x48 ]
   13c1c:	c2 07 a0 48 	ld  [ %fp + 0x48 ], %g1
   13c20:	84 07 bf 90 	add  %fp, -112, %g2
   13c24:	d0 00 40 00 	ld  [ %g1 ], %o0
   13c28:	92 10 00 02 	mov  %g2, %o1
   13c2c:	40 00 1a 32 	call  1a4f4 <__stat>
   13c30:	01 00 00 00 	nop 
   13c34:	82 10 00 08 	mov  %o0, %g1
   13c38:	80 a0 60 00 	cmp  %g1, 0
   13c3c:	06 80 00 0e 	bl  13c74 <do_chgrp+0x208>
   13c40:	01 00 00 00 	nop 
   13c44:	c2 07 a0 48 	ld  [ %fp + 0x48 ], %g1
   13c48:	d0 00 40 00 	ld  [ %g1 ], %o0
   13c4c:	d2 07 bf a8 	ld  [ %fp + -88 ], %o1
   13c50:	d4 07 bf f0 	ld  [ %fp + -16 ], %o2
   13c54:	40 00 61 fb 	call  2c440 <chown@plt>
   13c58:	01 00 00 00 	nop 
   13c5c:	82 10 00 08 	mov  %o0, %g1
   13c60:	80 a0 60 00 	cmp  %g1, 0
   13c64:	06 80 00 04 	bl  13c74 <do_chgrp+0x208>
   13c68:	01 00 00 00 	nop 
   13c6c:	10 bf ff e2 	b  13bf4 <do_chgrp+0x188>
   13c70:	01 00 00 00 	nop 
   13c74:	c2 07 a0 48 	ld  [ %fp + 0x48 ], %g1
   13c78:	d0 00 40 00 	ld  [ %g1 ], %o0
   13c7c:	40 00 61 6a 	call  2c224 <perror@plt>
   13c80:	01 00 00 00 	nop 
   13c84:	10 bf ff dc 	b  13bf4 <do_chgrp+0x188>
   13c88:	01 00 00 00 	nop 
   13c8c:	81 c7 e0 08 	ret 
   13c90:	81 e8 00 00 	restore 

00013c94 <do_touch>:
do_touch():
   13c94:	9d e3 bf 88 	save  %sp, -120, %sp
   13c98:	f0 27 a0 44 	st  %i0, [ %fp + 0x44 ]
   13c9c:	f2 27 a0 48 	st  %i1, [ %fp + 0x48 ]
   13ca0:	82 07 bf e8 	add  %fp, -24, %g1
   13ca4:	90 10 00 01 	mov  %g1, %o0
   13ca8:	40 00 61 aa 	call  2c350 <time@plt>
   13cac:	01 00 00 00 	nop 
   13cb0:	c2 07 bf e8 	ld  [ %fp + -24 ], %g1
   13cb4:	c2 27 bf ec 	st  %g1, [ %fp + -20 ]
   13cb8:	c2 07 a0 44 	ld  [ %fp + 0x44 ], %g1
   13cbc:	84 10 00 01 	mov  %g1, %g2
   13cc0:	82 00 7f ff 	add  %g1, -1, %g1
   13cc4:	c2 27 a0 44 	st  %g1, [ %fp + 0x44 ]
   13cc8:	80 a0 a0 01 	cmp  %g2, 1
   13ccc:	04 80 00 25 	ble  13d60 <do_touch+0xcc>
   13cd0:	01 00 00 00 	nop 
   13cd4:	c2 07 a0 48 	ld  [ %fp + 0x48 ], %g1
   13cd8:	82 00 60 04 	add  %g1, 4, %g1
   13cdc:	c2 27 a0 48 	st  %g1, [ %fp + 0x48 ]
   13ce0:	c2 00 40 00 	ld  [ %g1 ], %g1
   13ce4:	c2 27 bf f4 	st  %g1, [ %fp + -12 ]
   13ce8:	82 07 bf e8 	add  %fp, -24, %g1
   13cec:	d0 07 bf f4 	ld  [ %fp + -12 ], %o0
   13cf0:	92 10 00 01 	mov  %g1, %o1
   13cf4:	40 00 62 06 	call  2c50c <utime@plt>
   13cf8:	01 00 00 00 	nop 
   13cfc:	82 10 00 08 	mov  %o0, %g1
   13d00:	80 a0 60 00 	cmp  %g1, 0
   13d04:	16 bf ff ed 	bge  13cb8 <do_touch+0x24>
   13d08:	01 00 00 00 	nop 
   13d0c:	d0 07 bf f4 	ld  [ %fp + -12 ], %o0
   13d10:	92 10 2a 01 	mov  0xa01, %o1
   13d14:	94 10 21 b6 	mov  0x1b6, %o2
   13d18:	40 00 61 eb 	call  2c4c4 <open@plt>
   13d1c:	01 00 00 00 	nop 
   13d20:	82 10 00 08 	mov  %o0, %g1
   13d24:	c2 27 bf f0 	st  %g1, [ %fp + -16 ]
   13d28:	c2 07 bf f0 	ld  [ %fp + -16 ], %g1
   13d2c:	80 a0 60 00 	cmp  %g1, 0
   13d30:	06 80 00 07 	bl  13d4c <do_touch+0xb8>
   13d34:	01 00 00 00 	nop 
   13d38:	d0 07 bf f0 	ld  [ %fp + -16 ], %o0
   13d3c:	40 00 61 31 	call  2c200 <close@plt>
   13d40:	01 00 00 00 	nop 
   13d44:	10 bf ff dd 	b  13cb8 <do_touch+0x24>
   13d48:	01 00 00 00 	nop 
   13d4c:	d0 07 bf f4 	ld  [ %fp + -12 ], %o0
   13d50:	40 00 61 35 	call  2c224 <perror@plt>
   13d54:	01 00 00 00 	nop 
   13d58:	10 bf ff d8 	b  13cb8 <do_touch+0x24>
   13d5c:	01 00 00 00 	nop 
   13d60:	81 c7 e0 08 	ret 
   13d64:	81 e8 00 00 	restore 

00013d68 <do_mv>:
do_mv():
   13d68:	9d e3 bf 88 	save  %sp, -120, %sp
   13d6c:	f0 27 a0 44 	st  %i0, [ %fp + 0x44 ]
   13d70:	f2 27 a0 48 	st  %i1, [ %fp + 0x48 ]
   13d74:	c2 07 a0 44 	ld  [ %fp + 0x44 ], %g1
   13d78:	85 28 60 02 	sll  %g1, 2, %g2
   13d7c:	c2 07 a0 48 	ld  [ %fp + 0x48 ], %g1
   13d80:	82 00 80 01 	add  %g2, %g1, %g1
   13d84:	c2 00 7f fc 	ld  [ %g1 + -4 ], %g1
   13d88:	c2 27 bf e8 	st  %g1, [ %fp + -24 ]
   13d8c:	d0 07 bf e8 	ld  [ %fp + -24 ], %o0
   13d90:	40 00 11 8c 	call  183c0 <isadir>
   13d94:	01 00 00 00 	nop 
   13d98:	82 10 00 08 	mov  %o0, %g1
   13d9c:	c2 27 bf f4 	st  %g1, [ %fp + -12 ]
   13da0:	c2 07 a0 44 	ld  [ %fp + 0x44 ], %g1
   13da4:	80 a0 60 03 	cmp  %g1, 3
   13da8:	04 80 00 10 	ble  13de8 <do_mv+0x80>
   13dac:	01 00 00 00 	nop 
   13db0:	c2 07 bf f4 	ld  [ %fp + -12 ], %g1
   13db4:	80 a0 60 00 	cmp  %g1, 0
   13db8:	12 80 00 0c 	bne  13de8 <do_mv+0x80>
   13dbc:	01 00 00 00 	nop 
   13dc0:	03 00 00 b3 	sethi  %hi(0x2cc00), %g1
   13dc4:	82 10 62 40 	or  %g1, 0x240, %g1	! 2ce40 <stderr@@GLIBC_2.0>
   13dc8:	d0 00 40 00 	ld  [ %g1 ], %o0
   13dcc:	03 00 00 6a 	sethi  %hi(0x1a800), %g1
   13dd0:	92 10 61 10 	or  %g1, 0x110, %o1	! 1a910 <_IO_stdin_used+0x360>
   13dd4:	d4 07 bf e8 	ld  [ %fp + -24 ], %o2
   13dd8:	40 00 61 88 	call  2c3f8 <fprintf@plt>
   13ddc:	01 00 00 00 	nop 
   13de0:	10 80 00 54 	b  13f30 <do_mv+0x1c8>
   13de4:	01 00 00 00 	nop 
   13de8:	c2 07 a0 44 	ld  [ %fp + 0x44 ], %g1
   13dec:	84 10 00 01 	mov  %g1, %g2
   13df0:	82 00 7f ff 	add  %g1, -1, %g1
   13df4:	c2 27 a0 44 	st  %g1, [ %fp + 0x44 ]
   13df8:	80 a0 a0 02 	cmp  %g2, 2
   13dfc:	04 80 00 4d 	ble  13f30 <do_mv+0x1c8>
   13e00:	01 00 00 00 	nop 
   13e04:	c2 07 a0 48 	ld  [ %fp + 0x48 ], %g1
   13e08:	82 00 60 04 	add  %g1, 4, %g1
   13e0c:	c2 27 a0 48 	st  %g1, [ %fp + 0x48 ]
   13e10:	c2 00 40 00 	ld  [ %g1 ], %g1
   13e14:	c2 27 bf f0 	st  %g1, [ %fp + -16 ]
   13e18:	d0 07 bf f0 	ld  [ %fp + -16 ], %o0
   13e1c:	92 10 20 00 	clr  %o1
   13e20:	40 00 61 2e 	call  2c2d8 <access@plt>
   13e24:	01 00 00 00 	nop 
   13e28:	82 10 00 08 	mov  %o0, %g1
   13e2c:	80 a0 60 00 	cmp  %g1, 0
   13e30:	16 80 00 07 	bge  13e4c <do_mv+0xe4>
   13e34:	01 00 00 00 	nop 
   13e38:	d0 07 bf f0 	ld  [ %fp + -16 ], %o0
   13e3c:	40 00 60 fa 	call  2c224 <perror@plt>
   13e40:	01 00 00 00 	nop 
   13e44:	10 bf ff e9 	b  13de8 <do_mv+0x80>
   13e48:	01 00 00 00 	nop 
   13e4c:	c2 07 bf e8 	ld  [ %fp + -24 ], %g1
   13e50:	c2 27 bf ec 	st  %g1, [ %fp + -20 ]
   13e54:	c2 07 bf f4 	ld  [ %fp + -12 ], %g1
   13e58:	80 a0 60 00 	cmp  %g1, 0
   13e5c:	02 80 00 08 	be  13e7c <do_mv+0x114>
   13e60:	01 00 00 00 	nop 
   13e64:	d0 07 bf ec 	ld  [ %fp + -20 ], %o0
   13e68:	d2 07 bf f0 	ld  [ %fp + -16 ], %o1
   13e6c:	40 00 12 70 	call  1882c <buildname>
   13e70:	01 00 00 00 	nop 
   13e74:	82 10 00 08 	mov  %o0, %g1
   13e78:	c2 27 bf ec 	st  %g1, [ %fp + -20 ]
   13e7c:	d0 07 bf f0 	ld  [ %fp + -16 ], %o0
   13e80:	d2 07 bf ec 	ld  [ %fp + -20 ], %o1
   13e84:	40 00 60 bb 	call  2c170 <rename@plt>
   13e88:	01 00 00 00 	nop 
   13e8c:	82 10 00 08 	mov  %o0, %g1
   13e90:	80 a0 60 00 	cmp  %g1, 0
   13e94:	06 80 00 04 	bl  13ea4 <do_mv+0x13c>
   13e98:	01 00 00 00 	nop 
   13e9c:	10 bf ff d3 	b  13de8 <do_mv+0x80>
   13ea0:	01 00 00 00 	nop 
   13ea4:	40 00 61 04 	call  2c2b4 <__errno_location@plt>
   13ea8:	01 00 00 00 	nop 
   13eac:	82 10 00 08 	mov  %o0, %g1
   13eb0:	c2 00 40 00 	ld  [ %g1 ], %g1
   13eb4:	80 a0 60 12 	cmp  %g1, 0x12
   13eb8:	02 80 00 07 	be  13ed4 <do_mv+0x16c>
   13ebc:	01 00 00 00 	nop 
   13ec0:	d0 07 bf ec 	ld  [ %fp + -20 ], %o0
   13ec4:	40 00 60 d8 	call  2c224 <perror@plt>
   13ec8:	01 00 00 00 	nop 
   13ecc:	10 bf ff c7 	b  13de8 <do_mv+0x80>
   13ed0:	01 00 00 00 	nop 
   13ed4:	d0 07 bf f0 	ld  [ %fp + -16 ], %o0
   13ed8:	d2 07 bf ec 	ld  [ %fp + -20 ], %o1
   13edc:	94 10 20 01 	mov  1, %o2
   13ee0:	40 00 11 55 	call  18434 <copyfile>
   13ee4:	01 00 00 00 	nop 
   13ee8:	82 10 00 08 	mov  %o0, %g1
   13eec:	80 a0 60 00 	cmp  %g1, 0
   13ef0:	12 80 00 04 	bne  13f00 <do_mv+0x198>
   13ef4:	01 00 00 00 	nop 
   13ef8:	10 bf ff bc 	b  13de8 <do_mv+0x80>
   13efc:	01 00 00 00 	nop 
   13f00:	d0 07 bf f0 	ld  [ %fp + -16 ], %o0
   13f04:	40 00 60 d7 	call  2c260 <unlink@plt>
   13f08:	01 00 00 00 	nop 
   13f0c:	82 10 00 08 	mov  %o0, %g1
   13f10:	80 a0 60 00 	cmp  %g1, 0
   13f14:	16 bf ff b5 	bge  13de8 <do_mv+0x80>
   13f18:	01 00 00 00 	nop 
   13f1c:	d0 07 bf f0 	ld  [ %fp + -16 ], %o0
   13f20:	40 00 60 c1 	call  2c224 <perror@plt>
   13f24:	01 00 00 00 	nop 
   13f28:	10 bf ff b0 	b  13de8 <do_mv+0x80>
   13f2c:	01 00 00 00 	nop 
   13f30:	81 c7 e0 08 	ret 
   13f34:	81 e8 00 00 	restore 

00013f38 <do_ln>:
do_ln():
   13f38:	9d e3 bf 88 	save  %sp, -120, %sp
   13f3c:	f0 27 a0 44 	st  %i0, [ %fp + 0x44 ]
   13f40:	f2 27 a0 48 	st  %i1, [ %fp + 0x48 ]
   13f44:	84 10 20 04 	mov  4, %g2
   13f48:	c2 07 a0 48 	ld  [ %fp + 0x48 ], %g1
   13f4c:	82 00 80 01 	add  %g2, %g1, %g1
   13f50:	c2 00 40 00 	ld  [ %g1 ], %g1
   13f54:	c2 08 40 00 	ldub  [ %g1 ], %g1
   13f58:	83 28 60 18 	sll  %g1, 0x18, %g1
   13f5c:	83 38 60 18 	sra  %g1, 0x18, %g1
   13f60:	80 a0 60 2d 	cmp  %g1, 0x2d
   13f64:	12 80 00 3a 	bne  1404c <do_ln+0x114>
   13f68:	01 00 00 00 	nop 
   13f6c:	84 10 20 04 	mov  4, %g2	! 4 <_init-0x11504>
   13f70:	c2 07 a0 48 	ld  [ %fp + 0x48 ], %g1
   13f74:	82 00 80 01 	add  %g2, %g1, %g1
   13f78:	05 00 00 6a 	sethi  %hi(0x1a800), %g2
   13f7c:	d0 00 40 00 	ld  [ %g1 ], %o0
   13f80:	92 10 a1 28 	or  %g2, 0x128, %o1
   13f84:	40 00 60 9c 	call  2c1f4 <strcmp@plt>
   13f88:	01 00 00 00 	nop 
   13f8c:	82 10 00 08 	mov  %o0, %g1
   13f90:	80 a0 60 00 	cmp  %g1, 0
   13f94:	02 80 00 0b 	be  13fc0 <do_ln+0x88>
   13f98:	01 00 00 00 	nop 
   13f9c:	03 00 00 b3 	sethi  %hi(0x2cc00), %g1
   13fa0:	82 10 62 40 	or  %g1, 0x240, %g1	! 2ce40 <stderr@@GLIBC_2.0>
   13fa4:	d0 00 40 00 	ld  [ %g1 ], %o0
   13fa8:	03 00 00 6a 	sethi  %hi(0x1a800), %g1
   13fac:	92 10 61 30 	or  %g1, 0x130, %o1	! 1a930 <_IO_stdin_used+0x380>
   13fb0:	40 00 61 12 	call  2c3f8 <fprintf@plt>
   13fb4:	01 00 00 00 	nop 
   13fb8:	10 80 00 74 	b  14188 <do_ln+0x250>
   13fbc:	01 00 00 00 	nop 
   13fc0:	c2 07 a0 44 	ld  [ %fp + 0x44 ], %g1
   13fc4:	80 a0 60 04 	cmp  %g1, 4
   13fc8:	02 80 00 0b 	be  13ff4 <do_ln+0xbc>
   13fcc:	01 00 00 00 	nop 
   13fd0:	03 00 00 b3 	sethi  %hi(0x2cc00), %g1
   13fd4:	82 10 62 40 	or  %g1, 0x240, %g1	! 2ce40 <stderr@@GLIBC_2.0>
   13fd8:	d0 00 40 00 	ld  [ %g1 ], %o0
   13fdc:	03 00 00 6a 	sethi  %hi(0x1a800), %g1
   13fe0:	92 10 61 40 	or  %g1, 0x140, %o1	! 1a940 <_IO_stdin_used+0x390>
   13fe4:	40 00 61 05 	call  2c3f8 <fprintf@plt>
   13fe8:	01 00 00 00 	nop 
   13fec:	10 80 00 67 	b  14188 <do_ln+0x250>
   13ff0:	01 00 00 00 	nop 
   13ff4:	84 10 20 08 	mov  8, %g2	! 8 <_init-0x11500>
   13ff8:	c2 07 a0 48 	ld  [ %fp + 0x48 ], %g1
   13ffc:	86 00 80 01 	add  %g2, %g1, %g3
   14000:	84 10 20 0c 	mov  0xc, %g2
   14004:	c2 07 a0 48 	ld  [ %fp + 0x48 ], %g1
   14008:	82 00 80 01 	add  %g2, %g1, %g1
   1400c:	d0 00 c0 00 	ld  [ %g3 ], %o0
   14010:	d2 00 40 00 	ld  [ %g1 ], %o1
   14014:	40 00 61 20 	call  2c494 <symlink@plt>
   14018:	01 00 00 00 	nop 
   1401c:	82 10 00 08 	mov  %o0, %g1
   14020:	80 a0 60 00 	cmp  %g1, 0
   14024:	16 80 00 59 	bge  14188 <do_ln+0x250>
   14028:	01 00 00 00 	nop 
   1402c:	82 10 20 0c 	mov  0xc, %g1	! c <_init-0x114fc>
   14030:	c4 07 a0 48 	ld  [ %fp + 0x48 ], %g2
   14034:	82 00 40 02 	add  %g1, %g2, %g1
   14038:	d0 00 40 00 	ld  [ %g1 ], %o0
   1403c:	40 00 60 7a 	call  2c224 <perror@plt>
   14040:	01 00 00 00 	nop 
   14044:	10 80 00 51 	b  14188 <do_ln+0x250>
   14048:	01 00 00 00 	nop 
   1404c:	c2 07 a0 44 	ld  [ %fp + 0x44 ], %g1
   14050:	85 28 60 02 	sll  %g1, 2, %g2
   14054:	c2 07 a0 48 	ld  [ %fp + 0x48 ], %g1
   14058:	82 00 80 01 	add  %g2, %g1, %g1
   1405c:	c2 00 7f fc 	ld  [ %g1 + -4 ], %g1
   14060:	c2 27 bf e8 	st  %g1, [ %fp + -24 ]
   14064:	d0 07 bf e8 	ld  [ %fp + -24 ], %o0
   14068:	40 00 10 d6 	call  183c0 <isadir>
   1406c:	01 00 00 00 	nop 
   14070:	82 10 00 08 	mov  %o0, %g1
   14074:	c2 27 bf f4 	st  %g1, [ %fp + -12 ]
   14078:	c2 07 a0 44 	ld  [ %fp + 0x44 ], %g1
   1407c:	80 a0 60 03 	cmp  %g1, 3
   14080:	04 80 00 10 	ble  140c0 <do_ln+0x188>
   14084:	01 00 00 00 	nop 
   14088:	c2 07 bf f4 	ld  [ %fp + -12 ], %g1
   1408c:	80 a0 60 00 	cmp  %g1, 0
   14090:	12 80 00 0c 	bne  140c0 <do_ln+0x188>
   14094:	01 00 00 00 	nop 
   14098:	03 00 00 b3 	sethi  %hi(0x2cc00), %g1
   1409c:	82 10 62 40 	or  %g1, 0x240, %g1	! 2ce40 <stderr@@GLIBC_2.0>
   140a0:	d0 00 40 00 	ld  [ %g1 ], %o0
   140a4:	03 00 00 6a 	sethi  %hi(0x1a800), %g1
   140a8:	92 10 61 10 	or  %g1, 0x110, %o1	! 1a910 <_IO_stdin_used+0x360>
   140ac:	d4 07 bf e8 	ld  [ %fp + -24 ], %o2
   140b0:	40 00 60 d2 	call  2c3f8 <fprintf@plt>
   140b4:	01 00 00 00 	nop 
   140b8:	10 80 00 34 	b  14188 <do_ln+0x250>
   140bc:	01 00 00 00 	nop 
   140c0:	c2 07 a0 44 	ld  [ %fp + 0x44 ], %g1
   140c4:	84 10 00 01 	mov  %g1, %g2
   140c8:	82 00 7f ff 	add  %g1, -1, %g1
   140cc:	c2 27 a0 44 	st  %g1, [ %fp + 0x44 ]
   140d0:	80 a0 a0 02 	cmp  %g2, 2
   140d4:	04 80 00 2d 	ble  14188 <do_ln+0x250>
   140d8:	01 00 00 00 	nop 
   140dc:	c2 07 a0 48 	ld  [ %fp + 0x48 ], %g1
   140e0:	82 00 60 04 	add  %g1, 4, %g1
   140e4:	c2 27 a0 48 	st  %g1, [ %fp + 0x48 ]
   140e8:	c2 00 40 00 	ld  [ %g1 ], %g1
   140ec:	c2 27 bf f0 	st  %g1, [ %fp + -16 ]
   140f0:	d0 07 bf f0 	ld  [ %fp + -16 ], %o0
   140f4:	92 10 20 00 	clr  %o1
   140f8:	40 00 60 78 	call  2c2d8 <access@plt>
   140fc:	01 00 00 00 	nop 
   14100:	82 10 00 08 	mov  %o0, %g1
   14104:	80 a0 60 00 	cmp  %g1, 0
   14108:	16 80 00 07 	bge  14124 <do_ln+0x1ec>
   1410c:	01 00 00 00 	nop 
   14110:	d0 07 bf f0 	ld  [ %fp + -16 ], %o0
   14114:	40 00 60 44 	call  2c224 <perror@plt>
   14118:	01 00 00 00 	nop 
   1411c:	10 bf ff e9 	b  140c0 <do_ln+0x188>
   14120:	01 00 00 00 	nop 
   14124:	c2 07 bf e8 	ld  [ %fp + -24 ], %g1
   14128:	c2 27 bf ec 	st  %g1, [ %fp + -20 ]
   1412c:	c2 07 bf f4 	ld  [ %fp + -12 ], %g1
   14130:	80 a0 60 00 	cmp  %g1, 0
   14134:	02 80 00 08 	be  14154 <do_ln+0x21c>
   14138:	01 00 00 00 	nop 
   1413c:	d0 07 bf ec 	ld  [ %fp + -20 ], %o0
   14140:	d2 07 bf f0 	ld  [ %fp + -16 ], %o1
   14144:	40 00 11 ba 	call  1882c <buildname>
   14148:	01 00 00 00 	nop 
   1414c:	82 10 00 08 	mov  %o0, %g1
   14150:	c2 27 bf ec 	st  %g1, [ %fp + -20 ]
   14154:	d0 07 bf f0 	ld  [ %fp + -16 ], %o0
   14158:	d2 07 bf ec 	ld  [ %fp + -20 ], %o1
   1415c:	40 00 60 6e 	call  2c314 <link@plt>
   14160:	01 00 00 00 	nop 
   14164:	82 10 00 08 	mov  %o0, %g1
   14168:	80 a0 60 00 	cmp  %g1, 0
   1416c:	16 bf ff d5 	bge  140c0 <do_ln+0x188>
   14170:	01 00 00 00 	nop 
   14174:	d0 07 bf ec 	ld  [ %fp + -20 ], %o0
   14178:	40 00 60 2b 	call  2c224 <perror@plt>
   1417c:	01 00 00 00 	nop 
   14180:	10 bf ff d0 	b  140c0 <do_ln+0x188>
   14184:	01 00 00 00 	nop 
   14188:	81 c7 e0 08 	ret 
   1418c:	81 e8 00 00 	restore 

00014190 <do_cp>:
do_cp():
   14190:	9d e3 bf 88 	save  %sp, -120, %sp
   14194:	f0 27 a0 44 	st  %i0, [ %fp + 0x44 ]
   14198:	f2 27 a0 48 	st  %i1, [ %fp + 0x48 ]
   1419c:	c2 07 a0 44 	ld  [ %fp + 0x44 ], %g1
   141a0:	85 28 60 02 	sll  %g1, 2, %g2
   141a4:	c2 07 a0 48 	ld  [ %fp + 0x48 ], %g1
   141a8:	82 00 80 01 	add  %g2, %g1, %g1
   141ac:	c2 00 7f fc 	ld  [ %g1 + -4 ], %g1
   141b0:	c2 27 bf e8 	st  %g1, [ %fp + -24 ]
   141b4:	d0 07 bf e8 	ld  [ %fp + -24 ], %o0
   141b8:	40 00 10 82 	call  183c0 <isadir>
   141bc:	01 00 00 00 	nop 
   141c0:	82 10 00 08 	mov  %o0, %g1
   141c4:	c2 27 bf f4 	st  %g1, [ %fp + -12 ]
   141c8:	c2 07 a0 44 	ld  [ %fp + 0x44 ], %g1
   141cc:	80 a0 60 03 	cmp  %g1, 3
   141d0:	04 80 00 10 	ble  14210 <do_cp+0x80>
   141d4:	01 00 00 00 	nop 
   141d8:	c2 07 bf f4 	ld  [ %fp + -12 ], %g1
   141dc:	80 a0 60 00 	cmp  %g1, 0
   141e0:	12 80 00 0c 	bne  14210 <do_cp+0x80>
   141e4:	01 00 00 00 	nop 
   141e8:	03 00 00 b3 	sethi  %hi(0x2cc00), %g1
   141ec:	82 10 62 40 	or  %g1, 0x240, %g1	! 2ce40 <stderr@@GLIBC_2.0>
   141f0:	d0 00 40 00 	ld  [ %g1 ], %o0
   141f4:	03 00 00 6a 	sethi  %hi(0x1a800), %g1
   141f8:	92 10 61 10 	or  %g1, 0x110, %o1	! 1a910 <_IO_stdin_used+0x360>
   141fc:	d4 07 bf e8 	ld  [ %fp + -24 ], %o2
   14200:	40 00 60 7e 	call  2c3f8 <fprintf@plt>
   14204:	01 00 00 00 	nop 
   14208:	10 80 00 21 	b  1428c <do_cp+0xfc>
   1420c:	01 00 00 00 	nop 
   14210:	c2 07 a0 44 	ld  [ %fp + 0x44 ], %g1
   14214:	84 10 00 01 	mov  %g1, %g2
   14218:	82 00 7f ff 	add  %g1, -1, %g1
   1421c:	c2 27 a0 44 	st  %g1, [ %fp + 0x44 ]
   14220:	80 a0 a0 02 	cmp  %g2, 2
   14224:	04 80 00 1a 	ble  1428c <do_cp+0xfc>
   14228:	01 00 00 00 	nop 
   1422c:	c2 07 bf e8 	ld  [ %fp + -24 ], %g1
   14230:	c2 27 bf ec 	st  %g1, [ %fp + -20 ]
   14234:	c2 07 a0 48 	ld  [ %fp + 0x48 ], %g1
   14238:	82 00 60 04 	add  %g1, 4, %g1
   1423c:	c2 27 a0 48 	st  %g1, [ %fp + 0x48 ]
   14240:	c2 00 40 00 	ld  [ %g1 ], %g1
   14244:	c2 27 bf f0 	st  %g1, [ %fp + -16 ]
   14248:	c2 07 bf f4 	ld  [ %fp + -12 ], %g1
   1424c:	80 a0 60 00 	cmp  %g1, 0
   14250:	02 80 00 08 	be  14270 <do_cp+0xe0>
   14254:	01 00 00 00 	nop 
   14258:	d0 07 bf ec 	ld  [ %fp + -20 ], %o0
   1425c:	d2 07 bf f0 	ld  [ %fp + -16 ], %o1
   14260:	40 00 11 73 	call  1882c <buildname>
   14264:	01 00 00 00 	nop 
   14268:	82 10 00 08 	mov  %o0, %g1
   1426c:	c2 27 bf ec 	st  %g1, [ %fp + -20 ]
   14270:	d0 07 bf f0 	ld  [ %fp + -16 ], %o0
   14274:	d2 07 bf ec 	ld  [ %fp + -20 ], %o1
   14278:	94 10 20 00 	clr  %o2
   1427c:	40 00 10 6e 	call  18434 <copyfile>
   14280:	01 00 00 00 	nop 
   14284:	10 bf ff e3 	b  14210 <do_cp+0x80>
   14288:	01 00 00 00 	nop 
   1428c:	81 c7 e0 08 	ret 
   14290:	81 e8 00 00 	restore 

00014294 <do_mount>:
do_mount():
   14294:	9d e3 bf 90 	save  %sp, -112, %sp
   14298:	f0 27 a0 44 	st  %i0, [ %fp + 0x44 ]
   1429c:	f2 27 a0 48 	st  %i1, [ %fp + 0x48 ]
   142a0:	c2 07 a0 44 	ld  [ %fp + 0x44 ], %g1
   142a4:	82 00 7f ff 	add  %g1, -1, %g1
   142a8:	c2 27 a0 44 	st  %g1, [ %fp + 0x44 ]
   142ac:	c2 07 a0 48 	ld  [ %fp + 0x48 ], %g1
   142b0:	82 00 60 04 	add  %g1, 4, %g1
   142b4:	c2 27 a0 48 	st  %g1, [ %fp + 0x48 ]
   142b8:	03 00 00 6a 	sethi  %hi(0x1a800), %g1
   142bc:	82 10 61 70 	or  %g1, 0x170, %g1	! 1a970 <_IO_stdin_used+0x3c0>
   142c0:	c2 27 bf f0 	st  %g1, [ %fp + -16 ]
   142c4:	c2 07 a0 44 	ld  [ %fp + 0x44 ], %g1
   142c8:	80 a0 60 00 	cmp  %g1, 0
   142cc:	04 80 00 50 	ble  1440c <do_mount+0x178>
   142d0:	01 00 00 00 	nop 
   142d4:	c2 07 a0 48 	ld  [ %fp + 0x48 ], %g1
   142d8:	c2 00 40 00 	ld  [ %g1 ], %g1
   142dc:	c2 08 40 00 	ldub  [ %g1 ], %g1
   142e0:	83 28 60 18 	sll  %g1, 0x18, %g1
   142e4:	83 38 60 18 	sra  %g1, 0x18, %g1
   142e8:	80 a0 60 2d 	cmp  %g1, 0x2d
   142ec:	12 80 00 48 	bne  1440c <do_mount+0x178>
   142f0:	01 00 00 00 	nop 
   142f4:	c2 07 a0 44 	ld  [ %fp + 0x44 ], %g1
   142f8:	82 00 7f ff 	add  %g1, -1, %g1
   142fc:	c2 27 a0 44 	st  %g1, [ %fp + 0x44 ]
   14300:	84 07 a0 48 	add  %fp, 0x48, %g2
   14304:	c2 00 80 00 	ld  [ %g2 ], %g1
   14308:	c6 00 40 00 	ld  [ %g1 ], %g3
   1430c:	82 00 60 04 	add  %g1, 4, %g1
   14310:	c2 20 80 00 	st  %g1, [ %g2 ]
   14314:	c6 27 bf f4 	st  %g3, [ %fp + -12 ]
   14318:	c2 07 bf f4 	ld  [ %fp + -12 ], %g1
   1431c:	82 00 60 01 	inc  %g1
   14320:	c2 27 bf f4 	st  %g1, [ %fp + -12 ]
   14324:	c2 08 40 00 	ldub  [ %g1 ], %g1
   14328:	83 28 60 18 	sll  %g1, 0x18, %g1
   1432c:	83 38 60 18 	sra  %g1, 0x18, %g1
   14330:	80 a0 60 00 	cmp  %g1, 0
   14334:	02 bf ff e4 	be  142c4 <do_mount+0x30>
   14338:	01 00 00 00 	nop 
   1433c:	c2 07 bf f4 	ld  [ %fp + -12 ], %g1
   14340:	c2 08 40 00 	ldub  [ %g1 ], %g1
   14344:	83 28 60 18 	sll  %g1, 0x18, %g1
   14348:	83 38 60 18 	sra  %g1, 0x18, %g1
   1434c:	80 a0 60 74 	cmp  %g1, 0x74
   14350:	02 80 00 04 	be  14360 <do_mount+0xcc>
   14354:	01 00 00 00 	nop 
   14358:	10 80 00 24 	b  143e8 <do_mount+0x154>
   1435c:	01 00 00 00 	nop 
   14360:	c2 07 a0 44 	ld  [ %fp + 0x44 ], %g1
   14364:	80 a0 60 00 	cmp  %g1, 0
   14368:	04 80 00 0c 	ble  14398 <do_mount+0x104>
   1436c:	01 00 00 00 	nop 
   14370:	c2 07 a0 48 	ld  [ %fp + 0x48 ], %g1
   14374:	c2 00 40 00 	ld  [ %g1 ], %g1
   14378:	c2 08 40 00 	ldub  [ %g1 ], %g1
   1437c:	83 28 60 18 	sll  %g1, 0x18, %g1
   14380:	83 38 60 18 	sra  %g1, 0x18, %g1
   14384:	80 a0 60 2d 	cmp  %g1, 0x2d
   14388:	02 80 00 04 	be  14398 <do_mount+0x104>
   1438c:	01 00 00 00 	nop 
   14390:	10 80 00 0b 	b  143bc <do_mount+0x128>
   14394:	01 00 00 00 	nop 
   14398:	03 00 00 b3 	sethi  %hi(0x2cc00), %g1
   1439c:	82 10 62 40 	or  %g1, 0x240, %g1	! 2ce40 <stderr@@GLIBC_2.0>
   143a0:	d0 00 40 00 	ld  [ %g1 ], %o0
   143a4:	03 00 00 6a 	sethi  %hi(0x1a800), %g1
   143a8:	92 10 61 78 	or  %g1, 0x178, %o1	! 1a978 <_IO_stdin_used+0x3c8>
   143ac:	40 00 60 13 	call  2c3f8 <fprintf@plt>
   143b0:	01 00 00 00 	nop 
   143b4:	10 80 00 36 	b  1448c <do_mount+0x1f8>
   143b8:	01 00 00 00 	nop 
   143bc:	84 07 a0 48 	add  %fp, 0x48, %g2
   143c0:	c2 00 80 00 	ld  [ %g2 ], %g1
   143c4:	c6 00 40 00 	ld  [ %g1 ], %g3
   143c8:	82 00 60 04 	add  %g1, 4, %g1
   143cc:	c2 20 80 00 	st  %g1, [ %g2 ]
   143d0:	c6 27 bf f0 	st  %g3, [ %fp + -16 ]
   143d4:	c2 07 a0 44 	ld  [ %fp + 0x44 ], %g1
   143d8:	82 00 7f ff 	add  %g1, -1, %g1
   143dc:	c2 27 a0 44 	st  %g1, [ %fp + 0x44 ]
   143e0:	10 bf ff ce 	b  14318 <do_mount+0x84>
   143e4:	01 00 00 00 	nop 
   143e8:	03 00 00 b3 	sethi  %hi(0x2cc00), %g1
   143ec:	82 10 62 40 	or  %g1, 0x240, %g1	! 2ce40 <stderr@@GLIBC_2.0>
   143f0:	d0 00 40 00 	ld  [ %g1 ], %o0
   143f4:	03 00 00 6a 	sethi  %hi(0x1a800), %g1
   143f8:	92 10 61 30 	or  %g1, 0x130, %o1	! 1a930 <_IO_stdin_used+0x380>
   143fc:	40 00 5f ff 	call  2c3f8 <fprintf@plt>
   14400:	01 00 00 00 	nop 
   14404:	10 80 00 22 	b  1448c <do_mount+0x1f8>
   14408:	01 00 00 00 	nop 
   1440c:	c2 07 a0 44 	ld  [ %fp + 0x44 ], %g1
   14410:	80 a0 60 02 	cmp  %g1, 2
   14414:	02 80 00 0b 	be  14440 <do_mount+0x1ac>
   14418:	01 00 00 00 	nop 
   1441c:	03 00 00 b3 	sethi  %hi(0x2cc00), %g1
   14420:	82 10 62 40 	or  %g1, 0x240, %g1	! 2ce40 <stderr@@GLIBC_2.0>
   14424:	d0 00 40 00 	ld  [ %g1 ], %o0
   14428:	03 00 00 6a 	sethi  %hi(0x1a800), %g1
   1442c:	92 10 61 98 	or  %g1, 0x198, %o1	! 1a998 <_IO_stdin_used+0x3e8>
   14430:	40 00 5f f2 	call  2c3f8 <fprintf@plt>
   14434:	01 00 00 00 	nop 
   14438:	10 80 00 15 	b  1448c <do_mount+0x1f8>
   1443c:	01 00 00 00 	nop 
   14440:	c6 07 a0 48 	ld  [ %fp + 0x48 ], %g3
   14444:	84 10 20 04 	mov  4, %g2
   14448:	c2 07 a0 48 	ld  [ %fp + 0x48 ], %g1
   1444c:	82 00 80 01 	add  %g2, %g1, %g1
   14450:	d0 00 c0 00 	ld  [ %g3 ], %o0
   14454:	d2 00 40 00 	ld  [ %g1 ], %o1
   14458:	d4 07 bf f0 	ld  [ %fp + -16 ], %o2
   1445c:	96 10 20 00 	clr  %o3
   14460:	98 10 20 00 	clr  %o4
   14464:	40 00 60 39 	call  2c548 <mount@plt>
   14468:	01 00 00 00 	nop 
   1446c:	82 10 00 08 	mov  %o0, %g1
   14470:	80 a0 60 00 	cmp  %g1, 0
   14474:	16 80 00 06 	bge  1448c <do_mount+0x1f8>
   14478:	01 00 00 00 	nop 
   1447c:	03 00 00 6a 	sethi  %hi(0x1a800), %g1
   14480:	90 10 61 c0 	or  %g1, 0x1c0, %o0	! 1a9c0 <_IO_stdin_used+0x410>
   14484:	40 00 5f 68 	call  2c224 <perror@plt>
   14488:	01 00 00 00 	nop 
   1448c:	01 00 00 00 	nop 
   14490:	81 c7 e0 08 	ret 
   14494:	81 e8 00 00 	restore 

00014498 <do_umount>:
do_umount():
   14498:	9d e3 bf 98 	save  %sp, -104, %sp
   1449c:	f0 27 a0 44 	st  %i0, [ %fp + 0x44 ]
   144a0:	f2 27 a0 48 	st  %i1, [ %fp + 0x48 ]
   144a4:	84 10 20 04 	mov  4, %g2
   144a8:	c2 07 a0 48 	ld  [ %fp + 0x48 ], %g1
   144ac:	82 00 80 01 	add  %g2, %g1, %g1
   144b0:	d0 00 40 00 	ld  [ %g1 ], %o0
   144b4:	40 00 5f a1 	call  2c338 <umount@plt>
   144b8:	01 00 00 00 	nop 
   144bc:	82 10 00 08 	mov  %o0, %g1
   144c0:	80 a0 60 00 	cmp  %g1, 0
   144c4:	16 80 00 08 	bge  144e4 <do_umount+0x4c>
   144c8:	01 00 00 00 	nop 
   144cc:	82 10 20 04 	mov  4, %g1	! 4 <_init-0x11504>
   144d0:	c4 07 a0 48 	ld  [ %fp + 0x48 ], %g2
   144d4:	82 00 40 02 	add  %g1, %g2, %g1
   144d8:	d0 00 40 00 	ld  [ %g1 ], %o0
   144dc:	40 00 5f 52 	call  2c224 <perror@plt>
   144e0:	01 00 00 00 	nop 
   144e4:	01 00 00 00 	nop 
   144e8:	81 c7 e0 08 	ret 
   144ec:	81 e8 00 00 	restore 

000144f0 <do_cmp>:
do_cmp():
   144f0:	9d e3 be b8 	save  %sp, -328, %sp
   144f4:	f0 27 a0 44 	st  %i0, [ %fp + 0x44 ]
   144f8:	f2 27 a0 48 	st  %i1, [ %fp + 0x48 ]
   144fc:	84 10 20 04 	mov  4, %g2
   14500:	c2 07 a0 48 	ld  [ %fp + 0x48 ], %g1
   14504:	82 00 80 01 	add  %g2, %g1, %g1
   14508:	84 07 bf 70 	add  %fp, -144, %g2
   1450c:	d0 00 40 00 	ld  [ %g1 ], %o0
   14510:	92 10 00 02 	mov  %g2, %o1
   14514:	40 00 17 f8 	call  1a4f4 <__stat>
   14518:	01 00 00 00 	nop 
   1451c:	82 10 00 08 	mov  %o0, %g1
   14520:	80 a0 60 00 	cmp  %g1, 0
   14524:	16 80 00 0a 	bge  1454c <do_cmp+0x5c>
   14528:	01 00 00 00 	nop 
   1452c:	82 10 20 04 	mov  4, %g1	! 4 <_init-0x11504>
   14530:	c4 07 a0 48 	ld  [ %fp + 0x48 ], %g2
   14534:	82 00 40 02 	add  %g1, %g2, %g1
   14538:	d0 00 40 00 	ld  [ %g1 ], %o0
   1453c:	40 00 5f 3a 	call  2c224 <perror@plt>
   14540:	01 00 00 00 	nop 
   14544:	10 80 00 fe 	b  1493c <do_cmp+0x44c>
   14548:	01 00 00 00 	nop 
   1454c:	84 10 20 08 	mov  8, %g2	! 8 <_init-0x11500>
   14550:	c2 07 a0 48 	ld  [ %fp + 0x48 ], %g1
   14554:	82 00 80 01 	add  %g2, %g1, %g1
   14558:	84 07 bf 18 	add  %fp, -232, %g2
   1455c:	d0 00 40 00 	ld  [ %g1 ], %o0
   14560:	92 10 00 02 	mov  %g2, %o1
   14564:	40 00 17 e4 	call  1a4f4 <__stat>
   14568:	01 00 00 00 	nop 
   1456c:	82 10 00 08 	mov  %o0, %g1
   14570:	80 a0 60 00 	cmp  %g1, 0
   14574:	16 80 00 0a 	bge  1459c <do_cmp+0xac>
   14578:	01 00 00 00 	nop 
   1457c:	82 10 20 08 	mov  8, %g1	! 8 <_init-0x11500>
   14580:	c4 07 a0 48 	ld  [ %fp + 0x48 ], %g2
   14584:	82 00 40 02 	add  %g1, %g2, %g1
   14588:	d0 00 40 00 	ld  [ %g1 ], %o0
   1458c:	40 00 5f 26 	call  2c224 <perror@plt>
   14590:	01 00 00 00 	nop 
   14594:	10 80 00 ea 	b  1493c <do_cmp+0x44c>
   14598:	01 00 00 00 	nop 
   1459c:	c4 07 bf 70 	ld  [ %fp + -144 ], %g2
   145a0:	c2 07 bf 18 	ld  [ %fp + -232 ], %g1
   145a4:	80 a0 80 01 	cmp  %g2, %g1
   145a8:	12 80 00 12 	bne  145f0 <do_cmp+0x100>
   145ac:	01 00 00 00 	nop 
   145b0:	c4 07 bf 74 	ld  [ %fp + -140 ], %g2
   145b4:	c2 07 bf 1c 	ld  [ %fp + -228 ], %g1
   145b8:	80 a0 80 01 	cmp  %g2, %g1
   145bc:	12 80 00 0d 	bne  145f0 <do_cmp+0x100>
   145c0:	01 00 00 00 	nop 
   145c4:	c4 07 bf 7c 	ld  [ %fp + -132 ], %g2
   145c8:	c2 07 bf 24 	ld  [ %fp + -220 ], %g1
   145cc:	80 a0 80 01 	cmp  %g2, %g1
   145d0:	12 80 00 08 	bne  145f0 <do_cmp+0x100>
   145d4:	01 00 00 00 	nop 
   145d8:	03 00 00 6a 	sethi  %hi(0x1a800), %g1
   145dc:	90 10 61 d0 	or  %g1, 0x1d0, %o0	! 1a9d0 <_IO_stdin_used+0x420>
   145e0:	40 00 5f f2 	call  2c5a8 <printf@plt>
   145e4:	01 00 00 00 	nop 
   145e8:	10 80 00 d5 	b  1493c <do_cmp+0x44c>
   145ec:	01 00 00 00 	nop 
   145f0:	c4 07 bf 9c 	ld  [ %fp + -100 ], %g2
   145f4:	c2 07 bf 44 	ld  [ %fp + -188 ], %g1
   145f8:	80 a0 80 01 	cmp  %g2, %g1
   145fc:	02 80 00 08 	be  1461c <do_cmp+0x12c>
   14600:	01 00 00 00 	nop 
   14604:	03 00 00 6a 	sethi  %hi(0x1a800), %g1
   14608:	90 10 61 f0 	or  %g1, 0x1f0, %o0	! 1a9f0 <_IO_stdin_used+0x440>
   1460c:	40 00 5f e7 	call  2c5a8 <printf@plt>
   14610:	01 00 00 00 	nop 
   14614:	10 80 00 ca 	b  1493c <do_cmp+0x44c>
   14618:	01 00 00 00 	nop 
   1461c:	84 10 20 04 	mov  4, %g2	! 4 <_init-0x11504>
   14620:	c2 07 a0 48 	ld  [ %fp + 0x48 ], %g1
   14624:	82 00 80 01 	add  %g2, %g1, %g1
   14628:	d0 00 40 00 	ld  [ %g1 ], %o0
   1462c:	92 10 20 00 	clr  %o1
   14630:	40 00 5f a5 	call  2c4c4 <open@plt>
   14634:	01 00 00 00 	nop 
   14638:	82 10 00 08 	mov  %o0, %g1
   1463c:	c2 27 bf f4 	st  %g1, [ %fp + -12 ]
   14640:	c2 07 bf f4 	ld  [ %fp + -12 ], %g1
   14644:	80 a0 60 00 	cmp  %g1, 0
   14648:	16 80 00 0a 	bge  14670 <do_cmp+0x180>
   1464c:	01 00 00 00 	nop 
   14650:	82 10 20 04 	mov  4, %g1	! 4 <_init-0x11504>
   14654:	c4 07 a0 48 	ld  [ %fp + 0x48 ], %g2
   14658:	82 00 40 02 	add  %g1, %g2, %g1
   1465c:	d0 00 40 00 	ld  [ %g1 ], %o0
   14660:	40 00 5e f1 	call  2c224 <perror@plt>
   14664:	01 00 00 00 	nop 
   14668:	10 80 00 b5 	b  1493c <do_cmp+0x44c>
   1466c:	01 00 00 00 	nop 
   14670:	84 10 20 08 	mov  8, %g2	! 8 <_init-0x11500>
   14674:	c2 07 a0 48 	ld  [ %fp + 0x48 ], %g1
   14678:	82 00 80 01 	add  %g2, %g1, %g1
   1467c:	d0 00 40 00 	ld  [ %g1 ], %o0
   14680:	92 10 20 00 	clr  %o1
   14684:	40 00 5f 90 	call  2c4c4 <open@plt>
   14688:	01 00 00 00 	nop 
   1468c:	82 10 00 08 	mov  %o0, %g1
   14690:	c2 27 bf f0 	st  %g1, [ %fp + -16 ]
   14694:	c2 07 bf f0 	ld  [ %fp + -16 ], %g1
   14698:	80 a0 60 00 	cmp  %g1, 0
   1469c:	16 80 00 0d 	bge  146d0 <do_cmp+0x1e0>
   146a0:	01 00 00 00 	nop 
   146a4:	82 10 20 08 	mov  8, %g1	! 8 <_init-0x11500>
   146a8:	c4 07 a0 48 	ld  [ %fp + 0x48 ], %g2
   146ac:	82 00 40 02 	add  %g1, %g2, %g1
   146b0:	d0 00 40 00 	ld  [ %g1 ], %o0
   146b4:	40 00 5e dc 	call  2c224 <perror@plt>
   146b8:	01 00 00 00 	nop 
   146bc:	d0 07 bf f4 	ld  [ %fp + -12 ], %o0
   146c0:	40 00 5e d0 	call  2c200 <close@plt>
   146c4:	01 00 00 00 	nop 
   146c8:	10 80 00 9d 	b  1493c <do_cmp+0x44c>
   146cc:	01 00 00 00 	nop 
   146d0:	03 00 00 07 	sethi  %hi(0x1c00), %g1
   146d4:	90 10 63 f0 	or  %g1, 0x3f0, %o0	! 1ff0 <_init-0xf518>
   146d8:	40 00 5f 03 	call  2c2e4 <malloc@plt>
   146dc:	01 00 00 00 	nop 
   146e0:	82 10 00 08 	mov  %o0, %g1
   146e4:	c2 27 bf cc 	st  %g1, [ %fp + -52 ]
   146e8:	03 00 00 07 	sethi  %hi(0x1c00), %g1
   146ec:	90 10 63 f0 	or  %g1, 0x3f0, %o0	! 1ff0 <_init-0xf518>
   146f0:	40 00 5e fd 	call  2c2e4 <malloc@plt>
   146f4:	01 00 00 00 	nop 
   146f8:	82 10 00 08 	mov  %o0, %g1
   146fc:	c2 27 bf c8 	st  %g1, [ %fp + -56 ]
   14700:	c0 27 bf e4 	clr  [ %fp + -28 ]
   14704:	03 00 00 b5 	sethi  %hi(0x2d400), %g1
   14708:	82 10 62 48 	or  %g1, 0x248, %g1	! 2d648 <intflag>
   1470c:	c2 00 40 00 	ld  [ %g1 ], %g1
   14710:	80 a0 60 00 	cmp  %g1, 0
   14714:	02 80 00 04 	be  14724 <do_cmp+0x234>
   14718:	01 00 00 00 	nop 
   1471c:	10 80 00 7c 	b  1490c <do_cmp+0x41c>
   14720:	01 00 00 00 	nop 
   14724:	d0 07 bf f4 	ld  [ %fp + -12 ], %o0
   14728:	d2 07 bf cc 	ld  [ %fp + -52 ], %o1
   1472c:	03 00 00 07 	sethi  %hi(0x1c00), %g1
   14730:	94 10 63 f0 	or  %g1, 0x3f0, %o2	! 1ff0 <_init-0xf518>
   14734:	40 00 5f a0 	call  2c5b4 <read@plt>
   14738:	01 00 00 00 	nop 
   1473c:	82 10 00 08 	mov  %o0, %g1
   14740:	c2 27 bf ec 	st  %g1, [ %fp + -20 ]
   14744:	c2 07 bf ec 	ld  [ %fp + -20 ], %g1
   14748:	80 a0 60 00 	cmp  %g1, 0
   1474c:	16 80 00 0a 	bge  14774 <do_cmp+0x284>
   14750:	01 00 00 00 	nop 
   14754:	82 10 20 04 	mov  4, %g1	! 4 <_init-0x11504>
   14758:	c4 07 a0 48 	ld  [ %fp + 0x48 ], %g2
   1475c:	82 00 40 02 	add  %g1, %g2, %g1
   14760:	d0 00 40 00 	ld  [ %g1 ], %o0
   14764:	40 00 5e b0 	call  2c224 <perror@plt>
   14768:	01 00 00 00 	nop 
   1476c:	10 80 00 68 	b  1490c <do_cmp+0x41c>
   14770:	01 00 00 00 	nop 
   14774:	d0 07 bf f0 	ld  [ %fp + -16 ], %o0
   14778:	d2 07 bf c8 	ld  [ %fp + -56 ], %o1
   1477c:	03 00 00 07 	sethi  %hi(0x1c00), %g1
   14780:	94 10 63 f0 	or  %g1, 0x3f0, %o2	! 1ff0 <_init-0xf518>
   14784:	40 00 5f 8c 	call  2c5b4 <read@plt>
   14788:	01 00 00 00 	nop 
   1478c:	82 10 00 08 	mov  %o0, %g1
   14790:	c2 27 bf e8 	st  %g1, [ %fp + -24 ]
   14794:	c2 07 bf e8 	ld  [ %fp + -24 ], %g1
   14798:	80 a0 60 00 	cmp  %g1, 0
   1479c:	16 80 00 0a 	bge  147c4 <do_cmp+0x2d4>
   147a0:	01 00 00 00 	nop 
   147a4:	82 10 20 08 	mov  8, %g1	! 8 <_init-0x11500>
   147a8:	c4 07 a0 48 	ld  [ %fp + 0x48 ], %g2
   147ac:	82 00 40 02 	add  %g1, %g2, %g1
   147b0:	d0 00 40 00 	ld  [ %g1 ], %o0
   147b4:	40 00 5e 9c 	call  2c224 <perror@plt>
   147b8:	01 00 00 00 	nop 
   147bc:	10 80 00 54 	b  1490c <do_cmp+0x41c>
   147c0:	01 00 00 00 	nop 
   147c4:	c2 07 bf ec 	ld  [ %fp + -20 ], %g1
   147c8:	80 a0 60 00 	cmp  %g1, 0
   147cc:	12 80 00 0c 	bne  147fc <do_cmp+0x30c>
   147d0:	01 00 00 00 	nop 
   147d4:	c2 07 bf e8 	ld  [ %fp + -24 ], %g1
   147d8:	80 a0 60 00 	cmp  %g1, 0
   147dc:	12 80 00 08 	bne  147fc <do_cmp+0x30c>
   147e0:	01 00 00 00 	nop 
   147e4:	03 00 00 6a 	sethi  %hi(0x1a800), %g1
   147e8:	90 10 62 10 	or  %g1, 0x210, %o0	! 1aa10 <_IO_stdin_used+0x460>
   147ec:	40 00 5f 6f 	call  2c5a8 <printf@plt>
   147f0:	01 00 00 00 	nop 
   147f4:	10 80 00 46 	b  1490c <do_cmp+0x41c>
   147f8:	01 00 00 00 	nop 
   147fc:	c4 07 bf ec 	ld  [ %fp + -20 ], %g2
   14800:	c2 07 bf e8 	ld  [ %fp + -24 ], %g1
   14804:	80 a0 80 01 	cmp  %g2, %g1
   14808:	16 80 00 08 	bge  14828 <do_cmp+0x338>
   1480c:	01 00 00 00 	nop 
   14810:	03 00 00 6a 	sethi  %hi(0x1a800), %g1
   14814:	90 10 62 28 	or  %g1, 0x228, %o0	! 1aa28 <_IO_stdin_used+0x478>
   14818:	40 00 5f 64 	call  2c5a8 <printf@plt>
   1481c:	01 00 00 00 	nop 
   14820:	10 80 00 3b 	b  1490c <do_cmp+0x41c>
   14824:	01 00 00 00 	nop 
   14828:	c4 07 bf ec 	ld  [ %fp + -20 ], %g2
   1482c:	c2 07 bf e8 	ld  [ %fp + -24 ], %g1
   14830:	80 a0 80 01 	cmp  %g2, %g1
   14834:	04 80 00 08 	ble  14854 <do_cmp+0x364>
   14838:	01 00 00 00 	nop 
   1483c:	03 00 00 6a 	sethi  %hi(0x1a800), %g1
   14840:	90 10 62 50 	or  %g1, 0x250, %o0	! 1aa50 <_IO_stdin_used+0x4a0>
   14844:	40 00 5f 59 	call  2c5a8 <printf@plt>
   14848:	01 00 00 00 	nop 
   1484c:	10 80 00 30 	b  1490c <do_cmp+0x41c>
   14850:	01 00 00 00 	nop 
   14854:	d0 07 bf cc 	ld  [ %fp + -52 ], %o0
   14858:	d2 07 bf c8 	ld  [ %fp + -56 ], %o1
   1485c:	d4 07 bf ec 	ld  [ %fp + -20 ], %o2
   14860:	40 00 5e e0 	call  2c3e0 <memcmp@plt>
   14864:	01 00 00 00 	nop 
   14868:	82 10 00 08 	mov  %o0, %g1
   1486c:	80 a0 60 00 	cmp  %g1, 0
   14870:	12 80 00 08 	bne  14890 <do_cmp+0x3a0>
   14874:	01 00 00 00 	nop 
   14878:	c2 07 bf e4 	ld  [ %fp + -28 ], %g1
   1487c:	c4 07 bf ec 	ld  [ %fp + -20 ], %g2
   14880:	82 00 40 02 	add  %g1, %g2, %g1
   14884:	c2 27 bf e4 	st  %g1, [ %fp + -28 ]
   14888:	10 bf ff 9f 	b  14704 <do_cmp+0x214>
   1488c:	01 00 00 00 	nop 
   14890:	c2 07 bf cc 	ld  [ %fp + -52 ], %g1
   14894:	c2 27 bf d4 	st  %g1, [ %fp + -44 ]
   14898:	c2 07 bf c8 	ld  [ %fp + -56 ], %g1
   1489c:	c2 27 bf d0 	st  %g1, [ %fp + -48 ]
   148a0:	88 07 bf d4 	add  %fp, -44, %g4
   148a4:	c4 01 00 00 	ld  [ %g4 ], %g2
   148a8:	86 07 bf d0 	add  %fp, -48, %g3
   148ac:	c2 00 c0 00 	ld  [ %g3 ], %g1
   148b0:	da 08 40 00 	ldub  [ %g1 ], %o5
   148b4:	82 00 60 01 	inc  %g1
   148b8:	c2 20 c0 00 	st  %g1, [ %g3 ]
   148bc:	c2 08 80 00 	ldub  [ %g2 ], %g1
   148c0:	84 00 a0 01 	inc  %g2
   148c4:	c4 21 00 00 	st  %g2, [ %g4 ]
   148c8:	83 28 60 18 	sll  %g1, 0x18, %g1
   148cc:	85 38 60 18 	sra  %g1, 0x18, %g2
   148d0:	83 2b 60 18 	sll  %o5, 0x18, %g1
   148d4:	83 38 60 18 	sra  %g1, 0x18, %g1
   148d8:	80 a0 80 01 	cmp  %g2, %g1
   148dc:	12 80 00 07 	bne  148f8 <do_cmp+0x408>
   148e0:	01 00 00 00 	nop 
   148e4:	c2 07 bf e4 	ld  [ %fp + -28 ], %g1
   148e8:	82 00 60 01 	inc  %g1
   148ec:	c2 27 bf e4 	st  %g1, [ %fp + -28 ]
   148f0:	10 bf ff ec 	b  148a0 <do_cmp+0x3b0>
   148f4:	01 00 00 00 	nop 
   148f8:	03 00 00 6a 	sethi  %hi(0x1a800), %g1
   148fc:	90 10 62 78 	or  %g1, 0x278, %o0	! 1aa78 <_IO_stdin_used+0x4c8>
   14900:	d2 07 bf e4 	ld  [ %fp + -28 ], %o1
   14904:	40 00 5f 29 	call  2c5a8 <printf@plt>
   14908:	01 00 00 00 	nop 
   1490c:	d0 07 bf f4 	ld  [ %fp + -12 ], %o0
   14910:	40 00 5e 3c 	call  2c200 <close@plt>
   14914:	01 00 00 00 	nop 
   14918:	d0 07 bf f0 	ld  [ %fp + -16 ], %o0
   1491c:	40 00 5e 39 	call  2c200 <close@plt>
   14920:	01 00 00 00 	nop 
   14924:	d0 07 bf cc 	ld  [ %fp + -52 ], %o0
   14928:	40 00 5e f3 	call  2c4f4 <free@plt>
   1492c:	01 00 00 00 	nop 
   14930:	d0 07 bf c8 	ld  [ %fp + -56 ], %o0
   14934:	40 00 5e f0 	call  2c4f4 <free@plt>
   14938:	01 00 00 00 	nop 
   1493c:	01 00 00 00 	nop 
   14940:	81 c7 e0 08 	ret 
   14944:	81 e8 00 00 	restore 

00014948 <do_more>:
do_more():
   14948:	9d e3 bf 28 	save  %sp, -216, %sp
   1494c:	f0 27 a0 44 	st  %i0, [ %fp + 0x44 ]
   14950:	f2 27 a0 48 	st  %i1, [ %fp + 0x48 ]
   14954:	c2 07 a0 44 	ld  [ %fp + 0x44 ], %g1
   14958:	84 10 00 01 	mov  %g1, %g2
   1495c:	82 00 7f ff 	add  %g1, -1, %g1
   14960:	c2 27 a0 44 	st  %g1, [ %fp + 0x44 ]
   14964:	80 a0 a0 01 	cmp  %g2, 1
   14968:	04 80 00 df 	ble  14ce4 <do_more+0x39c>
   1496c:	01 00 00 00 	nop 
   14970:	c2 07 a0 48 	ld  [ %fp + 0x48 ], %g1
   14974:	82 00 60 04 	add  %g1, 4, %g1
   14978:	c2 27 a0 48 	st  %g1, [ %fp + 0x48 ]
   1497c:	c2 00 40 00 	ld  [ %g1 ], %g1
   14980:	c2 27 bf f0 	st  %g1, [ %fp + -16 ]
   14984:	d0 07 bf f0 	ld  [ %fp + -16 ], %o0
   14988:	03 00 00 6a 	sethi  %hi(0x1a800), %g1
   1498c:	92 10 62 a0 	or  %g1, 0x2a0, %o1	! 1aaa0 <_IO_stdin_used+0x4f0>
   14990:	40 00 5e f7 	call  2c56c <fopen@plt>
   14994:	01 00 00 00 	nop 
   14998:	82 10 00 08 	mov  %o0, %g1
   1499c:	c2 27 bf f4 	st  %g1, [ %fp + -12 ]
   149a0:	c2 07 bf f4 	ld  [ %fp + -12 ], %g1
   149a4:	80 a0 60 00 	cmp  %g1, 0
   149a8:	12 80 00 07 	bne  149c4 <do_more+0x7c>
   149ac:	01 00 00 00 	nop 
   149b0:	d0 07 bf f0 	ld  [ %fp + -16 ], %o0
   149b4:	40 00 5e 1c 	call  2c224 <perror@plt>
   149b8:	01 00 00 00 	nop 
   149bc:	10 80 00 ca 	b  14ce4 <do_more+0x39c>
   149c0:	01 00 00 00 	nop 
   149c4:	03 00 00 6a 	sethi  %hi(0x1a800), %g1
   149c8:	90 10 62 a8 	or  %g1, 0x2a8, %o0	! 1aaa8 <_IO_stdin_used+0x4f8>
   149cc:	d2 07 bf f0 	ld  [ %fp + -16 ], %o1
   149d0:	40 00 5e f6 	call  2c5a8 <printf@plt>
   149d4:	01 00 00 00 	nop 
   149d8:	82 10 20 01 	mov  1, %g1	! 1 <_init-0x11507>
   149dc:	c2 27 bf e8 	st  %g1, [ %fp + -24 ]
   149e0:	c0 27 bf e4 	clr  [ %fp + -28 ]
   149e4:	c2 07 bf f4 	ld  [ %fp + -12 ], %g1
   149e8:	80 a0 60 00 	cmp  %g1, 0
   149ec:	02 80 00 b5 	be  14cc0 <do_more+0x378>
   149f0:	01 00 00 00 	nop 
   149f4:	d0 07 bf f4 	ld  [ %fp + -12 ], %o0
   149f8:	40 00 5d db 	call  2c164 <fgetc@plt>
   149fc:	01 00 00 00 	nop 
   14a00:	82 10 00 08 	mov  %o0, %g1
   14a04:	c2 27 bf ec 	st  %g1, [ %fp + -20 ]
   14a08:	c2 07 bf ec 	ld  [ %fp + -20 ], %g1
   14a0c:	80 a0 7f ff 	cmp  %g1, -1
   14a10:	02 80 00 ac 	be  14cc0 <do_more+0x378>
   14a14:	01 00 00 00 	nop 
   14a18:	c2 07 bf ec 	ld  [ %fp + -20 ], %g1
   14a1c:	c2 27 bf 8c 	st  %g1, [ %fp + -116 ]
   14a20:	c2 07 bf 8c 	ld  [ %fp + -116 ], %g1
   14a24:	80 a0 60 09 	cmp  %g1, 9
   14a28:	02 80 00 1f 	be  14aa4 <do_more+0x15c>
   14a2c:	01 00 00 00 	nop 
   14a30:	c2 07 bf 8c 	ld  [ %fp + -116 ], %g1
   14a34:	80 a0 60 09 	cmp  %g1, 9
   14a38:	14 80 00 08 	bg  14a58 <do_more+0x110>
   14a3c:	01 00 00 00 	nop 
   14a40:	c2 07 bf 8c 	ld  [ %fp + -116 ], %g1
   14a44:	80 a0 60 08 	cmp  %g1, 8
   14a48:	02 80 00 1e 	be  14ac0 <do_more+0x178>
   14a4c:	01 00 00 00 	nop 
   14a50:	10 80 00 25 	b  14ae4 <do_more+0x19c>
   14a54:	01 00 00 00 	nop 
   14a58:	c2 07 bf 8c 	ld  [ %fp + -116 ], %g1
   14a5c:	80 a0 60 0a 	cmp  %g1, 0xa
   14a60:	02 80 00 0b 	be  14a8c <do_more+0x144>
   14a64:	01 00 00 00 	nop 
   14a68:	c2 07 bf 8c 	ld  [ %fp + -116 ], %g1
   14a6c:	80 a0 60 0d 	cmp  %g1, 0xd
   14a70:	02 80 00 04 	be  14a80 <do_more+0x138>
   14a74:	01 00 00 00 	nop 
   14a78:	10 80 00 1b 	b  14ae4 <do_more+0x19c>
   14a7c:	01 00 00 00 	nop 
   14a80:	c0 27 bf e4 	clr  [ %fp + -28 ]
   14a84:	10 80 00 1b 	b  14af0 <do_more+0x1a8>
   14a88:	01 00 00 00 	nop 
   14a8c:	c2 07 bf e8 	ld  [ %fp + -24 ], %g1
   14a90:	82 00 60 01 	inc  %g1
   14a94:	c2 27 bf e8 	st  %g1, [ %fp + -24 ]
   14a98:	c0 27 bf e4 	clr  [ %fp + -28 ]
   14a9c:	10 80 00 15 	b  14af0 <do_more+0x1a8>
   14aa0:	01 00 00 00 	nop 
   14aa4:	c2 07 bf e4 	ld  [ %fp + -28 ], %g1
   14aa8:	82 00 60 01 	inc  %g1
   14aac:	82 10 60 07 	or  %g1, 7, %g1
   14ab0:	82 00 60 01 	inc  %g1
   14ab4:	c2 27 bf e4 	st  %g1, [ %fp + -28 ]
   14ab8:	10 80 00 0e 	b  14af0 <do_more+0x1a8>
   14abc:	01 00 00 00 	nop 
   14ac0:	c2 07 bf e4 	ld  [ %fp + -28 ], %g1
   14ac4:	80 a0 60 00 	cmp  %g1, 0
   14ac8:	04 80 00 0a 	ble  14af0 <do_more+0x1a8>
   14acc:	01 00 00 00 	nop 
   14ad0:	c2 07 bf e4 	ld  [ %fp + -28 ], %g1
   14ad4:	82 00 7f ff 	add  %g1, -1, %g1
   14ad8:	c2 27 bf e4 	st  %g1, [ %fp + -28 ]
   14adc:	10 80 00 05 	b  14af0 <do_more+0x1a8>
   14ae0:	01 00 00 00 	nop 
   14ae4:	c2 07 bf e4 	ld  [ %fp + -28 ], %g1
   14ae8:	82 00 60 01 	inc  %g1
   14aec:	c2 27 bf e4 	st  %g1, [ %fp + -28 ]
   14af0:	d0 07 bf ec 	ld  [ %fp + -20 ], %o0
   14af4:	40 00 5d e7 	call  2c290 <putchar@plt>
   14af8:	01 00 00 00 	nop 
   14afc:	c2 07 bf e4 	ld  [ %fp + -28 ], %g1
   14b00:	80 a0 60 4f 	cmp  %g1, 0x4f
   14b04:	04 80 00 08 	ble  14b24 <do_more+0x1dc>
   14b08:	01 00 00 00 	nop 
   14b0c:	c2 07 bf e4 	ld  [ %fp + -28 ], %g1
   14b10:	82 00 7f b0 	add  %g1, -80, %g1
   14b14:	c2 27 bf e4 	st  %g1, [ %fp + -28 ]
   14b18:	c2 07 bf e8 	ld  [ %fp + -24 ], %g1
   14b1c:	82 00 60 01 	inc  %g1
   14b20:	c2 27 bf e8 	st  %g1, [ %fp + -24 ]
   14b24:	c2 07 bf e8 	ld  [ %fp + -24 ], %g1
   14b28:	80 a0 60 17 	cmp  %g1, 0x17
   14b2c:	14 80 00 04 	bg  14b3c <do_more+0x1f4>
   14b30:	01 00 00 00 	nop 
   14b34:	10 bf ff ac 	b  149e4 <do_more+0x9c>
   14b38:	01 00 00 00 	nop 
   14b3c:	c2 07 bf e4 	ld  [ %fp + -28 ], %g1
   14b40:	80 a0 60 00 	cmp  %g1, 0
   14b44:	04 80 00 05 	ble  14b58 <do_more+0x210>
   14b48:	01 00 00 00 	nop 
   14b4c:	90 10 20 0a 	mov  0xa, %o0	! a <_init-0x114fe>
   14b50:	40 00 5d d0 	call  2c290 <putchar@plt>
   14b54:	01 00 00 00 	nop 
   14b58:	03 00 00 6a 	sethi  %hi(0x1a800), %g1
   14b5c:	90 10 62 b8 	or  %g1, 0x2b8, %o0	! 1aab8 <_IO_stdin_used+0x508>
   14b60:	40 00 5e 92 	call  2c5a8 <printf@plt>
   14b64:	01 00 00 00 	nop 
   14b68:	03 00 00 b3 	sethi  %hi(0x2cc00), %g1
   14b6c:	82 10 62 3c 	or  %g1, 0x23c, %g1	! 2ce3c <stdout@@GLIBC_2.0>
   14b70:	d0 00 40 00 	ld  [ %g1 ], %o0
   14b74:	40 00 5d b8 	call  2c254 <fflush@plt>
   14b78:	01 00 00 00 	nop 
   14b7c:	03 00 00 b5 	sethi  %hi(0x2d400), %g1
   14b80:	82 10 62 48 	or  %g1, 0x248, %g1	! 2d648 <intflag>
   14b84:	c2 00 40 00 	ld  [ %g1 ], %g1
   14b88:	80 a0 60 00 	cmp  %g1, 0
   14b8c:	12 80 00 0e 	bne  14bc4 <do_more+0x27c>
   14b90:	01 00 00 00 	nop 
   14b94:	82 07 bf 90 	add  %fp, -112, %g1
   14b98:	90 10 20 00 	clr  %o0
   14b9c:	92 10 00 01 	mov  %g1, %o1
   14ba0:	94 10 20 50 	mov  0x50, %o2
   14ba4:	40 00 5e 84 	call  2c5b4 <read@plt>
   14ba8:	01 00 00 00 	nop 
   14bac:	82 10 00 08 	mov  %o0, %g1
   14bb0:	80 a0 60 00 	cmp  %g1, 0
   14bb4:	06 80 00 04 	bl  14bc4 <do_more+0x27c>
   14bb8:	01 00 00 00 	nop 
   14bbc:	10 80 00 0b 	b  14be8 <do_more+0x2a0>
   14bc0:	01 00 00 00 	nop 
   14bc4:	c2 07 bf f4 	ld  [ %fp + -12 ], %g1
   14bc8:	80 a0 60 00 	cmp  %g1, 0
   14bcc:	02 80 00 46 	be  14ce4 <do_more+0x39c>
   14bd0:	01 00 00 00 	nop 
   14bd4:	d0 07 bf f4 	ld  [ %fp + -12 ], %o0
   14bd8:	40 00 5e 20 	call  2c458 <fclose@plt>
   14bdc:	01 00 00 00 	nop 
   14be0:	10 80 00 41 	b  14ce4 <do_more+0x39c>
   14be4:	01 00 00 00 	nop 
   14be8:	c2 0f bf 90 	ldub  [ %fp + -112 ], %g1
   14bec:	83 28 60 18 	sll  %g1, 0x18, %g1
   14bf0:	83 38 60 18 	sra  %g1, 0x18, %g1
   14bf4:	c2 27 bf ec 	st  %g1, [ %fp + -20 ]
   14bf8:	c2 07 bf ec 	ld  [ %fp + -20 ], %g1
   14bfc:	80 a0 60 3a 	cmp  %g1, 0x3a
   14c00:	12 80 00 06 	bne  14c18 <do_more+0x2d0>
   14c04:	01 00 00 00 	nop 
   14c08:	c2 0f bf 91 	ldub  [ %fp + -111 ], %g1
   14c0c:	83 28 60 18 	sll  %g1, 0x18, %g1
   14c10:	83 38 60 18 	sra  %g1, 0x18, %g1
   14c14:	c2 27 bf ec 	st  %g1, [ %fp + -20 ]
   14c18:	c2 07 bf ec 	ld  [ %fp + -20 ], %g1
   14c1c:	c2 27 bf 88 	st  %g1, [ %fp + -120 ]
   14c20:	c2 07 bf 88 	ld  [ %fp + -120 ], %g1
   14c24:	80 a0 60 51 	cmp  %g1, 0x51
   14c28:	02 80 00 1c 	be  14c98 <do_more+0x350>
   14c2c:	01 00 00 00 	nop 
   14c30:	c2 07 bf 88 	ld  [ %fp + -120 ], %g1
   14c34:	80 a0 60 51 	cmp  %g1, 0x51
   14c38:	14 80 00 08 	bg  14c58 <do_more+0x310>
   14c3c:	01 00 00 00 	nop 
   14c40:	c2 07 bf 88 	ld  [ %fp + -120 ], %g1
   14c44:	80 a0 60 4e 	cmp  %g1, 0x4e
   14c48:	02 80 00 0e 	be  14c80 <do_more+0x338>
   14c4c:	01 00 00 00 	nop 
   14c50:	10 80 00 17 	b  14cac <do_more+0x364>
   14c54:	01 00 00 00 	nop 
   14c58:	c2 07 bf 88 	ld  [ %fp + -120 ], %g1
   14c5c:	80 a0 60 6e 	cmp  %g1, 0x6e
   14c60:	02 80 00 08 	be  14c80 <do_more+0x338>
   14c64:	01 00 00 00 	nop 
   14c68:	c2 07 bf 88 	ld  [ %fp + -120 ], %g1
   14c6c:	80 a0 60 71 	cmp  %g1, 0x71
   14c70:	02 80 00 0a 	be  14c98 <do_more+0x350>
   14c74:	01 00 00 00 	nop 
   14c78:	10 80 00 0d 	b  14cac <do_more+0x364>
   14c7c:	01 00 00 00 	nop 
   14c80:	d0 07 bf f4 	ld  [ %fp + -12 ], %o0
   14c84:	40 00 5d f5 	call  2c458 <fclose@plt>
   14c88:	01 00 00 00 	nop 
   14c8c:	c0 27 bf f4 	clr  [ %fp + -12 ]
   14c90:	10 80 00 07 	b  14cac <do_more+0x364>
   14c94:	01 00 00 00 	nop 
   14c98:	d0 07 bf f4 	ld  [ %fp + -12 ], %o0
   14c9c:	40 00 5d ef 	call  2c458 <fclose@plt>
   14ca0:	01 00 00 00 	nop 
   14ca4:	10 80 00 10 	b  14ce4 <do_more+0x39c>
   14ca8:	01 00 00 00 	nop 
   14cac:	c0 27 bf e4 	clr  [ %fp + -28 ]
   14cb0:	82 10 20 01 	mov  1, %g1
   14cb4:	c2 27 bf e8 	st  %g1, [ %fp + -24 ]
   14cb8:	10 bf ff 4b 	b  149e4 <do_more+0x9c>
   14cbc:	01 00 00 00 	nop 
   14cc0:	c2 07 bf f4 	ld  [ %fp + -12 ], %g1
   14cc4:	80 a0 60 00 	cmp  %g1, 0
   14cc8:	02 bf ff 23 	be  14954 <do_more+0xc>
   14ccc:	01 00 00 00 	nop 
   14cd0:	d0 07 bf f4 	ld  [ %fp + -12 ], %o0
   14cd4:	40 00 5d e1 	call  2c458 <fclose@plt>
   14cd8:	01 00 00 00 	nop 
   14cdc:	10 bf ff 1e 	b  14954 <do_more+0xc>
   14ce0:	01 00 00 00 	nop 
   14ce4:	81 c7 e0 08 	ret 
   14ce8:	81 e8 00 00 	restore 

00014cec <do_exit>:
do_exit():
   14cec:	9d e3 bf 98 	save  %sp, -104, %sp
   14cf0:	f0 27 a0 44 	st  %i0, [ %fp + 0x44 ]
   14cf4:	f2 27 a0 48 	st  %i1, [ %fp + 0x48 ]
   14cf8:	90 10 20 00 	clr  %o0
   14cfc:	40 00 5d f8 	call  2c4dc <exit@plt>
   14d00:	01 00 00 00 	nop 
   14d04:	01 00 00 00 	nop 

00014d08 <do_setenv>:
do_setenv():
   14d08:	9d e3 bf 98 	save  %sp, -104, %sp
   14d0c:	f0 27 a0 44 	st  %i0, [ %fp + 0x44 ]
   14d10:	f2 27 a0 48 	st  %i1, [ %fp + 0x48 ]
   14d14:	84 10 20 04 	mov  4, %g2
   14d18:	c2 07 a0 48 	ld  [ %fp + 0x48 ], %g1
   14d1c:	86 00 80 01 	add  %g2, %g1, %g3
   14d20:	84 10 20 08 	mov  8, %g2
   14d24:	c2 07 a0 48 	ld  [ %fp + 0x48 ], %g1
   14d28:	82 00 80 01 	add  %g2, %g1, %g1
   14d2c:	d0 00 c0 00 	ld  [ %g3 ], %o0
   14d30:	d2 00 40 00 	ld  [ %g1 ], %o1
   14d34:	94 10 20 01 	mov  1, %o2
   14d38:	40 00 5d 50 	call  2c278 <setenv@plt>
   14d3c:	01 00 00 00 	nop 
   14d40:	01 00 00 00 	nop 
   14d44:	81 c7 e0 08 	ret 
   14d48:	81 e8 00 00 	restore 

00014d4c <do_printenv>:
do_printenv():
   14d4c:	9d e3 bf 90 	save  %sp, -112, %sp
   14d50:	f0 27 a0 44 	st  %i0, [ %fp + 0x44 ]
   14d54:	f2 27 a0 48 	st  %i1, [ %fp + 0x48 ]
   14d58:	03 00 00 b3 	sethi  %hi(0x2cc00), %g1
   14d5c:	82 10 62 38 	or  %g1, 0x238, %g1	! 2ce38 <__bss_start>
   14d60:	c2 00 40 00 	ld  [ %g1 ], %g1
   14d64:	c2 27 bf f4 	st  %g1, [ %fp + -12 ]
   14d68:	c2 07 a0 44 	ld  [ %fp + 0x44 ], %g1
   14d6c:	80 a0 60 01 	cmp  %g1, 1
   14d70:	12 80 00 13 	bne  14dbc <do_printenv+0x70>
   14d74:	01 00 00 00 	nop 
   14d78:	c2 07 bf f4 	ld  [ %fp + -12 ], %g1
   14d7c:	c2 00 40 00 	ld  [ %g1 ], %g1
   14d80:	80 a0 60 00 	cmp  %g1, 0
   14d84:	02 80 00 4d 	be  14eb8 <do_printenv+0x16c>
   14d88:	01 00 00 00 	nop 
   14d8c:	84 07 bf f4 	add  %fp, -12, %g2
   14d90:	c2 00 80 00 	ld  [ %g2 ], %g1
   14d94:	c6 00 40 00 	ld  [ %g1 ], %g3
   14d98:	82 00 60 04 	add  %g1, 4, %g1
   14d9c:	c2 20 80 00 	st  %g1, [ %g2 ]
   14da0:	03 00 00 6a 	sethi  %hi(0x1a800), %g1
   14da4:	90 10 60 00 	mov  %g1, %o0	! 1a800 <_IO_stdin_used+0x250>
   14da8:	92 10 00 03 	mov  %g3, %o1
   14dac:	40 00 5d ff 	call  2c5a8 <printf@plt>
   14db0:	01 00 00 00 	nop 
   14db4:	10 bf ff f1 	b  14d78 <do_printenv+0x2c>
   14db8:	01 00 00 00 	nop 
   14dbc:	84 10 20 04 	mov  4, %g2	! 4 <_init-0x11504>
   14dc0:	c2 07 a0 48 	ld  [ %fp + 0x48 ], %g1
   14dc4:	82 00 80 01 	add  %g2, %g1, %g1
   14dc8:	d0 00 40 00 	ld  [ %g1 ], %o0
   14dcc:	40 00 5d 70 	call  2c38c <strlen@plt>
   14dd0:	01 00 00 00 	nop 
   14dd4:	82 10 00 08 	mov  %o0, %g1
   14dd8:	c2 27 bf f0 	st  %g1, [ %fp + -16 ]
   14ddc:	c2 07 bf f4 	ld  [ %fp + -12 ], %g1
   14de0:	c2 00 40 00 	ld  [ %g1 ], %g1
   14de4:	80 a0 60 00 	cmp  %g1, 0
   14de8:	02 80 00 34 	be  14eb8 <do_printenv+0x16c>
   14dec:	01 00 00 00 	nop 
   14df0:	c2 07 bf f4 	ld  [ %fp + -12 ], %g1
   14df4:	d0 00 40 00 	ld  [ %g1 ], %o0
   14df8:	40 00 5d 65 	call  2c38c <strlen@plt>
   14dfc:	01 00 00 00 	nop 
   14e00:	82 10 00 08 	mov  %o0, %g1
   14e04:	84 10 00 01 	mov  %g1, %g2
   14e08:	c2 07 bf f0 	ld  [ %fp + -16 ], %g1
   14e0c:	80 a0 80 01 	cmp  %g2, %g1
   14e10:	08 80 00 25 	bleu  14ea4 <do_printenv+0x158>
   14e14:	01 00 00 00 	nop 
   14e18:	c2 07 bf f4 	ld  [ %fp + -12 ], %g1
   14e1c:	c4 00 40 00 	ld  [ %g1 ], %g2
   14e20:	c2 07 bf f0 	ld  [ %fp + -16 ], %g1
   14e24:	82 00 80 01 	add  %g2, %g1, %g1
   14e28:	c2 08 40 00 	ldub  [ %g1 ], %g1
   14e2c:	83 28 60 18 	sll  %g1, 0x18, %g1
   14e30:	83 38 60 18 	sra  %g1, 0x18, %g1
   14e34:	80 a0 60 3d 	cmp  %g1, 0x3d
   14e38:	12 80 00 1b 	bne  14ea4 <do_printenv+0x158>
   14e3c:	01 00 00 00 	nop 
   14e40:	84 10 20 04 	mov  4, %g2	! 4 <_init-0x11504>
   14e44:	c2 07 a0 48 	ld  [ %fp + 0x48 ], %g1
   14e48:	82 00 80 01 	add  %g2, %g1, %g1
   14e4c:	c4 07 bf f4 	ld  [ %fp + -12 ], %g2
   14e50:	d0 00 40 00 	ld  [ %g1 ], %o0
   14e54:	d2 00 80 00 	ld  [ %g2 ], %o1
   14e58:	d4 07 bf f0 	ld  [ %fp + -16 ], %o2
   14e5c:	40 00 5d 61 	call  2c3e0 <memcmp@plt>
   14e60:	01 00 00 00 	nop 
   14e64:	82 10 00 08 	mov  %o0, %g1
   14e68:	80 a0 60 00 	cmp  %g1, 0
   14e6c:	12 80 00 0e 	bne  14ea4 <do_printenv+0x158>
   14e70:	01 00 00 00 	nop 
   14e74:	c2 07 bf f4 	ld  [ %fp + -12 ], %g1
   14e78:	c4 00 40 00 	ld  [ %g1 ], %g2
   14e7c:	c2 07 bf f0 	ld  [ %fp + -16 ], %g1
   14e80:	82 00 80 01 	add  %g2, %g1, %g1
   14e84:	84 00 60 01 	add  %g1, 1, %g2
   14e88:	03 00 00 6a 	sethi  %hi(0x1a800), %g1
   14e8c:	90 10 60 00 	mov  %g1, %o0	! 1a800 <_IO_stdin_used+0x250>
   14e90:	92 10 00 02 	mov  %g2, %o1
   14e94:	40 00 5d c5 	call  2c5a8 <printf@plt>
   14e98:	01 00 00 00 	nop 
   14e9c:	10 80 00 07 	b  14eb8 <do_printenv+0x16c>
   14ea0:	01 00 00 00 	nop 
   14ea4:	c2 07 bf f4 	ld  [ %fp + -12 ], %g1
   14ea8:	82 00 60 04 	add  %g1, 4, %g1
   14eac:	c2 27 bf f4 	st  %g1, [ %fp + -12 ]
   14eb0:	10 bf ff cb 	b  14ddc <do_printenv+0x90>
   14eb4:	01 00 00 00 	nop 
   14eb8:	81 c7 e0 08 	ret 
   14ebc:	81 e8 00 00 	restore 

00014ec0 <do_umask>:
do_umask():
   14ec0:	9d e3 bf 90 	save  %sp, -112, %sp
   14ec4:	f0 27 a0 44 	st  %i0, [ %fp + 0x44 ]
   14ec8:	f2 27 a0 48 	st  %i1, [ %fp + 0x48 ]
   14ecc:	c2 07 a0 44 	ld  [ %fp + 0x44 ], %g1
   14ed0:	80 a0 60 01 	cmp  %g1, 1
   14ed4:	14 80 00 10 	bg  14f14 <do_umask+0x54>
   14ed8:	01 00 00 00 	nop 
   14edc:	90 10 20 00 	clr  %o0	! 0 <_init-0x11508>
   14ee0:	40 00 5c d7 	call  2c23c <umask@plt>
   14ee4:	01 00 00 00 	nop 
   14ee8:	d0 27 bf f0 	st  %o0, [ %fp + -16 ]
   14eec:	d0 07 bf f0 	ld  [ %fp + -16 ], %o0
   14ef0:	40 00 5c d3 	call  2c23c <umask@plt>
   14ef4:	01 00 00 00 	nop 
   14ef8:	03 00 00 6a 	sethi  %hi(0x1a800), %g1
   14efc:	90 10 62 c8 	or  %g1, 0x2c8, %o0	! 1aac8 <_IO_stdin_used+0x518>
   14f00:	d2 07 bf f0 	ld  [ %fp + -16 ], %o1
   14f04:	40 00 5d a9 	call  2c5a8 <printf@plt>
   14f08:	01 00 00 00 	nop 
   14f0c:	10 80 00 3f 	b  15008 <do_umask+0x148>
   14f10:	01 00 00 00 	nop 
   14f14:	c0 27 bf f0 	clr  [ %fp + -16 ]
   14f18:	84 10 20 04 	mov  4, %g2
   14f1c:	c2 07 a0 48 	ld  [ %fp + 0x48 ], %g1
   14f20:	82 00 80 01 	add  %g2, %g1, %g1
   14f24:	c2 00 40 00 	ld  [ %g1 ], %g1
   14f28:	c2 27 bf f4 	st  %g1, [ %fp + -12 ]
   14f2c:	c2 07 bf f4 	ld  [ %fp + -12 ], %g1
   14f30:	c2 08 40 00 	ldub  [ %g1 ], %g1
   14f34:	83 28 60 18 	sll  %g1, 0x18, %g1
   14f38:	83 38 60 18 	sra  %g1, 0x18, %g1
   14f3c:	80 a0 60 2f 	cmp  %g1, 0x2f
   14f40:	04 80 00 18 	ble  14fa0 <do_umask+0xe0>
   14f44:	01 00 00 00 	nop 
   14f48:	c2 07 bf f4 	ld  [ %fp + -12 ], %g1
   14f4c:	c2 08 40 00 	ldub  [ %g1 ], %g1
   14f50:	83 28 60 18 	sll  %g1, 0x18, %g1
   14f54:	83 38 60 18 	sra  %g1, 0x18, %g1
   14f58:	80 a0 60 37 	cmp  %g1, 0x37
   14f5c:	14 80 00 11 	bg  14fa0 <do_umask+0xe0>
   14f60:	01 00 00 00 	nop 
   14f64:	c2 07 bf f0 	ld  [ %fp + -16 ], %g1
   14f68:	87 28 60 03 	sll  %g1, 3, %g3
   14f6c:	88 07 bf f4 	add  %fp, -12, %g4
   14f70:	c4 01 00 00 	ld  [ %g4 ], %g2
   14f74:	82 10 00 02 	mov  %g2, %g1
   14f78:	c2 08 40 00 	ldub  [ %g1 ], %g1
   14f7c:	83 28 60 18 	sll  %g1, 0x18, %g1
   14f80:	83 38 60 18 	sra  %g1, 0x18, %g1
   14f84:	82 00 c0 01 	add  %g3, %g1, %g1
   14f88:	82 00 7f d0 	add  %g1, -48, %g1
   14f8c:	84 00 a0 01 	inc  %g2
   14f90:	c4 21 00 00 	st  %g2, [ %g4 ]
   14f94:	c2 27 bf f0 	st  %g1, [ %fp + -16 ]
   14f98:	10 bf ff e5 	b  14f2c <do_umask+0x6c>
   14f9c:	01 00 00 00 	nop 
   14fa0:	c2 07 bf f4 	ld  [ %fp + -12 ], %g1
   14fa4:	c2 08 40 00 	ldub  [ %g1 ], %g1
   14fa8:	83 28 60 18 	sll  %g1, 0x18, %g1
   14fac:	83 38 60 18 	sra  %g1, 0x18, %g1
   14fb0:	80 a0 60 00 	cmp  %g1, 0
   14fb4:	12 80 00 09 	bne  14fd8 <do_umask+0x118>
   14fb8:	01 00 00 00 	nop 
   14fbc:	c2 07 bf f0 	ld  [ %fp + -16 ], %g1
   14fc0:	82 08 7e 00 	and  %g1, -512, %g1
   14fc4:	80 a0 60 00 	cmp  %g1, 0
   14fc8:	12 80 00 04 	bne  14fd8 <do_umask+0x118>
   14fcc:	01 00 00 00 	nop 
   14fd0:	10 80 00 0b 	b  14ffc <do_umask+0x13c>
   14fd4:	01 00 00 00 	nop 
   14fd8:	03 00 00 b3 	sethi  %hi(0x2cc00), %g1
   14fdc:	82 10 62 40 	or  %g1, 0x240, %g1	! 2ce40 <stderr@@GLIBC_2.0>
   14fe0:	d0 00 40 00 	ld  [ %g1 ], %o0
   14fe4:	03 00 00 6a 	sethi  %hi(0x1a800), %g1
   14fe8:	92 10 62 d0 	or  %g1, 0x2d0, %o1	! 1aad0 <_IO_stdin_used+0x520>
   14fec:	40 00 5d 03 	call  2c3f8 <fprintf@plt>
   14ff0:	01 00 00 00 	nop 
   14ff4:	10 80 00 05 	b  15008 <do_umask+0x148>
   14ff8:	01 00 00 00 	nop 
   14ffc:	d0 07 bf f0 	ld  [ %fp + -16 ], %o0
   15000:	40 00 5c 8f 	call  2c23c <umask@plt>
   15004:	01 00 00 00 	nop 
   15008:	01 00 00 00 	nop 
   1500c:	81 c7 e0 08 	ret 
   15010:	81 e8 00 00 	restore 

00015014 <do_kill>:
do_kill():
   15014:	9d e3 bf 88 	save  %sp, -120, %sp
   15018:	f0 27 a0 44 	st  %i0, [ %fp + 0x44 ]
   1501c:	f2 27 a0 48 	st  %i1, [ %fp + 0x48 ]
   15020:	82 10 20 0f 	mov  0xf, %g1
   15024:	c2 27 bf f0 	st  %g1, [ %fp + -16 ]
   15028:	84 10 20 04 	mov  4, %g2
   1502c:	c2 07 a0 48 	ld  [ %fp + 0x48 ], %g1
   15030:	82 00 80 01 	add  %g2, %g1, %g1
   15034:	c2 00 40 00 	ld  [ %g1 ], %g1
   15038:	c2 08 40 00 	ldub  [ %g1 ], %g1
   1503c:	83 28 60 18 	sll  %g1, 0x18, %g1
   15040:	83 38 60 18 	sra  %g1, 0x18, %g1
   15044:	80 a0 60 2d 	cmp  %g1, 0x2d
   15048:	12 80 01 7b 	bne  15634 <do_kill+0x620>
   1504c:	01 00 00 00 	nop 
   15050:	84 10 20 04 	mov  4, %g2	! 4 <_init-0x11504>
   15054:	c2 07 a0 48 	ld  [ %fp + 0x48 ], %g1
   15058:	82 00 80 01 	add  %g2, %g1, %g1
   1505c:	c2 00 40 00 	ld  [ %g1 ], %g1
   15060:	82 00 60 01 	inc  %g1
   15064:	c2 27 bf f4 	st  %g1, [ %fp + -12 ]
   15068:	03 00 00 6a 	sethi  %hi(0x1a800), %g1
   1506c:	d0 07 bf f4 	ld  [ %fp + -12 ], %o0
   15070:	92 10 62 e8 	or  %g1, 0x2e8, %o1
   15074:	40 00 5c 60 	call  2c1f4 <strcmp@plt>
   15078:	01 00 00 00 	nop 
   1507c:	82 10 00 08 	mov  %o0, %g1
   15080:	80 a0 60 00 	cmp  %g1, 0
   15084:	12 80 00 06 	bne  1509c <do_kill+0x88>
   15088:	01 00 00 00 	nop 
   1508c:	82 10 20 01 	mov  1, %g1	! 1 <_init-0x11507>
   15090:	c2 27 bf f0 	st  %g1, [ %fp + -16 ]
   15094:	10 80 01 62 	b  1561c <do_kill+0x608>
   15098:	01 00 00 00 	nop 
   1509c:	03 00 00 6a 	sethi  %hi(0x1a800), %g1
   150a0:	d0 07 bf f4 	ld  [ %fp + -12 ], %o0
   150a4:	92 10 62 f0 	or  %g1, 0x2f0, %o1
   150a8:	40 00 5c 53 	call  2c1f4 <strcmp@plt>
   150ac:	01 00 00 00 	nop 
   150b0:	82 10 00 08 	mov  %o0, %g1
   150b4:	80 a0 60 00 	cmp  %g1, 0
   150b8:	12 80 00 06 	bne  150d0 <do_kill+0xbc>
   150bc:	01 00 00 00 	nop 
   150c0:	82 10 20 02 	mov  2, %g1	! 2 <_init-0x11506>
   150c4:	c2 27 bf f0 	st  %g1, [ %fp + -16 ]
   150c8:	10 80 01 55 	b  1561c <do_kill+0x608>
   150cc:	01 00 00 00 	nop 
   150d0:	03 00 00 6a 	sethi  %hi(0x1a800), %g1
   150d4:	d0 07 bf f4 	ld  [ %fp + -12 ], %o0
   150d8:	92 10 62 f8 	or  %g1, 0x2f8, %o1
   150dc:	40 00 5c 46 	call  2c1f4 <strcmp@plt>
   150e0:	01 00 00 00 	nop 
   150e4:	82 10 00 08 	mov  %o0, %g1
   150e8:	80 a0 60 00 	cmp  %g1, 0
   150ec:	12 80 00 06 	bne  15104 <do_kill+0xf0>
   150f0:	01 00 00 00 	nop 
   150f4:	82 10 20 03 	mov  3, %g1	! 3 <_init-0x11505>
   150f8:	c2 27 bf f0 	st  %g1, [ %fp + -16 ]
   150fc:	10 80 01 48 	b  1561c <do_kill+0x608>
   15100:	01 00 00 00 	nop 
   15104:	03 00 00 6a 	sethi  %hi(0x1a800), %g1
   15108:	d0 07 bf f4 	ld  [ %fp + -12 ], %o0
   1510c:	92 10 63 00 	or  %g1, 0x300, %o1
   15110:	40 00 5c 39 	call  2c1f4 <strcmp@plt>
   15114:	01 00 00 00 	nop 
   15118:	82 10 00 08 	mov  %o0, %g1
   1511c:	80 a0 60 00 	cmp  %g1, 0
   15120:	12 80 00 06 	bne  15138 <do_kill+0x124>
   15124:	01 00 00 00 	nop 
   15128:	82 10 20 04 	mov  4, %g1	! 4 <_init-0x11504>
   1512c:	c2 27 bf f0 	st  %g1, [ %fp + -16 ]
   15130:	10 80 01 3b 	b  1561c <do_kill+0x608>
   15134:	01 00 00 00 	nop 
   15138:	03 00 00 6a 	sethi  %hi(0x1a800), %g1
   1513c:	d0 07 bf f4 	ld  [ %fp + -12 ], %o0
   15140:	92 10 63 08 	or  %g1, 0x308, %o1
   15144:	40 00 5c 2c 	call  2c1f4 <strcmp@plt>
   15148:	01 00 00 00 	nop 
   1514c:	82 10 00 08 	mov  %o0, %g1
   15150:	80 a0 60 00 	cmp  %g1, 0
   15154:	12 80 00 06 	bne  1516c <do_kill+0x158>
   15158:	01 00 00 00 	nop 
   1515c:	82 10 20 05 	mov  5, %g1	! 5 <_init-0x11503>
   15160:	c2 27 bf f0 	st  %g1, [ %fp + -16 ]
   15164:	10 80 01 2e 	b  1561c <do_kill+0x608>
   15168:	01 00 00 00 	nop 
   1516c:	03 00 00 6a 	sethi  %hi(0x1a800), %g1
   15170:	d0 07 bf f4 	ld  [ %fp + -12 ], %o0
   15174:	92 10 63 10 	or  %g1, 0x310, %o1
   15178:	40 00 5c 1f 	call  2c1f4 <strcmp@plt>
   1517c:	01 00 00 00 	nop 
   15180:	82 10 00 08 	mov  %o0, %g1
   15184:	80 a0 60 00 	cmp  %g1, 0
   15188:	12 80 00 06 	bne  151a0 <do_kill+0x18c>
   1518c:	01 00 00 00 	nop 
   15190:	82 10 20 06 	mov  6, %g1	! 6 <_init-0x11502>
   15194:	c2 27 bf f0 	st  %g1, [ %fp + -16 ]
   15198:	10 80 01 21 	b  1561c <do_kill+0x608>
   1519c:	01 00 00 00 	nop 
   151a0:	03 00 00 6a 	sethi  %hi(0x1a800), %g1
   151a4:	d0 07 bf f4 	ld  [ %fp + -12 ], %o0
   151a8:	92 10 63 18 	or  %g1, 0x318, %o1
   151ac:	40 00 5c 12 	call  2c1f4 <strcmp@plt>
   151b0:	01 00 00 00 	nop 
   151b4:	82 10 00 08 	mov  %o0, %g1
   151b8:	80 a0 60 00 	cmp  %g1, 0
   151bc:	12 80 00 06 	bne  151d4 <do_kill+0x1c0>
   151c0:	01 00 00 00 	nop 
   151c4:	82 10 20 06 	mov  6, %g1	! 6 <_init-0x11502>
   151c8:	c2 27 bf f0 	st  %g1, [ %fp + -16 ]
   151cc:	10 80 01 14 	b  1561c <do_kill+0x608>
   151d0:	01 00 00 00 	nop 
   151d4:	03 00 00 6a 	sethi  %hi(0x1a800), %g1
   151d8:	d0 07 bf f4 	ld  [ %fp + -12 ], %o0
   151dc:	92 10 63 20 	or  %g1, 0x320, %o1
   151e0:	40 00 5c 05 	call  2c1f4 <strcmp@plt>
   151e4:	01 00 00 00 	nop 
   151e8:	82 10 00 08 	mov  %o0, %g1
   151ec:	80 a0 60 00 	cmp  %g1, 0
   151f0:	12 80 00 06 	bne  15208 <do_kill+0x1f4>
   151f4:	01 00 00 00 	nop 
   151f8:	82 10 20 0a 	mov  0xa, %g1	! a <_init-0x114fe>
   151fc:	c2 27 bf f0 	st  %g1, [ %fp + -16 ]
   15200:	10 80 01 07 	b  1561c <do_kill+0x608>
   15204:	01 00 00 00 	nop 
   15208:	03 00 00 6a 	sethi  %hi(0x1a800), %g1
   1520c:	d0 07 bf f4 	ld  [ %fp + -12 ], %o0
   15210:	92 10 63 28 	or  %g1, 0x328, %o1
   15214:	40 00 5b f8 	call  2c1f4 <strcmp@plt>
   15218:	01 00 00 00 	nop 
   1521c:	82 10 00 08 	mov  %o0, %g1
   15220:	80 a0 60 00 	cmp  %g1, 0
   15224:	12 80 00 06 	bne  1523c <do_kill+0x228>
   15228:	01 00 00 00 	nop 
   1522c:	82 10 20 08 	mov  8, %g1	! 8 <_init-0x11500>
   15230:	c2 27 bf f0 	st  %g1, [ %fp + -16 ]
   15234:	10 80 00 fa 	b  1561c <do_kill+0x608>
   15238:	01 00 00 00 	nop 
   1523c:	03 00 00 6a 	sethi  %hi(0x1a800), %g1
   15240:	d0 07 bf f4 	ld  [ %fp + -12 ], %o0
   15244:	92 10 63 30 	or  %g1, 0x330, %o1
   15248:	40 00 5b eb 	call  2c1f4 <strcmp@plt>
   1524c:	01 00 00 00 	nop 
   15250:	82 10 00 08 	mov  %o0, %g1
   15254:	80 a0 60 00 	cmp  %g1, 0
   15258:	12 80 00 06 	bne  15270 <do_kill+0x25c>
   1525c:	01 00 00 00 	nop 
   15260:	82 10 20 09 	mov  9, %g1	! 9 <_init-0x114ff>
   15264:	c2 27 bf f0 	st  %g1, [ %fp + -16 ]
   15268:	10 80 00 ed 	b  1561c <do_kill+0x608>
   1526c:	01 00 00 00 	nop 
   15270:	03 00 00 6a 	sethi  %hi(0x1a800), %g1
   15274:	d0 07 bf f4 	ld  [ %fp + -12 ], %o0
   15278:	92 10 63 38 	or  %g1, 0x338, %o1
   1527c:	40 00 5b de 	call  2c1f4 <strcmp@plt>
   15280:	01 00 00 00 	nop 
   15284:	82 10 00 08 	mov  %o0, %g1
   15288:	80 a0 60 00 	cmp  %g1, 0
   1528c:	12 80 00 06 	bne  152a4 <do_kill+0x290>
   15290:	01 00 00 00 	nop 
   15294:	82 10 20 1e 	mov  0x1e, %g1	! 1e <_init-0x114ea>
   15298:	c2 27 bf f0 	st  %g1, [ %fp + -16 ]
   1529c:	10 80 00 e0 	b  1561c <do_kill+0x608>
   152a0:	01 00 00 00 	nop 
   152a4:	03 00 00 6a 	sethi  %hi(0x1a800), %g1
   152a8:	d0 07 bf f4 	ld  [ %fp + -12 ], %o0
   152ac:	92 10 63 40 	or  %g1, 0x340, %o1
   152b0:	40 00 5b d1 	call  2c1f4 <strcmp@plt>
   152b4:	01 00 00 00 	nop 
   152b8:	82 10 00 08 	mov  %o0, %g1
   152bc:	80 a0 60 00 	cmp  %g1, 0
   152c0:	12 80 00 06 	bne  152d8 <do_kill+0x2c4>
   152c4:	01 00 00 00 	nop 
   152c8:	82 10 20 0b 	mov  0xb, %g1	! b <_init-0x114fd>
   152cc:	c2 27 bf f0 	st  %g1, [ %fp + -16 ]
   152d0:	10 80 00 d3 	b  1561c <do_kill+0x608>
   152d4:	01 00 00 00 	nop 
   152d8:	03 00 00 6a 	sethi  %hi(0x1a800), %g1
   152dc:	d0 07 bf f4 	ld  [ %fp + -12 ], %o0
   152e0:	92 10 63 48 	or  %g1, 0x348, %o1
   152e4:	40 00 5b c4 	call  2c1f4 <strcmp@plt>
   152e8:	01 00 00 00 	nop 
   152ec:	82 10 00 08 	mov  %o0, %g1
   152f0:	80 a0 60 00 	cmp  %g1, 0
   152f4:	12 80 00 06 	bne  1530c <do_kill+0x2f8>
   152f8:	01 00 00 00 	nop 
   152fc:	82 10 20 1f 	mov  0x1f, %g1	! 1f <_init-0x114e9>
   15300:	c2 27 bf f0 	st  %g1, [ %fp + -16 ]
   15304:	10 80 00 c6 	b  1561c <do_kill+0x608>
   15308:	01 00 00 00 	nop 
   1530c:	03 00 00 6a 	sethi  %hi(0x1a800), %g1
   15310:	d0 07 bf f4 	ld  [ %fp + -12 ], %o0
   15314:	92 10 63 50 	or  %g1, 0x350, %o1
   15318:	40 00 5b b7 	call  2c1f4 <strcmp@plt>
   1531c:	01 00 00 00 	nop 
   15320:	82 10 00 08 	mov  %o0, %g1
   15324:	80 a0 60 00 	cmp  %g1, 0
   15328:	12 80 00 06 	bne  15340 <do_kill+0x32c>
   1532c:	01 00 00 00 	nop 
   15330:	82 10 20 0d 	mov  0xd, %g1	! d <_init-0x114fb>
   15334:	c2 27 bf f0 	st  %g1, [ %fp + -16 ]
   15338:	10 80 00 b9 	b  1561c <do_kill+0x608>
   1533c:	01 00 00 00 	nop 
   15340:	03 00 00 6a 	sethi  %hi(0x1a800), %g1
   15344:	d0 07 bf f4 	ld  [ %fp + -12 ], %o0
   15348:	92 10 63 58 	or  %g1, 0x358, %o1
   1534c:	40 00 5b aa 	call  2c1f4 <strcmp@plt>
   15350:	01 00 00 00 	nop 
   15354:	82 10 00 08 	mov  %o0, %g1
   15358:	80 a0 60 00 	cmp  %g1, 0
   1535c:	12 80 00 06 	bne  15374 <do_kill+0x360>
   15360:	01 00 00 00 	nop 
   15364:	82 10 20 0e 	mov  0xe, %g1	! e <_init-0x114fa>
   15368:	c2 27 bf f0 	st  %g1, [ %fp + -16 ]
   1536c:	10 80 00 ac 	b  1561c <do_kill+0x608>
   15370:	01 00 00 00 	nop 
   15374:	03 00 00 6a 	sethi  %hi(0x1a800), %g1
   15378:	d0 07 bf f4 	ld  [ %fp + -12 ], %o0
   1537c:	92 10 63 60 	or  %g1, 0x360, %o1
   15380:	40 00 5b 9d 	call  2c1f4 <strcmp@plt>
   15384:	01 00 00 00 	nop 
   15388:	82 10 00 08 	mov  %o0, %g1
   1538c:	80 a0 60 00 	cmp  %g1, 0
   15390:	12 80 00 06 	bne  153a8 <do_kill+0x394>
   15394:	01 00 00 00 	nop 
   15398:	82 10 20 0f 	mov  0xf, %g1	! f <_init-0x114f9>
   1539c:	c2 27 bf f0 	st  %g1, [ %fp + -16 ]
   153a0:	10 80 00 9f 	b  1561c <do_kill+0x608>
   153a4:	01 00 00 00 	nop 
   153a8:	03 00 00 6a 	sethi  %hi(0x1a800), %g1
   153ac:	d0 07 bf f4 	ld  [ %fp + -12 ], %o0
   153b0:	92 10 63 68 	or  %g1, 0x368, %o1
   153b4:	40 00 5b 90 	call  2c1f4 <strcmp@plt>
   153b8:	01 00 00 00 	nop 
   153bc:	82 10 00 08 	mov  %o0, %g1
   153c0:	80 a0 60 00 	cmp  %g1, 0
   153c4:	12 80 00 06 	bne  153dc <do_kill+0x3c8>
   153c8:	01 00 00 00 	nop 
   153cc:	82 10 20 14 	mov  0x14, %g1	! 14 <_init-0x114f4>
   153d0:	c2 27 bf f0 	st  %g1, [ %fp + -16 ]
   153d4:	10 80 00 92 	b  1561c <do_kill+0x608>
   153d8:	01 00 00 00 	nop 
   153dc:	03 00 00 6a 	sethi  %hi(0x1a800), %g1
   153e0:	d0 07 bf f4 	ld  [ %fp + -12 ], %o0
   153e4:	92 10 63 70 	or  %g1, 0x370, %o1
   153e8:	40 00 5b 83 	call  2c1f4 <strcmp@plt>
   153ec:	01 00 00 00 	nop 
   153f0:	82 10 00 08 	mov  %o0, %g1
   153f4:	80 a0 60 00 	cmp  %g1, 0
   153f8:	12 80 00 06 	bne  15410 <do_kill+0x3fc>
   153fc:	01 00 00 00 	nop 
   15400:	82 10 20 13 	mov  0x13, %g1	! 13 <_init-0x114f5>
   15404:	c2 27 bf f0 	st  %g1, [ %fp + -16 ]
   15408:	10 80 00 85 	b  1561c <do_kill+0x608>
   1540c:	01 00 00 00 	nop 
   15410:	03 00 00 6a 	sethi  %hi(0x1a800), %g1
   15414:	d0 07 bf f4 	ld  [ %fp + -12 ], %o0
   15418:	92 10 63 78 	or  %g1, 0x378, %o1
   1541c:	40 00 5b 76 	call  2c1f4 <strcmp@plt>
   15420:	01 00 00 00 	nop 
   15424:	82 10 00 08 	mov  %o0, %g1
   15428:	80 a0 60 00 	cmp  %g1, 0
   1542c:	12 80 00 06 	bne  15444 <do_kill+0x430>
   15430:	01 00 00 00 	nop 
   15434:	82 10 20 11 	mov  0x11, %g1	! 11 <_init-0x114f7>
   15438:	c2 27 bf f0 	st  %g1, [ %fp + -16 ]
   1543c:	10 80 00 78 	b  1561c <do_kill+0x608>
   15440:	01 00 00 00 	nop 
   15444:	03 00 00 6a 	sethi  %hi(0x1a800), %g1
   15448:	d0 07 bf f4 	ld  [ %fp + -12 ], %o0
   1544c:	92 10 63 80 	or  %g1, 0x380, %o1
   15450:	40 00 5b 69 	call  2c1f4 <strcmp@plt>
   15454:	01 00 00 00 	nop 
   15458:	82 10 00 08 	mov  %o0, %g1
   1545c:	80 a0 60 00 	cmp  %g1, 0
   15460:	12 80 00 06 	bne  15478 <do_kill+0x464>
   15464:	01 00 00 00 	nop 
   15468:	82 10 20 12 	mov  0x12, %g1	! 12 <_init-0x114f6>
   1546c:	c2 27 bf f0 	st  %g1, [ %fp + -16 ]
   15470:	10 80 00 6b 	b  1561c <do_kill+0x608>
   15474:	01 00 00 00 	nop 
   15478:	03 00 00 6a 	sethi  %hi(0x1a800), %g1
   1547c:	d0 07 bf f4 	ld  [ %fp + -12 ], %o0
   15480:	92 10 63 88 	or  %g1, 0x388, %o1
   15484:	40 00 5b 5c 	call  2c1f4 <strcmp@plt>
   15488:	01 00 00 00 	nop 
   1548c:	82 10 00 08 	mov  %o0, %g1
   15490:	80 a0 60 00 	cmp  %g1, 0
   15494:	12 80 00 06 	bne  154ac <do_kill+0x498>
   15498:	01 00 00 00 	nop 
   1549c:	82 10 20 15 	mov  0x15, %g1	! 15 <_init-0x114f3>
   154a0:	c2 27 bf f0 	st  %g1, [ %fp + -16 ]
   154a4:	10 80 00 5e 	b  1561c <do_kill+0x608>
   154a8:	01 00 00 00 	nop 
   154ac:	03 00 00 6a 	sethi  %hi(0x1a800), %g1
   154b0:	d0 07 bf f4 	ld  [ %fp + -12 ], %o0
   154b4:	92 10 63 90 	or  %g1, 0x390, %o1
   154b8:	40 00 5b 4f 	call  2c1f4 <strcmp@plt>
   154bc:	01 00 00 00 	nop 
   154c0:	82 10 00 08 	mov  %o0, %g1
   154c4:	80 a0 60 00 	cmp  %g1, 0
   154c8:	12 80 00 06 	bne  154e0 <do_kill+0x4cc>
   154cc:	01 00 00 00 	nop 
   154d0:	82 10 20 16 	mov  0x16, %g1	! 16 <_init-0x114f2>
   154d4:	c2 27 bf f0 	st  %g1, [ %fp + -16 ]
   154d8:	10 80 00 51 	b  1561c <do_kill+0x608>
   154dc:	01 00 00 00 	nop 
   154e0:	03 00 00 6a 	sethi  %hi(0x1a800), %g1
   154e4:	d0 07 bf f4 	ld  [ %fp + -12 ], %o0
   154e8:	92 10 63 98 	or  %g1, 0x398, %o1
   154ec:	40 00 5b 42 	call  2c1f4 <strcmp@plt>
   154f0:	01 00 00 00 	nop 
   154f4:	82 10 00 08 	mov  %o0, %g1
   154f8:	80 a0 60 00 	cmp  %g1, 0
   154fc:	12 80 00 06 	bne  15514 <do_kill+0x500>
   15500:	01 00 00 00 	nop 
   15504:	82 10 20 10 	mov  0x10, %g1	! 10 <_init-0x114f8>
   15508:	c2 27 bf f0 	st  %g1, [ %fp + -16 ]
   1550c:	10 80 00 44 	b  1561c <do_kill+0x608>
   15510:	01 00 00 00 	nop 
   15514:	03 00 00 6a 	sethi  %hi(0x1a800), %g1
   15518:	d0 07 bf f4 	ld  [ %fp + -12 ], %o0
   1551c:	92 10 63 a0 	or  %g1, 0x3a0, %o1
   15520:	40 00 5b 35 	call  2c1f4 <strcmp@plt>
   15524:	01 00 00 00 	nop 
   15528:	82 10 00 08 	mov  %o0, %g1
   1552c:	80 a0 60 00 	cmp  %g1, 0
   15530:	12 80 00 06 	bne  15548 <do_kill+0x534>
   15534:	01 00 00 00 	nop 
   15538:	82 10 20 1d 	mov  0x1d, %g1	! 1d <_init-0x114eb>
   1553c:	c2 27 bf f0 	st  %g1, [ %fp + -16 ]
   15540:	10 80 00 37 	b  1561c <do_kill+0x608>
   15544:	01 00 00 00 	nop 
   15548:	c0 27 bf f0 	clr  [ %fp + -16 ]
   1554c:	c2 07 bf f4 	ld  [ %fp + -12 ], %g1
   15550:	c2 08 40 00 	ldub  [ %g1 ], %g1
   15554:	83 28 60 18 	sll  %g1, 0x18, %g1
   15558:	83 38 60 18 	sra  %g1, 0x18, %g1
   1555c:	80 a0 60 2f 	cmp  %g1, 0x2f
   15560:	04 80 00 1b 	ble  155cc <do_kill+0x5b8>
   15564:	01 00 00 00 	nop 
   15568:	c2 07 bf f4 	ld  [ %fp + -12 ], %g1
   1556c:	c2 08 40 00 	ldub  [ %g1 ], %g1
   15570:	83 28 60 18 	sll  %g1, 0x18, %g1
   15574:	83 38 60 18 	sra  %g1, 0x18, %g1
   15578:	80 a0 60 39 	cmp  %g1, 0x39
   1557c:	14 80 00 14 	bg  155cc <do_kill+0x5b8>
   15580:	01 00 00 00 	nop 
   15584:	c4 07 bf f0 	ld  [ %fp + -16 ], %g2
   15588:	82 10 00 02 	mov  %g2, %g1
   1558c:	83 28 60 02 	sll  %g1, 2, %g1
   15590:	82 00 40 02 	add  %g1, %g2, %g1
   15594:	86 00 40 01 	add  %g1, %g1, %g3
   15598:	88 07 bf f4 	add  %fp, -12, %g4
   1559c:	c4 01 00 00 	ld  [ %g4 ], %g2
   155a0:	82 10 00 02 	mov  %g2, %g1
   155a4:	c2 08 40 00 	ldub  [ %g1 ], %g1
   155a8:	83 28 60 18 	sll  %g1, 0x18, %g1
   155ac:	83 38 60 18 	sra  %g1, 0x18, %g1
   155b0:	82 00 c0 01 	add  %g3, %g1, %g1
   155b4:	82 00 7f d0 	add  %g1, -48, %g1
   155b8:	84 00 a0 01 	inc  %g2
   155bc:	c4 21 00 00 	st  %g2, [ %g4 ]
   155c0:	c2 27 bf f0 	st  %g1, [ %fp + -16 ]
   155c4:	10 bf ff e2 	b  1554c <do_kill+0x538>
   155c8:	01 00 00 00 	nop 
   155cc:	c2 07 bf f4 	ld  [ %fp + -12 ], %g1
   155d0:	c2 08 40 00 	ldub  [ %g1 ], %g1
   155d4:	83 28 60 18 	sll  %g1, 0x18, %g1
   155d8:	83 38 60 18 	sra  %g1, 0x18, %g1
   155dc:	80 a0 60 00 	cmp  %g1, 0
   155e0:	02 80 00 0f 	be  1561c <do_kill+0x608>
   155e4:	01 00 00 00 	nop 
   155e8:	03 00 00 b3 	sethi  %hi(0x2cc00), %g1
   155ec:	82 10 62 40 	or  %g1, 0x240, %g1	! 2ce40 <stderr@@GLIBC_2.0>
   155f0:	d0 00 40 00 	ld  [ %g1 ], %o0
   155f4:	03 00 00 6a 	sethi  %hi(0x1a800), %g1
   155f8:	92 10 63 a8 	or  %g1, 0x3a8, %o1	! 1aba8 <_IO_stdin_used+0x5f8>
   155fc:	40 00 5b 7f 	call  2c3f8 <fprintf@plt>
   15600:	01 00 00 00 	nop 
   15604:	03 00 00 b3 	sethi  %hi(0x2cc00), %g1
   15608:	84 10 62 50 	or  %g1, 0x250, %g2	! 2ce50 <exit_code>
   1560c:	82 10 20 01 	mov  1, %g1
   15610:	c2 20 80 00 	st  %g1, [ %g2 ]
   15614:	10 80 00 5b 	b  15780 <do_kill+0x76c>
   15618:	01 00 00 00 	nop 
   1561c:	c2 07 a0 44 	ld  [ %fp + 0x44 ], %g1
   15620:	82 00 7f ff 	add  %g1, -1, %g1
   15624:	c2 27 a0 44 	st  %g1, [ %fp + 0x44 ]
   15628:	c2 07 a0 48 	ld  [ %fp + 0x48 ], %g1
   1562c:	82 00 60 04 	add  %g1, 4, %g1
   15630:	c2 27 a0 48 	st  %g1, [ %fp + 0x48 ]
   15634:	c2 07 a0 44 	ld  [ %fp + 0x44 ], %g1
   15638:	84 10 00 01 	mov  %g1, %g2
   1563c:	82 00 7f ff 	add  %g1, -1, %g1
   15640:	c2 27 a0 44 	st  %g1, [ %fp + 0x44 ]
   15644:	80 a0 a0 01 	cmp  %g2, 1
   15648:	04 80 00 4e 	ble  15780 <do_kill+0x76c>
   1564c:	01 00 00 00 	nop 
   15650:	c2 07 a0 48 	ld  [ %fp + 0x48 ], %g1
   15654:	82 00 60 04 	add  %g1, 4, %g1
   15658:	c2 27 a0 48 	st  %g1, [ %fp + 0x48 ]
   1565c:	c2 00 40 00 	ld  [ %g1 ], %g1
   15660:	c2 27 bf f4 	st  %g1, [ %fp + -12 ]
   15664:	c0 27 bf ec 	clr  [ %fp + -20 ]
   15668:	c2 07 bf f4 	ld  [ %fp + -12 ], %g1
   1566c:	c2 08 40 00 	ldub  [ %g1 ], %g1
   15670:	83 28 60 18 	sll  %g1, 0x18, %g1
   15674:	83 38 60 18 	sra  %g1, 0x18, %g1
   15678:	80 a0 60 2f 	cmp  %g1, 0x2f
   1567c:	04 80 00 1b 	ble  156e8 <do_kill+0x6d4>
   15680:	01 00 00 00 	nop 
   15684:	c2 07 bf f4 	ld  [ %fp + -12 ], %g1
   15688:	c2 08 40 00 	ldub  [ %g1 ], %g1
   1568c:	83 28 60 18 	sll  %g1, 0x18, %g1
   15690:	83 38 60 18 	sra  %g1, 0x18, %g1
   15694:	80 a0 60 39 	cmp  %g1, 0x39
   15698:	14 80 00 14 	bg  156e8 <do_kill+0x6d4>
   1569c:	01 00 00 00 	nop 
   156a0:	c4 07 bf ec 	ld  [ %fp + -20 ], %g2
   156a4:	82 10 00 02 	mov  %g2, %g1
   156a8:	83 28 60 02 	sll  %g1, 2, %g1
   156ac:	82 00 40 02 	add  %g1, %g2, %g1
   156b0:	86 00 40 01 	add  %g1, %g1, %g3
   156b4:	88 07 bf f4 	add  %fp, -12, %g4
   156b8:	c4 01 00 00 	ld  [ %g4 ], %g2
   156bc:	82 10 00 02 	mov  %g2, %g1
   156c0:	c2 08 40 00 	ldub  [ %g1 ], %g1
   156c4:	83 28 60 18 	sll  %g1, 0x18, %g1
   156c8:	83 38 60 18 	sra  %g1, 0x18, %g1
   156cc:	82 00 c0 01 	add  %g3, %g1, %g1
   156d0:	82 00 7f d0 	add  %g1, -48, %g1
   156d4:	84 00 a0 01 	inc  %g2
   156d8:	c4 21 00 00 	st  %g2, [ %g4 ]
   156dc:	c2 27 bf ec 	st  %g1, [ %fp + -20 ]
   156e0:	10 bf ff e2 	b  15668 <do_kill+0x654>
   156e4:	01 00 00 00 	nop 
   156e8:	c2 07 bf f4 	ld  [ %fp + -12 ], %g1
   156ec:	c2 08 40 00 	ldub  [ %g1 ], %g1
   156f0:	83 28 60 18 	sll  %g1, 0x18, %g1
   156f4:	83 38 60 18 	sra  %g1, 0x18, %g1
   156f8:	80 a0 60 00 	cmp  %g1, 0
   156fc:	02 80 00 0f 	be  15738 <do_kill+0x724>
   15700:	01 00 00 00 	nop 
   15704:	03 00 00 b3 	sethi  %hi(0x2cc00), %g1
   15708:	82 10 62 40 	or  %g1, 0x240, %g1	! 2ce40 <stderr@@GLIBC_2.0>
   1570c:	d0 00 40 00 	ld  [ %g1 ], %o0
   15710:	03 00 00 6a 	sethi  %hi(0x1a800), %g1
   15714:	92 10 63 b8 	or  %g1, 0x3b8, %o1	! 1abb8 <_IO_stdin_used+0x608>
   15718:	40 00 5b 38 	call  2c3f8 <fprintf@plt>
   1571c:	01 00 00 00 	nop 
   15720:	03 00 00 b3 	sethi  %hi(0x2cc00), %g1
   15724:	84 10 62 50 	or  %g1, 0x250, %g2	! 2ce50 <exit_code>
   15728:	82 10 20 01 	mov  1, %g1
   1572c:	c2 20 80 00 	st  %g1, [ %g2 ]
   15730:	10 80 00 14 	b  15780 <do_kill+0x76c>
   15734:	01 00 00 00 	nop 
   15738:	d0 07 bf ec 	ld  [ %fp + -20 ], %o0
   1573c:	d2 07 bf f0 	ld  [ %fp + -16 ], %o1
   15740:	40 00 5b 8e 	call  2c578 <kill@plt>
   15744:	01 00 00 00 	nop 
   15748:	82 10 00 08 	mov  %o0, %g1
   1574c:	80 a0 60 00 	cmp  %g1, 0
   15750:	16 bf ff b9 	bge  15634 <do_kill+0x620>
   15754:	01 00 00 00 	nop 
   15758:	c2 07 a0 48 	ld  [ %fp + 0x48 ], %g1
   1575c:	d0 00 40 00 	ld  [ %g1 ], %o0
   15760:	40 00 5a b1 	call  2c224 <perror@plt>
   15764:	01 00 00 00 	nop 
   15768:	03 00 00 b3 	sethi  %hi(0x2cc00), %g1
   1576c:	84 10 62 50 	or  %g1, 0x250, %g2	! 2ce50 <exit_code>
   15770:	82 10 20 01 	mov  1, %g1
   15774:	c2 20 80 00 	st  %g1, [ %g2 ]
   15778:	10 bf ff af 	b  15634 <do_kill+0x620>
   1577c:	01 00 00 00 	nop 
   15780:	81 c7 e0 08 	ret 
   15784:	81 e8 00 00 	restore 

00015788 <do_cat>:
do_cat():
   15788:	9d e3 be 88 	save  %sp, -376, %sp
   1578c:	f0 27 a0 44 	st  %i0, [ %fp + 0x44 ]
   15790:	f2 27 a0 48 	st  %i1, [ %fp + 0x48 ]
   15794:	c2 07 a0 44 	ld  [ %fp + 0x44 ], %g1
   15798:	84 10 00 01 	mov  %g1, %g2
   1579c:	82 00 7f ff 	add  %g1, -1, %g1
   157a0:	c2 27 a0 44 	st  %g1, [ %fp + 0x44 ]
   157a4:	80 a0 a0 01 	cmp  %g2, 1
   157a8:	04 80 00 47 	ble  158c4 <do_cat+0x13c>
   157ac:	01 00 00 00 	nop 
   157b0:	03 00 00 b5 	sethi  %hi(0x2d400), %g1
   157b4:	82 10 62 48 	or  %g1, 0x248, %g1	! 2d648 <intflag>
   157b8:	c2 00 40 00 	ld  [ %g1 ], %g1
   157bc:	80 a0 60 00 	cmp  %g1, 0
   157c0:	02 80 00 07 	be  157dc <do_cat+0x54>
   157c4:	01 00 00 00 	nop 
   157c8:	d0 07 bf f4 	ld  [ %fp + -12 ], %o0
   157cc:	40 00 5b 23 	call  2c458 <fclose@plt>
   157d0:	01 00 00 00 	nop 
   157d4:	10 80 00 3c 	b  158c4 <do_cat+0x13c>
   157d8:	01 00 00 00 	nop 
   157dc:	c2 07 a0 48 	ld  [ %fp + 0x48 ], %g1
   157e0:	82 00 60 04 	add  %g1, 4, %g1
   157e4:	c2 27 a0 48 	st  %g1, [ %fp + 0x48 ]
   157e8:	c2 00 40 00 	ld  [ %g1 ], %g1
   157ec:	c2 27 bf f0 	st  %g1, [ %fp + -16 ]
   157f0:	d0 07 bf f0 	ld  [ %fp + -16 ], %o0
   157f4:	03 00 00 6a 	sethi  %hi(0x1a800), %g1
   157f8:	92 10 63 d0 	or  %g1, 0x3d0, %o1	! 1abd0 <_IO_stdin_used+0x620>
   157fc:	40 00 5b 5c 	call  2c56c <fopen@plt>
   15800:	01 00 00 00 	nop 
   15804:	82 10 00 08 	mov  %o0, %g1
   15808:	c2 27 bf f4 	st  %g1, [ %fp + -12 ]
   1580c:	c2 07 bf f4 	ld  [ %fp + -12 ], %g1
   15810:	80 a0 60 00 	cmp  %g1, 0
   15814:	12 80 00 07 	bne  15830 <do_cat+0xa8>
   15818:	01 00 00 00 	nop 
   1581c:	d0 07 bf f0 	ld  [ %fp + -16 ], %o0
   15820:	40 00 5a 81 	call  2c224 <perror@plt>
   15824:	01 00 00 00 	nop 
   15828:	10 80 00 27 	b  158c4 <do_cat+0x13c>
   1582c:	01 00 00 00 	nop 
   15830:	c2 07 bf f4 	ld  [ %fp + -12 ], %g1
   15834:	80 a0 60 00 	cmp  %g1, 0
   15838:	02 80 00 1a 	be  158a0 <do_cat+0x118>
   1583c:	01 00 00 00 	nop 
   15840:	82 07 be e8 	add  %fp, -280, %g1
   15844:	90 10 00 01 	mov  %g1, %o0
   15848:	92 10 20 01 	mov  1, %o1
   1584c:	94 10 21 00 	mov  0x100, %o2
   15850:	d6 07 bf f4 	ld  [ %fp + -12 ], %o3
   15854:	40 00 5a aa 	call  2c2fc <fread@plt>
   15858:	01 00 00 00 	nop 
   1585c:	82 10 00 08 	mov  %o0, %g1
   15860:	c2 27 bf ec 	st  %g1, [ %fp + -20 ]
   15864:	c2 07 bf ec 	ld  [ %fp + -20 ], %g1
   15868:	80 a0 60 00 	cmp  %g1, 0
   1586c:	02 80 00 0d 	be  158a0 <do_cat+0x118>
   15870:	01 00 00 00 	nop 
   15874:	82 07 be e8 	add  %fp, -280, %g1
   15878:	05 00 00 b3 	sethi  %hi(0x2cc00), %g2
   1587c:	84 10 a2 3c 	or  %g2, 0x23c, %g2	! 2ce3c <stdout@@GLIBC_2.0>
   15880:	90 10 00 01 	mov  %g1, %o0
   15884:	92 10 20 01 	mov  1, %o1
   15888:	d4 07 bf ec 	ld  [ %fp + -20 ], %o2
   1588c:	d6 00 80 00 	ld  [ %g2 ], %o3
   15890:	40 00 5b 3d 	call  2c584 <fwrite@plt>
   15894:	01 00 00 00 	nop 
   15898:	10 bf ff e6 	b  15830 <do_cat+0xa8>
   1589c:	01 00 00 00 	nop 
   158a0:	c2 07 bf f4 	ld  [ %fp + -12 ], %g1
   158a4:	80 a0 60 00 	cmp  %g1, 0
   158a8:	02 bf ff bb 	be  15794 <do_cat+0xc>
   158ac:	01 00 00 00 	nop 
   158b0:	d0 07 bf f4 	ld  [ %fp + -12 ], %o0
   158b4:	40 00 5a e9 	call  2c458 <fclose@plt>
   158b8:	01 00 00 00 	nop 
   158bc:	10 bf ff b6 	b  15794 <do_cat+0xc>
   158c0:	01 00 00 00 	nop 
   158c4:	81 c7 e0 08 	ret 
   158c8:	81 e8 00 00 	restore 
   158cc:	00 01 5b 2c 	unimp  0x15b2c
   158d0:	00 01 5b 40 	unimp  0x15b40
   158d4:	00 01 5b 40 	unimp  0x15b40
   158d8:	00 01 5b 40 	unimp  0x15b40
   158dc:	00 01 5b 40 	unimp  0x15b40
   158e0:	00 01 5b 40 	unimp  0x15b40
   158e4:	00 01 5b 40 	unimp  0x15b40
   158e8:	00 01 5b 40 	unimp  0x15b40
   158ec:	00 01 5b 40 	unimp  0x15b40
   158f0:	00 01 5b 40 	unimp  0x15b40
   158f4:	00 01 5b 40 	unimp  0x15b40
   158f8:	00 01 5b 40 	unimp  0x15b40
   158fc:	00 01 5b 40 	unimp  0x15b40
   15900:	00 01 5b 40 	unimp  0x15b40
   15904:	00 01 5b 40 	unimp  0x15b40
   15908:	00 01 5b 40 	unimp  0x15b40
   1590c:	00 01 5b 40 	unimp  0x15b40
   15910:	00 01 5b 40 	unimp  0x15b40
   15914:	00 01 5b 40 	unimp  0x15b40
   15918:	00 01 5b 40 	unimp  0x15b40
   1591c:	00 01 5b 40 	unimp  0x15b40
   15920:	00 01 5b 40 	unimp  0x15b40
   15924:	00 01 5b 40 	unimp  0x15b40
   15928:	00 01 5b 40 	unimp  0x15b40
   1592c:	00 01 5b 40 	unimp  0x15b40
   15930:	00 01 5b 40 	unimp  0x15b40
   15934:	00 01 5b 40 	unimp  0x15b40
   15938:	00 01 5b 40 	unimp  0x15b40
   1593c:	00 01 5b 40 	unimp  0x15b40
   15940:	00 01 5b 40 	unimp  0x15b40
   15944:	00 01 5b 18 	unimp  0x15b18
   15948:	00 01 5b 40 	unimp  0x15b40
   1594c:	00 01 5b 40 	unimp  0x15b40
   15950:	00 01 5a f0 	unimp  0x15af0
   15954:	00 01 5b 40 	unimp  0x15b40
   15958:	00 01 5b 40 	unimp  0x15b40
   1595c:	00 01 5b 40 	unimp  0x15b40
   15960:	00 01 5b 40 	unimp  0x15b40
   15964:	00 01 5b 04 	unimp  0x15b04
   15968:	00 01 5b 40 	unimp  0x15b40
   1596c:	00 01 5b 40 	unimp  0x15b40
   15970:	00 01 5a dc 	unimp  0x15adc

00015974 <do_ls>:
do_ls():
   15974:	9d e3 be 18 	save  %sp, -488, %sp
   15978:	f0 27 a0 44 	st  %i0, [ %fp + 0x44 ]
   1597c:	f2 27 a0 48 	st  %i1, [ %fp + 0x48 ]
   15980:	03 00 00 b3 	sethi  %hi(0x2cc00), %g1
   15984:	82 10 63 d0 	or  %g1, 0x3d0, %g1	! 2cfd0 <listsize>
   15988:	c2 00 40 00 	ld  [ %g1 ], %g1
   1598c:	80 a0 60 00 	cmp  %g1, 0
   15990:	12 80 00 1c 	bne  15a00 <do_ls+0x8c>
   15994:	01 00 00 00 	nop 
   15998:	03 00 00 b3 	sethi  %hi(0x2cc00), %g1
   1599c:	a0 10 63 cc 	or  %g1, 0x3cc, %l0	! 2cfcc <list>
   159a0:	90 10 24 00 	mov  0x400, %o0
   159a4:	40 00 5a 50 	call  2c2e4 <malloc@plt>
   159a8:	01 00 00 00 	nop 
   159ac:	82 10 00 08 	mov  %o0, %g1
   159b0:	c2 24 00 00 	st  %g1, [ %l0 ]
   159b4:	03 00 00 b3 	sethi  %hi(0x2cc00), %g1
   159b8:	82 10 63 cc 	or  %g1, 0x3cc, %g1	! 2cfcc <list>
   159bc:	c2 00 40 00 	ld  [ %g1 ], %g1
   159c0:	80 a0 60 00 	cmp  %g1, 0
   159c4:	12 80 00 0b 	bne  159f0 <do_ls+0x7c>
   159c8:	01 00 00 00 	nop 
   159cc:	03 00 00 b3 	sethi  %hi(0x2cc00), %g1
   159d0:	82 10 62 40 	or  %g1, 0x240, %g1	! 2ce40 <stderr@@GLIBC_2.0>
   159d4:	d0 00 40 00 	ld  [ %g1 ], %o0
   159d8:	03 00 00 6a 	sethi  %hi(0x1a800), %g1
   159dc:	92 10 63 d8 	or  %g1, 0x3d8, %o1	! 1abd8 <_IO_stdin_used+0x628>
   159e0:	40 00 5a 86 	call  2c3f8 <fprintf@plt>
   159e4:	01 00 00 00 	nop 
   159e8:	10 80 01 f7 	b  161c4 <do_ls+0x850>
   159ec:	01 00 00 00 	nop 
   159f0:	03 00 00 b3 	sethi  %hi(0x2cc00), %g1
   159f4:	84 10 63 d0 	or  %g1, 0x3d0, %g2	! 2cfd0 <listsize>
   159f8:	82 10 21 00 	mov  0x100, %g1
   159fc:	c2 20 80 00 	st  %g1, [ %g2 ]
   15a00:	03 00 00 b3 	sethi  %hi(0x2cc00), %g1
   15a04:	82 10 63 d4 	or  %g1, 0x3d4, %g1	! 2cfd4 <listused>
   15a08:	c0 20 40 00 	clr  [ %g1 ]
   15a0c:	c0 27 bf ec 	clr  [ %fp + -20 ]
   15a10:	c2 07 a0 44 	ld  [ %fp + 0x44 ], %g1
   15a14:	80 a0 60 01 	cmp  %g1, 1
   15a18:	04 80 00 5a 	ble  15b80 <do_ls+0x20c>
   15a1c:	01 00 00 00 	nop 
   15a20:	84 10 20 04 	mov  4, %g2	! 4 <_init-0x11504>
   15a24:	c2 07 a0 48 	ld  [ %fp + 0x48 ], %g1
   15a28:	82 00 80 01 	add  %g2, %g1, %g1
   15a2c:	c2 00 40 00 	ld  [ %g1 ], %g1
   15a30:	c2 08 40 00 	ldub  [ %g1 ], %g1
   15a34:	83 28 60 18 	sll  %g1, 0x18, %g1
   15a38:	83 38 60 18 	sra  %g1, 0x18, %g1
   15a3c:	80 a0 60 2d 	cmp  %g1, 0x2d
   15a40:	12 80 00 50 	bne  15b80 <do_ls+0x20c>
   15a44:	01 00 00 00 	nop 
   15a48:	c2 07 a0 44 	ld  [ %fp + 0x44 ], %g1
   15a4c:	82 00 7f ff 	add  %g1, -1, %g1
   15a50:	c2 27 a0 44 	st  %g1, [ %fp + 0x44 ]
   15a54:	c2 07 a0 48 	ld  [ %fp + 0x48 ], %g1
   15a58:	82 00 60 04 	add  %g1, 4, %g1
   15a5c:	c2 27 a0 48 	st  %g1, [ %fp + 0x48 ]
   15a60:	c2 00 40 00 	ld  [ %g1 ], %g1
   15a64:	82 00 60 01 	inc  %g1
   15a68:	c2 27 bf f4 	st  %g1, [ %fp + -12 ]
   15a6c:	c2 07 bf f4 	ld  [ %fp + -12 ], %g1
   15a70:	c2 08 40 00 	ldub  [ %g1 ], %g1
   15a74:	83 28 60 18 	sll  %g1, 0x18, %g1
   15a78:	83 38 60 18 	sra  %g1, 0x18, %g1
   15a7c:	80 a0 60 00 	cmp  %g1, 0
   15a80:	02 80 00 40 	be  15b80 <do_ls+0x20c>
   15a84:	01 00 00 00 	nop 
   15a88:	86 07 bf f4 	add  %fp, -12, %g3
   15a8c:	c4 00 c0 00 	ld  [ %g3 ], %g2
   15a90:	82 10 00 02 	mov  %g2, %g1
   15a94:	c2 08 40 00 	ldub  [ %g1 ], %g1
   15a98:	83 28 60 18 	sll  %g1, 0x18, %g1
   15a9c:	83 38 60 18 	sra  %g1, 0x18, %g1
   15aa0:	82 00 7f bd 	add  %g1, -67, %g1
   15aa4:	c2 27 be 7c 	st  %g1, [ %fp + -388 ]
   15aa8:	84 00 a0 01 	inc  %g2
   15aac:	c4 20 c0 00 	st  %g2, [ %g3 ]
   15ab0:	c2 07 be 7c 	ld  [ %fp + -388 ], %g1
   15ab4:	80 a0 60 29 	cmp  %g1, 0x29
   15ab8:	18 80 00 22 	bgu  15b40 <do_ls+0x1cc>
   15abc:	01 00 00 00 	nop 
   15ac0:	c2 07 be 7c 	ld  [ %fp + -388 ], %g1
   15ac4:	85 28 60 02 	sll  %g1, 2, %g2
   15ac8:	03 00 00 56 	sethi  %hi(0x15800), %g1
   15acc:	82 10 60 cc 	or  %g1, 0xcc, %g1	! 158cc <do_cat+0x144>
   15ad0:	c2 00 80 01 	ld  [ %g2 + %g1 ], %g1
   15ad4:	81 c0 40 00 	jmp  %g1
   15ad8:	01 00 00 00 	nop 
   15adc:	c2 07 bf ec 	ld  [ %fp + -20 ], %g1
   15ae0:	82 10 60 01 	or  %g1, 1, %g1
   15ae4:	c2 27 bf ec 	st  %g1, [ %fp + -20 ]
   15ae8:	10 bf ff e1 	b  15a6c <do_ls+0xf8>
   15aec:	01 00 00 00 	nop 
   15af0:	c2 07 bf ec 	ld  [ %fp + -20 ], %g1
   15af4:	82 10 60 02 	or  %g1, 2, %g1
   15af8:	c2 27 bf ec 	st  %g1, [ %fp + -20 ]
   15afc:	10 bf ff dc 	b  15a6c <do_ls+0xf8>
   15b00:	01 00 00 00 	nop 
   15b04:	c2 07 bf ec 	ld  [ %fp + -20 ], %g1
   15b08:	82 10 60 04 	or  %g1, 4, %g1
   15b0c:	c2 27 bf ec 	st  %g1, [ %fp + -20 ]
   15b10:	10 bf ff d7 	b  15a6c <do_ls+0xf8>
   15b14:	01 00 00 00 	nop 
   15b18:	c2 07 bf ec 	ld  [ %fp + -20 ], %g1
   15b1c:	82 10 60 10 	or  %g1, 0x10, %g1
   15b20:	c2 27 bf ec 	st  %g1, [ %fp + -20 ]
   15b24:	10 bf ff d2 	b  15a6c <do_ls+0xf8>
   15b28:	01 00 00 00 	nop 
   15b2c:	c2 07 bf ec 	ld  [ %fp + -20 ], %g1
   15b30:	82 10 60 20 	or  %g1, 0x20, %g1
   15b34:	c2 27 bf ec 	st  %g1, [ %fp + -20 ]
   15b38:	10 bf ff cd 	b  15a6c <do_ls+0xf8>
   15b3c:	01 00 00 00 	nop 
   15b40:	03 00 00 b3 	sethi  %hi(0x2cc00), %g1
   15b44:	86 10 62 40 	or  %g1, 0x240, %g3	! 2ce40 <stderr@@GLIBC_2.0>
   15b48:	84 10 3f ff 	mov  -1, %g2
   15b4c:	c2 07 bf f4 	ld  [ %fp + -12 ], %g1
   15b50:	82 00 80 01 	add  %g2, %g1, %g1
   15b54:	c2 08 40 00 	ldub  [ %g1 ], %g1
   15b58:	83 28 60 18 	sll  %g1, 0x18, %g1
   15b5c:	85 38 60 18 	sra  %g1, 0x18, %g2
   15b60:	d0 00 c0 00 	ld  [ %g3 ], %o0
   15b64:	03 00 00 6a 	sethi  %hi(0x1a800), %g1
   15b68:	92 10 63 f8 	or  %g1, 0x3f8, %o1	! 1abf8 <_IO_stdin_used+0x648>
   15b6c:	94 10 00 02 	mov  %g2, %o2
   15b70:	40 00 5a 22 	call  2c3f8 <fprintf@plt>
   15b74:	01 00 00 00 	nop 
   15b78:	10 80 01 93 	b  161c4 <do_ls+0x850>
   15b7c:	01 00 00 00 	nop 
   15b80:	c2 07 bf ec 	ld  [ %fp + -20 ], %g1
   15b84:	82 08 60 20 	and  %g1, 0x20, %g1
   15b88:	80 a0 60 00 	cmp  %g1, 0
   15b8c:	02 80 00 10 	be  15bcc <do_ls+0x258>
   15b90:	01 00 00 00 	nop 
   15b94:	c2 07 bf ec 	ld  [ %fp + -20 ], %g1
   15b98:	82 08 7f df 	and  %g1, -33, %g1
   15b9c:	80 a0 60 00 	cmp  %g1, 0
   15ba0:	02 80 00 0b 	be  15bcc <do_ls+0x258>
   15ba4:	01 00 00 00 	nop 
   15ba8:	03 00 00 b3 	sethi  %hi(0x2cc00), %g1
   15bac:	82 10 62 40 	or  %g1, 0x240, %g1	! 2ce40 <stderr@@GLIBC_2.0>
   15bb0:	d0 00 40 00 	ld  [ %g1 ], %o0
   15bb4:	03 00 00 6b 	sethi  %hi(0x1ac00), %g1
   15bb8:	92 10 60 10 	or  %g1, 0x10, %o1	! 1ac10 <_IO_stdin_used+0x660>
   15bbc:	40 00 5a 0f 	call  2c3f8 <fprintf@plt>
   15bc0:	01 00 00 00 	nop 
   15bc4:	10 80 01 80 	b  161c4 <do_ls+0x850>
   15bc8:	01 00 00 00 	nop 
   15bcc:	c2 07 a0 44 	ld  [ %fp + 0x44 ], %g1
   15bd0:	80 a0 60 01 	cmp  %g1, 1
   15bd4:	14 80 00 11 	bg  15c18 <do_ls+0x2a4>
   15bd8:	01 00 00 00 	nop 
   15bdc:	82 10 20 02 	mov  2, %g1	! 2 <_init-0x11506>
   15be0:	c2 27 a0 44 	st  %g1, [ %fp + 0x44 ]
   15be4:	03 00 00 b3 	sethi  %hi(0x2cc00), %g1
   15be8:	82 10 63 94 	or  %g1, 0x394, %g1	! 2cf94 <def.0>
   15bec:	c2 27 a0 48 	st  %g1, [ %fp + 0x48 ]
   15bf0:	c4 07 a0 48 	ld  [ %fp + 0x48 ], %g2
   15bf4:	03 00 00 6b 	sethi  %hi(0x1ac00), %g1
   15bf8:	82 10 60 40 	or  %g1, 0x40, %g1	! 1ac40 <_IO_stdin_used+0x690>
   15bfc:	c2 20 80 00 	st  %g1, [ %g2 ]
   15c00:	84 10 20 04 	mov  4, %g2
   15c04:	c2 07 a0 48 	ld  [ %fp + 0x48 ], %g1
   15c08:	84 00 80 01 	add  %g2, %g1, %g2
   15c0c:	03 00 00 6b 	sethi  %hi(0x1ac00), %g1
   15c10:	82 10 60 48 	or  %g1, 0x48, %g1	! 1ac48 <_IO_stdin_used+0x698>
   15c14:	c2 20 80 00 	st  %g1, [ %g2 ]
   15c18:	c2 07 a0 44 	ld  [ %fp + 0x44 ], %g1
   15c1c:	80 a0 60 02 	cmp  %g1, 2
   15c20:	04 80 00 05 	ble  15c34 <do_ls+0x2c0>
   15c24:	01 00 00 00 	nop 
   15c28:	c2 07 bf ec 	ld  [ %fp + -20 ], %g1
   15c2c:	82 10 60 08 	or  %g1, 8, %g1
   15c30:	c2 27 bf ec 	st  %g1, [ %fp + -20 ]
   15c34:	c2 07 a0 44 	ld  [ %fp + 0x44 ], %g1
   15c38:	84 10 00 01 	mov  %g1, %g2
   15c3c:	82 00 7f ff 	add  %g1, -1, %g1
   15c40:	c2 27 a0 44 	st  %g1, [ %fp + 0x44 ]
   15c44:	80 a0 a0 01 	cmp  %g2, 1
   15c48:	04 80 01 53 	ble  16194 <do_ls+0x820>
   15c4c:	01 00 00 00 	nop 
   15c50:	c2 07 a0 48 	ld  [ %fp + 0x48 ], %g1
   15c54:	82 00 60 04 	add  %g1, 4, %g1
   15c58:	c2 27 a0 48 	st  %g1, [ %fp + 0x48 ]
   15c5c:	c2 00 40 00 	ld  [ %g1 ], %g1
   15c60:	c2 27 bf f0 	st  %g1, [ %fp + -16 ]
   15c64:	c0 27 be 78 	clr  [ %fp + -392 ]
   15c68:	c2 07 bf f0 	ld  [ %fp + -16 ], %g1
   15c6c:	c2 08 40 00 	ldub  [ %g1 ], %g1
   15c70:	83 28 60 18 	sll  %g1, 0x18, %g1
   15c74:	83 38 60 18 	sra  %g1, 0x18, %g1
   15c78:	80 a0 60 00 	cmp  %g1, 0
   15c7c:	02 80 00 11 	be  15cc0 <do_ls+0x34c>
   15c80:	01 00 00 00 	nop 
   15c84:	d0 07 bf f0 	ld  [ %fp + -16 ], %o0
   15c88:	40 00 59 c1 	call  2c38c <strlen@plt>
   15c8c:	01 00 00 00 	nop 
   15c90:	82 10 00 08 	mov  %o0, %g1
   15c94:	84 10 00 01 	mov  %g1, %g2
   15c98:	c2 07 bf f0 	ld  [ %fp + -16 ], %g1
   15c9c:	82 00 80 01 	add  %g2, %g1, %g1
   15ca0:	c2 08 7f ff 	ldub  [ %g1 + -1 ], %g1
   15ca4:	83 28 60 18 	sll  %g1, 0x18, %g1
   15ca8:	83 38 60 18 	sra  %g1, 0x18, %g1
   15cac:	80 a0 60 2f 	cmp  %g1, 0x2f
   15cb0:	12 80 00 04 	bne  15cc0 <do_ls+0x34c>
   15cb4:	01 00 00 00 	nop 
   15cb8:	82 10 20 01 	mov  1, %g1	! 1 <_init-0x11507>
   15cbc:	c2 27 be 78 	st  %g1, [ %fp + -392 ]
   15cc0:	c2 07 be 78 	ld  [ %fp + -392 ], %g1
   15cc4:	c2 27 bf e0 	st  %g1, [ %fp + -32 ]
   15cc8:	82 07 be 80 	add  %fp, -384, %g1
   15ccc:	d0 07 bf f0 	ld  [ %fp + -16 ], %o0
   15cd0:	92 10 00 01 	mov  %g1, %o1
   15cd4:	40 00 12 0f 	call  1a510 <__lstat>
   15cd8:	01 00 00 00 	nop 
   15cdc:	82 10 00 08 	mov  %o0, %g1
   15ce0:	80 a0 60 00 	cmp  %g1, 0
   15ce4:	16 80 00 07 	bge  15d00 <do_ls+0x38c>
   15ce8:	01 00 00 00 	nop 
   15cec:	d0 07 bf f0 	ld  [ %fp + -16 ], %o0
   15cf0:	40 00 59 4d 	call  2c224 <perror@plt>
   15cf4:	01 00 00 00 	nop 
   15cf8:	10 bf ff cf 	b  15c34 <do_ls+0x2c0>
   15cfc:	01 00 00 00 	nop 
   15d00:	c2 07 bf ec 	ld  [ %fp + -20 ], %g1
   15d04:	82 08 60 02 	and  %g1, 2, %g1
   15d08:	80 a0 60 00 	cmp  %g1, 0
   15d0c:	12 80 00 0b 	bne  15d38 <do_ls+0x3c4>
   15d10:	01 00 00 00 	nop 
   15d14:	c4 07 be 90 	ld  [ %fp + -368 ], %g2
   15d18:	03 00 00 3c 	sethi  %hi(0xf000), %g1
   15d1c:	84 08 80 01 	and  %g2, %g1, %g2
   15d20:	03 00 00 10 	sethi  %hi(0x4000), %g1
   15d24:	80 a0 80 01 	cmp  %g2, %g1
   15d28:	12 80 00 04 	bne  15d38 <do_ls+0x3c4>
   15d2c:	01 00 00 00 	nop 
   15d30:	10 80 00 0a 	b  15d58 <do_ls+0x3e4>
   15d34:	01 00 00 00 	nop 
   15d38:	82 07 be 80 	add  %fp, -384, %g1
   15d3c:	d0 07 bf f0 	ld  [ %fp + -16 ], %o0
   15d40:	92 10 00 01 	mov  %g1, %o1
   15d44:	d4 07 bf ec 	ld  [ %fp + -20 ], %o2
   15d48:	40 00 01 22 	call  161d0 <lsfile>
   15d4c:	01 00 00 00 	nop 
   15d50:	10 bf ff b9 	b  15c34 <do_ls+0x2c0>
   15d54:	01 00 00 00 	nop 
   15d58:	d0 07 bf f0 	ld  [ %fp + -16 ], %o0
   15d5c:	40 00 59 d4 	call  2c4ac <opendir@plt>
   15d60:	01 00 00 00 	nop 
   15d64:	82 10 00 08 	mov  %o0, %g1
   15d68:	c2 27 bf e4 	st  %g1, [ %fp + -28 ]
   15d6c:	c2 07 bf e4 	ld  [ %fp + -28 ], %g1
   15d70:	80 a0 60 00 	cmp  %g1, 0
   15d74:	12 80 00 07 	bne  15d90 <do_ls+0x41c>
   15d78:	01 00 00 00 	nop 
   15d7c:	d0 07 bf f0 	ld  [ %fp + -16 ], %o0
   15d80:	40 00 59 29 	call  2c224 <perror@plt>
   15d84:	01 00 00 00 	nop 
   15d88:	10 bf ff ab 	b  15c34 <do_ls+0x2c0>
   15d8c:	01 00 00 00 	nop 
   15d90:	c2 07 bf ec 	ld  [ %fp + -20 ], %g1
   15d94:	82 08 60 08 	and  %g1, 8, %g1
   15d98:	80 a0 60 00 	cmp  %g1, 0
   15d9c:	02 80 00 07 	be  15db8 <do_ls+0x444>
   15da0:	01 00 00 00 	nop 
   15da4:	03 00 00 6b 	sethi  %hi(0x1ac00), %g1
   15da8:	90 10 60 50 	or  %g1, 0x50, %o0	! 1ac50 <_IO_stdin_used+0x6a0>
   15dac:	d2 07 bf f0 	ld  [ %fp + -16 ], %o1
   15db0:	40 00 59 fe 	call  2c5a8 <printf@plt>
   15db4:	01 00 00 00 	nop 
   15db8:	d0 07 bf e4 	ld  [ %fp + -28 ], %o0
   15dbc:	40 00 59 f5 	call  2c590 <readdir@plt>
   15dc0:	01 00 00 00 	nop 
   15dc4:	82 10 00 08 	mov  %o0, %g1
   15dc8:	c2 27 bf d8 	st  %g1, [ %fp + -40 ]
   15dcc:	c2 07 bf d8 	ld  [ %fp + -40 ], %g1
   15dd0:	80 a0 60 00 	cmp  %g1, 0
   15dd4:	02 80 00 9d 	be  16048 <do_ls+0x6d4>
   15dd8:	01 00 00 00 	nop 
   15ddc:	c2 07 bf d8 	ld  [ %fp + -40 ], %g1
   15de0:	c2 08 60 0b 	ldub  [ %g1 + 0xb ], %g1
   15de4:	83 28 60 18 	sll  %g1, 0x18, %g1
   15de8:	83 38 60 18 	sra  %g1, 0x18, %g1
   15dec:	80 a0 60 2e 	cmp  %g1, 0x2e
   15df0:	12 80 00 09 	bne  15e14 <do_ls+0x4a0>
   15df4:	01 00 00 00 	nop 
   15df8:	c2 07 bf ec 	ld  [ %fp + -20 ], %g1
   15dfc:	82 08 60 10 	and  %g1, 0x10, %g1
   15e00:	80 a0 60 00 	cmp  %g1, 0
   15e04:	12 80 00 04 	bne  15e14 <do_ls+0x4a0>
   15e08:	01 00 00 00 	nop 
   15e0c:	10 bf ff eb 	b  15db8 <do_ls+0x444>
   15e10:	01 00 00 00 	nop 
   15e14:	c0 2f be d8 	clrb  [ %fp + -296 ]
   15e18:	c2 07 bf f0 	ld  [ %fp + -16 ], %g1
   15e1c:	c2 08 40 00 	ldub  [ %g1 ], %g1
   15e20:	83 28 60 18 	sll  %g1, 0x18, %g1
   15e24:	83 38 60 18 	sra  %g1, 0x18, %g1
   15e28:	80 a0 60 2e 	cmp  %g1, 0x2e
   15e2c:	12 80 00 0d 	bne  15e60 <do_ls+0x4ec>
   15e30:	01 00 00 00 	nop 
   15e34:	84 10 20 01 	mov  1, %g2	! 1 <_init-0x11507>
   15e38:	c2 07 bf f0 	ld  [ %fp + -16 ], %g1
   15e3c:	82 00 80 01 	add  %g2, %g1, %g1
   15e40:	c2 08 40 00 	ldub  [ %g1 ], %g1
   15e44:	83 28 60 18 	sll  %g1, 0x18, %g1
   15e48:	83 38 60 18 	sra  %g1, 0x18, %g1
   15e4c:	80 a0 60 00 	cmp  %g1, 0
   15e50:	12 80 00 04 	bne  15e60 <do_ls+0x4ec>
   15e54:	01 00 00 00 	nop 
   15e58:	10 80 00 11 	b  15e9c <do_ls+0x528>
   15e5c:	01 00 00 00 	nop 
   15e60:	82 07 be d8 	add  %fp, -296, %g1
   15e64:	90 10 00 01 	mov  %g1, %o0
   15e68:	d2 07 bf f0 	ld  [ %fp + -16 ], %o1
   15e6c:	40 00 59 d8 	call  2c5cc <strcpy@plt>
   15e70:	01 00 00 00 	nop 
   15e74:	c2 07 bf e0 	ld  [ %fp + -32 ], %g1
   15e78:	80 a0 60 00 	cmp  %g1, 0
   15e7c:	12 80 00 08 	bne  15e9c <do_ls+0x528>
   15e80:	01 00 00 00 	nop 
   15e84:	82 07 be d8 	add  %fp, -296, %g1
   15e88:	90 10 00 01 	mov  %g1, %o0
   15e8c:	03 00 00 6b 	sethi  %hi(0x1ac00), %g1
   15e90:	92 10 60 58 	or  %g1, 0x58, %o1	! 1ac58 <_IO_stdin_used+0x6a8>
   15e94:	40 00 59 65 	call  2c428 <strcat@plt>
   15e98:	01 00 00 00 	nop 
   15e9c:	84 07 be d8 	add  %fp, -296, %g2
   15ea0:	c2 07 bf d8 	ld  [ %fp + -40 ], %g1
   15ea4:	82 00 60 0b 	add  %g1, 0xb, %g1
   15ea8:	90 10 00 02 	mov  %g2, %o0
   15eac:	92 10 00 01 	mov  %g1, %o1
   15eb0:	40 00 59 5e 	call  2c428 <strcat@plt>
   15eb4:	01 00 00 00 	nop 
   15eb8:	03 00 00 b3 	sethi  %hi(0x2cc00), %g1
   15ebc:	84 10 63 d4 	or  %g1, 0x3d4, %g2	! 2cfd4 <listused>
   15ec0:	03 00 00 b3 	sethi  %hi(0x2cc00), %g1
   15ec4:	82 10 63 d0 	or  %g1, 0x3d0, %g1	! 2cfd0 <listsize>
   15ec8:	c4 00 80 00 	ld  [ %g2 ], %g2
   15ecc:	c2 00 40 00 	ld  [ %g1 ], %g1
   15ed0:	80 a0 80 01 	cmp  %g2, %g1
   15ed4:	06 80 00 30 	bl  15f94 <do_ls+0x620>
   15ed8:	01 00 00 00 	nop 
   15edc:	03 00 00 b3 	sethi  %hi(0x2cc00), %g1
   15ee0:	82 10 63 d0 	or  %g1, 0x3d0, %g1	! 2cfd0 <listsize>
   15ee4:	c2 00 40 00 	ld  [ %g1 ], %g1
   15ee8:	83 28 60 02 	sll  %g1, 2, %g1
   15eec:	82 00 64 00 	add  %g1, 0x400, %g1
   15ef0:	90 10 00 01 	mov  %g1, %o0
   15ef4:	40 00 58 fc 	call  2c2e4 <malloc@plt>
   15ef8:	01 00 00 00 	nop 
   15efc:	82 10 00 08 	mov  %o0, %g1
   15f00:	c2 27 bf dc 	st  %g1, [ %fp + -36 ]
   15f04:	c2 07 bf dc 	ld  [ %fp + -36 ], %g1
   15f08:	80 a0 60 00 	cmp  %g1, 0
   15f0c:	12 80 00 0b 	bne  15f38 <do_ls+0x5c4>
   15f10:	01 00 00 00 	nop 
   15f14:	03 00 00 b3 	sethi  %hi(0x2cc00), %g1
   15f18:	82 10 62 40 	or  %g1, 0x240, %g1	! 2ce40 <stderr@@GLIBC_2.0>
   15f1c:	d0 00 40 00 	ld  [ %g1 ], %o0
   15f20:	03 00 00 6a 	sethi  %hi(0x1a800), %g1
   15f24:	92 10 63 d8 	or  %g1, 0x3d8, %o1	! 1abd8 <_IO_stdin_used+0x628>
   15f28:	40 00 59 34 	call  2c3f8 <fprintf@plt>
   15f2c:	01 00 00 00 	nop 
   15f30:	10 80 00 46 	b  16048 <do_ls+0x6d4>
   15f34:	01 00 00 00 	nop 
   15f38:	03 00 00 b3 	sethi  %hi(0x2cc00), %g1
   15f3c:	84 10 63 cc 	or  %g1, 0x3cc, %g2	! 2cfcc <list>
   15f40:	03 00 00 b3 	sethi  %hi(0x2cc00), %g1
   15f44:	82 10 63 d0 	or  %g1, 0x3d0, %g1	! 2cfd0 <listsize>
   15f48:	c2 00 40 00 	ld  [ %g1 ], %g1
   15f4c:	83 28 60 02 	sll  %g1, 2, %g1
   15f50:	d0 07 bf dc 	ld  [ %fp + -36 ], %o0
   15f54:	d2 00 80 00 	ld  [ %g2 ], %o1
   15f58:	94 10 00 01 	mov  %g1, %o2
   15f5c:	40 00 59 3c 	call  2c44c <memcpy@plt>
   15f60:	01 00 00 00 	nop 
   15f64:	03 00 00 b3 	sethi  %hi(0x2cc00), %g1
   15f68:	82 10 63 cc 	or  %g1, 0x3cc, %g1	! 2cfcc <list>
   15f6c:	d0 00 40 00 	ld  [ %g1 ], %o0
   15f70:	40 00 59 61 	call  2c4f4 <free@plt>
   15f74:	01 00 00 00 	nop 
   15f78:	03 00 00 b3 	sethi  %hi(0x2cc00), %g1
   15f7c:	84 10 63 d0 	or  %g1, 0x3d0, %g2	! 2cfd0 <listsize>
   15f80:	03 00 00 b3 	sethi  %hi(0x2cc00), %g1
   15f84:	82 10 63 d0 	or  %g1, 0x3d0, %g1	! 2cfd0 <listsize>
   15f88:	c2 00 40 00 	ld  [ %g1 ], %g1
   15f8c:	82 00 61 00 	add  %g1, 0x100, %g1
   15f90:	c2 20 80 00 	st  %g1, [ %g2 ]
   15f94:	82 07 be d8 	add  %fp, -296, %g1
   15f98:	90 10 00 01 	mov  %g1, %o0
   15f9c:	40 00 58 8a 	call  2c1c4 <strdup@plt>
   15fa0:	01 00 00 00 	nop 
   15fa4:	82 10 00 08 	mov  %o0, %g1
   15fa8:	86 10 00 01 	mov  %g1, %g3
   15fac:	03 00 00 b3 	sethi  %hi(0x2cc00), %g1
   15fb0:	82 10 63 d4 	or  %g1, 0x3d4, %g1	! 2cfd4 <listused>
   15fb4:	c2 00 40 00 	ld  [ %g1 ], %g1
   15fb8:	85 28 60 02 	sll  %g1, 2, %g2
   15fbc:	03 00 00 b3 	sethi  %hi(0x2cc00), %g1
   15fc0:	82 10 63 cc 	or  %g1, 0x3cc, %g1	! 2cfcc <list>
   15fc4:	c2 00 40 00 	ld  [ %g1 ], %g1
   15fc8:	82 00 80 01 	add  %g2, %g1, %g1
   15fcc:	c6 20 40 00 	st  %g3, [ %g1 ]
   15fd0:	03 00 00 b3 	sethi  %hi(0x2cc00), %g1
   15fd4:	82 10 63 d4 	or  %g1, 0x3d4, %g1	! 2cfd4 <listused>
   15fd8:	c2 00 40 00 	ld  [ %g1 ], %g1
   15fdc:	85 28 60 02 	sll  %g1, 2, %g2
   15fe0:	03 00 00 b3 	sethi  %hi(0x2cc00), %g1
   15fe4:	82 10 63 cc 	or  %g1, 0x3cc, %g1	! 2cfcc <list>
   15fe8:	c2 00 40 00 	ld  [ %g1 ], %g1
   15fec:	82 00 80 01 	add  %g2, %g1, %g1
   15ff0:	c2 00 40 00 	ld  [ %g1 ], %g1
   15ff4:	80 a0 60 00 	cmp  %g1, 0
   15ff8:	12 80 00 0b 	bne  16024 <do_ls+0x6b0>
   15ffc:	01 00 00 00 	nop 
   16000:	03 00 00 b3 	sethi  %hi(0x2cc00), %g1
   16004:	82 10 62 40 	or  %g1, 0x240, %g1	! 2ce40 <stderr@@GLIBC_2.0>
   16008:	d0 00 40 00 	ld  [ %g1 ], %o0
   1600c:	03 00 00 6b 	sethi  %hi(0x1ac00), %g1
   16010:	92 10 60 60 	or  %g1, 0x60, %o1	! 1ac60 <_IO_stdin_used+0x6b0>
   16014:	40 00 58 f9 	call  2c3f8 <fprintf@plt>
   16018:	01 00 00 00 	nop 
   1601c:	10 80 00 0b 	b  16048 <do_ls+0x6d4>
   16020:	01 00 00 00 	nop 
   16024:	03 00 00 b3 	sethi  %hi(0x2cc00), %g1
   16028:	84 10 63 d4 	or  %g1, 0x3d4, %g2	! 2cfd4 <listused>
   1602c:	03 00 00 b3 	sethi  %hi(0x2cc00), %g1
   16030:	82 10 63 d4 	or  %g1, 0x3d4, %g1	! 2cfd4 <listused>
   16034:	c2 00 40 00 	ld  [ %g1 ], %g1
   16038:	82 00 60 01 	inc  %g1
   1603c:	c2 20 80 00 	st  %g1, [ %g2 ]
   16040:	10 bf ff 5e 	b  15db8 <do_ls+0x444>
   16044:	01 00 00 00 	nop 
   16048:	d0 07 bf e4 	ld  [ %fp + -28 ], %o0
   1604c:	40 00 59 0f 	call  2c488 <closedir@plt>
   16050:	01 00 00 00 	nop 
   16054:	03 00 00 b3 	sethi  %hi(0x2cc00), %g1
   16058:	84 10 63 cc 	or  %g1, 0x3cc, %g2	! 2cfcc <list>
   1605c:	03 00 00 b3 	sethi  %hi(0x2cc00), %g1
   16060:	82 10 63 d4 	or  %g1, 0x3d4, %g1	! 2cfd4 <listused>
   16064:	d0 00 80 00 	ld  [ %g2 ], %o0
   16068:	d2 00 40 00 	ld  [ %g1 ], %o1
   1606c:	94 10 20 04 	mov  4, %o2
   16070:	03 00 00 63 	sethi  %hi(0x18c00), %g1
   16074:	96 10 62 30 	or  %g1, 0x230, %o3	! 18e30 <namesort>
   16078:	40 00 58 ce 	call  2c3b0 <qsort@plt>
   1607c:	01 00 00 00 	nop 
   16080:	c0 27 bf e8 	clr  [ %fp + -24 ]
   16084:	03 00 00 b3 	sethi  %hi(0x2cc00), %g1
   16088:	82 10 63 d4 	or  %g1, 0x3d4, %g1	! 2cfd4 <listused>
   1608c:	c4 07 bf e8 	ld  [ %fp + -24 ], %g2
   16090:	c2 00 40 00 	ld  [ %g1 ], %g1
   16094:	80 a0 80 01 	cmp  %g2, %g1
   16098:	16 80 00 3a 	bge  16180 <do_ls+0x80c>
   1609c:	01 00 00 00 	nop 
   160a0:	c2 07 bf e8 	ld  [ %fp + -24 ], %g1
   160a4:	85 28 60 02 	sll  %g1, 2, %g2
   160a8:	03 00 00 b3 	sethi  %hi(0x2cc00), %g1
   160ac:	82 10 63 cc 	or  %g1, 0x3cc, %g1	! 2cfcc <list>
   160b0:	c2 00 40 00 	ld  [ %g1 ], %g1
   160b4:	82 00 80 01 	add  %g2, %g1, %g1
   160b8:	c2 00 40 00 	ld  [ %g1 ], %g1
   160bc:	c2 27 bf f0 	st  %g1, [ %fp + -16 ]
   160c0:	82 07 be 80 	add  %fp, -384, %g1
   160c4:	d0 07 bf f0 	ld  [ %fp + -16 ], %o0
   160c8:	92 10 00 01 	mov  %g1, %o1
   160cc:	40 00 11 11 	call  1a510 <__lstat>
   160d0:	01 00 00 00 	nop 
   160d4:	82 10 00 08 	mov  %o0, %g1
   160d8:	80 a0 60 00 	cmp  %g1, 0
   160dc:	16 80 00 0a 	bge  16104 <do_ls+0x790>
   160e0:	01 00 00 00 	nop 
   160e4:	d0 07 bf f0 	ld  [ %fp + -16 ], %o0
   160e8:	40 00 58 4f 	call  2c224 <perror@plt>
   160ec:	01 00 00 00 	nop 
   160f0:	d0 07 bf f0 	ld  [ %fp + -16 ], %o0
   160f4:	40 00 59 00 	call  2c4f4 <free@plt>
   160f8:	01 00 00 00 	nop 
   160fc:	10 80 00 1c 	b  1616c <do_ls+0x7f8>
   16100:	01 00 00 00 	nop 
   16104:	d0 07 bf f0 	ld  [ %fp + -16 ], %o0
   16108:	92 10 20 2f 	mov  0x2f, %o1
   1610c:	40 00 58 d6 	call  2c464 <strrchr@plt>
   16110:	01 00 00 00 	nop 
   16114:	82 10 00 08 	mov  %o0, %g1
   16118:	c2 27 bf f4 	st  %g1, [ %fp + -12 ]
   1611c:	c2 07 bf f4 	ld  [ %fp + -12 ], %g1
   16120:	80 a0 60 00 	cmp  %g1, 0
   16124:	02 80 00 07 	be  16140 <do_ls+0x7cc>
   16128:	01 00 00 00 	nop 
   1612c:	c2 07 bf f4 	ld  [ %fp + -12 ], %g1
   16130:	82 00 60 01 	inc  %g1
   16134:	c2 27 bf f4 	st  %g1, [ %fp + -12 ]
   16138:	10 80 00 04 	b  16148 <do_ls+0x7d4>
   1613c:	01 00 00 00 	nop 
   16140:	c2 07 bf f0 	ld  [ %fp + -16 ], %g1
   16144:	c2 27 bf f4 	st  %g1, [ %fp + -12 ]
   16148:	82 07 be 80 	add  %fp, -384, %g1
   1614c:	d0 07 bf f4 	ld  [ %fp + -12 ], %o0
   16150:	92 10 00 01 	mov  %g1, %o1
   16154:	d4 07 bf ec 	ld  [ %fp + -20 ], %o2
   16158:	40 00 00 1e 	call  161d0 <lsfile>
   1615c:	01 00 00 00 	nop 
   16160:	d0 07 bf f0 	ld  [ %fp + -16 ], %o0
   16164:	40 00 58 e4 	call  2c4f4 <free@plt>
   16168:	01 00 00 00 	nop 
   1616c:	c2 07 bf e8 	ld  [ %fp + -24 ], %g1
   16170:	82 00 60 01 	inc  %g1
   16174:	c2 27 bf e8 	st  %g1, [ %fp + -24 ]
   16178:	10 bf ff c3 	b  16084 <do_ls+0x710>
   1617c:	01 00 00 00 	nop 
   16180:	03 00 00 b3 	sethi  %hi(0x2cc00), %g1
   16184:	82 10 63 d4 	or  %g1, 0x3d4, %g1	! 2cfd4 <listused>
   16188:	c0 20 40 00 	clr  [ %g1 ]
   1618c:	10 bf fe aa 	b  15c34 <do_ls+0x2c0>
   16190:	01 00 00 00 	nop 
   16194:	03 00 00 b3 	sethi  %hi(0x2cc00), %g1
   16198:	82 10 63 90 	or  %g1, 0x390, %g1	! 2cf90 <linelen>
   1619c:	c2 00 40 00 	ld  [ %g1 ], %g1
   161a0:	80 a0 60 00 	cmp  %g1, 0
   161a4:	02 80 00 08 	be  161c4 <do_ls+0x850>
   161a8:	01 00 00 00 	nop 
   161ac:	03 00 00 b3 	sethi  %hi(0x2cc00), %g1
   161b0:	82 10 62 3c 	or  %g1, 0x23c, %g1	! 2ce3c <stdout@@GLIBC_2.0>
   161b4:	90 10 20 0a 	mov  0xa, %o0
   161b8:	d2 00 40 00 	ld  [ %g1 ], %o1
   161bc:	40 00 58 86 	call  2c3d4 <fputc@plt>
   161c0:	01 00 00 00 	nop 
   161c4:	01 00 00 00 	nop 
   161c8:	81 c7 e0 08 	ret 
   161cc:	81 e8 00 00 	restore 

000161d0 <lsfile>:
lsfile():
   161d0:	9d e3 be 88 	save  %sp, -376, %sp
   161d4:	f0 27 a0 44 	st  %i0, [ %fp + 0x44 ]
   161d8:	f2 27 a0 48 	st  %i1, [ %fp + 0x48 ]
   161dc:	f4 27 a0 4c 	st  %i2, [ %fp + 0x4c ]
   161e0:	82 07 be e8 	add  %fp, -280, %g1
   161e4:	c2 27 bf f4 	st  %g1, [ %fp + -12 ]
   161e8:	c2 07 bf f4 	ld  [ %fp + -12 ], %g1
   161ec:	c0 28 40 00 	clrb  [ %g1 ]
   161f0:	c2 07 a0 4c 	ld  [ %fp + 0x4c ], %g1
   161f4:	82 08 60 04 	and  %g1, 4, %g1
   161f8:	80 a0 60 00 	cmp  %g1, 0
   161fc:	02 80 00 11 	be  16240 <lsfile+0x70>
   16200:	01 00 00 00 	nop 
   16204:	c4 07 a0 48 	ld  [ %fp + 0x48 ], %g2
   16208:	d0 07 bf f4 	ld  [ %fp + -12 ], %o0
   1620c:	03 00 00 6b 	sethi  %hi(0x1ac00), %g1
   16210:	92 10 60 80 	or  %g1, 0x80, %o1	! 1ac80 <_IO_stdin_used+0x6d0>
   16214:	d4 00 a0 0c 	ld  [ %g2 + 0xc ], %o2
   16218:	40 00 58 75 	call  2c3ec <sprintf@plt>
   1621c:	01 00 00 00 	nop 
   16220:	d0 07 bf f4 	ld  [ %fp + -12 ], %o0
   16224:	40 00 58 5a 	call  2c38c <strlen@plt>
   16228:	01 00 00 00 	nop 
   1622c:	82 10 00 08 	mov  %o0, %g1
   16230:	84 10 00 01 	mov  %g1, %g2
   16234:	c2 07 bf f4 	ld  [ %fp + -12 ], %g1
   16238:	82 00 40 02 	add  %g1, %g2, %g1
   1623c:	c2 27 bf f4 	st  %g1, [ %fp + -12 ]
   16240:	c2 07 a0 4c 	ld  [ %fp + 0x4c ], %g1
   16244:	82 08 60 01 	and  %g1, 1, %g1
   16248:	80 a0 60 00 	cmp  %g1, 0
   1624c:	02 80 00 c3 	be  16558 <lsfile+0x388>
   16250:	01 00 00 00 	nop 
   16254:	c2 07 a0 48 	ld  [ %fp + 0x48 ], %g1
   16258:	d0 00 60 10 	ld  [ %g1 + 0x10 ], %o0
   1625c:	40 00 07 44 	call  17f6c <modestring>
   16260:	01 00 00 00 	nop 
   16264:	82 10 00 08 	mov  %o0, %g1
   16268:	d0 07 bf f4 	ld  [ %fp + -12 ], %o0
   1626c:	92 10 00 01 	mov  %g1, %o1
   16270:	40 00 58 d7 	call  2c5cc <strcpy@plt>
   16274:	01 00 00 00 	nop 
   16278:	d0 07 bf f4 	ld  [ %fp + -12 ], %o0
   1627c:	40 00 58 44 	call  2c38c <strlen@plt>
   16280:	01 00 00 00 	nop 
   16284:	82 10 00 08 	mov  %o0, %g1
   16288:	84 10 00 01 	mov  %g1, %g2
   1628c:	c2 07 bf f4 	ld  [ %fp + -12 ], %g1
   16290:	82 00 40 02 	add  %g1, %g2, %g1
   16294:	c2 27 bf f4 	st  %g1, [ %fp + -12 ]
   16298:	c4 07 a0 48 	ld  [ %fp + 0x48 ], %g2
   1629c:	d0 07 bf f4 	ld  [ %fp + -12 ], %o0
   162a0:	03 00 00 6b 	sethi  %hi(0x1ac00), %g1
   162a4:	92 10 60 88 	or  %g1, 0x88, %o1	! 1ac88 <_IO_stdin_used+0x6d8>
   162a8:	d4 00 a0 14 	ld  [ %g2 + 0x14 ], %o2
   162ac:	40 00 58 50 	call  2c3ec <sprintf@plt>
   162b0:	01 00 00 00 	nop 
   162b4:	d0 07 bf f4 	ld  [ %fp + -12 ], %o0
   162b8:	40 00 58 35 	call  2c38c <strlen@plt>
   162bc:	01 00 00 00 	nop 
   162c0:	82 10 00 08 	mov  %o0, %g1
   162c4:	84 10 00 01 	mov  %g1, %g2
   162c8:	c2 07 bf f4 	ld  [ %fp + -12 ], %g1
   162cc:	82 00 40 02 	add  %g1, %g2, %g1
   162d0:	c2 27 bf f4 	st  %g1, [ %fp + -12 ]
   162d4:	03 00 00 b3 	sethi  %hi(0x2cc00), %g1
   162d8:	82 10 63 b0 	or  %g1, 0x3b0, %g1	! 2cfb0 <useridknown.3>
   162dc:	c2 00 40 00 	ld  [ %g1 ], %g1
   162e0:	80 a0 60 00 	cmp  %g1, 0
   162e4:	02 80 00 0c 	be  16314 <lsfile+0x144>
   162e8:	01 00 00 00 	nop 
   162ec:	c4 07 a0 48 	ld  [ %fp + 0x48 ], %g2
   162f0:	03 00 00 b3 	sethi  %hi(0x2cc00), %g1
   162f4:	82 10 63 ac 	or  %g1, 0x3ac, %g1	! 2cfac <userid.2>
   162f8:	c4 00 a0 18 	ld  [ %g2 + 0x18 ], %g2
   162fc:	c2 00 40 00 	ld  [ %g1 ], %g1
   16300:	80 a0 80 01 	cmp  %g2, %g1
   16304:	12 80 00 04 	bne  16314 <lsfile+0x144>
   16308:	01 00 00 00 	nop 
   1630c:	10 80 00 13 	b  16358 <lsfile+0x188>
   16310:	01 00 00 00 	nop 
   16314:	c4 07 a0 48 	ld  [ %fp + 0x48 ], %g2
   16318:	03 00 00 b3 	sethi  %hi(0x2cc00), %g1
   1631c:	90 10 63 a0 	or  %g1, 0x3a0, %o0	! 2cfa0 <username.1>
   16320:	03 00 00 6b 	sethi  %hi(0x1ac00), %g1
   16324:	92 10 60 90 	or  %g1, 0x90, %o1	! 1ac90 <_IO_stdin_used+0x6e0>
   16328:	d4 00 a0 18 	ld  [ %g2 + 0x18 ], %o2
   1632c:	40 00 58 30 	call  2c3ec <sprintf@plt>
   16330:	01 00 00 00 	nop 
   16334:	03 00 00 b3 	sethi  %hi(0x2cc00), %g1
   16338:	84 10 63 ac 	or  %g1, 0x3ac, %g2	! 2cfac <userid.2>
   1633c:	c2 07 a0 48 	ld  [ %fp + 0x48 ], %g1
   16340:	c2 00 60 18 	ld  [ %g1 + 0x18 ], %g1
   16344:	c2 20 80 00 	st  %g1, [ %g2 ]
   16348:	03 00 00 b3 	sethi  %hi(0x2cc00), %g1
   1634c:	84 10 63 b0 	or  %g1, 0x3b0, %g2	! 2cfb0 <useridknown.3>
   16350:	82 10 20 01 	mov  1, %g1
   16354:	c2 20 80 00 	st  %g1, [ %g2 ]
   16358:	d0 07 bf f4 	ld  [ %fp + -12 ], %o0
   1635c:	03 00 00 6b 	sethi  %hi(0x1ac00), %g1
   16360:	92 10 60 98 	or  %g1, 0x98, %o1	! 1ac98 <_IO_stdin_used+0x6e8>
   16364:	03 00 00 b3 	sethi  %hi(0x2cc00), %g1
   16368:	94 10 63 a0 	or  %g1, 0x3a0, %o2	! 2cfa0 <username.1>
   1636c:	40 00 58 20 	call  2c3ec <sprintf@plt>
   16370:	01 00 00 00 	nop 
   16374:	d0 07 bf f4 	ld  [ %fp + -12 ], %o0
   16378:	40 00 58 05 	call  2c38c <strlen@plt>
   1637c:	01 00 00 00 	nop 
   16380:	82 10 00 08 	mov  %o0, %g1
   16384:	84 10 00 01 	mov  %g1, %g2
   16388:	c2 07 bf f4 	ld  [ %fp + -12 ], %g1
   1638c:	82 00 40 02 	add  %g1, %g2, %g1
   16390:	c2 27 bf f4 	st  %g1, [ %fp + -12 ]
   16394:	03 00 00 b3 	sethi  %hi(0x2cc00), %g1
   16398:	82 10 63 c8 	or  %g1, 0x3c8, %g1	! 2cfc8 <groupidknown.6>
   1639c:	c2 00 40 00 	ld  [ %g1 ], %g1
   163a0:	80 a0 60 00 	cmp  %g1, 0
   163a4:	02 80 00 0c 	be  163d4 <lsfile+0x204>
   163a8:	01 00 00 00 	nop 
   163ac:	c4 07 a0 48 	ld  [ %fp + 0x48 ], %g2
   163b0:	03 00 00 b3 	sethi  %hi(0x2cc00), %g1
   163b4:	82 10 63 c4 	or  %g1, 0x3c4, %g1	! 2cfc4 <groupid.5>
   163b8:	c4 00 a0 1c 	ld  [ %g2 + 0x1c ], %g2
   163bc:	c2 00 40 00 	ld  [ %g1 ], %g1
   163c0:	80 a0 80 01 	cmp  %g2, %g1
   163c4:	12 80 00 04 	bne  163d4 <lsfile+0x204>
   163c8:	01 00 00 00 	nop 
   163cc:	10 80 00 13 	b  16418 <lsfile+0x248>
   163d0:	01 00 00 00 	nop 
   163d4:	c4 07 a0 48 	ld  [ %fp + 0x48 ], %g2
   163d8:	03 00 00 b3 	sethi  %hi(0x2cc00), %g1
   163dc:	90 10 63 b8 	or  %g1, 0x3b8, %o0	! 2cfb8 <groupname.4>
   163e0:	03 00 00 6b 	sethi  %hi(0x1ac00), %g1
   163e4:	92 10 60 90 	or  %g1, 0x90, %o1	! 1ac90 <_IO_stdin_used+0x6e0>
   163e8:	d4 00 a0 1c 	ld  [ %g2 + 0x1c ], %o2
   163ec:	40 00 58 00 	call  2c3ec <sprintf@plt>
   163f0:	01 00 00 00 	nop 
   163f4:	03 00 00 b3 	sethi  %hi(0x2cc00), %g1
   163f8:	84 10 63 c4 	or  %g1, 0x3c4, %g2	! 2cfc4 <groupid.5>
   163fc:	c2 07 a0 48 	ld  [ %fp + 0x48 ], %g1
   16400:	c2 00 60 1c 	ld  [ %g1 + 0x1c ], %g1
   16404:	c2 20 80 00 	st  %g1, [ %g2 ]
   16408:	03 00 00 b3 	sethi  %hi(0x2cc00), %g1
   1640c:	84 10 63 c8 	or  %g1, 0x3c8, %g2	! 2cfc8 <groupidknown.6>
   16410:	82 10 20 01 	mov  1, %g1
   16414:	c2 20 80 00 	st  %g1, [ %g2 ]
   16418:	d0 07 bf f4 	ld  [ %fp + -12 ], %o0
   1641c:	03 00 00 6b 	sethi  %hi(0x1ac00), %g1
   16420:	92 10 60 98 	or  %g1, 0x98, %o1	! 1ac98 <_IO_stdin_used+0x6e8>
   16424:	03 00 00 b3 	sethi  %hi(0x2cc00), %g1
   16428:	94 10 63 b8 	or  %g1, 0x3b8, %o2	! 2cfb8 <groupname.4>
   1642c:	40 00 57 f0 	call  2c3ec <sprintf@plt>
   16430:	01 00 00 00 	nop 
   16434:	d0 07 bf f4 	ld  [ %fp + -12 ], %o0
   16438:	40 00 57 d5 	call  2c38c <strlen@plt>
   1643c:	01 00 00 00 	nop 
   16440:	82 10 00 08 	mov  %o0, %g1
   16444:	84 10 00 01 	mov  %g1, %g2
   16448:	c2 07 bf f4 	ld  [ %fp + -12 ], %g1
   1644c:	82 00 40 02 	add  %g1, %g2, %g1
   16450:	c2 27 bf f4 	st  %g1, [ %fp + -12 ]
   16454:	c2 07 a0 48 	ld  [ %fp + 0x48 ], %g1
   16458:	c4 00 60 10 	ld  [ %g1 + 0x10 ], %g2
   1645c:	03 00 00 3c 	sethi  %hi(0xf000), %g1
   16460:	84 08 80 01 	and  %g2, %g1, %g2
   16464:	03 00 00 18 	sethi  %hi(0x6000), %g1
   16468:	80 a0 80 01 	cmp  %g2, %g1
   1646c:	02 80 00 0c 	be  1649c <lsfile+0x2cc>
   16470:	01 00 00 00 	nop 
   16474:	c2 07 a0 48 	ld  [ %fp + 0x48 ], %g1
   16478:	c4 00 60 10 	ld  [ %g1 + 0x10 ], %g2
   1647c:	03 00 00 3c 	sethi  %hi(0xf000), %g1
   16480:	84 08 80 01 	and  %g2, %g1, %g2
   16484:	03 00 00 08 	sethi  %hi(0x2000), %g1
   16488:	80 a0 80 01 	cmp  %g2, %g1
   1648c:	02 80 00 04 	be  1649c <lsfile+0x2cc>
   16490:	01 00 00 00 	nop 
   16494:	10 80 00 17 	b  164f0 <lsfile+0x320>
   16498:	01 00 00 00 	nop 
   1649c:	c4 07 a0 48 	ld  [ %fp + 0x48 ], %g2
   164a0:	c2 00 a0 20 	ld  [ %g2 + 0x20 ], %g1
   164a4:	9b 28 60 18 	sll  %g1, 0x18, %o5
   164a8:	c2 00 a0 24 	ld  [ %g2 + 0x24 ], %g1
   164ac:	83 30 60 08 	srl  %g1, 8, %g1
   164b0:	c8 00 a0 20 	ld  [ %g2 + 0x20 ], %g4
   164b4:	86 13 40 01 	or  %o5, %g1, %g3
   164b8:	85 31 20 08 	srl  %g4, 8, %g2
   164bc:	86 08 e0 ff 	and  %g3, 0xff, %g3
   164c0:	c2 07 a0 48 	ld  [ %fp + 0x48 ], %g1
   164c4:	c2 00 60 24 	ld  [ %g1 + 0x24 ], %g1
   164c8:	84 08 60 ff 	and  %g1, 0xff, %g2
   164cc:	d0 07 bf f4 	ld  [ %fp + -12 ], %o0
   164d0:	03 00 00 6b 	sethi  %hi(0x1ac00), %g1
   164d4:	92 10 60 a0 	or  %g1, 0xa0, %o1	! 1aca0 <_IO_stdin_used+0x6f0>
   164d8:	94 10 00 03 	mov  %g3, %o2
   164dc:	96 10 00 02 	mov  %g2, %o3
   164e0:	40 00 57 c3 	call  2c3ec <sprintf@plt>
   164e4:	01 00 00 00 	nop 
   164e8:	10 80 00 09 	b  1650c <lsfile+0x33c>
   164ec:	01 00 00 00 	nop 
   164f0:	c4 07 a0 48 	ld  [ %fp + 0x48 ], %g2
   164f4:	d0 07 bf f4 	ld  [ %fp + -12 ], %o0
   164f8:	03 00 00 6b 	sethi  %hi(0x1ac00), %g1
   164fc:	92 10 60 b0 	or  %g1, 0xb0, %o1	! 1acb0 <_IO_stdin_used+0x700>
   16500:	d4 00 a0 2c 	ld  [ %g2 + 0x2c ], %o2
   16504:	40 00 57 ba 	call  2c3ec <sprintf@plt>
   16508:	01 00 00 00 	nop 
   1650c:	d0 07 bf f4 	ld  [ %fp + -12 ], %o0
   16510:	40 00 57 9f 	call  2c38c <strlen@plt>
   16514:	01 00 00 00 	nop 
   16518:	82 10 00 08 	mov  %o0, %g1
   1651c:	84 10 00 01 	mov  %g1, %g2
   16520:	c2 07 bf f4 	ld  [ %fp + -12 ], %g1
   16524:	82 00 40 02 	add  %g1, %g2, %g1
   16528:	c2 27 bf f4 	st  %g1, [ %fp + -12 ]
   1652c:	c2 07 a0 48 	ld  [ %fp + 0x48 ], %g1
   16530:	d0 00 60 40 	ld  [ %g1 + 0x40 ], %o0
   16534:	40 00 07 70 	call  182f4 <timestring>
   16538:	01 00 00 00 	nop 
   1653c:	84 10 00 08 	mov  %o0, %g2
   16540:	d0 07 bf f4 	ld  [ %fp + -12 ], %o0
   16544:	03 00 00 6b 	sethi  %hi(0x1ac00), %g1
   16548:	92 10 60 b8 	or  %g1, 0xb8, %o1	! 1acb8 <_IO_stdin_used+0x708>
   1654c:	94 10 00 02 	mov  %g2, %o2
   16550:	40 00 57 a7 	call  2c3ec <sprintf@plt>
   16554:	01 00 00 00 	nop 
   16558:	84 07 be e8 	add  %fp, -280, %g2
   1655c:	03 00 00 b3 	sethi  %hi(0x2cc00), %g1
   16560:	82 10 62 3c 	or  %g1, 0x23c, %g1	! 2ce3c <stdout@@GLIBC_2.0>
   16564:	90 10 00 02 	mov  %g2, %o0
   16568:	d2 00 40 00 	ld  [ %g1 ], %o1
   1656c:	40 00 57 85 	call  2c380 <fputs@plt>
   16570:	01 00 00 00 	nop 
   16574:	03 00 00 b3 	sethi  %hi(0x2cc00), %g1
   16578:	82 10 62 3c 	or  %g1, 0x23c, %g1	! 2ce3c <stdout@@GLIBC_2.0>
   1657c:	d0 07 a0 44 	ld  [ %fp + 0x44 ], %o0
   16580:	d2 00 40 00 	ld  [ %g1 ], %o1
   16584:	40 00 57 7f 	call  2c380 <fputs@plt>
   16588:	01 00 00 00 	nop 
   1658c:	c2 07 a0 4c 	ld  [ %fp + 0x4c ], %g1
   16590:	82 08 60 01 	and  %g1, 1, %g1
   16594:	80 a0 60 00 	cmp  %g1, 0
   16598:	02 80 00 20 	be  16618 <lsfile+0x448>
   1659c:	01 00 00 00 	nop 
   165a0:	c2 07 a0 48 	ld  [ %fp + 0x48 ], %g1
   165a4:	c4 00 60 10 	ld  [ %g1 + 0x10 ], %g2
   165a8:	03 00 00 3c 	sethi  %hi(0xf000), %g1
   165ac:	84 08 80 01 	and  %g2, %g1, %g2
   165b0:	03 00 00 28 	sethi  %hi(0xa000), %g1
   165b4:	80 a0 80 01 	cmp  %g2, %g1
   165b8:	12 80 00 18 	bne  16618 <lsfile+0x448>
   165bc:	01 00 00 00 	nop 
   165c0:	82 07 be e8 	add  %fp, -280, %g1
   165c4:	d0 07 a0 44 	ld  [ %fp + 0x44 ], %o0
   165c8:	92 10 00 01 	mov  %g1, %o1
   165cc:	94 10 20 ff 	mov  0xff, %o2
   165d0:	40 00 56 d9 	call  2c134 <readlink@plt>
   165d4:	01 00 00 00 	nop 
   165d8:	82 10 00 08 	mov  %o0, %g1
   165dc:	c2 27 bf e8 	st  %g1, [ %fp + -24 ]
   165e0:	c2 07 bf e8 	ld  [ %fp + -24 ], %g1
   165e4:	80 a0 60 00 	cmp  %g1, 0
   165e8:	06 80 00 0c 	bl  16618 <lsfile+0x448>
   165ec:	01 00 00 00 	nop 
   165f0:	c4 07 bf e8 	ld  [ %fp + -24 ], %g2
   165f4:	82 07 bf f8 	add  %fp, -8, %g1
   165f8:	82 00 40 02 	add  %g1, %g2, %g1
   165fc:	c0 28 7e f0 	clrb  [ %g1 + -272 ]
   16600:	84 07 be e8 	add  %fp, -280, %g2
   16604:	03 00 00 6b 	sethi  %hi(0x1ac00), %g1
   16608:	90 10 60 c0 	or  %g1, 0xc0, %o0	! 1acc0 <_IO_stdin_used+0x710>
   1660c:	92 10 00 02 	mov  %g2, %o1
   16610:	40 00 57 e6 	call  2c5a8 <printf@plt>
   16614:	01 00 00 00 	nop 
   16618:	c2 07 a0 4c 	ld  [ %fp + 0x4c ], %g1
   1661c:	82 08 60 20 	and  %g1, 0x20, %g1
   16620:	80 a0 60 00 	cmp  %g1, 0
   16624:	02 80 00 38 	be  16704 <lsfile+0x534>
   16628:	01 00 00 00 	nop 
   1662c:	d0 07 a0 44 	ld  [ %fp + 0x44 ], %o0
   16630:	40 00 57 57 	call  2c38c <strlen@plt>
   16634:	01 00 00 00 	nop 
   16638:	82 10 00 08 	mov  %o0, %g1
   1663c:	c2 27 bf e8 	st  %g1, [ %fp + -24 ]
   16640:	c2 07 bf e8 	ld  [ %fp + -24 ], %g1
   16644:	80 a0 60 13 	cmp  %g1, 0x13
   16648:	14 80 00 1a 	bg  166b0 <lsfile+0x4e0>
   1664c:	01 00 00 00 	nop 
   16650:	c2 07 bf e8 	ld  [ %fp + -24 ], %g1
   16654:	80 a0 60 13 	cmp  %g1, 0x13
   16658:	14 80 00 0d 	bg  1668c <lsfile+0x4bc>
   1665c:	01 00 00 00 	nop 
   16660:	03 00 00 b3 	sethi  %hi(0x2cc00), %g1
   16664:	82 10 62 3c 	or  %g1, 0x23c, %g1	! 2ce3c <stdout@@GLIBC_2.0>
   16668:	90 10 20 20 	mov  0x20, %o0
   1666c:	d2 00 40 00 	ld  [ %g1 ], %o1
   16670:	40 00 57 59 	call  2c3d4 <fputc@plt>
   16674:	01 00 00 00 	nop 
   16678:	c2 07 bf e8 	ld  [ %fp + -24 ], %g1
   1667c:	82 00 60 01 	inc  %g1
   16680:	c2 27 bf e8 	st  %g1, [ %fp + -24 ]
   16684:	10 bf ff f3 	b  16650 <lsfile+0x480>
   16688:	01 00 00 00 	nop 
   1668c:	03 00 00 b3 	sethi  %hi(0x2cc00), %g1
   16690:	84 10 63 90 	or  %g1, 0x390, %g2	! 2cf90 <linelen>
   16694:	03 00 00 b3 	sethi  %hi(0x2cc00), %g1
   16698:	82 10 63 90 	or  %g1, 0x390, %g1	! 2cf90 <linelen>
   1669c:	c2 00 40 00 	ld  [ %g1 ], %g1
   166a0:	82 00 60 14 	add  %g1, 0x14, %g1
   166a4:	c2 20 80 00 	st  %g1, [ %g2 ]
   166a8:	10 80 00 06 	b  166c0 <lsfile+0x4f0>
   166ac:	01 00 00 00 	nop 
   166b0:	03 00 00 b3 	sethi  %hi(0x2cc00), %g1
   166b4:	84 10 63 90 	or  %g1, 0x390, %g2	! 2cf90 <linelen>
   166b8:	82 10 20 50 	mov  0x50, %g1
   166bc:	c2 20 80 00 	st  %g1, [ %g2 ]
   166c0:	03 00 00 b3 	sethi  %hi(0x2cc00), %g1
   166c4:	82 10 63 90 	or  %g1, 0x390, %g1	! 2cf90 <linelen>
   166c8:	c2 00 40 00 	ld  [ %g1 ], %g1
   166cc:	80 a0 60 4f 	cmp  %g1, 0x4f
   166d0:	04 80 00 13 	ble  1671c <lsfile+0x54c>
   166d4:	01 00 00 00 	nop 
   166d8:	03 00 00 b3 	sethi  %hi(0x2cc00), %g1
   166dc:	82 10 62 3c 	or  %g1, 0x23c, %g1	! 2ce3c <stdout@@GLIBC_2.0>
   166e0:	90 10 20 0a 	mov  0xa, %o0
   166e4:	d2 00 40 00 	ld  [ %g1 ], %o1
   166e8:	40 00 57 3b 	call  2c3d4 <fputc@plt>
   166ec:	01 00 00 00 	nop 
   166f0:	03 00 00 b3 	sethi  %hi(0x2cc00), %g1
   166f4:	82 10 63 90 	or  %g1, 0x390, %g1	! 2cf90 <linelen>
   166f8:	c0 20 40 00 	clr  [ %g1 ]
   166fc:	10 80 00 08 	b  1671c <lsfile+0x54c>
   16700:	01 00 00 00 	nop 
   16704:	03 00 00 b3 	sethi  %hi(0x2cc00), %g1
   16708:	82 10 62 3c 	or  %g1, 0x23c, %g1	! 2ce3c <stdout@@GLIBC_2.0>
   1670c:	90 10 20 0a 	mov  0xa, %o0
   16710:	d2 00 40 00 	ld  [ %g1 ], %o1
   16714:	40 00 57 30 	call  2c3d4 <fputc@plt>
   16718:	01 00 00 00 	nop 
   1671c:	01 00 00 00 	nop 
   16720:	81 c7 e0 08 	ret 
   16724:	81 e8 00 00 	restore 

00016728 <dev_to_name>:
dev_to_name():
   16728:	9d e3 bf 78 	save  %sp, -136, %sp
   1672c:	f0 3f bf f0 	std  %i0, [ %fp + -16 ]
   16730:	f4 27 a0 4c 	st  %i2, [ %fp + 0x4c ]
   16734:	d0 07 a0 4c 	ld  [ %fp + 0x4c ], %o0
   16738:	03 00 00 6b 	sethi  %hi(0x1ac00), %g1
   1673c:	92 10 60 c8 	or  %g1, 0xc8, %o1	! 1acc8 <_IO_stdin_used+0x718>
   16740:	40 00 57 a3 	call  2c5cc <strcpy@plt>
   16744:	01 00 00 00 	nop 
   16748:	c2 07 bf f0 	ld  [ %fp + -16 ], %g1
   1674c:	87 28 60 18 	sll  %g1, 0x18, %g3
   16750:	c2 07 bf f4 	ld  [ %fp + -12 ], %g1
   16754:	83 30 60 08 	srl  %g1, 8, %g1
   16758:	c4 07 bf f0 	ld  [ %fp + -16 ], %g2
   1675c:	86 10 c0 01 	or  %g3, %g1, %g3
   16760:	c6 27 bf ec 	st  %g3, [ %fp + -20 ]
   16764:	85 30 a0 08 	srl  %g2, 8, %g2
   16768:	c4 27 bf e8 	st  %g2, [ %fp + -24 ]
   1676c:	c4 1f bf e8 	ldd  [ %fp + -24 ], %g2
   16770:	c4 3f bf e8 	std  %g2, [ %fp + -24 ]
   16774:	c6 07 bf e8 	ld  [ %fp + -24 ], %g3
   16778:	80 a0 e0 00 	cmp  %g3, 0
   1677c:	12 80 00 12 	bne  167c4 <dev_to_name+0x9c>
   16780:	01 00 00 00 	nop 
   16784:	c2 07 bf ec 	ld  [ %fp + -20 ], %g1
   16788:	80 a0 60 4b 	cmp  %g1, 0x4b
   1678c:	12 80 00 0e 	bne  167c4 <dev_to_name+0x9c>
   16790:	01 00 00 00 	nop 
   16794:	c4 1f bf f0 	ldd  [ %fp + -16 ], %g2
   16798:	84 08 a0 00 	and  %g2, 0, %g2
   1679c:	86 08 e0 ff 	and  %g3, 0xff, %g3
   167a0:	d0 07 a0 4c 	ld  [ %fp + 0x4c ], %o0
   167a4:	03 00 00 6b 	sethi  %hi(0x1ac00), %g1
   167a8:	92 10 60 d0 	or  %g1, 0xd0, %o1	! 1acd0 <_IO_stdin_used+0x720>
   167ac:	94 10 00 02 	mov  %g2, %o2
   167b0:	96 10 00 03 	mov  %g3, %o3
   167b4:	40 00 57 0e 	call  2c3ec <sprintf@plt>
   167b8:	01 00 00 00 	nop 
   167bc:	10 80 00 4d 	b  168f0 <dev_to_name+0x1c8>
   167c0:	01 00 00 00 	nop 
   167c4:	c2 07 bf f0 	ld  [ %fp + -16 ], %g1
   167c8:	87 28 60 18 	sll  %g1, 0x18, %g3
   167cc:	c2 07 bf f4 	ld  [ %fp + -12 ], %g1
   167d0:	83 30 60 08 	srl  %g1, 8, %g1
   167d4:	c4 07 bf f0 	ld  [ %fp + -16 ], %g2
   167d8:	86 10 c0 01 	or  %g3, %g1, %g3
   167dc:	c6 27 bf e4 	st  %g3, [ %fp + -28 ]
   167e0:	85 30 a0 08 	srl  %g2, 8, %g2
   167e4:	c4 27 bf e0 	st  %g2, [ %fp + -32 ]
   167e8:	c4 1f bf e0 	ldd  [ %fp + -32 ], %g2
   167ec:	c4 3f bf e0 	std  %g2, [ %fp + -32 ]
   167f0:	c6 07 bf e0 	ld  [ %fp + -32 ], %g3
   167f4:	80 a0 e0 00 	cmp  %g3, 0
   167f8:	12 80 00 14 	bne  16848 <dev_to_name+0x120>
   167fc:	01 00 00 00 	nop 
   16800:	c2 07 bf e4 	ld  [ %fp + -28 ], %g1
   16804:	80 a0 60 04 	cmp  %g1, 4
   16808:	12 80 00 10 	bne  16848 <dev_to_name+0x120>
   1680c:	01 00 00 00 	nop 
   16810:	c4 1f bf f0 	ldd  [ %fp + -16 ], %g2
   16814:	84 08 a0 00 	and  %g2, 0, %g2
   16818:	86 08 e0 ff 	and  %g3, 0xff, %g3
   1681c:	86 80 ff c0 	addcc  %g3, -64, %g3
   16820:	84 40 bf ff 	addx  %g2, -1, %g2
   16824:	d0 07 a0 4c 	ld  [ %fp + 0x4c ], %o0
   16828:	03 00 00 6b 	sethi  %hi(0x1ac00), %g1
   1682c:	92 10 60 d8 	or  %g1, 0xd8, %o1	! 1acd8 <_IO_stdin_used+0x728>
   16830:	94 10 00 02 	mov  %g2, %o2
   16834:	96 10 00 03 	mov  %g3, %o3
   16838:	40 00 56 ed 	call  2c3ec <sprintf@plt>
   1683c:	01 00 00 00 	nop 
   16840:	10 80 00 2c 	b  168f0 <dev_to_name+0x1c8>
   16844:	01 00 00 00 	nop 
   16848:	c2 07 bf f0 	ld  [ %fp + -16 ], %g1
   1684c:	87 28 60 18 	sll  %g1, 0x18, %g3
   16850:	c2 07 bf f4 	ld  [ %fp + -12 ], %g1
   16854:	83 30 60 08 	srl  %g1, 8, %g1
   16858:	c4 07 bf f0 	ld  [ %fp + -16 ], %g2
   1685c:	86 10 c0 01 	or  %g3, %g1, %g3
   16860:	c6 27 bf dc 	st  %g3, [ %fp + -36 ]
   16864:	85 30 a0 08 	srl  %g2, 8, %g2
   16868:	c4 27 bf d8 	st  %g2, [ %fp + -40 ]
   1686c:	c4 1f bf d8 	ldd  [ %fp + -40 ], %g2
   16870:	c4 3f bf d8 	std  %g2, [ %fp + -40 ]
   16874:	c6 07 bf d8 	ld  [ %fp + -40 ], %g3
   16878:	80 a0 e0 00 	cmp  %g3, 0
   1687c:	12 80 00 1d 	bne  168f0 <dev_to_name+0x1c8>
   16880:	01 00 00 00 	nop 
   16884:	c2 07 bf dc 	ld  [ %fp + -36 ], %g1
   16888:	80 a0 60 03 	cmp  %g1, 3
   1688c:	12 80 00 19 	bne  168f0 <dev_to_name+0x1c8>
   16890:	01 00 00 00 	nop 
   16894:	03 00 00 b3 	sethi  %hi(0x2cc00), %g1
   16898:	96 10 61 e0 	or  %g1, 0x1e0, %o3	! 2cde0 <master>
   1689c:	c4 1f bf f0 	ldd  [ %fp + -16 ], %g2
   168a0:	98 08 a0 00 	and  %g2, 0, %o4
   168a4:	9a 08 e0 ff 	and  %g3, 0xff, %o5
   168a8:	89 2b 20 1c 	sll  %o4, 0x1c, %g4
   168ac:	83 33 60 04 	srl  %o5, 4, %g1
   168b0:	86 11 00 01 	or  %g4, %g1, %g3
   168b4:	85 33 20 04 	srl  %o4, 4, %g2
   168b8:	c2 0a c0 03 	ldub  [ %o3 + %g3 ], %g1
   168bc:	83 28 60 18 	sll  %g1, 0x18, %g1
   168c0:	89 38 60 18 	sra  %g1, 0x18, %g4
   168c4:	c4 1f bf f0 	ldd  [ %fp + -16 ], %g2
   168c8:	84 08 a0 00 	and  %g2, 0, %g2
   168cc:	86 08 e0 0f 	and  %g3, 0xf, %g3
   168d0:	d0 07 a0 4c 	ld  [ %fp + 0x4c ], %o0
   168d4:	03 00 00 6b 	sethi  %hi(0x1ac00), %g1
   168d8:	92 10 60 e0 	or  %g1, 0xe0, %o1	! 1ace0 <_IO_stdin_used+0x730>
   168dc:	94 10 00 04 	mov  %g4, %o2
   168e0:	96 10 00 02 	mov  %g2, %o3
   168e4:	98 10 00 03 	mov  %g3, %o4
   168e8:	40 00 56 c1 	call  2c3ec <sprintf@plt>
   168ec:	01 00 00 00 	nop 
   168f0:	01 00 00 00 	nop 
   168f4:	81 c7 e0 08 	ret 
   168f8:	81 e8 00 00 	restore 

000168fc <do_ps>:
do_ps():
   168fc:	9d e3 bf 28 	save  %sp, -216, %sp
   16900:	f0 27 a0 44 	st  %i0, [ %fp + 0x44 ]
   16904:	f2 27 a0 48 	st  %i1, [ %fp + 0x48 ]
   16908:	03 00 00 6b 	sethi  %hi(0x1ac00), %g1
   1690c:	90 10 60 e8 	or  %g1, 0xe8, %o0	! 1ace8 <_IO_stdin_used+0x738>
   16910:	40 00 57 26 	call  2c5a8 <printf@plt>
   16914:	01 00 00 00 	nop 
   16918:	03 00 00 6b 	sethi  %hi(0x1ac00), %g1
   1691c:	90 10 61 18 	or  %g1, 0x118, %o0	! 1ad18 <_IO_stdin_used+0x768>
   16920:	92 10 20 00 	clr  %o1
   16924:	40 00 56 e8 	call  2c4c4 <open@plt>
   16928:	01 00 00 00 	nop 
   1692c:	82 10 00 08 	mov  %o0, %g1
   16930:	c2 27 bf f0 	st  %g1, [ %fp + -16 ]
   16934:	c2 07 bf f0 	ld  [ %fp + -16 ], %g1
   16938:	80 a0 7f ff 	cmp  %g1, -1
   1693c:	12 80 00 08 	bne  1695c <do_ps+0x60>
   16940:	01 00 00 00 	nop 
   16944:	03 00 00 6b 	sethi  %hi(0x1ac00), %g1
   16948:	90 10 61 28 	or  %g1, 0x128, %o0	! 1ad28 <_IO_stdin_used+0x778>
   1694c:	40 00 56 36 	call  2c224 <perror@plt>
   16950:	01 00 00 00 	nop 
   16954:	10 80 02 dd 	b  174c8 <do_ps+0xbcc>
   16958:	01 00 00 00 	nop 
   1695c:	d0 07 bf f0 	ld  [ %fp + -16 ], %o0
   16960:	03 00 00 b5 	sethi  %hi(0x2d400), %g1
   16964:	92 10 61 00 	or  %g1, 0x100, %o1	! 2d500 <psbuf>
   16968:	94 10 20 ff 	mov  0xff, %o2
   1696c:	40 00 57 12 	call  2c5b4 <read@plt>
   16970:	01 00 00 00 	nop 
   16974:	82 10 00 08 	mov  %o0, %g1
   16978:	c2 27 bf d0 	st  %g1, [ %fp + -48 ]
   1697c:	d0 07 bf f0 	ld  [ %fp + -16 ], %o0
   16980:	40 00 56 20 	call  2c200 <close@plt>
   16984:	01 00 00 00 	nop 
   16988:	c2 07 bf d0 	ld  [ %fp + -48 ], %g1
   1698c:	80 a0 60 00 	cmp  %g1, 0
   16990:	14 80 00 08 	bg  169b0 <do_ps+0xb4>
   16994:	01 00 00 00 	nop 
   16998:	03 00 00 6b 	sethi  %hi(0x1ac00), %g1
   1699c:	90 10 61 48 	or  %g1, 0x148, %o0	! 1ad48 <_IO_stdin_used+0x798>
   169a0:	40 00 56 21 	call  2c224 <perror@plt>
   169a4:	01 00 00 00 	nop 
   169a8:	10 80 02 c8 	b  174c8 <do_ps+0xbcc>
   169ac:	01 00 00 00 	nop 
   169b0:	03 00 00 b5 	sethi  %hi(0x2d400), %g1
   169b4:	84 10 61 00 	or  %g1, 0x100, %g2	! 2d500 <psbuf>
   169b8:	c2 07 bf d0 	ld  [ %fp + -48 ], %g1
   169bc:	82 00 80 01 	add  %g2, %g1, %g1
   169c0:	c0 28 40 00 	clrb  [ %g1 ]
   169c4:	03 00 00 b5 	sethi  %hi(0x2d400), %g1
   169c8:	82 10 61 00 	or  %g1, 0x100, %g1	! 2d500 <psbuf>
   169cc:	c0 28 60 ff 	clrb  [ %g1 + 0xff ]
   169d0:	03 00 00 b5 	sethi  %hi(0x2d400), %g1
   169d4:	82 10 61 00 	or  %g1, 0x100, %g1	! 2d500 <psbuf>
   169d8:	c2 27 bf d4 	st  %g1, [ %fp + -44 ]
   169dc:	d0 07 bf d4 	ld  [ %fp + -44 ], %o0
   169e0:	40 00 55 d8 	call  2c140 <atol@plt>
   169e4:	01 00 00 00 	nop 
   169e8:	82 10 00 08 	mov  %o0, %g1
   169ec:	c2 27 bf c8 	st  %g1, [ %fp + -56 ]
   169f0:	90 10 20 00 	clr  %o0
   169f4:	40 00 56 57 	call  2c350 <time@plt>
   169f8:	01 00 00 00 	nop 
   169fc:	82 10 00 08 	mov  %o0, %g1
   16a00:	c2 27 bf cc 	st  %g1, [ %fp + -52 ]
   16a04:	03 00 00 6b 	sethi  %hi(0x1ac00), %g1
   16a08:	90 10 61 60 	or  %g1, 0x160, %o0	! 1ad60 <_IO_stdin_used+0x7b0>
   16a0c:	40 00 56 a8 	call  2c4ac <opendir@plt>
   16a10:	01 00 00 00 	nop 
   16a14:	82 10 00 08 	mov  %o0, %g1
   16a18:	c2 27 bf e4 	st  %g1, [ %fp + -28 ]
   16a1c:	c2 07 bf e4 	ld  [ %fp + -28 ], %g1
   16a20:	80 a0 60 00 	cmp  %g1, 0
   16a24:	12 80 00 04 	bne  16a34 <do_ps+0x138>
   16a28:	01 00 00 00 	nop 
   16a2c:	10 80 02 a7 	b  174c8 <do_ps+0xbcc>
   16a30:	01 00 00 00 	nop 
   16a34:	d0 07 bf e4 	ld  [ %fp + -28 ], %o0
   16a38:	40 00 56 d6 	call  2c590 <readdir@plt>
   16a3c:	01 00 00 00 	nop 
   16a40:	82 10 00 08 	mov  %o0, %g1
   16a44:	c2 27 bf d8 	st  %g1, [ %fp + -40 ]
   16a48:	c2 07 bf d8 	ld  [ %fp + -40 ], %g1
   16a4c:	80 a0 60 00 	cmp  %g1, 0
   16a50:	02 80 02 9b 	be  174bc <do_ps+0xbc0>
   16a54:	01 00 00 00 	nop 
   16a58:	c0 27 bf f4 	clr  [ %fp + -12 ]
   16a5c:	c2 07 bf d8 	ld  [ %fp + -40 ], %g1
   16a60:	82 00 60 0b 	add  %g1, 0xb, %g1
   16a64:	90 10 00 01 	mov  %g1, %o0
   16a68:	40 00 56 49 	call  2c38c <strlen@plt>
   16a6c:	01 00 00 00 	nop 
   16a70:	82 10 00 08 	mov  %o0, %g1
   16a74:	84 10 00 01 	mov  %g1, %g2
   16a78:	c2 07 bf f4 	ld  [ %fp + -12 ], %g1
   16a7c:	80 a0 40 02 	cmp  %g1, %g2
   16a80:	1a 80 00 1d 	bcc  16af4 <do_ps+0x1f8>
   16a84:	01 00 00 00 	nop 
   16a88:	40 00 56 c5 	call  2c59c <__ctype_b_loc@plt>
   16a8c:	01 00 00 00 	nop 
   16a90:	82 10 00 08 	mov  %o0, %g1
   16a94:	86 10 00 01 	mov  %g1, %g3
   16a98:	c4 07 bf d8 	ld  [ %fp + -40 ], %g2
   16a9c:	c2 07 bf f4 	ld  [ %fp + -12 ], %g1
   16aa0:	82 00 80 01 	add  %g2, %g1, %g1
   16aa4:	c2 08 60 0b 	ldub  [ %g1 + 0xb ], %g1
   16aa8:	83 28 60 18 	sll  %g1, 0x18, %g1
   16aac:	83 38 60 18 	sra  %g1, 0x18, %g1
   16ab0:	84 00 40 01 	add  %g1, %g1, %g2
   16ab4:	c2 00 c0 00 	ld  [ %g3 ], %g1
   16ab8:	82 00 80 01 	add  %g2, %g1, %g1
   16abc:	c2 10 40 00 	lduh  [ %g1 ], %g1
   16ac0:	83 28 60 10 	sll  %g1, 0x10, %g1
   16ac4:	83 30 60 10 	srl  %g1, 0x10, %g1
   16ac8:	82 08 60 08 	and  %g1, 8, %g1
   16acc:	80 a0 60 00 	cmp  %g1, 0
   16ad0:	12 80 00 04 	bne  16ae0 <do_ps+0x1e4>
   16ad4:	01 00 00 00 	nop 
   16ad8:	10 bf ff d7 	b  16a34 <do_ps+0x138>
   16adc:	01 00 00 00 	nop 
   16ae0:	c2 07 bf f4 	ld  [ %fp + -12 ], %g1
   16ae4:	82 00 60 01 	inc  %g1
   16ae8:	c2 27 bf f4 	st  %g1, [ %fp + -12 ]
   16aec:	10 bf ff dc 	b  16a5c <do_ps+0x160>
   16af0:	01 00 00 00 	nop 
   16af4:	c2 07 bf d8 	ld  [ %fp + -40 ], %g1
   16af8:	84 00 60 0b 	add  %g1, 0xb, %g2
   16afc:	03 00 00 b5 	sethi  %hi(0x2d400), %g1
   16b00:	90 10 61 00 	or  %g1, 0x100, %o0	! 2d500 <psbuf>
   16b04:	03 00 00 6b 	sethi  %hi(0x1ac00), %g1
   16b08:	92 10 61 68 	or  %g1, 0x168, %o1	! 1ad68 <_IO_stdin_used+0x7b8>
   16b0c:	94 10 00 02 	mov  %g2, %o2
   16b10:	40 00 56 37 	call  2c3ec <sprintf@plt>
   16b14:	01 00 00 00 	nop 
   16b18:	03 00 00 b5 	sethi  %hi(0x2d400), %g1
   16b1c:	90 10 61 00 	or  %g1, 0x100, %o0	! 2d500 <psbuf>
   16b20:	92 10 20 00 	clr  %o1
   16b24:	40 00 56 68 	call  2c4c4 <open@plt>
   16b28:	01 00 00 00 	nop 
   16b2c:	82 10 00 08 	mov  %o0, %g1
   16b30:	c2 27 bf f0 	st  %g1, [ %fp + -16 ]
   16b34:	c2 07 bf f0 	ld  [ %fp + -16 ], %g1
   16b38:	80 a0 7f ff 	cmp  %g1, -1
   16b3c:	12 80 00 04 	bne  16b4c <do_ps+0x250>
   16b40:	01 00 00 00 	nop 
   16b44:	10 bf ff bc 	b  16a34 <do_ps+0x138>
   16b48:	01 00 00 00 	nop 
   16b4c:	d0 07 bf f0 	ld  [ %fp + -16 ], %o0
   16b50:	03 00 00 b5 	sethi  %hi(0x2d400), %g1
   16b54:	92 10 61 00 	or  %g1, 0x100, %o1	! 2d500 <psbuf>
   16b58:	94 10 20 ff 	mov  0xff, %o2
   16b5c:	40 00 56 96 	call  2c5b4 <read@plt>
   16b60:	01 00 00 00 	nop 
   16b64:	82 10 00 08 	mov  %o0, %g1
   16b68:	c2 27 bf d0 	st  %g1, [ %fp + -48 ]
   16b6c:	c2 07 bf d0 	ld  [ %fp + -48 ], %g1
   16b70:	80 a0 60 00 	cmp  %g1, 0
   16b74:	14 80 00 0b 	bg  16ba0 <do_ps+0x2a4>
   16b78:	01 00 00 00 	nop 
   16b7c:	03 00 00 6b 	sethi  %hi(0x1ac00), %g1
   16b80:	90 10 61 78 	or  %g1, 0x178, %o0	! 1ad78 <_IO_stdin_used+0x7c8>
   16b84:	40 00 55 a8 	call  2c224 <perror@plt>
   16b88:	01 00 00 00 	nop 
   16b8c:	d0 07 bf f0 	ld  [ %fp + -16 ], %o0
   16b90:	40 00 55 9c 	call  2c200 <close@plt>
   16b94:	01 00 00 00 	nop 
   16b98:	10 bf ff a7 	b  16a34 <do_ps+0x138>
   16b9c:	01 00 00 00 	nop 
   16ba0:	03 00 00 b5 	sethi  %hi(0x2d400), %g1
   16ba4:	84 10 61 00 	or  %g1, 0x100, %g2	! 2d500 <psbuf>
   16ba8:	c2 07 bf d0 	ld  [ %fp + -48 ], %g1
   16bac:	82 00 80 01 	add  %g2, %g1, %g1
   16bb0:	c0 28 40 00 	clrb  [ %g1 ]
   16bb4:	03 00 00 b5 	sethi  %hi(0x2d400), %g1
   16bb8:	82 10 61 00 	or  %g1, 0x100, %g1	! 2d500 <psbuf>
   16bbc:	c0 28 60 ff 	clrb  [ %g1 + 0xff ]
   16bc0:	03 00 00 b5 	sethi  %hi(0x2d400), %g1
   16bc4:	90 10 61 00 	or  %g1, 0x100, %o0	! 2d500 <psbuf>
   16bc8:	92 10 20 29 	mov  0x29, %o1
   16bcc:	40 00 56 26 	call  2c464 <strrchr@plt>
   16bd0:	01 00 00 00 	nop 
   16bd4:	82 10 00 08 	mov  %o0, %g1
   16bd8:	c2 27 bf d4 	st  %g1, [ %fp + -44 ]
   16bdc:	c2 07 bf d4 	ld  [ %fp + -44 ], %g1
   16be0:	c0 28 40 00 	clrb  [ %g1 ]
   16be4:	03 00 00 b5 	sethi  %hi(0x2d400), %g1
   16be8:	86 10 60 e8 	or  %g1, 0xe8, %g3	! 2d4e8 <statec>
   16bec:	84 10 20 02 	mov  2, %g2
   16bf0:	c2 07 bf d4 	ld  [ %fp + -44 ], %g1
   16bf4:	82 00 80 01 	add  %g2, %g1, %g1
   16bf8:	c2 08 40 00 	ldub  [ %g1 ], %g1
   16bfc:	c2 28 c0 00 	stb  %g1, [ %g3 ]
   16c00:	c2 07 bf d4 	ld  [ %fp + -44 ], %g1
   16c04:	82 00 60 04 	add  %g1, 4, %g1
   16c08:	c2 27 bf d4 	st  %g1, [ %fp + -44 ]
   16c0c:	d0 07 bf d4 	ld  [ %fp + -44 ], %o0
   16c10:	40 00 56 36 	call  2c4e8 <atoi@plt>
   16c14:	01 00 00 00 	nop 
   16c18:	82 10 00 08 	mov  %o0, %g1
   16c1c:	84 10 00 01 	mov  %g1, %g2
   16c20:	03 00 00 b5 	sethi  %hi(0x2d400), %g1
   16c24:	82 10 62 18 	or  %g1, 0x218, %g1	! 2d618 <ppid>
   16c28:	c4 20 40 00 	st  %g2, [ %g1 ]
   16c2c:	d0 07 bf d4 	ld  [ %fp + -44 ], %o0
   16c30:	92 10 20 20 	mov  0x20, %o1
   16c34:	40 00 55 5b 	call  2c1a0 <strchr@plt>
   16c38:	01 00 00 00 	nop 
   16c3c:	82 10 00 08 	mov  %o0, %g1
   16c40:	82 00 60 01 	inc  %g1
   16c44:	c2 27 bf d4 	st  %g1, [ %fp + -44 ]
   16c48:	d0 07 bf d4 	ld  [ %fp + -44 ], %o0
   16c4c:	40 00 56 27 	call  2c4e8 <atoi@plt>
   16c50:	01 00 00 00 	nop 
   16c54:	82 10 00 08 	mov  %o0, %g1
   16c58:	84 10 00 01 	mov  %g1, %g2
   16c5c:	03 00 00 b5 	sethi  %hi(0x2d400), %g1
   16c60:	82 10 60 f0 	or  %g1, 0xf0, %g1	! 2d4f0 <pgrp>
   16c64:	c4 20 40 00 	st  %g2, [ %g1 ]
   16c68:	d0 07 bf d4 	ld  [ %fp + -44 ], %o0
   16c6c:	92 10 20 20 	mov  0x20, %o1
   16c70:	40 00 55 4c 	call  2c1a0 <strchr@plt>
   16c74:	01 00 00 00 	nop 
   16c78:	82 10 00 08 	mov  %o0, %g1
   16c7c:	82 00 60 01 	inc  %g1
   16c80:	c2 27 bf d4 	st  %g1, [ %fp + -44 ]
   16c84:	d0 07 bf d4 	ld  [ %fp + -44 ], %o0
   16c88:	40 00 56 18 	call  2c4e8 <atoi@plt>
   16c8c:	01 00 00 00 	nop 
   16c90:	82 10 00 08 	mov  %o0, %g1
   16c94:	84 10 00 01 	mov  %g1, %g2
   16c98:	03 00 00 b5 	sethi  %hi(0x2d400), %g1
   16c9c:	82 10 60 f8 	or  %g1, 0xf8, %g1	! 2d4f8 <session>
   16ca0:	c4 20 40 00 	st  %g2, [ %g1 ]
   16ca4:	d0 07 bf d4 	ld  [ %fp + -44 ], %o0
   16ca8:	92 10 20 20 	mov  0x20, %o1
   16cac:	40 00 55 3d 	call  2c1a0 <strchr@plt>
   16cb0:	01 00 00 00 	nop 
   16cb4:	82 10 00 08 	mov  %o0, %g1
   16cb8:	82 00 60 01 	inc  %g1
   16cbc:	c2 27 bf d4 	st  %g1, [ %fp + -44 ]
   16cc0:	03 00 00 b5 	sethi  %hi(0x2d400), %g1
   16cc4:	a0 10 62 10 	or  %g1, 0x210, %l0	! 2d610 <tty>
   16cc8:	d0 07 bf d4 	ld  [ %fp + -44 ], %o0
   16ccc:	40 00 56 07 	call  2c4e8 <atoi@plt>
   16cd0:	01 00 00 00 	nop 
   16cd4:	82 10 00 08 	mov  %o0, %g1
   16cd8:	c2 24 20 04 	st  %g1, [ %l0 + 4 ]
   16cdc:	83 38 60 1f 	sra  %g1, 0x1f, %g1
   16ce0:	c2 24 00 00 	st  %g1, [ %l0 ]
   16ce4:	d0 07 bf d4 	ld  [ %fp + -44 ], %o0
   16ce8:	92 10 20 20 	mov  0x20, %o1
   16cec:	40 00 55 2d 	call  2c1a0 <strchr@plt>
   16cf0:	01 00 00 00 	nop 
   16cf4:	82 10 00 08 	mov  %o0, %g1
   16cf8:	82 00 60 01 	inc  %g1
   16cfc:	c2 27 bf d4 	st  %g1, [ %fp + -44 ]
   16d00:	d0 07 bf d4 	ld  [ %fp + -44 ], %o0
   16d04:	92 10 20 20 	mov  0x20, %o1
   16d08:	40 00 55 26 	call  2c1a0 <strchr@plt>
   16d0c:	01 00 00 00 	nop 
   16d10:	82 10 00 08 	mov  %o0, %g1
   16d14:	82 00 60 01 	inc  %g1
   16d18:	c2 27 bf d4 	st  %g1, [ %fp + -44 ]
   16d1c:	d0 07 bf d4 	ld  [ %fp + -44 ], %o0
   16d20:	92 10 20 20 	mov  0x20, %o1
   16d24:	40 00 55 1f 	call  2c1a0 <strchr@plt>
   16d28:	01 00 00 00 	nop 
   16d2c:	82 10 00 08 	mov  %o0, %g1
   16d30:	82 00 60 01 	inc  %g1
   16d34:	c2 27 bf d4 	st  %g1, [ %fp + -44 ]
   16d38:	d0 07 bf d4 	ld  [ %fp + -44 ], %o0
   16d3c:	92 10 20 20 	mov  0x20, %o1
   16d40:	40 00 55 18 	call  2c1a0 <strchr@plt>
   16d44:	01 00 00 00 	nop 
   16d48:	82 10 00 08 	mov  %o0, %g1
   16d4c:	82 00 60 01 	inc  %g1
   16d50:	c2 27 bf d4 	st  %g1, [ %fp + -44 ]
   16d54:	d0 07 bf d4 	ld  [ %fp + -44 ], %o0
   16d58:	92 10 20 20 	mov  0x20, %o1
   16d5c:	40 00 55 11 	call  2c1a0 <strchr@plt>
   16d60:	01 00 00 00 	nop 
   16d64:	82 10 00 08 	mov  %o0, %g1
   16d68:	82 00 60 01 	inc  %g1
   16d6c:	c2 27 bf d4 	st  %g1, [ %fp + -44 ]
   16d70:	d0 07 bf d4 	ld  [ %fp + -44 ], %o0
   16d74:	92 10 20 20 	mov  0x20, %o1
   16d78:	40 00 55 0a 	call  2c1a0 <strchr@plt>
   16d7c:	01 00 00 00 	nop 
   16d80:	82 10 00 08 	mov  %o0, %g1
   16d84:	82 00 60 01 	inc  %g1
   16d88:	c2 27 bf d4 	st  %g1, [ %fp + -44 ]
   16d8c:	d0 07 bf d4 	ld  [ %fp + -44 ], %o0
   16d90:	92 10 20 20 	mov  0x20, %o1
   16d94:	40 00 55 03 	call  2c1a0 <strchr@plt>
   16d98:	01 00 00 00 	nop 
   16d9c:	82 10 00 08 	mov  %o0, %g1
   16da0:	82 00 60 01 	inc  %g1
   16da4:	c2 27 bf d4 	st  %g1, [ %fp + -44 ]
   16da8:	d0 07 bf d4 	ld  [ %fp + -44 ], %o0
   16dac:	40 00 55 cf 	call  2c4e8 <atoi@plt>
   16db0:	01 00 00 00 	nop 
   16db4:	82 10 00 08 	mov  %o0, %g1
   16db8:	c2 27 bf b4 	st  %g1, [ %fp + -76 ]
   16dbc:	d0 07 bf d4 	ld  [ %fp + -44 ], %o0
   16dc0:	92 10 20 20 	mov  0x20, %o1
   16dc4:	40 00 54 f7 	call  2c1a0 <strchr@plt>
   16dc8:	01 00 00 00 	nop 
   16dcc:	82 10 00 08 	mov  %o0, %g1
   16dd0:	82 00 60 01 	inc  %g1
   16dd4:	c2 27 bf d4 	st  %g1, [ %fp + -44 ]
   16dd8:	d0 07 bf d4 	ld  [ %fp + -44 ], %o0
   16ddc:	40 00 55 c3 	call  2c4e8 <atoi@plt>
   16de0:	01 00 00 00 	nop 
   16de4:	82 10 00 08 	mov  %o0, %g1
   16de8:	c2 27 bf b0 	st  %g1, [ %fp + -80 ]
   16dec:	d0 07 bf d4 	ld  [ %fp + -44 ], %o0
   16df0:	92 10 20 20 	mov  0x20, %o1
   16df4:	40 00 54 eb 	call  2c1a0 <strchr@plt>
   16df8:	01 00 00 00 	nop 
   16dfc:	82 10 00 08 	mov  %o0, %g1
   16e00:	82 00 60 01 	inc  %g1
   16e04:	c2 27 bf d4 	st  %g1, [ %fp + -44 ]
   16e08:	d0 07 bf d4 	ld  [ %fp + -44 ], %o0
   16e0c:	92 10 20 20 	mov  0x20, %o1
   16e10:	40 00 54 e4 	call  2c1a0 <strchr@plt>
   16e14:	01 00 00 00 	nop 
   16e18:	82 10 00 08 	mov  %o0, %g1
   16e1c:	82 00 60 01 	inc  %g1
   16e20:	c2 27 bf d4 	st  %g1, [ %fp + -44 ]
   16e24:	d0 07 bf d4 	ld  [ %fp + -44 ], %o0
   16e28:	92 10 20 20 	mov  0x20, %o1
   16e2c:	40 00 54 dd 	call  2c1a0 <strchr@plt>
   16e30:	01 00 00 00 	nop 
   16e34:	82 10 00 08 	mov  %o0, %g1
   16e38:	82 00 60 01 	inc  %g1
   16e3c:	c2 27 bf d4 	st  %g1, [ %fp + -44 ]
   16e40:	d0 07 bf d4 	ld  [ %fp + -44 ], %o0
   16e44:	92 10 20 20 	mov  0x20, %o1
   16e48:	40 00 54 d6 	call  2c1a0 <strchr@plt>
   16e4c:	01 00 00 00 	nop 
   16e50:	82 10 00 08 	mov  %o0, %g1
   16e54:	82 00 60 01 	inc  %g1
   16e58:	c2 27 bf d4 	st  %g1, [ %fp + -44 ]
   16e5c:	d0 07 bf d4 	ld  [ %fp + -44 ], %o0
   16e60:	92 10 20 20 	mov  0x20, %o1
   16e64:	40 00 54 cf 	call  2c1a0 <strchr@plt>
   16e68:	01 00 00 00 	nop 
   16e6c:	82 10 00 08 	mov  %o0, %g1
   16e70:	82 00 60 01 	inc  %g1
   16e74:	c2 27 bf d4 	st  %g1, [ %fp + -44 ]
   16e78:	d0 07 bf d4 	ld  [ %fp + -44 ], %o0
   16e7c:	92 10 20 20 	mov  0x20, %o1
   16e80:	40 00 54 c8 	call  2c1a0 <strchr@plt>
   16e84:	01 00 00 00 	nop 
   16e88:	82 10 00 08 	mov  %o0, %g1
   16e8c:	82 00 60 01 	inc  %g1
   16e90:	c2 27 bf d4 	st  %g1, [ %fp + -44 ]
   16e94:	d0 07 bf d4 	ld  [ %fp + -44 ], %o0
   16e98:	92 10 20 20 	mov  0x20, %o1
   16e9c:	40 00 54 c1 	call  2c1a0 <strchr@plt>
   16ea0:	01 00 00 00 	nop 
   16ea4:	82 10 00 08 	mov  %o0, %g1
   16ea8:	82 00 60 01 	inc  %g1
   16eac:	c2 27 bf d4 	st  %g1, [ %fp + -44 ]
   16eb0:	d0 07 bf d4 	ld  [ %fp + -44 ], %o0
   16eb4:	40 00 55 8d 	call  2c4e8 <atoi@plt>
   16eb8:	01 00 00 00 	nop 
   16ebc:	82 10 00 08 	mov  %o0, %g1
   16ec0:	c2 27 bf ac 	st  %g1, [ %fp + -84 ]
   16ec4:	03 00 00 b5 	sethi  %hi(0x2d400), %g1
   16ec8:	90 10 61 00 	or  %g1, 0x100, %o0	! 2d500 <psbuf>
   16ecc:	92 10 20 28 	mov  0x28, %o1
   16ed0:	40 00 54 b4 	call  2c1a0 <strchr@plt>
   16ed4:	01 00 00 00 	nop 
   16ed8:	82 10 00 08 	mov  %o0, %g1
   16edc:	c2 27 bf d4 	st  %g1, [ %fp + -44 ]
   16ee0:	c2 07 bf d4 	ld  [ %fp + -44 ], %g1
   16ee4:	82 00 60 01 	inc  %g1
   16ee8:	c2 27 bf d4 	st  %g1, [ %fp + -44 ]
   16eec:	03 00 00 b5 	sethi  %hi(0x2d400), %g1
   16ef0:	90 10 62 20 	or  %g1, 0x220, %o0	! 2d620 <name>
   16ef4:	d2 07 bf d4 	ld  [ %fp + -44 ], %o1
   16ef8:	40 00 55 b5 	call  2c5cc <strcpy@plt>
   16efc:	01 00 00 00 	nop 
   16f00:	03 00 00 b5 	sethi  %hi(0x2d400), %g1
   16f04:	90 10 61 00 	or  %g1, 0x100, %o0	! 2d500 <psbuf>
   16f08:	40 00 55 78 	call  2c4e8 <atoi@plt>
   16f0c:	01 00 00 00 	nop 
   16f10:	82 10 00 08 	mov  %o0, %g1
   16f14:	84 10 00 01 	mov  %g1, %g2
   16f18:	03 00 00 b5 	sethi  %hi(0x2d400), %g1
   16f1c:	82 10 60 ec 	or  %g1, 0xec, %g1	! 2d4ec <pid>
   16f20:	c4 20 40 00 	st  %g2, [ %g1 ]
   16f24:	03 00 00 b5 	sethi  %hi(0x2d400), %g1
   16f28:	84 10 60 f4 	or  %g1, 0xf4, %g2	! 2d4f4 <state>
   16f2c:	03 00 00 b5 	sethi  %hi(0x2d400), %g1
   16f30:	82 10 60 e8 	or  %g1, 0xe8, %g1	! 2d4e8 <statec>
   16f34:	c2 08 40 00 	ldub  [ %g1 ], %g1
   16f38:	83 28 60 18 	sll  %g1, 0x18, %g1
   16f3c:	83 38 60 18 	sra  %g1, 0x18, %g1
   16f40:	c2 20 80 00 	st  %g1, [ %g2 ]
   16f44:	d0 07 bf f0 	ld  [ %fp + -16 ], %o0
   16f48:	40 00 54 ae 	call  2c200 <close@plt>
   16f4c:	01 00 00 00 	nop 
   16f50:	03 00 00 b5 	sethi  %hi(0x2d400), %g1
   16f54:	82 10 62 10 	or  %g1, 0x210, %g1	! 2d610 <tty>
   16f58:	d0 00 40 00 	ld  [ %g1 ], %o0
   16f5c:	d2 00 60 04 	ld  [ %g1 + 4 ], %o1
   16f60:	03 00 00 b5 	sethi  %hi(0x2d400), %g1
   16f64:	94 10 62 00 	or  %g1, 0x200, %o2	! 2d600 <tty_name>
   16f68:	7f ff fd f0 	call  16728 <dev_to_name>
   16f6c:	01 00 00 00 	nop 
   16f70:	c0 27 bf e0 	clr  [ %fp + -32 ]
   16f74:	c0 27 bf dc 	clr  [ %fp + -36 ]
   16f78:	c2 07 bf d8 	ld  [ %fp + -40 ], %g1
   16f7c:	84 00 60 0b 	add  %g1, 0xb, %g2
   16f80:	03 00 00 b5 	sethi  %hi(0x2d400), %g1
   16f84:	90 10 61 00 	or  %g1, 0x100, %o0	! 2d500 <psbuf>
   16f88:	03 00 00 6b 	sethi  %hi(0x1ac00), %g1
   16f8c:	92 10 61 90 	or  %g1, 0x190, %o1	! 1ad90 <_IO_stdin_used+0x7e0>
   16f90:	94 10 00 02 	mov  %g2, %o2
   16f94:	40 00 55 16 	call  2c3ec <sprintf@plt>
   16f98:	01 00 00 00 	nop 
   16f9c:	03 00 00 b5 	sethi  %hi(0x2d400), %g1
   16fa0:	90 10 61 00 	or  %g1, 0x100, %o0	! 2d500 <psbuf>
   16fa4:	03 00 00 6b 	sethi  %hi(0x1ac00), %g1
   16fa8:	92 10 61 a0 	or  %g1, 0x1a0, %o1	! 1ada0 <_IO_stdin_used+0x7f0>
   16fac:	40 00 55 70 	call  2c56c <fopen@plt>
   16fb0:	01 00 00 00 	nop 
   16fb4:	82 10 00 08 	mov  %o0, %g1
   16fb8:	c2 27 bf e8 	st  %g1, [ %fp + -24 ]
   16fbc:	c2 07 bf e8 	ld  [ %fp + -24 ], %g1
   16fc0:	80 a0 60 00 	cmp  %g1, 0
   16fc4:	02 80 00 4e 	be  170fc <do_ps+0x800>
   16fc8:	01 00 00 00 	nop 
   16fcc:	03 00 00 b5 	sethi  %hi(0x2d400), %g1
   16fd0:	90 10 61 00 	or  %g1, 0x100, %o0	! 2d500 <psbuf>
   16fd4:	92 10 20 fa 	mov  0xfa, %o1
   16fd8:	d4 07 bf e8 	ld  [ %fp + -24 ], %o2
   16fdc:	40 00 54 e3 	call  2c368 <fgets@plt>
   16fe0:	01 00 00 00 	nop 
   16fe4:	82 10 00 08 	mov  %o0, %g1
   16fe8:	80 a0 60 00 	cmp  %g1, 0
   16fec:	02 80 00 41 	be  170f0 <do_ps+0x7f4>
   16ff0:	01 00 00 00 	nop 
   16ff4:	03 00 00 b5 	sethi  %hi(0x2d400), %g1
   16ff8:	05 00 00 6b 	sethi  %hi(0x1ac00), %g2
   16ffc:	90 10 61 00 	or  %g1, 0x100, %o0
   17000:	92 10 a1 a8 	or  %g2, 0x1a8, %o1
   17004:	94 10 20 04 	mov  4, %o2
   17008:	40 00 54 f0 	call  2c3c8 <strncmp@plt>
   1700c:	01 00 00 00 	nop 
   17010:	82 10 00 08 	mov  %o0, %g1
   17014:	80 a0 60 00 	cmp  %g1, 0
   17018:	12 80 00 0d 	bne  1704c <do_ps+0x750>
   1701c:	01 00 00 00 	nop 
   17020:	03 00 00 b5 	sethi  %hi(0x2d400), %g1
   17024:	90 10 61 05 	or  %g1, 0x105, %o0	! 2d505 <psbuf+0x5>
   17028:	40 00 54 46 	call  2c140 <atol@plt>
   1702c:	01 00 00 00 	nop 
   17030:	82 10 00 08 	mov  %o0, %g1
   17034:	c2 27 bf e0 	st  %g1, [ %fp + -32 ]
   17038:	c2 07 bf e0 	ld  [ %fp + -32 ], %g1
   1703c:	83 30 60 0a 	srl  %g1, 0xa, %g1
   17040:	c2 27 bf e0 	st  %g1, [ %fp + -32 ]
   17044:	10 bf ff e2 	b  16fcc <do_ps+0x6d0>
   17048:	01 00 00 00 	nop 
   1704c:	03 00 00 b5 	sethi  %hi(0x2d400), %g1
   17050:	05 00 00 6b 	sethi  %hi(0x1ac00), %g2
   17054:	90 10 61 00 	or  %g1, 0x100, %o0
   17058:	92 10 a1 b0 	or  %g2, 0x1b0, %o1
   1705c:	94 10 20 07 	mov  7, %o2
   17060:	40 00 54 da 	call  2c3c8 <strncmp@plt>
   17064:	01 00 00 00 	nop 
   17068:	82 10 00 08 	mov  %o0, %g1
   1706c:	80 a0 60 00 	cmp  %g1, 0
   17070:	12 80 00 0d 	bne  170a4 <do_ps+0x7a8>
   17074:	01 00 00 00 	nop 
   17078:	03 00 00 b5 	sethi  %hi(0x2d400), %g1
   1707c:	90 10 61 08 	or  %g1, 0x108, %o0	! 2d508 <psbuf+0x8>
   17080:	40 00 54 30 	call  2c140 <atol@plt>
   17084:	01 00 00 00 	nop 
   17088:	82 10 00 08 	mov  %o0, %g1
   1708c:	c2 27 bf dc 	st  %g1, [ %fp + -36 ]
   17090:	c2 07 bf dc 	ld  [ %fp + -36 ], %g1
   17094:	83 30 60 0a 	srl  %g1, 0xa, %g1
   17098:	c2 27 bf dc 	st  %g1, [ %fp + -36 ]
   1709c:	10 bf ff cc 	b  16fcc <do_ps+0x6d0>
   170a0:	01 00 00 00 	nop 
   170a4:	03 00 00 b5 	sethi  %hi(0x2d400), %g1
   170a8:	05 00 00 6b 	sethi  %hi(0x1ac00), %g2
   170ac:	90 10 61 00 	or  %g1, 0x100, %o0
   170b0:	92 10 a1 b8 	or  %g2, 0x1b8, %o1
   170b4:	94 10 20 07 	mov  7, %o2
   170b8:	40 00 54 c4 	call  2c3c8 <strncmp@plt>
   170bc:	01 00 00 00 	nop 
   170c0:	82 10 00 08 	mov  %o0, %g1
   170c4:	80 a0 60 00 	cmp  %g1, 0
   170c8:	12 bf ff c1 	bne  16fcc <do_ps+0x6d0>
   170cc:	01 00 00 00 	nop 
   170d0:	03 00 00 b5 	sethi  %hi(0x2d400), %g1
   170d4:	90 10 61 08 	or  %g1, 0x108, %o0	! 2d508 <psbuf+0x8>
   170d8:	40 00 54 1a 	call  2c140 <atol@plt>
   170dc:	01 00 00 00 	nop 
   170e0:	82 10 00 08 	mov  %o0, %g1
   170e4:	c2 27 bf e0 	st  %g1, [ %fp + -32 ]
   170e8:	10 bf ff b9 	b  16fcc <do_ps+0x6d0>
   170ec:	01 00 00 00 	nop 
   170f0:	d0 07 bf e8 	ld  [ %fp + -24 ], %o0
   170f4:	40 00 54 d9 	call  2c458 <fclose@plt>
   170f8:	01 00 00 00 	nop 
   170fc:	c2 07 bf c8 	ld  [ %fp + -56 ], %g1
   17100:	84 58 60 64 	smul  %g1, 0x64, %g2
   17104:	c2 07 bf ac 	ld  [ %fp + -84 ], %g1
   17108:	86 20 80 01 	sub  %g2, %g1, %g3
   1710c:	03 14 7a e1 	sethi  %hi(0x51eb8400), %g1
   17110:	82 10 61 1f 	or  %g1, 0x11f, %g1	! 51eb851f <_end+0x51e8aecf>
   17114:	80 58 c0 01 	smul  %g3, %g1, %g0
   17118:	83 40 00 00 	rd  %y, %g1
   1711c:	85 38 60 05 	sra  %g1, 5, %g2
   17120:	83 38 e0 1f 	sra  %g3, 0x1f, %g1
   17124:	82 20 80 01 	sub  %g2, %g1, %g1
   17128:	90 10 00 01 	mov  %g1, %o0
   1712c:	40 00 0b a5 	call  19fc0 <__floatsisf>
   17130:	01 00 00 00 	nop 
   17134:	82 10 00 08 	mov  %o0, %g1
   17138:	c2 27 bf c0 	st  %g1, [ %fp + -64 ]
   1713c:	d0 07 bf cc 	ld  [ %fp + -52 ], %o0
   17140:	40 00 0b a0 	call  19fc0 <__floatsisf>
   17144:	01 00 00 00 	nop 
   17148:	82 10 00 08 	mov  %o0, %g1
   1714c:	90 10 00 01 	mov  %g1, %o0
   17150:	d2 07 bf c0 	ld  [ %fp + -64 ], %o1
   17154:	40 00 0a 90 	call  19b94 <__subsf3>
   17158:	01 00 00 00 	nop 
   1715c:	82 10 00 08 	mov  %o0, %g1
   17160:	c2 27 bf bc 	st  %g1, [ %fp + -68 ]
   17164:	c4 07 bf b4 	ld  [ %fp + -76 ], %g2
   17168:	c2 07 bf b0 	ld  [ %fp + -80 ], %g1
   1716c:	82 00 80 01 	add  %g2, %g1, %g1
   17170:	90 10 00 01 	mov  %g1, %o0
   17174:	40 00 0b 93 	call  19fc0 <__floatsisf>
   17178:	01 00 00 00 	nop 
   1717c:	82 10 00 08 	mov  %o0, %g1
   17180:	c2 27 bf b8 	st  %g1, [ %fp + -72 ]
   17184:	03 00 00 6b 	sethi  %hi(0x1ac00), %g1
   17188:	82 10 62 30 	or  %g1, 0x230, %g1	! 1ae30 <_IO_stdin_used+0x880>
   1718c:	d0 07 bf c0 	ld  [ %fp + -64 ], %o0
   17190:	d2 00 40 00 	ld  [ %g1 ], %o1
   17194:	40 00 0b 70 	call  19f54 <__nesf2>
   17198:	01 00 00 00 	nop 
   1719c:	82 10 00 08 	mov  %o0, %g1
   171a0:	80 a0 60 00 	cmp  %g1, 0
   171a4:	12 80 00 04 	bne  171b4 <do_ps+0x8b8>
   171a8:	01 00 00 00 	nop 
   171ac:	10 80 00 22 	b  17234 <do_ps+0x938>
   171b0:	01 00 00 00 	nop 
   171b4:	03 00 00 6b 	sethi  %hi(0x1ac00), %g1
   171b8:	82 10 62 34 	or  %g1, 0x234, %g1	! 1ae34 <_IO_stdin_used+0x884>
   171bc:	d0 07 bf b8 	ld  [ %fp + -72 ], %o0
   171c0:	d2 00 40 00 	ld  [ %g1 ], %o1
   171c4:	40 00 0a 8c 	call  19bf4 <__mulsf3>
   171c8:	01 00 00 00 	nop 
   171cc:	84 10 00 08 	mov  %o0, %g2
   171d0:	03 00 00 6b 	sethi  %hi(0x1ac00), %g1
   171d4:	82 10 62 38 	or  %g1, 0x238, %g1	! 1ae38 <_IO_stdin_used+0x888>
   171d8:	90 10 00 02 	mov  %g2, %o0
   171dc:	d2 00 40 00 	ld  [ %g1 ], %o1
   171e0:	40 00 0a 85 	call  19bf4 <__mulsf3>
   171e4:	01 00 00 00 	nop 
   171e8:	84 10 00 08 	mov  %o0, %g2
   171ec:	03 00 00 6b 	sethi  %hi(0x1ac00), %g1
   171f0:	82 10 62 38 	or  %g1, 0x238, %g1	! 1ae38 <_IO_stdin_used+0x888>
   171f4:	90 10 00 02 	mov  %g2, %o0
   171f8:	d2 00 40 00 	ld  [ %g1 ], %o1
   171fc:	40 00 0a fa 	call  19de4 <__divsf3>
   17200:	01 00 00 00 	nop 
   17204:	82 10 00 08 	mov  %o0, %g1
   17208:	90 10 00 01 	mov  %g1, %o0
   1720c:	d2 07 bf c0 	ld  [ %fp + -64 ], %o1
   17210:	40 00 0a f5 	call  19de4 <__divsf3>
   17214:	01 00 00 00 	nop 
   17218:	82 10 00 08 	mov  %o0, %g1
   1721c:	90 10 00 01 	mov  %g1, %o0
   17220:	40 00 0b 99 	call  1a084 <__fixsfsi>
   17224:	01 00 00 00 	nop 
   17228:	d0 27 bf a4 	st  %o0, [ %fp + -92 ]
   1722c:	10 80 00 03 	b  17238 <do_ps+0x93c>
   17230:	01 00 00 00 	nop 
   17234:	c0 27 bf a4 	clr  [ %fp + -92 ]
   17238:	c2 07 bf a4 	ld  [ %fp + -92 ], %g1
   1723c:	c2 27 bf a8 	st  %g1, [ %fp + -88 ]
   17240:	c2 07 bf a8 	ld  [ %fp + -88 ], %g1
   17244:	80 a0 63 e7 	cmp  %g1, 0x3e7
   17248:	04 80 00 04 	ble  17258 <do_ps+0x95c>
   1724c:	01 00 00 00 	nop 
   17250:	82 10 23 e7 	mov  0x3e7, %g1	! 3e7 <_init-0x11121>
   17254:	c2 27 bf a8 	st  %g1, [ %fp + -88 ]
   17258:	c2 07 bf d8 	ld  [ %fp + -40 ], %g1
   1725c:	84 00 60 0b 	add  %g1, 0xb, %g2
   17260:	03 00 00 b5 	sethi  %hi(0x2d400), %g1
   17264:	90 10 61 00 	or  %g1, 0x100, %o0	! 2d500 <psbuf>
   17268:	03 00 00 6b 	sethi  %hi(0x1ac00), %g1
   1726c:	92 10 61 c0 	or  %g1, 0x1c0, %o1	! 1adc0 <_IO_stdin_used+0x810>
   17270:	94 10 00 02 	mov  %g2, %o2
   17274:	40 00 54 5e 	call  2c3ec <sprintf@plt>
   17278:	01 00 00 00 	nop 
   1727c:	03 00 00 b5 	sethi  %hi(0x2d400), %g1
   17280:	90 10 61 00 	or  %g1, 0x100, %o0	! 2d500 <psbuf>
   17284:	92 10 20 00 	clr  %o1
   17288:	40 00 54 8f 	call  2c4c4 <open@plt>
   1728c:	01 00 00 00 	nop 
   17290:	82 10 00 08 	mov  %o0, %g1
   17294:	c2 27 bf f0 	st  %g1, [ %fp + -16 ]
   17298:	c2 07 bf f0 	ld  [ %fp + -16 ], %g1
   1729c:	80 a0 7f ff 	cmp  %g1, -1
   172a0:	12 80 00 08 	bne  172c0 <do_ps+0x9c4>
   172a4:	01 00 00 00 	nop 
   172a8:	03 00 00 6b 	sethi  %hi(0x1ac00), %g1
   172ac:	90 10 61 d8 	or  %g1, 0x1d8, %o0	! 1add8 <_IO_stdin_used+0x828>
   172b0:	40 00 53 dd 	call  2c224 <perror@plt>
   172b4:	01 00 00 00 	nop 
   172b8:	10 bf fd df 	b  16a34 <do_ps+0x138>
   172bc:	01 00 00 00 	nop 
   172c0:	d0 07 bf f0 	ld  [ %fp + -16 ], %o0
   172c4:	03 00 00 b5 	sethi  %hi(0x2d400), %g1
   172c8:	92 10 61 00 	or  %g1, 0x100, %o1	! 2d500 <psbuf>
   172cc:	94 10 20 ff 	mov  0xff, %o2
   172d0:	40 00 54 b9 	call  2c5b4 <read@plt>
   172d4:	01 00 00 00 	nop 
   172d8:	82 10 00 08 	mov  %o0, %g1
   172dc:	c2 27 bf d0 	st  %g1, [ %fp + -48 ]
   172e0:	c2 07 bf d0 	ld  [ %fp + -48 ], %g1
   172e4:	80 a0 60 00 	cmp  %g1, 0
   172e8:	16 80 00 0b 	bge  17314 <do_ps+0xa18>
   172ec:	01 00 00 00 	nop 
   172f0:	03 00 00 6b 	sethi  %hi(0x1ac00), %g1
   172f4:	90 10 61 f0 	or  %g1, 0x1f0, %o0	! 1adf0 <_IO_stdin_used+0x840>
   172f8:	40 00 53 cb 	call  2c224 <perror@plt>
   172fc:	01 00 00 00 	nop 
   17300:	d0 07 bf f0 	ld  [ %fp + -16 ], %o0
   17304:	40 00 53 bf 	call  2c200 <close@plt>
   17308:	01 00 00 00 	nop 
   1730c:	10 bf fd ca 	b  16a34 <do_ps+0x138>
   17310:	01 00 00 00 	nop 
   17314:	d0 07 bf f0 	ld  [ %fp + -16 ], %o0
   17318:	40 00 53 ba 	call  2c200 <close@plt>
   1731c:	01 00 00 00 	nop 
   17320:	03 00 00 b5 	sethi  %hi(0x2d400), %g1
   17324:	84 10 61 00 	or  %g1, 0x100, %g2	! 2d500 <psbuf>
   17328:	c2 07 bf d0 	ld  [ %fp + -48 ], %g1
   1732c:	82 00 80 01 	add  %g2, %g1, %g1
   17330:	c0 28 40 00 	clrb  [ %g1 ]
   17334:	c2 07 bf d0 	ld  [ %fp + -48 ], %g1
   17338:	c2 27 bf f4 	st  %g1, [ %fp + -12 ]
   1733c:	03 00 00 b5 	sethi  %hi(0x2d400), %g1
   17340:	84 10 61 00 	or  %g1, 0x100, %g2	! 2d500 <psbuf>
   17344:	c2 07 bf f4 	ld  [ %fp + -12 ], %g1
   17348:	82 00 80 01 	add  %g2, %g1, %g1
   1734c:	c2 08 40 00 	ldub  [ %g1 ], %g1
   17350:	83 28 60 18 	sll  %g1, 0x18, %g1
   17354:	83 38 60 18 	sra  %g1, 0x18, %g1
   17358:	80 a0 60 00 	cmp  %g1, 0
   1735c:	12 80 00 07 	bne  17378 <do_ps+0xa7c>
   17360:	01 00 00 00 	nop 
   17364:	c2 07 bf f4 	ld  [ %fp + -12 ], %g1
   17368:	82 00 7f ff 	add  %g1, -1, %g1
   1736c:	c2 27 bf f4 	st  %g1, [ %fp + -12 ]
   17370:	10 bf ff f3 	b  1733c <do_ps+0xa40>
   17374:	01 00 00 00 	nop 
   17378:	c2 07 bf f4 	ld  [ %fp + -12 ], %g1
   1737c:	82 00 7f ff 	add  %g1, -1, %g1
   17380:	c2 27 bf f4 	st  %g1, [ %fp + -12 ]
   17384:	80 a0 60 00 	cmp  %g1, 0
   17388:	04 80 00 14 	ble  173d8 <do_ps+0xadc>
   1738c:	01 00 00 00 	nop 
   17390:	03 00 00 b5 	sethi  %hi(0x2d400), %g1
   17394:	84 10 61 00 	or  %g1, 0x100, %g2	! 2d500 <psbuf>
   17398:	c2 07 bf f4 	ld  [ %fp + -12 ], %g1
   1739c:	82 00 80 01 	add  %g2, %g1, %g1
   173a0:	c2 08 40 00 	ldub  [ %g1 ], %g1
   173a4:	83 28 60 18 	sll  %g1, 0x18, %g1
   173a8:	83 38 60 18 	sra  %g1, 0x18, %g1
   173ac:	80 a0 60 00 	cmp  %g1, 0
   173b0:	12 bf ff f2 	bne  17378 <do_ps+0xa7c>
   173b4:	01 00 00 00 	nop 
   173b8:	03 00 00 b5 	sethi  %hi(0x2d400), %g1
   173bc:	84 10 61 00 	or  %g1, 0x100, %g2	! 2d500 <psbuf>
   173c0:	c2 07 bf f4 	ld  [ %fp + -12 ], %g1
   173c4:	84 00 80 01 	add  %g2, %g1, %g2
   173c8:	82 10 20 20 	mov  0x20, %g1
   173cc:	c2 28 80 00 	stb  %g1, [ %g2 ]
   173d0:	10 bf ff ea 	b  17378 <do_ps+0xa7c>
   173d4:	01 00 00 00 	nop 
   173d8:	03 00 00 b5 	sethi  %hi(0x2d400), %g1
   173dc:	82 10 60 ec 	or  %g1, 0xec, %g1	! 2d4ec <pid>
   173e0:	c2 27 bf a0 	st  %g1, [ %fp + -96 ]
   173e4:	03 00 00 b5 	sethi  %hi(0x2d400), %g1
   173e8:	82 10 60 f4 	or  %g1, 0xf4, %g1	! 2d4f4 <state>
   173ec:	c2 27 bf 9c 	st  %g1, [ %fp + -100 ]
   173f0:	c6 07 bf a8 	ld  [ %fp + -88 ], %g3
   173f4:	03 19 99 99 	sethi  %hi(0x66666400), %g1
   173f8:	82 10 62 67 	or  %g1, 0x267, %g1	! 66666667 <_end+0x66639017>
   173fc:	80 58 c0 01 	smul  %g3, %g1, %g0
   17400:	83 40 00 00 	rd  %y, %g1
   17404:	85 38 60 02 	sra  %g1, 2, %g2
   17408:	83 38 e0 1f 	sra  %g3, 0x1f, %g1
   1740c:	82 20 80 01 	sub  %g2, %g1, %g1
   17410:	c2 23 a0 5c 	st  %g1, [ %sp + 0x5c ]
   17414:	c6 07 bf a8 	ld  [ %fp + -88 ], %g3
   17418:	03 19 99 99 	sethi  %hi(0x66666400), %g1
   1741c:	82 10 62 67 	or  %g1, 0x267, %g1	! 66666667 <_end+0x66639017>
   17420:	80 58 c0 01 	smul  %g3, %g1, %g0
   17424:	83 40 00 00 	rd  %y, %g1
   17428:	85 38 60 02 	sra  %g1, 2, %g2
   1742c:	83 38 e0 1f 	sra  %g3, 0x1f, %g1
   17430:	84 20 80 01 	sub  %g2, %g1, %g2
   17434:	82 10 00 02 	mov  %g2, %g1
   17438:	83 28 60 02 	sll  %g1, 2, %g1
   1743c:	82 00 40 02 	add  %g1, %g2, %g1
   17440:	82 00 40 01 	add  %g1, %g1, %g1
   17444:	82 20 c0 01 	sub  %g3, %g1, %g1
   17448:	c2 23 a0 60 	st  %g1, [ %sp + 0x60 ]
   1744c:	c2 07 bf d0 	ld  [ %fp + -48 ], %g1
   17450:	80 a0 60 00 	cmp  %g1, 0
   17454:	02 80 00 07 	be  17470 <do_ps+0xb74>
   17458:	01 00 00 00 	nop 
   1745c:	03 00 00 b5 	sethi  %hi(0x2d400), %g1
   17460:	82 10 61 00 	or  %g1, 0x100, %g1	! 2d500 <psbuf>
   17464:	c2 27 bf 98 	st  %g1, [ %fp + -104 ]
   17468:	10 80 00 05 	b  1747c <do_ps+0xb80>
   1746c:	01 00 00 00 	nop 
   17470:	03 00 00 b5 	sethi  %hi(0x2d400), %g1
   17474:	82 10 62 20 	or  %g1, 0x220, %g1	! 2d620 <name>
   17478:	c2 27 bf 98 	st  %g1, [ %fp + -104 ]
   1747c:	c2 07 bf 98 	ld  [ %fp + -104 ], %g1
   17480:	c2 23 a0 64 	st  %g1, [ %sp + 0x64 ]
   17484:	03 00 00 6b 	sethi  %hi(0x1ac00), %g1
   17488:	90 10 62 08 	or  %g1, 0x208, %o0	! 1ae08 <_IO_stdin_used+0x858>
   1748c:	c2 07 bf a0 	ld  [ %fp + -96 ], %g1
   17490:	d2 00 40 00 	ld  [ %g1 ], %o1
   17494:	03 00 00 b5 	sethi  %hi(0x2d400), %g1
   17498:	94 10 62 00 	or  %g1, 0x200, %o2	! 2d600 <tty_name>
   1749c:	c2 07 bf 9c 	ld  [ %fp + -100 ], %g1
   174a0:	d6 00 40 00 	ld  [ %g1 ], %o3
   174a4:	d8 07 bf e0 	ld  [ %fp + -32 ], %o4
   174a8:	da 07 bf dc 	ld  [ %fp + -36 ], %o5
   174ac:	40 00 54 3f 	call  2c5a8 <printf@plt>
   174b0:	01 00 00 00 	nop 
   174b4:	10 bf fd 60 	b  16a34 <do_ps+0x138>
   174b8:	01 00 00 00 	nop 
   174bc:	d0 07 bf e4 	ld  [ %fp + -28 ], %o0
   174c0:	40 00 53 f2 	call  2c488 <closedir@plt>
   174c4:	01 00 00 00 	nop 
   174c8:	01 00 00 00 	nop 
   174cc:	81 c7 e0 08 	ret 
   174d0:	81 e8 00 00 	restore 

000174d4 <do_hexdump>:
do_hexdump():
   174d4:	9d e3 be c8 	save  %sp, -312, %sp
   174d8:	f0 27 a0 44 	st  %i0, [ %fp + 0x44 ]
   174dc:	f2 27 a0 48 	st  %i1, [ %fp + 0x48 ]
   174e0:	c0 27 bf 44 	clr  [ %fp + -188 ]
   174e4:	c0 27 bf 40 	clr  [ %fp + -192 ]
   174e8:	c2 07 a0 48 	ld  [ %fp + 0x48 ], %g1
   174ec:	c2 00 40 00 	ld  [ %g1 ], %g1
   174f0:	c2 27 bf 3c 	st  %g1, [ %fp + -196 ]
   174f4:	c2 07 a0 44 	ld  [ %fp + 0x44 ], %g1
   174f8:	80 a0 60 02 	cmp  %g1, 2
   174fc:	04 80 00 1e 	ble  17574 <do_hexdump+0xa0>
   17500:	01 00 00 00 	nop 
   17504:	84 10 20 04 	mov  4, %g2	! 4 <_init-0x11504>
   17508:	c2 07 a0 48 	ld  [ %fp + 0x48 ], %g1
   1750c:	82 00 80 01 	add  %g2, %g1, %g1
   17510:	05 00 00 6b 	sethi  %hi(0x1ac00), %g2
   17514:	d0 00 40 00 	ld  [ %g1 ], %o0
   17518:	92 10 a2 40 	or  %g2, 0x240, %o1
   1751c:	40 00 53 36 	call  2c1f4 <strcmp@plt>
   17520:	01 00 00 00 	nop 
   17524:	82 10 00 08 	mov  %o0, %g1
   17528:	80 a0 60 00 	cmp  %g1, 0
   1752c:	12 80 00 12 	bne  17574 <do_hexdump+0xa0>
   17530:	01 00 00 00 	nop 
   17534:	84 10 20 08 	mov  8, %g2	! 8 <_init-0x11500>
   17538:	c2 07 a0 48 	ld  [ %fp + 0x48 ], %g1
   1753c:	82 00 80 01 	add  %g2, %g1, %g1
   17540:	d0 00 40 00 	ld  [ %g1 ], %o0
   17544:	92 10 20 00 	clr  %o1
   17548:	94 10 20 00 	clr  %o2
   1754c:	40 00 53 ed 	call  2c500 <strtoul@plt>
   17550:	01 00 00 00 	nop 
   17554:	82 10 00 08 	mov  %o0, %g1
   17558:	c2 27 bf 40 	st  %g1, [ %fp + -192 ]
   1755c:	c2 07 a0 44 	ld  [ %fp + 0x44 ], %g1
   17560:	82 00 7f fe 	add  %g1, -2, %g1
   17564:	c2 27 a0 44 	st  %g1, [ %fp + 0x44 ]
   17568:	c2 07 a0 48 	ld  [ %fp + 0x48 ], %g1
   1756c:	82 00 60 08 	add  %g1, 8, %g1
   17570:	c2 27 a0 48 	st  %g1, [ %fp + 0x48 ]
   17574:	c2 07 a0 44 	ld  [ %fp + 0x44 ], %g1
   17578:	80 a0 60 01 	cmp  %g1, 1
   1757c:	14 80 00 0b 	bg  175a8 <do_hexdump+0xd4>
   17580:	01 00 00 00 	nop 
   17584:	03 00 00 b3 	sethi  %hi(0x2cc00), %g1
   17588:	82 10 62 40 	or  %g1, 0x240, %g1	! 2ce40 <stderr@@GLIBC_2.0>
   1758c:	d0 00 40 00 	ld  [ %g1 ], %o0
   17590:	03 00 00 6b 	sethi  %hi(0x1ac00), %g1
   17594:	92 10 62 48 	or  %g1, 0x248, %o1	! 1ae48 <_IO_stdin_used+0x898>
   17598:	40 00 53 98 	call  2c3f8 <fprintf@plt>
   1759c:	01 00 00 00 	nop 
   175a0:	10 80 01 2d 	b  17a54 <do_hexdump+0x580>
   175a4:	01 00 00 00 	nop 
   175a8:	84 10 20 04 	mov  4, %g2	! 4 <_init-0x11504>
   175ac:	c2 07 a0 48 	ld  [ %fp + 0x48 ], %g1
   175b0:	82 00 80 01 	add  %g2, %g1, %g1
   175b4:	c2 00 40 00 	ld  [ %g1 ], %g1
   175b8:	c2 27 bf 44 	st  %g1, [ %fp + -188 ]
   175bc:	d0 07 bf 44 	ld  [ %fp + -188 ], %o0
   175c0:	03 00 00 6b 	sethi  %hi(0x1ac00), %g1
   175c4:	92 10 62 60 	or  %g1, 0x260, %o1	! 1ae60 <_IO_stdin_used+0x8b0>
   175c8:	40 00 53 e9 	call  2c56c <fopen@plt>
   175cc:	01 00 00 00 	nop 
   175d0:	82 10 00 08 	mov  %o0, %g1
   175d4:	c2 27 bf f4 	st  %g1, [ %fp + -12 ]
   175d8:	c2 07 bf f4 	ld  [ %fp + -12 ], %g1
   175dc:	80 a0 60 00 	cmp  %g1, 0
   175e0:	12 80 00 14 	bne  17630 <do_hexdump+0x15c>
   175e4:	01 00 00 00 	nop 
   175e8:	40 00 53 33 	call  2c2b4 <__errno_location@plt>
   175ec:	01 00 00 00 	nop 
   175f0:	82 10 00 08 	mov  %o0, %g1
   175f4:	d0 00 40 00 	ld  [ %g1 ], %o0
   175f8:	40 00 53 23 	call  2c284 <strerror@plt>
   175fc:	01 00 00 00 	nop 
   17600:	84 10 00 08 	mov  %o0, %g2
   17604:	03 00 00 b3 	sethi  %hi(0x2cc00), %g1
   17608:	82 10 62 40 	or  %g1, 0x240, %g1	! 2ce40 <stderr@@GLIBC_2.0>
   1760c:	d0 00 40 00 	ld  [ %g1 ], %o0
   17610:	03 00 00 6b 	sethi  %hi(0x1ac00), %g1
   17614:	92 10 62 68 	or  %g1, 0x268, %o1	! 1ae68 <_IO_stdin_used+0x8b8>
   17618:	d4 07 bf 44 	ld  [ %fp + -188 ], %o2
   1761c:	96 10 00 02 	mov  %g2, %o3
   17620:	40 00 53 76 	call  2c3f8 <fprintf@plt>
   17624:	01 00 00 00 	nop 
   17628:	10 80 01 0b 	b  17a54 <do_hexdump+0x580>
   1762c:	01 00 00 00 	nop 
   17630:	c2 07 bf 40 	ld  [ %fp + -192 ], %g1
   17634:	80 a0 60 00 	cmp  %g1, 0
   17638:	02 80 00 07 	be  17654 <do_hexdump+0x180>
   1763c:	01 00 00 00 	nop 
   17640:	d0 07 bf f4 	ld  [ %fp + -12 ], %o0
   17644:	d2 07 bf 40 	ld  [ %fp + -192 ], %o1
   17648:	94 10 20 00 	clr  %o2
   1764c:	40 00 53 3e 	call  2c344 <fseek@plt>
   17650:	01 00 00 00 	nop 
   17654:	c0 27 bf ec 	clr  [ %fp + -20 ]
   17658:	c0 2f bf e0 	clrb  [ %fp + -32 ]
   1765c:	d0 07 bf f4 	ld  [ %fp + -12 ], %o0
   17660:	40 00 52 d3 	call  2c1ac <feof@plt>
   17664:	01 00 00 00 	nop 
   17668:	82 10 00 08 	mov  %o0, %g1
   1766c:	80 a0 60 00 	cmp  %g1, 0
   17670:	12 80 00 ef 	bne  17a2c <do_hexdump+0x558>
   17674:	01 00 00 00 	nop 
   17678:	c2 07 bf 40 	ld  [ %fp + -192 ], %g1
   1767c:	84 08 60 0f 	and  %g1, 0xf, %g2
   17680:	c2 07 bf ec 	ld  [ %fp + -20 ], %g1
   17684:	80 a0 40 02 	cmp  %g1, %g2
   17688:	1a 80 00 26 	bcc  17720 <do_hexdump+0x24c>
   1768c:	01 00 00 00 	nop 
   17690:	c2 07 bf ec 	ld  [ %fp + -20 ], %g1
   17694:	80 a0 60 00 	cmp  %g1, 0
   17698:	12 80 00 09 	bne  176bc <do_hexdump+0x1e8>
   1769c:	01 00 00 00 	nop 
   176a0:	c2 07 bf 40 	ld  [ %fp + -192 ], %g1
   176a4:	84 08 7f f0 	and  %g1, -16, %g2
   176a8:	03 00 00 6b 	sethi  %hi(0x1ac00), %g1
   176ac:	90 10 62 88 	or  %g1, 0x288, %o0	! 1ae88 <_IO_stdin_used+0x8d8>
   176b0:	92 10 00 02 	mov  %g2, %o1
   176b4:	40 00 53 bd 	call  2c5a8 <printf@plt>
   176b8:	01 00 00 00 	nop 
   176bc:	c2 07 bf ec 	ld  [ %fp + -20 ], %g1
   176c0:	80 a0 60 08 	cmp  %g1, 8
   176c4:	12 80 00 07 	bne  176e0 <do_hexdump+0x20c>
   176c8:	01 00 00 00 	nop 
   176cc:	03 00 00 6b 	sethi  %hi(0x1ac00), %g1
   176d0:	82 10 62 90 	or  %g1, 0x290, %g1	! 1ae90 <_IO_stdin_used+0x8e0>
   176d4:	c2 27 bf 34 	st  %g1, [ %fp + -204 ]
   176d8:	10 80 00 05 	b  176ec <do_hexdump+0x218>
   176dc:	01 00 00 00 	nop 
   176e0:	03 00 00 6b 	sethi  %hi(0x1ac00), %g1
   176e4:	82 10 62 98 	or  %g1, 0x298, %g1	! 1ae98 <_IO_stdin_used+0x8e8>
   176e8:	c2 27 bf 34 	st  %g1, [ %fp + -204 ]
   176ec:	d0 07 bf 34 	ld  [ %fp + -204 ], %o0
   176f0:	40 00 53 ae 	call  2c5a8 <printf@plt>
   176f4:	01 00 00 00 	nop 
   176f8:	c4 07 bf ec 	ld  [ %fp + -20 ], %g2
   176fc:	82 07 bf f8 	add  %fp, -8, %g1
   17700:	84 00 40 02 	add  %g1, %g2, %g2
   17704:	82 10 20 20 	mov  0x20, %g1
   17708:	c2 28 bf d8 	stb  %g1, [ %g2 + -40 ]
   1770c:	c2 07 bf ec 	ld  [ %fp + -20 ], %g1
   17710:	82 00 60 01 	inc  %g1
   17714:	c2 27 bf ec 	st  %g1, [ %fp + -20 ]
   17718:	10 bf ff d8 	b  17678 <do_hexdump+0x1a4>
   1771c:	01 00 00 00 	nop 
   17720:	c0 27 bf 38 	clr  [ %fp + -200 ]
   17724:	86 07 bf 48 	add  %fp, -184, %g3
   17728:	c2 07 bf 40 	ld  [ %fp + -192 ], %g1
   1772c:	84 08 60 0f 	and  %g1, 0xf, %g2
   17730:	82 10 20 80 	mov  0x80, %g1
   17734:	82 20 40 02 	sub  %g1, %g2, %g1
   17738:	90 10 00 03 	mov  %g3, %o0
   1773c:	92 10 20 01 	mov  1, %o1
   17740:	94 10 00 01 	mov  %g1, %o2
   17744:	d6 07 bf f4 	ld  [ %fp + -12 ], %o3
   17748:	40 00 52 ed 	call  2c2fc <fread@plt>
   1774c:	01 00 00 00 	nop 
   17750:	d0 27 bf f0 	st  %o0, [ %fp + -16 ]
   17754:	c2 07 bf f0 	ld  [ %fp + -16 ], %g1
   17758:	80 a0 60 00 	cmp  %g1, 0
   1775c:	14 80 00 04 	bg  1776c <do_hexdump+0x298>
   17760:	01 00 00 00 	nop 
   17764:	10 80 00 b2 	b  17a2c <do_hexdump+0x558>
   17768:	01 00 00 00 	nop 
   1776c:	c4 07 bf 38 	ld  [ %fp + -200 ], %g2
   17770:	c2 07 bf f0 	ld  [ %fp + -16 ], %g1
   17774:	80 a0 80 01 	cmp  %g2, %g1
   17778:	16 80 00 61 	bge  178fc <do_hexdump+0x428>
   1777c:	01 00 00 00 	nop 
   17780:	c2 07 bf 40 	ld  [ %fp + -192 ], %g1
   17784:	82 08 60 0f 	and  %g1, 0xf, %g1
   17788:	c2 27 bf ec 	st  %g1, [ %fp + -20 ]
   1778c:	c2 07 bf ec 	ld  [ %fp + -20 ], %g1
   17790:	80 a0 60 00 	cmp  %g1, 0
   17794:	12 80 00 09 	bne  177b8 <do_hexdump+0x2e4>
   17798:	01 00 00 00 	nop 
   1779c:	c2 07 bf 40 	ld  [ %fp + -192 ], %g1
   177a0:	84 08 7f f0 	and  %g1, -16, %g2
   177a4:	03 00 00 6b 	sethi  %hi(0x1ac00), %g1
   177a8:	90 10 62 88 	or  %g1, 0x288, %o0	! 1ae88 <_IO_stdin_used+0x8d8>
   177ac:	92 10 00 02 	mov  %g2, %o1
   177b0:	40 00 53 7e 	call  2c5a8 <printf@plt>
   177b4:	01 00 00 00 	nop 
   177b8:	c4 07 bf 38 	ld  [ %fp + -200 ], %g2
   177bc:	82 07 bf f8 	add  %fp, -8, %g1
   177c0:	82 00 40 02 	add  %g1, %g2, %g1
   177c4:	c2 08 7f 50 	ldub  [ %g1 + -176 ], %g1
   177c8:	82 08 60 ff 	and  %g1, 0xff, %g1
   177cc:	80 a0 60 1f 	cmp  %g1, 0x1f
   177d0:	08 80 00 0c 	bleu  17800 <do_hexdump+0x32c>
   177d4:	01 00 00 00 	nop 
   177d8:	c4 07 bf 38 	ld  [ %fp + -200 ], %g2
   177dc:	82 07 bf f8 	add  %fp, -8, %g1
   177e0:	82 00 40 02 	add  %g1, %g2, %g1
   177e4:	c2 08 7f 50 	ldub  [ %g1 + -176 ], %g1
   177e8:	82 08 60 ff 	and  %g1, 0xff, %g1
   177ec:	80 a0 60 7e 	cmp  %g1, 0x7e
   177f0:	18 80 00 04 	bgu  17800 <do_hexdump+0x32c>
   177f4:	01 00 00 00 	nop 
   177f8:	10 80 00 09 	b  1781c <do_hexdump+0x348>
   177fc:	01 00 00 00 	nop 
   17800:	c4 07 bf ec 	ld  [ %fp + -20 ], %g2
   17804:	82 07 bf f8 	add  %fp, -8, %g1
   17808:	84 00 40 02 	add  %g1, %g2, %g2
   1780c:	82 10 20 2e 	mov  0x2e, %g1
   17810:	c2 28 bf d8 	stb  %g1, [ %g2 + -40 ]
   17814:	10 80 00 0a 	b  1783c <do_hexdump+0x368>
   17818:	01 00 00 00 	nop 
   1781c:	c4 07 bf ec 	ld  [ %fp + -20 ], %g2
   17820:	82 07 bf f8 	add  %fp, -8, %g1
   17824:	86 00 40 02 	add  %g1, %g2, %g3
   17828:	c4 07 bf 38 	ld  [ %fp + -200 ], %g2
   1782c:	82 07 bf f8 	add  %fp, -8, %g1
   17830:	82 00 40 02 	add  %g1, %g2, %g1
   17834:	c2 08 7f 50 	ldub  [ %g1 + -176 ], %g1
   17838:	c2 28 ff d8 	stb  %g1, [ %g3 + -40 ]
   1783c:	c2 07 bf ec 	ld  [ %fp + -20 ], %g1
   17840:	80 a0 60 0f 	cmp  %g1, 0xf
   17844:	02 80 00 10 	be  17884 <do_hexdump+0x3b0>
   17848:	01 00 00 00 	nop 
   1784c:	c2 07 bf ec 	ld  [ %fp + -20 ], %g1
   17850:	80 a0 60 08 	cmp  %g1, 8
   17854:	12 80 00 07 	bne  17870 <do_hexdump+0x39c>
   17858:	01 00 00 00 	nop 
   1785c:	03 00 00 6b 	sethi  %hi(0x1ac00), %g1
   17860:	82 10 62 a0 	or  %g1, 0x2a0, %g1	! 1aea0 <_IO_stdin_used+0x8f0>
   17864:	c2 27 bf 30 	st  %g1, [ %fp + -208 ]
   17868:	10 80 00 0a 	b  17890 <do_hexdump+0x3bc>
   1786c:	01 00 00 00 	nop 
   17870:	03 00 00 6b 	sethi  %hi(0x1ac00), %g1
   17874:	82 10 62 a8 	or  %g1, 0x2a8, %g1	! 1aea8 <_IO_stdin_used+0x8f8>
   17878:	c2 27 bf 30 	st  %g1, [ %fp + -208 ]
   1787c:	10 80 00 05 	b  17890 <do_hexdump+0x3bc>
   17880:	01 00 00 00 	nop 
   17884:	03 00 00 6b 	sethi  %hi(0x1ac00), %g1
   17888:	82 10 62 a8 	or  %g1, 0x2a8, %g1	! 1aea8 <_IO_stdin_used+0x8f8>
   1788c:	c2 27 bf 30 	st  %g1, [ %fp + -208 ]
   17890:	c4 07 bf 38 	ld  [ %fp + -200 ], %g2
   17894:	82 07 bf f8 	add  %fp, -8, %g1
   17898:	82 00 40 02 	add  %g1, %g2, %g1
   1789c:	c2 08 7f 50 	ldub  [ %g1 + -176 ], %g1
   178a0:	82 08 60 ff 	and  %g1, 0xff, %g1
   178a4:	d0 07 bf 30 	ld  [ %fp + -208 ], %o0
   178a8:	92 10 00 01 	mov  %g1, %o1
   178ac:	40 00 53 3f 	call  2c5a8 <printf@plt>
   178b0:	01 00 00 00 	nop 
   178b4:	c2 07 bf ec 	ld  [ %fp + -20 ], %g1
   178b8:	80 a0 60 0f 	cmp  %g1, 0xf
   178bc:	12 80 00 08 	bne  178dc <do_hexdump+0x408>
   178c0:	01 00 00 00 	nop 
   178c4:	84 07 bf d0 	add  %fp, -48, %g2
   178c8:	03 00 00 6b 	sethi  %hi(0x1ac00), %g1
   178cc:	90 10 62 b0 	or  %g1, 0x2b0, %o0	! 1aeb0 <_IO_stdin_used+0x900>
   178d0:	92 10 00 02 	mov  %g2, %o1
   178d4:	40 00 53 35 	call  2c5a8 <printf@plt>
   178d8:	01 00 00 00 	nop 
   178dc:	c2 07 bf 40 	ld  [ %fp + -192 ], %g1
   178e0:	82 00 60 01 	inc  %g1
   178e4:	c2 27 bf 40 	st  %g1, [ %fp + -192 ]
   178e8:	c2 07 bf 38 	ld  [ %fp + -200 ], %g1
   178ec:	82 00 60 01 	inc  %g1
   178f0:	c2 27 bf 38 	st  %g1, [ %fp + -200 ]
   178f4:	10 bf ff 9e 	b  1776c <do_hexdump+0x298>
   178f8:	01 00 00 00 	nop 
   178fc:	c2 07 bf 40 	ld  [ %fp + -192 ], %g1
   17900:	82 08 60 0f 	and  %g1, 0xf, %g1
   17904:	c2 27 bf ec 	st  %g1, [ %fp + -20 ]
   17908:	80 a0 60 00 	cmp  %g1, 0
   1790c:	02 80 00 25 	be  179a0 <do_hexdump+0x4cc>
   17910:	01 00 00 00 	nop 
   17914:	c2 07 bf ec 	ld  [ %fp + -20 ], %g1
   17918:	80 a0 60 0f 	cmp  %g1, 0xf
   1791c:	14 80 00 1b 	bg  17988 <do_hexdump+0x4b4>
   17920:	01 00 00 00 	nop 
   17924:	c2 07 bf ec 	ld  [ %fp + -20 ], %g1
   17928:	80 a0 60 08 	cmp  %g1, 8
   1792c:	12 80 00 07 	bne  17948 <do_hexdump+0x474>
   17930:	01 00 00 00 	nop 
   17934:	03 00 00 6b 	sethi  %hi(0x1ac00), %g1
   17938:	82 10 62 90 	or  %g1, 0x290, %g1	! 1ae90 <_IO_stdin_used+0x8e0>
   1793c:	c2 27 bf 2c 	st  %g1, [ %fp + -212 ]
   17940:	10 80 00 05 	b  17954 <do_hexdump+0x480>
   17944:	01 00 00 00 	nop 
   17948:	03 00 00 6b 	sethi  %hi(0x1ac00), %g1
   1794c:	82 10 62 98 	or  %g1, 0x298, %g1	! 1ae98 <_IO_stdin_used+0x8e8>
   17950:	c2 27 bf 2c 	st  %g1, [ %fp + -212 ]
   17954:	d0 07 bf 2c 	ld  [ %fp + -212 ], %o0
   17958:	40 00 53 14 	call  2c5a8 <printf@plt>
   1795c:	01 00 00 00 	nop 
   17960:	c4 07 bf ec 	ld  [ %fp + -20 ], %g2
   17964:	82 07 bf f8 	add  %fp, -8, %g1
   17968:	84 00 40 02 	add  %g1, %g2, %g2
   1796c:	82 10 20 20 	mov  0x20, %g1
   17970:	c2 28 bf d8 	stb  %g1, [ %g2 + -40 ]
   17974:	c2 07 bf ec 	ld  [ %fp + -20 ], %g1
   17978:	82 00 60 01 	inc  %g1
   1797c:	c2 27 bf ec 	st  %g1, [ %fp + -20 ]
   17980:	10 bf ff e5 	b  17914 <do_hexdump+0x440>
   17984:	01 00 00 00 	nop 
   17988:	84 07 bf d0 	add  %fp, -48, %g2
   1798c:	03 00 00 6b 	sethi  %hi(0x1ac00), %g1
   17990:	90 10 62 b0 	or  %g1, 0x2b0, %o0	! 1aeb0 <_IO_stdin_used+0x900>
   17994:	92 10 00 02 	mov  %g2, %o1
   17998:	40 00 53 04 	call  2c5a8 <printf@plt>
   1799c:	01 00 00 00 	nop 
   179a0:	d0 07 bf f4 	ld  [ %fp + -12 ], %o0
   179a4:	40 00 52 02 	call  2c1ac <feof@plt>
   179a8:	01 00 00 00 	nop 
   179ac:	82 10 00 08 	mov  %o0, %g1
   179b0:	80 a0 60 00 	cmp  %g1, 0
   179b4:	02 80 00 04 	be  179c4 <do_hexdump+0x4f0>
   179b8:	01 00 00 00 	nop 
   179bc:	10 80 00 1c 	b  17a2c <do_hexdump+0x558>
   179c0:	01 00 00 00 	nop 
   179c4:	03 00 00 6b 	sethi  %hi(0x1ac00), %g1
   179c8:	90 10 62 b8 	or  %g1, 0x2b8, %o0	! 1aeb8 <_IO_stdin_used+0x908>
   179cc:	40 00 52 f7 	call  2c5a8 <printf@plt>
   179d0:	01 00 00 00 	nop 
   179d4:	03 00 00 b3 	sethi  %hi(0x2cc00), %g1
   179d8:	82 10 62 3c 	or  %g1, 0x23c, %g1	! 2ce3c <stdout@@GLIBC_2.0>
   179dc:	d0 00 40 00 	ld  [ %g1 ], %o0
   179e0:	40 00 52 1d 	call  2c254 <fflush@plt>
   179e4:	01 00 00 00 	nop 
   179e8:	84 07 bf 48 	add  %fp, -184, %g2
   179ec:	03 00 00 b3 	sethi  %hi(0x2cc00), %g1
   179f0:	82 10 62 44 	or  %g1, 0x244, %g1	! 2ce44 <stdin@@GLIBC_2.0>
   179f4:	90 10 00 02 	mov  %g2, %o0
   179f8:	92 10 20 50 	mov  0x50, %o1
   179fc:	d4 00 40 00 	ld  [ %g1 ], %o2
   17a00:	40 00 52 5a 	call  2c368 <fgets@plt>
   17a04:	01 00 00 00 	nop 
   17a08:	c2 0f bf 48 	ldub  [ %fp + -184 ], %g1
   17a0c:	82 08 60 ff 	and  %g1, 0xff, %g1
   17a10:	90 10 00 01 	mov  %g1, %o0
   17a14:	40 00 52 82 	call  2c41c <toupper@plt>
   17a18:	01 00 00 00 	nop 
   17a1c:	82 10 00 08 	mov  %o0, %g1
   17a20:	80 a0 60 51 	cmp  %g1, 0x51
   17a24:	12 bf ff 0e 	bne  1765c <do_hexdump+0x188>
   17a28:	01 00 00 00 	nop 
   17a2c:	03 00 00 b3 	sethi  %hi(0x2cc00), %g1
   17a30:	82 10 62 44 	or  %g1, 0x244, %g1	! 2ce44 <stdin@@GLIBC_2.0>
   17a34:	c4 07 bf f4 	ld  [ %fp + -12 ], %g2
   17a38:	c2 00 40 00 	ld  [ %g1 ], %g1
   17a3c:	80 a0 80 01 	cmp  %g2, %g1
   17a40:	02 80 00 05 	be  17a54 <do_hexdump+0x580>
   17a44:	01 00 00 00 	nop 
   17a48:	d0 07 bf f4 	ld  [ %fp + -12 ], %o0
   17a4c:	40 00 52 83 	call  2c458 <fclose@plt>
   17a50:	01 00 00 00 	nop 
   17a54:	01 00 00 00 	nop 
   17a58:	81 c7 e0 08 	ret 
   17a5c:	81 e8 00 00 	restore 

00017a60 <do_df>:
do_df():
   17a60:	9d e3 bf 50 	save  %sp, -176, %sp
   17a64:	f0 27 a0 44 	st  %i0, [ %fp + 0x44 ]
   17a68:	f2 27 a0 48 	st  %i1, [ %fp + 0x48 ]
   17a6c:	c2 07 a0 44 	ld  [ %fp + 0x44 ], %g1
   17a70:	80 a0 60 01 	cmp  %g1, 1
   17a74:	14 80 00 07 	bg  17a90 <do_df+0x30>
   17a78:	01 00 00 00 	nop 
   17a7c:	03 00 00 6b 	sethi  %hi(0x1ac00), %g1
   17a80:	82 10 62 c8 	or  %g1, 0x2c8, %g1	! 1aec8 <_IO_stdin_used+0x918>
   17a84:	c2 27 bf f4 	st  %g1, [ %fp + -12 ]
   17a88:	10 80 00 07 	b  17aa4 <do_df+0x44>
   17a8c:	01 00 00 00 	nop 
   17a90:	84 10 20 04 	mov  4, %g2	! 4 <_init-0x11504>
   17a94:	c2 07 a0 48 	ld  [ %fp + 0x48 ], %g1
   17a98:	82 00 80 01 	add  %g2, %g1, %g1
   17a9c:	c2 00 40 00 	ld  [ %g1 ], %g1
   17aa0:	c2 27 bf f4 	st  %g1, [ %fp + -12 ]
   17aa4:	82 07 bf b0 	add  %fp, -80, %g1
   17aa8:	d0 07 bf f4 	ld  [ %fp + -12 ], %o0
   17aac:	92 10 00 01 	mov  %g1, %o1
   17ab0:	40 00 51 d7 	call  2c20c <statfs@plt>
   17ab4:	01 00 00 00 	nop 
   17ab8:	82 10 00 08 	mov  %o0, %g1
   17abc:	80 a0 7f ff 	cmp  %g1, -1
   17ac0:	12 80 00 11 	bne  17b04 <do_df+0xa4>
   17ac4:	01 00 00 00 	nop 
   17ac8:	40 00 51 fb 	call  2c2b4 <__errno_location@plt>
   17acc:	01 00 00 00 	nop 
   17ad0:	82 10 00 08 	mov  %o0, %g1
   17ad4:	d0 00 40 00 	ld  [ %g1 ], %o0
   17ad8:	40 00 51 eb 	call  2c284 <strerror@plt>
   17adc:	01 00 00 00 	nop 
   17ae0:	84 10 00 08 	mov  %o0, %g2
   17ae4:	03 00 00 6b 	sethi  %hi(0x1ac00), %g1
   17ae8:	90 10 62 d0 	or  %g1, 0x2d0, %o0	! 1aed0 <_IO_stdin_used+0x920>
   17aec:	d2 07 bf f4 	ld  [ %fp + -12 ], %o1
   17af0:	94 10 00 02 	mov  %g2, %o2
   17af4:	40 00 52 ad 	call  2c5a8 <printf@plt>
   17af8:	01 00 00 00 	nop 
   17afc:	10 80 00 26 	b  17b94 <do_df+0x134>
   17b00:	01 00 00 00 	nop 
   17b04:	c4 07 bf b4 	ld  [ %fp + -76 ], %g2
   17b08:	83 38 a0 1f 	sra  %g2, 0x1f, %g1
   17b0c:	83 30 60 18 	srl  %g1, 0x18, %g1
   17b10:	82 00 80 01 	add  %g2, %g1, %g1
   17b14:	85 38 60 08 	sra  %g1, 8, %g2
   17b18:	c2 07 bf b8 	ld  [ %fp + -72 ], %g1
   17b1c:	83 30 60 02 	srl  %g1, 2, %g1
   17b20:	84 58 80 01 	smul  %g2, %g1, %g2
   17b24:	03 00 00 6b 	sethi  %hi(0x1ac00), %g1
   17b28:	90 10 62 f8 	or  %g1, 0x2f8, %o0	! 1aef8 <_IO_stdin_used+0x948>
   17b2c:	92 10 00 02 	mov  %g2, %o1
   17b30:	40 00 52 9e 	call  2c5a8 <printf@plt>
   17b34:	01 00 00 00 	nop 
   17b38:	c4 07 bf b4 	ld  [ %fp + -76 ], %g2
   17b3c:	83 38 a0 1f 	sra  %g2, 0x1f, %g1
   17b40:	83 30 60 18 	srl  %g1, 0x18, %g1
   17b44:	82 00 80 01 	add  %g2, %g1, %g1
   17b48:	85 38 60 08 	sra  %g1, 8, %g2
   17b4c:	c2 07 bf bc 	ld  [ %fp + -68 ], %g1
   17b50:	83 30 60 02 	srl  %g1, 2, %g1
   17b54:	84 58 80 01 	smul  %g2, %g1, %g2
   17b58:	03 00 00 6b 	sethi  %hi(0x1ac00), %g1
   17b5c:	90 10 63 10 	or  %g1, 0x310, %o0	! 1af10 <_IO_stdin_used+0x960>
   17b60:	92 10 00 02 	mov  %g2, %o1
   17b64:	40 00 52 91 	call  2c5a8 <printf@plt>
   17b68:	01 00 00 00 	nop 
   17b6c:	03 00 00 6b 	sethi  %hi(0x1ac00), %g1
   17b70:	90 10 63 28 	or  %g1, 0x328, %o0	! 1af28 <_IO_stdin_used+0x978>
   17b74:	d2 07 bf c4 	ld  [ %fp + -60 ], %o1
   17b78:	40 00 52 8c 	call  2c5a8 <printf@plt>
   17b7c:	01 00 00 00 	nop 
   17b80:	03 00 00 6b 	sethi  %hi(0x1ac00), %g1
   17b84:	90 10 63 40 	or  %g1, 0x340, %o0	! 1af40 <_IO_stdin_used+0x990>
   17b88:	d2 07 bf c8 	ld  [ %fp + -56 ], %o1
   17b8c:	40 00 52 87 	call  2c5a8 <printf@plt>
   17b90:	01 00 00 00 	nop 
   17b94:	01 00 00 00 	nop 
   17b98:	81 c7 e0 08 	ret 
   17b9c:	81 e8 00 00 	restore 

00017ba0 <do_free>:
do_free():
   17ba0:	9d e3 be 90 	save  %sp, -368, %sp
   17ba4:	f0 27 a0 44 	st  %i0, [ %fp + 0x44 ]
   17ba8:	f2 27 a0 48 	st  %i1, [ %fp + 0x48 ]
   17bac:	03 00 00 6b 	sethi  %hi(0x1ac00), %g1
   17bb0:	90 10 63 58 	or  %g1, 0x358, %o0	! 1af58 <_IO_stdin_used+0x9a8>
   17bb4:	03 00 00 6b 	sethi  %hi(0x1ac00), %g1
   17bb8:	92 10 63 68 	or  %g1, 0x368, %o1	! 1af68 <_IO_stdin_used+0x9b8>
   17bbc:	40 00 52 6c 	call  2c56c <fopen@plt>
   17bc0:	01 00 00 00 	nop 
   17bc4:	82 10 00 08 	mov  %o0, %g1
   17bc8:	c2 27 bf f0 	st  %g1, [ %fp + -16 ]
   17bcc:	c2 07 bf f0 	ld  [ %fp + -16 ], %g1
   17bd0:	80 a0 60 00 	cmp  %g1, 0
   17bd4:	12 80 00 08 	bne  17bf4 <do_free+0x54>
   17bd8:	01 00 00 00 	nop 
   17bdc:	03 00 00 6b 	sethi  %hi(0x1ac00), %g1
   17be0:	90 10 63 70 	or  %g1, 0x370, %o0	! 1af70 <_IO_stdin_used+0x9c0>
   17be4:	40 00 51 90 	call  2c224 <perror@plt>
   17be8:	01 00 00 00 	nop 
   17bec:	10 80 00 1c 	b  17c5c <do_free+0xbc>
   17bf0:	01 00 00 00 	nop 
   17bf4:	c0 27 bf f4 	clr  [ %fp + -12 ]
   17bf8:	c2 07 bf f4 	ld  [ %fp + -12 ], %g1
   17bfc:	80 a0 60 02 	cmp  %g1, 2
   17c00:	14 80 00 14 	bg  17c50 <do_free+0xb0>
   17c04:	01 00 00 00 	nop 
   17c08:	82 07 be f0 	add  %fp, -272, %g1
   17c0c:	90 10 00 01 	mov  %g1, %o0
   17c10:	92 10 20 fa 	mov  0xfa, %o1
   17c14:	d4 07 bf f0 	ld  [ %fp + -16 ], %o2
   17c18:	40 00 51 d4 	call  2c368 <fgets@plt>
   17c1c:	01 00 00 00 	nop 
   17c20:	84 07 be f0 	add  %fp, -272, %g2
   17c24:	03 00 00 b3 	sethi  %hi(0x2cc00), %g1
   17c28:	82 10 62 3c 	or  %g1, 0x23c, %g1	! 2ce3c <stdout@@GLIBC_2.0>
   17c2c:	90 10 00 02 	mov  %g2, %o0
   17c30:	d2 00 40 00 	ld  [ %g1 ], %o1
   17c34:	40 00 51 d3 	call  2c380 <fputs@plt>
   17c38:	01 00 00 00 	nop 
   17c3c:	c2 07 bf f4 	ld  [ %fp + -12 ], %g1
   17c40:	82 00 60 01 	inc  %g1
   17c44:	c2 27 bf f4 	st  %g1, [ %fp + -12 ]
   17c48:	10 bf ff ec 	b  17bf8 <do_free+0x58>
   17c4c:	01 00 00 00 	nop 
   17c50:	d0 07 bf f0 	ld  [ %fp + -16 ], %o0
   17c54:	40 00 52 01 	call  2c458 <fclose@plt>
   17c58:	01 00 00 00 	nop 
   17c5c:	01 00 00 00 	nop 
   17c60:	81 c7 e0 08 	ret 
   17c64:	81 e8 00 00 	restore 

00017c68 <do_hostname>:
do_hostname():
   17c68:	9d e3 be 90 	save  %sp, -368, %sp
   17c6c:	f0 27 a0 44 	st  %i0, [ %fp + 0x44 ]
   17c70:	f2 27 a0 48 	st  %i1, [ %fp + 0x48 ]
   17c74:	c2 07 a0 44 	ld  [ %fp + 0x44 ], %g1
   17c78:	80 a0 60 01 	cmp  %g1, 1
   17c7c:	04 80 00 23 	ble  17d08 <do_hostname+0xa0>
   17c80:	01 00 00 00 	nop 
   17c84:	84 10 20 04 	mov  4, %g2	! 4 <_init-0x11504>
   17c88:	c2 07 a0 48 	ld  [ %fp + 0x48 ], %g1
   17c8c:	82 00 80 01 	add  %g2, %g1, %g1
   17c90:	d0 00 40 00 	ld  [ %g1 ], %o0
   17c94:	40 00 51 be 	call  2c38c <strlen@plt>
   17c98:	01 00 00 00 	nop 
   17c9c:	82 10 00 08 	mov  %o0, %g1
   17ca0:	80 a0 61 00 	cmp  %g1, 0x100
   17ca4:	08 80 00 08 	bleu  17cc4 <do_hostname+0x5c>
   17ca8:	01 00 00 00 	nop 
   17cac:	03 00 00 6b 	sethi  %hi(0x1ac00), %g1
   17cb0:	90 10 63 90 	or  %g1, 0x390, %o0	! 1af90 <_IO_stdin_used+0x9e0>
   17cb4:	40 00 52 3d 	call  2c5a8 <printf@plt>
   17cb8:	01 00 00 00 	nop 
   17cbc:	10 80 00 1e 	b  17d34 <do_hostname+0xcc>
   17cc0:	01 00 00 00 	nop 
   17cc4:	84 10 20 04 	mov  4, %g2	! 4 <_init-0x11504>
   17cc8:	c2 07 a0 48 	ld  [ %fp + 0x48 ], %g1
   17ccc:	82 00 80 01 	add  %g2, %g1, %g1
   17cd0:	d0 00 40 00 	ld  [ %g1 ], %o0
   17cd4:	40 00 51 ae 	call  2c38c <strlen@plt>
   17cd8:	01 00 00 00 	nop 
   17cdc:	82 10 00 08 	mov  %o0, %g1
   17ce0:	86 10 00 01 	mov  %g1, %g3
   17ce4:	84 10 20 04 	mov  4, %g2
   17ce8:	c2 07 a0 48 	ld  [ %fp + 0x48 ], %g1
   17cec:	82 00 80 01 	add  %g2, %g1, %g1
   17cf0:	d0 00 40 00 	ld  [ %g1 ], %o0
   17cf4:	92 10 00 03 	mov  %g3, %o1
   17cf8:	40 00 51 5d 	call  2c26c <sethostname@plt>
   17cfc:	01 00 00 00 	nop 
   17d00:	10 80 00 0d 	b  17d34 <do_hostname+0xcc>
   17d04:	01 00 00 00 	nop 
   17d08:	82 07 be f0 	add  %fp, -272, %g1
   17d0c:	90 10 00 01 	mov  %g1, %o0
   17d10:	92 10 21 00 	mov  0x100, %o1
   17d14:	40 00 51 e9 	call  2c4b8 <gethostname@plt>
   17d18:	01 00 00 00 	nop 
   17d1c:	84 07 be f0 	add  %fp, -272, %g2
   17d20:	03 00 00 6b 	sethi  %hi(0x1ac00), %g1
   17d24:	90 10 63 a8 	or  %g1, 0x3a8, %o0	! 1afa8 <_IO_stdin_used+0x9f8>
   17d28:	92 10 00 02 	mov  %g2, %o1
   17d2c:	40 00 52 1f 	call  2c5a8 <printf@plt>
   17d30:	01 00 00 00 	nop 
   17d34:	01 00 00 00 	nop 
   17d38:	81 c7 e0 08 	ret 
   17d3c:	81 e8 00 00 	restore 

00017d40 <do_date>:
do_date():
   17d40:	9d e3 bf 50 	save  %sp, -176, %sp
   17d44:	f0 27 a0 44 	st  %i0, [ %fp + 0x44 ]
   17d48:	f2 27 a0 48 	st  %i1, [ %fp + 0x48 ]
   17d4c:	82 07 bf f4 	add  %fp, -12, %g1
   17d50:	90 10 00 01 	mov  %g1, %o0
   17d54:	40 00 51 7f 	call  2c350 <time@plt>
   17d58:	01 00 00 00 	nop 
   17d5c:	82 07 bf f4 	add  %fp, -12, %g1
   17d60:	90 10 00 01 	mov  %g1, %o0
   17d64:	40 00 51 1e 	call  2c1dc <localtime@plt>
   17d68:	01 00 00 00 	nop 
   17d6c:	84 10 00 08 	mov  %o0, %g2
   17d70:	82 07 bf c0 	add  %fp, -64, %g1
   17d74:	90 10 00 01 	mov  %g1, %o0
   17d78:	92 10 00 02 	mov  %g2, %o1
   17d7c:	94 10 20 2c 	mov  0x2c, %o2
   17d80:	40 00 51 b3 	call  2c44c <memcpy@plt>
   17d84:	01 00 00 00 	nop 
   17d88:	c2 07 a0 44 	ld  [ %fp + 0x44 ], %g1
   17d8c:	80 a0 60 01 	cmp  %g1, 1
   17d90:	04 80 00 69 	ble  17f34 <do_date+0x1f4>
   17d94:	01 00 00 00 	nop 
   17d98:	84 10 20 04 	mov  4, %g2	! 4 <_init-0x11504>
   17d9c:	c2 07 a0 48 	ld  [ %fp + 0x48 ], %g1
   17da0:	86 00 80 01 	add  %g2, %g1, %g3
   17da4:	82 07 bf c0 	add  %fp, -64, %g1
   17da8:	88 00 60 10 	add  %g1, 0x10, %g4
   17dac:	82 07 bf c0 	add  %fp, -64, %g1
   17db0:	9a 00 60 0c 	add  %g1, 0xc, %o5
   17db4:	82 07 bf c0 	add  %fp, -64, %g1
   17db8:	98 00 60 08 	add  %g1, 8, %o4
   17dbc:	82 07 bf c0 	add  %fp, -64, %g1
   17dc0:	84 00 60 04 	add  %g1, 4, %g2
   17dc4:	82 07 bf c0 	add  %fp, -64, %g1
   17dc8:	82 00 60 14 	add  %g1, 0x14, %g1
   17dcc:	c2 23 a0 5c 	st  %g1, [ %sp + 0x5c ]
   17dd0:	d0 00 c0 00 	ld  [ %g3 ], %o0
   17dd4:	03 00 00 6b 	sethi  %hi(0x1ac00), %g1
   17dd8:	92 10 63 c8 	or  %g1, 0x3c8, %o1	! 1afc8 <invalid_date+0x18>
   17ddc:	94 10 00 04 	mov  %g4, %o2
   17de0:	96 10 00 0d 	mov  %o5, %o3
   17de4:	9a 10 00 02 	mov  %g2, %o5
   17de8:	40 00 51 8a 	call  2c410 <sscanf@plt>
   17dec:	01 00 00 00 	nop 
   17df0:	82 10 00 08 	mov  %o0, %g1
   17df4:	c2 27 bf bc 	st  %g1, [ %fp + -68 ]
   17df8:	c2 07 bf bc 	ld  [ %fp + -68 ], %g1
   17dfc:	80 a0 60 03 	cmp  %g1, 3
   17e00:	04 80 00 08 	ble  17e20 <do_date+0xe0>
   17e04:	01 00 00 00 	nop 
   17e08:	c2 07 bf bc 	ld  [ %fp + -68 ], %g1
   17e0c:	80 a0 60 05 	cmp  %g1, 5
   17e10:	14 80 00 04 	bg  17e20 <do_date+0xe0>
   17e14:	01 00 00 00 	nop 
   17e18:	10 80 00 10 	b  17e58 <do_date+0x118>
   17e1c:	01 00 00 00 	nop 
   17e20:	03 00 00 b3 	sethi  %hi(0x2cc00), %g1
   17e24:	86 10 62 40 	or  %g1, 0x240, %g3	! 2ce40 <stderr@@GLIBC_2.0>
   17e28:	84 10 20 04 	mov  4, %g2
   17e2c:	c2 07 a0 48 	ld  [ %fp + 0x48 ], %g1
   17e30:	84 00 80 01 	add  %g2, %g1, %g2
   17e34:	d0 00 c0 00 	ld  [ %g3 ], %o0
   17e38:	03 00 00 6b 	sethi  %hi(0x1ac00), %g1
   17e3c:	92 10 63 b0 	or  %g1, 0x3b0, %o1	! 1afb0 <invalid_date>
   17e40:	d4 00 80 00 	ld  [ %g2 ], %o2
   17e44:	40 00 51 6d 	call  2c3f8 <fprintf@plt>
   17e48:	01 00 00 00 	nop 
   17e4c:	c0 27 bf b8 	clr  [ %fp + -72 ]
   17e50:	10 80 00 44 	b  17f60 <do_date+0x220>
   17e54:	01 00 00 00 	nop 
   17e58:	c2 07 bf d4 	ld  [ %fp + -44 ], %g1
   17e5c:	80 a0 67 6b 	cmp  %g1, 0x76b
   17e60:	04 80 00 05 	ble  17e74 <do_date+0x134>
   17e64:	01 00 00 00 	nop 
   17e68:	c2 07 bf d4 	ld  [ %fp + -44 ], %g1
   17e6c:	82 00 78 94 	add  %g1, -1900, %g1
   17e70:	c2 27 bf d4 	st  %g1, [ %fp + -44 ]
   17e74:	c2 07 bf d0 	ld  [ %fp + -48 ], %g1
   17e78:	82 00 7f ff 	add  %g1, -1, %g1
   17e7c:	c2 27 bf d0 	st  %g1, [ %fp + -48 ]
   17e80:	82 07 bf c0 	add  %fp, -64, %g1
   17e84:	90 10 00 01 	mov  %g1, %o0
   17e88:	40 00 51 35 	call  2c35c <mktime@plt>
   17e8c:	01 00 00 00 	nop 
   17e90:	82 10 00 08 	mov  %o0, %g1
   17e94:	c2 27 bf f4 	st  %g1, [ %fp + -12 ]
   17e98:	c2 07 bf f4 	ld  [ %fp + -12 ], %g1
   17e9c:	80 a0 60 00 	cmp  %g1, 0
   17ea0:	16 80 00 10 	bge  17ee0 <do_date+0x1a0>
   17ea4:	01 00 00 00 	nop 
   17ea8:	03 00 00 b3 	sethi  %hi(0x2cc00), %g1
   17eac:	86 10 62 40 	or  %g1, 0x240, %g3	! 2ce40 <stderr@@GLIBC_2.0>
   17eb0:	84 10 20 04 	mov  4, %g2
   17eb4:	c2 07 a0 48 	ld  [ %fp + 0x48 ], %g1
   17eb8:	84 00 80 01 	add  %g2, %g1, %g2
   17ebc:	d0 00 c0 00 	ld  [ %g3 ], %o0
   17ec0:	03 00 00 6b 	sethi  %hi(0x1ac00), %g1
   17ec4:	92 10 63 b0 	or  %g1, 0x3b0, %o1	! 1afb0 <invalid_date>
   17ec8:	d4 00 80 00 	ld  [ %g2 ], %o2
   17ecc:	40 00 51 4b 	call  2c3f8 <fprintf@plt>
   17ed0:	01 00 00 00 	nop 
   17ed4:	c0 27 bf b8 	clr  [ %fp + -72 ]
   17ed8:	10 80 00 22 	b  17f60 <do_date+0x220>
   17edc:	01 00 00 00 	nop 
   17ee0:	82 07 bf f4 	add  %fp, -12, %g1
   17ee4:	90 10 00 01 	mov  %g1, %o0
   17ee8:	40 00 51 0e 	call  2c320 <stime@plt>
   17eec:	01 00 00 00 	nop 
   17ef0:	82 10 00 08 	mov  %o0, %g1
   17ef4:	80 a0 60 00 	cmp  %g1, 0
   17ef8:	16 80 00 0c 	bge  17f28 <do_date+0x1e8>
   17efc:	01 00 00 00 	nop 
   17f00:	03 00 00 b3 	sethi  %hi(0x2cc00), %g1
   17f04:	82 10 62 40 	or  %g1, 0x240, %g1	! 2ce40 <stderr@@GLIBC_2.0>
   17f08:	d0 00 40 00 	ld  [ %g1 ], %o0
   17f0c:	03 00 00 6b 	sethi  %hi(0x1ac00), %g1
   17f10:	92 10 63 d8 	or  %g1, 0x3d8, %o1	! 1afd8 <invalid_date+0x28>
   17f14:	40 00 51 39 	call  2c3f8 <fprintf@plt>
   17f18:	01 00 00 00 	nop 
   17f1c:	c0 27 bf b8 	clr  [ %fp + -72 ]
   17f20:	10 80 00 10 	b  17f60 <do_date+0x220>
   17f24:	01 00 00 00 	nop 
   17f28:	c0 27 bf b8 	clr  [ %fp + -72 ]
   17f2c:	10 80 00 0d 	b  17f60 <do_date+0x220>
   17f30:	01 00 00 00 	nop 
   17f34:	82 07 bf c0 	add  %fp, -64, %g1
   17f38:	90 10 00 01 	mov  %g1, %o0
   17f3c:	40 00 51 3e 	call  2c434 <asctime@plt>
   17f40:	01 00 00 00 	nop 
   17f44:	84 10 00 08 	mov  %o0, %g2
   17f48:	03 00 00 6b 	sethi  %hi(0x1ac00), %g1
   17f4c:	90 10 63 f0 	or  %g1, 0x3f0, %o0	! 1aff0 <invalid_date+0x40>
   17f50:	92 10 00 02 	mov  %g2, %o1
   17f54:	40 00 51 95 	call  2c5a8 <printf@plt>
   17f58:	01 00 00 00 	nop 
   17f5c:	c0 27 bf b8 	clr  [ %fp + -72 ]
   17f60:	f0 07 bf b8 	ld  [ %fp + -72 ], %i0
   17f64:	81 c7 e0 08 	ret 
   17f68:	81 e8 00 00 	restore 

00017f6c <modestring>:
modestring():
   17f6c:	9d e3 bf 80 	save  %sp, -128, %sp
   17f70:	f0 27 a0 44 	st  %i0, [ %fp + 0x44 ]
   17f74:	03 00 00 b3 	sethi  %hi(0x2cc00), %g1
   17f78:	90 10 63 d8 	or  %g1, 0x3d8, %o0	! 2cfd8 <buf.0>
   17f7c:	03 00 00 6b 	sethi  %hi(0x1ac00), %g1
   17f80:	92 10 63 f8 	or  %g1, 0x3f8, %o1	! 1aff8 <invalid_date+0x48>
   17f84:	40 00 51 92 	call  2c5cc <strcpy@plt>
   17f88:	01 00 00 00 	nop 
   17f8c:	c4 07 a0 44 	ld  [ %fp + 0x44 ], %g2
   17f90:	03 00 00 3c 	sethi  %hi(0xf000), %g1
   17f94:	84 08 80 01 	and  %g2, %g1, %g2
   17f98:	03 00 00 10 	sethi  %hi(0x4000), %g1
   17f9c:	80 a0 80 01 	cmp  %g2, %g1
   17fa0:	12 80 00 06 	bne  17fb8 <modestring+0x4c>
   17fa4:	01 00 00 00 	nop 
   17fa8:	03 00 00 b3 	sethi  %hi(0x2cc00), %g1
   17fac:	84 10 63 d8 	or  %g1, 0x3d8, %g2	! 2cfd8 <buf.0>
   17fb0:	82 10 20 64 	mov  0x64, %g1
   17fb4:	c2 28 80 00 	stb  %g1, [ %g2 ]
   17fb8:	c4 07 a0 44 	ld  [ %fp + 0x44 ], %g2
   17fbc:	03 00 00 3c 	sethi  %hi(0xf000), %g1
   17fc0:	84 08 80 01 	and  %g2, %g1, %g2
   17fc4:	03 00 00 08 	sethi  %hi(0x2000), %g1
   17fc8:	80 a0 80 01 	cmp  %g2, %g1
   17fcc:	12 80 00 06 	bne  17fe4 <modestring+0x78>
   17fd0:	01 00 00 00 	nop 
   17fd4:	03 00 00 b3 	sethi  %hi(0x2cc00), %g1
   17fd8:	84 10 63 d8 	or  %g1, 0x3d8, %g2	! 2cfd8 <buf.0>
   17fdc:	82 10 20 63 	mov  0x63, %g1
   17fe0:	c2 28 80 00 	stb  %g1, [ %g2 ]
   17fe4:	c4 07 a0 44 	ld  [ %fp + 0x44 ], %g2
   17fe8:	03 00 00 3c 	sethi  %hi(0xf000), %g1
   17fec:	84 08 80 01 	and  %g2, %g1, %g2
   17ff0:	03 00 00 18 	sethi  %hi(0x6000), %g1
   17ff4:	80 a0 80 01 	cmp  %g2, %g1
   17ff8:	12 80 00 06 	bne  18010 <modestring+0xa4>
   17ffc:	01 00 00 00 	nop 
   18000:	03 00 00 b3 	sethi  %hi(0x2cc00), %g1
   18004:	84 10 63 d8 	or  %g1, 0x3d8, %g2	! 2cfd8 <buf.0>
   18008:	82 10 20 62 	mov  0x62, %g1
   1800c:	c2 28 80 00 	stb  %g1, [ %g2 ]
   18010:	c4 07 a0 44 	ld  [ %fp + 0x44 ], %g2
   18014:	03 00 00 3c 	sethi  %hi(0xf000), %g1
   18018:	84 08 80 01 	and  %g2, %g1, %g2
   1801c:	03 00 00 04 	sethi  %hi(0x1000), %g1
   18020:	80 a0 80 01 	cmp  %g2, %g1
   18024:	12 80 00 06 	bne  1803c <modestring+0xd0>
   18028:	01 00 00 00 	nop 
   1802c:	03 00 00 b3 	sethi  %hi(0x2cc00), %g1
   18030:	84 10 63 d8 	or  %g1, 0x3d8, %g2	! 2cfd8 <buf.0>
   18034:	82 10 20 70 	mov  0x70, %g1
   18038:	c2 28 80 00 	stb  %g1, [ %g2 ]
   1803c:	c4 07 a0 44 	ld  [ %fp + 0x44 ], %g2
   18040:	03 00 00 3c 	sethi  %hi(0xf000), %g1
   18044:	84 08 80 01 	and  %g2, %g1, %g2
   18048:	03 00 00 28 	sethi  %hi(0xa000), %g1
   1804c:	80 a0 80 01 	cmp  %g2, %g1
   18050:	12 80 00 06 	bne  18068 <modestring+0xfc>
   18054:	01 00 00 00 	nop 
   18058:	03 00 00 b3 	sethi  %hi(0x2cc00), %g1
   1805c:	84 10 63 d8 	or  %g1, 0x3d8, %g2	! 2cfd8 <buf.0>
   18060:	82 10 20 6c 	mov  0x6c, %g1
   18064:	c2 28 80 00 	stb  %g1, [ %g2 ]
   18068:	c4 07 a0 44 	ld  [ %fp + 0x44 ], %g2
   1806c:	03 00 00 3c 	sethi  %hi(0xf000), %g1
   18070:	84 08 80 01 	and  %g2, %g1, %g2
   18074:	03 00 00 30 	sethi  %hi(0xc000), %g1
   18078:	80 a0 80 01 	cmp  %g2, %g1
   1807c:	12 80 00 06 	bne  18094 <modestring+0x128>
   18080:	01 00 00 00 	nop 
   18084:	03 00 00 b3 	sethi  %hi(0x2cc00), %g1
   18088:	84 10 63 d8 	or  %g1, 0x3d8, %g2	! 2cfd8 <buf.0>
   1808c:	82 10 20 73 	mov  0x73, %g1
   18090:	c2 28 80 00 	stb  %g1, [ %g2 ]
   18094:	c2 07 a0 44 	ld  [ %fp + 0x44 ], %g1
   18098:	82 08 61 00 	and  %g1, 0x100, %g1
   1809c:	80 a0 60 00 	cmp  %g1, 0
   180a0:	02 80 00 06 	be  180b8 <modestring+0x14c>
   180a4:	01 00 00 00 	nop 
   180a8:	03 00 00 b3 	sethi  %hi(0x2cc00), %g1
   180ac:	84 10 63 d8 	or  %g1, 0x3d8, %g2	! 2cfd8 <buf.0>
   180b0:	82 10 20 72 	mov  0x72, %g1
   180b4:	c2 28 a0 01 	stb  %g1, [ %g2 + 1 ]
   180b8:	c2 07 a0 44 	ld  [ %fp + 0x44 ], %g1
   180bc:	82 08 60 80 	and  %g1, 0x80, %g1
   180c0:	80 a0 60 00 	cmp  %g1, 0
   180c4:	02 80 00 06 	be  180dc <modestring+0x170>
   180c8:	01 00 00 00 	nop 
   180cc:	03 00 00 b3 	sethi  %hi(0x2cc00), %g1
   180d0:	84 10 63 d8 	or  %g1, 0x3d8, %g2	! 2cfd8 <buf.0>
   180d4:	82 10 20 77 	mov  0x77, %g1
   180d8:	c2 28 a0 02 	stb  %g1, [ %g2 + 2 ]
   180dc:	c2 07 a0 44 	ld  [ %fp + 0x44 ], %g1
   180e0:	82 08 60 40 	and  %g1, 0x40, %g1
   180e4:	80 a0 60 00 	cmp  %g1, 0
   180e8:	02 80 00 06 	be  18100 <modestring+0x194>
   180ec:	01 00 00 00 	nop 
   180f0:	03 00 00 b3 	sethi  %hi(0x2cc00), %g1
   180f4:	84 10 63 d8 	or  %g1, 0x3d8, %g2	! 2cfd8 <buf.0>
   180f8:	82 10 20 78 	mov  0x78, %g1
   180fc:	c2 28 a0 03 	stb  %g1, [ %g2 + 3 ]
   18100:	c2 07 a0 44 	ld  [ %fp + 0x44 ], %g1
   18104:	82 08 60 20 	and  %g1, 0x20, %g1
   18108:	80 a0 60 00 	cmp  %g1, 0
   1810c:	02 80 00 06 	be  18124 <modestring+0x1b8>
   18110:	01 00 00 00 	nop 
   18114:	03 00 00 b3 	sethi  %hi(0x2cc00), %g1
   18118:	84 10 63 d8 	or  %g1, 0x3d8, %g2	! 2cfd8 <buf.0>
   1811c:	82 10 20 72 	mov  0x72, %g1
   18120:	c2 28 a0 04 	stb  %g1, [ %g2 + 4 ]
   18124:	c2 07 a0 44 	ld  [ %fp + 0x44 ], %g1
   18128:	82 08 60 10 	and  %g1, 0x10, %g1
   1812c:	80 a0 60 00 	cmp  %g1, 0
   18130:	02 80 00 06 	be  18148 <modestring+0x1dc>
   18134:	01 00 00 00 	nop 
   18138:	03 00 00 b3 	sethi  %hi(0x2cc00), %g1
   1813c:	84 10 63 d8 	or  %g1, 0x3d8, %g2	! 2cfd8 <buf.0>
   18140:	82 10 20 77 	mov  0x77, %g1
   18144:	c2 28 a0 05 	stb  %g1, [ %g2 + 5 ]
   18148:	c2 07 a0 44 	ld  [ %fp + 0x44 ], %g1
   1814c:	82 08 60 08 	and  %g1, 8, %g1
   18150:	80 a0 60 00 	cmp  %g1, 0
   18154:	02 80 00 06 	be  1816c <modestring+0x200>
   18158:	01 00 00 00 	nop 
   1815c:	03 00 00 b3 	sethi  %hi(0x2cc00), %g1
   18160:	84 10 63 d8 	or  %g1, 0x3d8, %g2	! 2cfd8 <buf.0>
   18164:	82 10 20 78 	mov  0x78, %g1
   18168:	c2 28 a0 06 	stb  %g1, [ %g2 + 6 ]
   1816c:	c2 07 a0 44 	ld  [ %fp + 0x44 ], %g1
   18170:	82 08 60 04 	and  %g1, 4, %g1
   18174:	80 a0 60 00 	cmp  %g1, 0
   18178:	02 80 00 06 	be  18190 <modestring+0x224>
   1817c:	01 00 00 00 	nop 
   18180:	03 00 00 b3 	sethi  %hi(0x2cc00), %g1
   18184:	84 10 63 d8 	or  %g1, 0x3d8, %g2	! 2cfd8 <buf.0>
   18188:	82 10 20 72 	mov  0x72, %g1
   1818c:	c2 28 a0 07 	stb  %g1, [ %g2 + 7 ]
   18190:	c2 07 a0 44 	ld  [ %fp + 0x44 ], %g1
   18194:	82 08 60 02 	and  %g1, 2, %g1
   18198:	80 a0 60 00 	cmp  %g1, 0
   1819c:	02 80 00 06 	be  181b4 <modestring+0x248>
   181a0:	01 00 00 00 	nop 
   181a4:	03 00 00 b3 	sethi  %hi(0x2cc00), %g1
   181a8:	84 10 63 d8 	or  %g1, 0x3d8, %g2	! 2cfd8 <buf.0>
   181ac:	82 10 20 77 	mov  0x77, %g1
   181b0:	c2 28 a0 08 	stb  %g1, [ %g2 + 8 ]
   181b4:	c2 07 a0 44 	ld  [ %fp + 0x44 ], %g1
   181b8:	82 08 60 01 	and  %g1, 1, %g1
   181bc:	80 a0 60 00 	cmp  %g1, 0
   181c0:	02 80 00 06 	be  181d8 <modestring+0x26c>
   181c4:	01 00 00 00 	nop 
   181c8:	03 00 00 b3 	sethi  %hi(0x2cc00), %g1
   181cc:	84 10 63 d8 	or  %g1, 0x3d8, %g2	! 2cfd8 <buf.0>
   181d0:	82 10 20 78 	mov  0x78, %g1
   181d4:	c2 28 a0 09 	stb  %g1, [ %g2 + 9 ]
   181d8:	c2 07 a0 44 	ld  [ %fp + 0x44 ], %g1
   181dc:	82 08 68 00 	and  %g1, 0x800, %g1
   181e0:	80 a0 60 00 	cmp  %g1, 0
   181e4:	02 80 00 13 	be  18230 <modestring+0x2c4>
   181e8:	01 00 00 00 	nop 
   181ec:	03 00 00 b3 	sethi  %hi(0x2cc00), %g1
   181f0:	82 10 63 d8 	or  %g1, 0x3d8, %g1	! 2cfd8 <buf.0>
   181f4:	c2 27 bf f4 	st  %g1, [ %fp + -12 ]
   181f8:	c2 07 a0 44 	ld  [ %fp + 0x44 ], %g1
   181fc:	82 08 60 40 	and  %g1, 0x40, %g1
   18200:	80 a0 60 00 	cmp  %g1, 0
   18204:	02 80 00 06 	be  1821c <modestring+0x2b0>
   18208:	01 00 00 00 	nop 
   1820c:	82 10 20 73 	mov  0x73, %g1	! 73 <_init-0x11495>
   18210:	c2 2f bf f3 	stb  %g1, [ %fp + -13 ]
   18214:	10 80 00 04 	b  18224 <modestring+0x2b8>
   18218:	01 00 00 00 	nop 
   1821c:	84 10 20 53 	mov  0x53, %g2	! 53 <_init-0x114b5>
   18220:	c4 2f bf f3 	stb  %g2, [ %fp + -13 ]
   18224:	c4 0f bf f3 	ldub  [ %fp + -13 ], %g2
   18228:	c2 07 bf f4 	ld  [ %fp + -12 ], %g1
   1822c:	c4 28 60 03 	stb  %g2, [ %g1 + 3 ]
   18230:	c2 07 a0 44 	ld  [ %fp + 0x44 ], %g1
   18234:	82 08 64 00 	and  %g1, 0x400, %g1
   18238:	80 a0 60 00 	cmp  %g1, 0
   1823c:	02 80 00 13 	be  18288 <modestring+0x31c>
   18240:	01 00 00 00 	nop 
   18244:	03 00 00 b3 	sethi  %hi(0x2cc00), %g1
   18248:	82 10 63 d8 	or  %g1, 0x3d8, %g1	! 2cfd8 <buf.0>
   1824c:	c2 27 bf ec 	st  %g1, [ %fp + -20 ]
   18250:	c2 07 a0 44 	ld  [ %fp + 0x44 ], %g1
   18254:	82 08 60 08 	and  %g1, 8, %g1
   18258:	80 a0 60 00 	cmp  %g1, 0
   1825c:	02 80 00 06 	be  18274 <modestring+0x308>
   18260:	01 00 00 00 	nop 
   18264:	82 10 20 73 	mov  0x73, %g1	! 73 <_init-0x11495>
   18268:	c2 2f bf eb 	stb  %g1, [ %fp + -21 ]
   1826c:	10 80 00 04 	b  1827c <modestring+0x310>
   18270:	01 00 00 00 	nop 
   18274:	84 10 20 53 	mov  0x53, %g2	! 53 <_init-0x114b5>
   18278:	c4 2f bf eb 	stb  %g2, [ %fp + -21 ]
   1827c:	c4 0f bf eb 	ldub  [ %fp + -21 ], %g2
   18280:	c2 07 bf ec 	ld  [ %fp + -20 ], %g1
   18284:	c4 28 60 06 	stb  %g2, [ %g1 + 6 ]
   18288:	c2 07 a0 44 	ld  [ %fp + 0x44 ], %g1
   1828c:	82 08 62 00 	and  %g1, 0x200, %g1
   18290:	80 a0 60 00 	cmp  %g1, 0
   18294:	02 80 00 13 	be  182e0 <modestring+0x374>
   18298:	01 00 00 00 	nop 
   1829c:	03 00 00 b3 	sethi  %hi(0x2cc00), %g1
   182a0:	82 10 63 d8 	or  %g1, 0x3d8, %g1	! 2cfd8 <buf.0>
   182a4:	c2 27 bf e4 	st  %g1, [ %fp + -28 ]
   182a8:	c2 07 a0 44 	ld  [ %fp + 0x44 ], %g1
   182ac:	82 08 60 01 	and  %g1, 1, %g1
   182b0:	80 a0 60 00 	cmp  %g1, 0
   182b4:	02 80 00 06 	be  182cc <modestring+0x360>
   182b8:	01 00 00 00 	nop 
   182bc:	82 10 20 74 	mov  0x74, %g1	! 74 <_init-0x11494>
   182c0:	c2 2f bf e3 	stb  %g1, [ %fp + -29 ]
   182c4:	10 80 00 04 	b  182d4 <modestring+0x368>
   182c8:	01 00 00 00 	nop 
   182cc:	84 10 20 54 	mov  0x54, %g2	! 54 <_init-0x114b4>
   182d0:	c4 2f bf e3 	stb  %g2, [ %fp + -29 ]
   182d4:	c4 0f bf e3 	ldub  [ %fp + -29 ], %g2
   182d8:	c2 07 bf e4 	ld  [ %fp + -28 ], %g1
   182dc:	c4 28 60 09 	stb  %g2, [ %g1 + 9 ]
   182e0:	03 00 00 b3 	sethi  %hi(0x2cc00), %g1
   182e4:	82 10 63 d8 	or  %g1, 0x3d8, %g1	! 2cfd8 <buf.0>
   182e8:	b0 10 00 01 	mov  %g1, %i0
   182ec:	81 c7 e0 08 	ret 
   182f0:	81 e8 00 00 	restore 

000182f4 <timestring>:
timestring():
   182f4:	9d e3 bf 90 	save  %sp, -112, %sp
   182f8:	f0 27 a0 44 	st  %i0, [ %fp + 0x44 ]
   182fc:	82 07 bf f4 	add  %fp, -12, %g1
   18300:	90 10 00 01 	mov  %g1, %o0
   18304:	40 00 50 13 	call  2c350 <time@plt>
   18308:	01 00 00 00 	nop 
   1830c:	90 07 a0 44 	add  %fp, 0x44, %o0
   18310:	40 00 50 58 	call  2c470 <ctime@plt>
   18314:	01 00 00 00 	nop 
   18318:	82 10 00 08 	mov  %o0, %g1
   1831c:	c2 27 bf f0 	st  %g1, [ %fp + -16 ]
   18320:	c2 07 bf f0 	ld  [ %fp + -16 ], %g1
   18324:	84 00 60 04 	add  %g1, 4, %g2
   18328:	03 00 00 b3 	sethi  %hi(0x2cc00), %g1
   1832c:	90 10 63 e8 	or  %g1, 0x3e8, %o0	! 2cfe8 <buf.0>
   18330:	92 10 00 02 	mov  %g2, %o1
   18334:	40 00 50 a6 	call  2c5cc <strcpy@plt>
   18338:	01 00 00 00 	nop 
   1833c:	03 00 00 b3 	sethi  %hi(0x2cc00), %g1
   18340:	82 10 63 e8 	or  %g1, 0x3e8, %g1	! 2cfe8 <buf.0>
   18344:	c0 28 60 0c 	clrb  [ %g1 + 0xc ]
   18348:	c4 07 a0 44 	ld  [ %fp + 0x44 ], %g2
   1834c:	c2 07 bf f4 	ld  [ %fp + -12 ], %g1
   18350:	80 a0 80 01 	cmp  %g2, %g1
   18354:	14 80 00 0c 	bg  18384 <timestring+0x90>
   18358:	01 00 00 00 	nop 
   1835c:	c4 07 bf f4 	ld  [ %fp + -12 ], %g2
   18360:	03 3f 87 b3 	sethi  %hi(0xfe1ecc00), %g1
   18364:	82 10 60 80 	or  %g1, 0x80, %g1	! fe1ecc80 <_end+0xfe1bf630>
   18368:	84 00 80 01 	add  %g2, %g1, %g2
   1836c:	c2 07 a0 44 	ld  [ %fp + 0x44 ], %g1
   18370:	80 a0 80 01 	cmp  %g2, %g1
   18374:	14 80 00 04 	bg  18384 <timestring+0x90>
   18378:	01 00 00 00 	nop 
   1837c:	10 80 00 0c 	b  183ac <timestring+0xb8>
   18380:	01 00 00 00 	nop 
   18384:	c2 07 bf f0 	ld  [ %fp + -16 ], %g1
   18388:	84 00 60 14 	add  %g1, 0x14, %g2
   1838c:	03 00 00 b3 	sethi  %hi(0x2cc00), %g1
   18390:	90 10 63 ef 	or  %g1, 0x3ef, %o0	! 2cfef <buf.0+0x7>
   18394:	92 10 00 02 	mov  %g2, %o1
   18398:	40 00 50 8d 	call  2c5cc <strcpy@plt>
   1839c:	01 00 00 00 	nop 
   183a0:	03 00 00 b3 	sethi  %hi(0x2cc00), %g1
   183a4:	82 10 63 e8 	or  %g1, 0x3e8, %g1	! 2cfe8 <buf.0>
   183a8:	c0 28 60 0b 	clrb  [ %g1 + 0xb ]
   183ac:	03 00 00 b3 	sethi  %hi(0x2cc00), %g1
   183b0:	82 10 63 e8 	or  %g1, 0x3e8, %g1	! 2cfe8 <buf.0>
   183b4:	b0 10 00 01 	mov  %g1, %i0
   183b8:	81 c7 e0 08 	ret 
   183bc:	81 e8 00 00 	restore 

000183c0 <isadir>:
isadir():
   183c0:	9d e3 bf 38 	save  %sp, -200, %sp
   183c4:	f0 27 a0 44 	st  %i0, [ %fp + 0x44 ]
   183c8:	82 07 bf a0 	add  %fp, -96, %g1
   183cc:	d0 07 a0 44 	ld  [ %fp + 0x44 ], %o0
   183d0:	92 10 00 01 	mov  %g1, %o1
   183d4:	40 00 08 48 	call  1a4f4 <__stat>
   183d8:	01 00 00 00 	nop 
   183dc:	82 10 00 08 	mov  %o0, %g1
   183e0:	80 a0 60 00 	cmp  %g1, 0
   183e4:	16 80 00 05 	bge  183f8 <isadir+0x38>
   183e8:	01 00 00 00 	nop 
   183ec:	c0 27 bf 9c 	clr  [ %fp + -100 ]
   183f0:	10 80 00 0e 	b  18428 <isadir+0x68>
   183f4:	01 00 00 00 	nop 
   183f8:	c4 07 bf b0 	ld  [ %fp + -80 ], %g2
   183fc:	03 00 00 3c 	sethi  %hi(0xf000), %g1
   18400:	84 08 80 01 	and  %g2, %g1, %g2
   18404:	c4 27 bf 98 	st  %g2, [ %fp + -104 ]
   18408:	03 00 00 10 	sethi  %hi(0x4000), %g1
   1840c:	c4 07 bf 98 	ld  [ %fp + -104 ], %g2
   18410:	82 18 80 01 	xor  %g2, %g1, %g1
   18414:	80 a0 00 01 	cmp  %g0, %g1
   18418:	82 60 3f ff 	subx  %g0, -1, %g1
   1841c:	c2 27 bf 98 	st  %g1, [ %fp + -104 ]
   18420:	c4 07 bf 98 	ld  [ %fp + -104 ], %g2
   18424:	c4 27 bf 9c 	st  %g2, [ %fp + -100 ]
   18428:	f0 07 bf 9c 	ld  [ %fp + -100 ], %i0
   1842c:	81 c7 e0 08 	ret 
   18430:	81 e8 00 00 	restore 

00018434 <copyfile>:
copyfile():
   18434:	9d e3 be b8 	save  %sp, -328, %sp
   18438:	f0 27 a0 44 	st  %i0, [ %fp + 0x44 ]
   1843c:	f2 27 a0 48 	st  %i1, [ %fp + 0x48 ]
   18440:	f4 27 a0 4c 	st  %i2, [ %fp + 0x4c ]
   18444:	03 00 00 07 	sethi  %hi(0x1c00), %g1
   18448:	82 10 63 f0 	or  %g1, 0x3f0, %g1	! 1ff0 <_init-0xf518>
   1844c:	c2 27 bf 24 	st  %g1, [ %fp + -220 ]
   18450:	c0 27 bf 20 	clr  [ %fp + -224 ]
   18454:	82 07 bf 88 	add  %fp, -120, %g1
   18458:	d0 07 a0 44 	ld  [ %fp + 0x44 ], %o0
   1845c:	92 10 00 01 	mov  %g1, %o1
   18460:	40 00 08 25 	call  1a4f4 <__stat>
   18464:	01 00 00 00 	nop 
   18468:	82 10 00 08 	mov  %o0, %g1
   1846c:	80 a0 60 00 	cmp  %g1, 0
   18470:	16 80 00 08 	bge  18490 <copyfile+0x5c>
   18474:	01 00 00 00 	nop 
   18478:	d0 07 a0 44 	ld  [ %fp + 0x44 ], %o0
   1847c:	40 00 4f 6a 	call  2c224 <perror@plt>
   18480:	01 00 00 00 	nop 
   18484:	c0 27 bf 1c 	clr  [ %fp + -228 ]
   18488:	10 80 00 e6 	b  18820 <copyfile+0x3ec>
   1848c:	01 00 00 00 	nop 
   18490:	82 07 bf 30 	add  %fp, -208, %g1
   18494:	d0 07 a0 48 	ld  [ %fp + 0x48 ], %o0
   18498:	92 10 00 01 	mov  %g1, %o1
   1849c:	40 00 08 16 	call  1a4f4 <__stat>
   184a0:	01 00 00 00 	nop 
   184a4:	82 10 00 08 	mov  %o0, %g1
   184a8:	80 a0 60 00 	cmp  %g1, 0
   184ac:	16 80 00 07 	bge  184c8 <copyfile+0x94>
   184b0:	01 00 00 00 	nop 
   184b4:	82 10 3f ff 	mov  -1, %g1	! ffffffff <_end+0xfffd29af>
   184b8:	c2 27 bf 3c 	st  %g1, [ %fp + -196 ]
   184bc:	84 10 3f ff 	mov  -1, %g2
   184c0:	86 10 3f ff 	mov  -1, %g3
   184c4:	c4 3f bf 30 	std  %g2, [ %fp + -208 ]
   184c8:	c4 07 bf 98 	ld  [ %fp + -104 ], %g2
   184cc:	03 00 00 3c 	sethi  %hi(0xf000), %g1
   184d0:	84 08 80 01 	and  %g2, %g1, %g2
   184d4:	03 00 00 20 	sethi  %hi(0x8000), %g1
   184d8:	80 a0 80 01 	cmp  %g2, %g1
   184dc:	12 80 00 1c 	bne  1854c <copyfile+0x118>
   184e0:	01 00 00 00 	nop 
   184e4:	c4 07 bf 88 	ld  [ %fp + -120 ], %g2
   184e8:	c2 07 bf 30 	ld  [ %fp + -208 ], %g1
   184ec:	80 a0 80 01 	cmp  %g2, %g1
   184f0:	12 80 00 17 	bne  1854c <copyfile+0x118>
   184f4:	01 00 00 00 	nop 
   184f8:	c4 07 bf 8c 	ld  [ %fp + -116 ], %g2
   184fc:	c2 07 bf 34 	ld  [ %fp + -204 ], %g1
   18500:	80 a0 80 01 	cmp  %g2, %g1
   18504:	12 80 00 12 	bne  1854c <copyfile+0x118>
   18508:	01 00 00 00 	nop 
   1850c:	c4 07 bf 94 	ld  [ %fp + -108 ], %g2
   18510:	c2 07 bf 3c 	ld  [ %fp + -196 ], %g1
   18514:	80 a0 80 01 	cmp  %g2, %g1
   18518:	12 80 00 0d 	bne  1854c <copyfile+0x118>
   1851c:	01 00 00 00 	nop 
   18520:	03 00 00 b3 	sethi  %hi(0x2cc00), %g1
   18524:	82 10 62 40 	or  %g1, 0x240, %g1	! 2ce40 <stderr@@GLIBC_2.0>
   18528:	d0 00 40 00 	ld  [ %g1 ], %o0
   1852c:	03 00 00 6c 	sethi  %hi(0x1b000), %g1
   18530:	92 10 60 08 	or  %g1, 8, %o1	! 1b008 <invalid_date+0x58>
   18534:	d4 07 a0 44 	ld  [ %fp + 0x44 ], %o2
   18538:	40 00 4f b0 	call  2c3f8 <fprintf@plt>
   1853c:	01 00 00 00 	nop 
   18540:	c0 27 bf 1c 	clr  [ %fp + -228 ]
   18544:	10 80 00 b7 	b  18820 <copyfile+0x3ec>
   18548:	01 00 00 00 	nop 
   1854c:	d0 07 a0 44 	ld  [ %fp + 0x44 ], %o0
   18550:	92 10 20 00 	clr  %o1
   18554:	40 00 4f dc 	call  2c4c4 <open@plt>
   18558:	01 00 00 00 	nop 
   1855c:	82 10 00 08 	mov  %o0, %g1
   18560:	c2 27 bf f4 	st  %g1, [ %fp + -12 ]
   18564:	c2 07 bf f4 	ld  [ %fp + -12 ], %g1
   18568:	80 a0 60 00 	cmp  %g1, 0
   1856c:	16 80 00 08 	bge  1858c <copyfile+0x158>
   18570:	01 00 00 00 	nop 
   18574:	d0 07 a0 44 	ld  [ %fp + 0x44 ], %o0
   18578:	40 00 4f 2b 	call  2c224 <perror@plt>
   1857c:	01 00 00 00 	nop 
   18580:	c0 27 bf 1c 	clr  [ %fp + -228 ]
   18584:	10 80 00 a7 	b  18820 <copyfile+0x3ec>
   18588:	01 00 00 00 	nop 
   1858c:	d0 07 a0 48 	ld  [ %fp + 0x48 ], %o0
   18590:	92 10 26 01 	mov  0x601, %o1
   18594:	d4 07 bf 98 	ld  [ %fp + -104 ], %o2
   18598:	40 00 4f cb 	call  2c4c4 <open@plt>
   1859c:	01 00 00 00 	nop 
   185a0:	82 10 00 08 	mov  %o0, %g1
   185a4:	c2 27 bf f0 	st  %g1, [ %fp + -16 ]
   185a8:	c2 07 bf f0 	ld  [ %fp + -16 ], %g1
   185ac:	80 a0 60 00 	cmp  %g1, 0
   185b0:	16 80 00 0b 	bge  185dc <copyfile+0x1a8>
   185b4:	01 00 00 00 	nop 
   185b8:	d0 07 a0 48 	ld  [ %fp + 0x48 ], %o0
   185bc:	40 00 4f 1a 	call  2c224 <perror@plt>
   185c0:	01 00 00 00 	nop 
   185c4:	d0 07 bf f4 	ld  [ %fp + -12 ], %o0
   185c8:	40 00 4f 0e 	call  2c200 <close@plt>
   185cc:	01 00 00 00 	nop 
   185d0:	c0 27 bf 1c 	clr  [ %fp + -228 ]
   185d4:	10 80 00 93 	b  18820 <copyfile+0x3ec>
   185d8:	01 00 00 00 	nop 
   185dc:	d0 07 bf 24 	ld  [ %fp + -220 ], %o0
   185e0:	40 00 4f 41 	call  2c2e4 <malloc@plt>
   185e4:	01 00 00 00 	nop 
   185e8:	82 10 00 08 	mov  %o0, %g1
   185ec:	c2 27 bf 20 	st  %g1, [ %fp + -224 ]
   185f0:	c2 07 bf 20 	ld  [ %fp + -224 ], %g1
   185f4:	80 a0 60 00 	cmp  %g1, 0
   185f8:	12 80 00 0d 	bne  1862c <copyfile+0x1f8>
   185fc:	01 00 00 00 	nop 
   18600:	03 00 00 b3 	sethi  %hi(0x2cc00), %g1
   18604:	82 10 62 40 	or  %g1, 0x240, %g1	! 2ce40 <stderr@@GLIBC_2.0>
   18608:	d0 00 40 00 	ld  [ %g1 ], %o0
   1860c:	03 00 00 6c 	sethi  %hi(0x1b000), %g1
   18610:	92 10 60 28 	or  %g1, 0x28, %o1	! 1b028 <invalid_date+0x78>
   18614:	d4 07 bf 24 	ld  [ %fp + -220 ], %o2
   18618:	40 00 4f 78 	call  2c3f8 <fprintf@plt>
   1861c:	01 00 00 00 	nop 
   18620:	c0 27 bf 1c 	clr  [ %fp + -228 ]
   18624:	10 80 00 7f 	b  18820 <copyfile+0x3ec>
   18628:	01 00 00 00 	nop 
   1862c:	d0 07 bf f4 	ld  [ %fp + -12 ], %o0
   18630:	d2 07 bf 20 	ld  [ %fp + -224 ], %o1
   18634:	d4 07 bf 24 	ld  [ %fp + -220 ], %o2
   18638:	40 00 4f df 	call  2c5b4 <read@plt>
   1863c:	01 00 00 00 	nop 
   18640:	82 10 00 08 	mov  %o0, %g1
   18644:	c2 27 bf ec 	st  %g1, [ %fp + -20 ]
   18648:	c2 07 bf ec 	ld  [ %fp + -20 ], %g1
   1864c:	80 a0 60 00 	cmp  %g1, 0
   18650:	04 80 00 37 	ble  1872c <copyfile+0x2f8>
   18654:	01 00 00 00 	nop 
   18658:	03 00 00 b5 	sethi  %hi(0x2d400), %g1
   1865c:	82 10 62 48 	or  %g1, 0x248, %g1	! 2d648 <intflag>
   18660:	c2 00 40 00 	ld  [ %g1 ], %g1
   18664:	80 a0 60 00 	cmp  %g1, 0
   18668:	02 80 00 0e 	be  186a0 <copyfile+0x26c>
   1866c:	01 00 00 00 	nop 
   18670:	d0 07 bf f4 	ld  [ %fp + -12 ], %o0
   18674:	40 00 4e e3 	call  2c200 <close@plt>
   18678:	01 00 00 00 	nop 
   1867c:	d0 07 bf f0 	ld  [ %fp + -16 ], %o0
   18680:	40 00 4e e0 	call  2c200 <close@plt>
   18684:	01 00 00 00 	nop 
   18688:	d0 07 bf 20 	ld  [ %fp + -224 ], %o0
   1868c:	40 00 4f 9a 	call  2c4f4 <free@plt>
   18690:	01 00 00 00 	nop 
   18694:	c0 27 bf 1c 	clr  [ %fp + -228 ]
   18698:	10 80 00 62 	b  18820 <copyfile+0x3ec>
   1869c:	01 00 00 00 	nop 
   186a0:	c2 07 bf 20 	ld  [ %fp + -224 ], %g1
   186a4:	c2 27 bf e4 	st  %g1, [ %fp + -28 ]
   186a8:	c2 07 bf ec 	ld  [ %fp + -20 ], %g1
   186ac:	80 a0 60 00 	cmp  %g1, 0
   186b0:	04 bf ff df 	ble  1862c <copyfile+0x1f8>
   186b4:	01 00 00 00 	nop 
   186b8:	d0 07 bf f0 	ld  [ %fp + -16 ], %o0
   186bc:	d2 07 bf e4 	ld  [ %fp + -28 ], %o1
   186c0:	d4 07 bf ec 	ld  [ %fp + -20 ], %o2
   186c4:	40 00 4e c3 	call  2c1d0 <write@plt>
   186c8:	01 00 00 00 	nop 
   186cc:	82 10 00 08 	mov  %o0, %g1
   186d0:	c2 27 bf e8 	st  %g1, [ %fp + -24 ]
   186d4:	c2 07 bf e8 	ld  [ %fp + -24 ], %g1
   186d8:	80 a0 60 00 	cmp  %g1, 0
   186dc:	16 80 00 0a 	bge  18704 <copyfile+0x2d0>
   186e0:	01 00 00 00 	nop 
   186e4:	d0 07 a0 48 	ld  [ %fp + 0x48 ], %o0
   186e8:	40 00 4e cf 	call  2c224 <perror@plt>
   186ec:	01 00 00 00 	nop 
   186f0:	d0 07 bf 20 	ld  [ %fp + -224 ], %o0
   186f4:	40 00 4f 80 	call  2c4f4 <free@plt>
   186f8:	01 00 00 00 	nop 
   186fc:	10 80 00 42 	b  18804 <copyfile+0x3d0>
   18700:	01 00 00 00 	nop 
   18704:	c4 07 bf e4 	ld  [ %fp + -28 ], %g2
   18708:	c2 07 bf e8 	ld  [ %fp + -24 ], %g1
   1870c:	82 00 80 01 	add  %g2, %g1, %g1
   18710:	c2 27 bf e4 	st  %g1, [ %fp + -28 ]
   18714:	c4 07 bf ec 	ld  [ %fp + -20 ], %g2
   18718:	c2 07 bf e8 	ld  [ %fp + -24 ], %g1
   1871c:	82 20 80 01 	sub  %g2, %g1, %g1
   18720:	c2 27 bf ec 	st  %g1, [ %fp + -20 ]
   18724:	10 bf ff e1 	b  186a8 <copyfile+0x274>
   18728:	01 00 00 00 	nop 
   1872c:	d0 07 bf 20 	ld  [ %fp + -224 ], %o0
   18730:	40 00 4f 71 	call  2c4f4 <free@plt>
   18734:	01 00 00 00 	nop 
   18738:	c2 07 bf ec 	ld  [ %fp + -20 ], %g1
   1873c:	80 a0 60 00 	cmp  %g1, 0
   18740:	16 80 00 07 	bge  1875c <copyfile+0x328>
   18744:	01 00 00 00 	nop 
   18748:	d0 07 a0 44 	ld  [ %fp + 0x44 ], %o0
   1874c:	40 00 4e b6 	call  2c224 <perror@plt>
   18750:	01 00 00 00 	nop 
   18754:	10 80 00 2c 	b  18804 <copyfile+0x3d0>
   18758:	01 00 00 00 	nop 
   1875c:	d0 07 bf f4 	ld  [ %fp + -12 ], %o0
   18760:	40 00 4e a8 	call  2c200 <close@plt>
   18764:	01 00 00 00 	nop 
   18768:	d0 07 bf f0 	ld  [ %fp + -16 ], %o0
   1876c:	40 00 4e a5 	call  2c200 <close@plt>
   18770:	01 00 00 00 	nop 
   18774:	82 10 00 08 	mov  %o0, %g1
   18778:	80 a0 60 00 	cmp  %g1, 0
   1877c:	16 80 00 08 	bge  1879c <copyfile+0x368>
   18780:	01 00 00 00 	nop 
   18784:	d0 07 a0 48 	ld  [ %fp + 0x48 ], %o0
   18788:	40 00 4e a7 	call  2c224 <perror@plt>
   1878c:	01 00 00 00 	nop 
   18790:	c0 27 bf 1c 	clr  [ %fp + -228 ]
   18794:	10 80 00 23 	b  18820 <copyfile+0x3ec>
   18798:	01 00 00 00 	nop 
   1879c:	c2 07 a0 4c 	ld  [ %fp + 0x4c ], %g1
   187a0:	80 a0 60 00 	cmp  %g1, 0
   187a4:	02 80 00 14 	be  187f4 <copyfile+0x3c0>
   187a8:	01 00 00 00 	nop 
   187ac:	d0 07 a0 48 	ld  [ %fp + 0x48 ], %o0
   187b0:	d2 07 bf 98 	ld  [ %fp + -104 ], %o1
   187b4:	40 00 4e c6 	call  2c2cc <chmod@plt>
   187b8:	01 00 00 00 	nop 
   187bc:	d0 07 a0 48 	ld  [ %fp + 0x48 ], %o0
   187c0:	d2 07 bf a0 	ld  [ %fp + -96 ], %o1
   187c4:	d4 07 bf a4 	ld  [ %fp + -92 ], %o2
   187c8:	40 00 4f 1e 	call  2c440 <chown@plt>
   187cc:	01 00 00 00 	nop 
   187d0:	c2 07 bf c0 	ld  [ %fp + -64 ], %g1
   187d4:	c2 27 bf 28 	st  %g1, [ %fp + -216 ]
   187d8:	c2 07 bf c8 	ld  [ %fp + -56 ], %g1
   187dc:	c2 27 bf 2c 	st  %g1, [ %fp + -212 ]
   187e0:	82 07 bf 28 	add  %fp, -216, %g1
   187e4:	d0 07 a0 48 	ld  [ %fp + 0x48 ], %o0
   187e8:	92 10 00 01 	mov  %g1, %o1
   187ec:	40 00 4f 48 	call  2c50c <utime@plt>
   187f0:	01 00 00 00 	nop 
   187f4:	82 10 20 01 	mov  1, %g1	! 1 <_init-0x11507>
   187f8:	c2 27 bf 1c 	st  %g1, [ %fp + -228 ]
   187fc:	10 80 00 09 	b  18820 <copyfile+0x3ec>
   18800:	01 00 00 00 	nop 
   18804:	d0 07 bf f4 	ld  [ %fp + -12 ], %o0
   18808:	40 00 4e 7e 	call  2c200 <close@plt>
   1880c:	01 00 00 00 	nop 
   18810:	d0 07 bf f0 	ld  [ %fp + -16 ], %o0
   18814:	40 00 4e 7b 	call  2c200 <close@plt>
   18818:	01 00 00 00 	nop 
   1881c:	c0 27 bf 1c 	clr  [ %fp + -228 ]
   18820:	f0 07 bf 1c 	ld  [ %fp + -228 ], %i0
   18824:	81 c7 e0 08 	ret 
   18828:	81 e8 00 00 	restore 

0001882c <buildname>:
buildname():
   1882c:	9d e3 bf 90 	save  %sp, -112, %sp
   18830:	f0 27 a0 44 	st  %i0, [ %fp + 0x44 ]
   18834:	f2 27 a0 48 	st  %i1, [ %fp + 0x48 ]
   18838:	c2 07 a0 44 	ld  [ %fp + 0x44 ], %g1
   1883c:	80 a0 60 00 	cmp  %g1, 0
   18840:	02 80 00 09 	be  18864 <buildname+0x38>
   18844:	01 00 00 00 	nop 
   18848:	c2 07 a0 44 	ld  [ %fp + 0x44 ], %g1
   1884c:	c2 08 40 00 	ldub  [ %g1 ], %g1
   18850:	83 28 60 18 	sll  %g1, 0x18, %g1
   18854:	83 38 60 18 	sra  %g1, 0x18, %g1
   18858:	80 a0 60 00 	cmp  %g1, 0
   1885c:	12 80 00 06 	bne  18874 <buildname+0x48>
   18860:	01 00 00 00 	nop 
   18864:	c2 07 a0 48 	ld  [ %fp + 0x48 ], %g1
   18868:	c2 27 bf f0 	st  %g1, [ %fp + -16 ]
   1886c:	10 80 00 22 	b  188f4 <buildname+0xc8>
   18870:	01 00 00 00 	nop 
   18874:	d0 07 a0 48 	ld  [ %fp + 0x48 ], %o0
   18878:	92 10 20 2f 	mov  0x2f, %o1
   1887c:	40 00 4e fa 	call  2c464 <strrchr@plt>
   18880:	01 00 00 00 	nop 
   18884:	82 10 00 08 	mov  %o0, %g1
   18888:	c2 27 bf f4 	st  %g1, [ %fp + -12 ]
   1888c:	c2 07 bf f4 	ld  [ %fp + -12 ], %g1
   18890:	80 a0 60 00 	cmp  %g1, 0
   18894:	02 80 00 05 	be  188a8 <buildname+0x7c>
   18898:	01 00 00 00 	nop 
   1889c:	c2 07 bf f4 	ld  [ %fp + -12 ], %g1
   188a0:	82 00 60 01 	inc  %g1
   188a4:	c2 27 a0 48 	st  %g1, [ %fp + 0x48 ]
   188a8:	03 00 00 b4 	sethi  %hi(0x2d000), %g1
   188ac:	90 10 60 08 	or  %g1, 8, %o0	! 2d008 <buf.0>
   188b0:	d2 07 a0 44 	ld  [ %fp + 0x44 ], %o1
   188b4:	40 00 4f 46 	call  2c5cc <strcpy@plt>
   188b8:	01 00 00 00 	nop 
   188bc:	03 00 00 b4 	sethi  %hi(0x2d000), %g1
   188c0:	90 10 60 08 	or  %g1, 8, %o0	! 2d008 <buf.0>
   188c4:	03 00 00 6c 	sethi  %hi(0x1b000), %g1
   188c8:	92 10 60 50 	or  %g1, 0x50, %o1	! 1b050 <invalid_date+0xa0>
   188cc:	40 00 4e d7 	call  2c428 <strcat@plt>
   188d0:	01 00 00 00 	nop 
   188d4:	03 00 00 b4 	sethi  %hi(0x2d000), %g1
   188d8:	90 10 60 08 	or  %g1, 8, %o0	! 2d008 <buf.0>
   188dc:	d2 07 a0 48 	ld  [ %fp + 0x48 ], %o1
   188e0:	40 00 4e d2 	call  2c428 <strcat@plt>
   188e4:	01 00 00 00 	nop 
   188e8:	03 00 00 b4 	sethi  %hi(0x2d000), %g1
   188ec:	82 10 60 08 	or  %g1, 8, %g1	! 2d008 <buf.0>
   188f0:	c2 27 bf f0 	st  %g1, [ %fp + -16 ]
   188f4:	f0 07 bf f0 	ld  [ %fp + -16 ], %i0
   188f8:	81 c7 e0 08 	ret 
   188fc:	81 e8 00 00 	restore 

00018900 <expandwildcards>:
expandwildcards():
   18900:	9d e3 be 70 	save  %sp, -400, %sp
   18904:	f0 27 a0 44 	st  %i0, [ %fp + 0x44 ]
   18908:	f2 27 a0 48 	st  %i1, [ %fp + 0x48 ]
   1890c:	f4 27 a0 4c 	st  %i2, [ %fp + 0x4c ]
   18910:	d0 07 a0 44 	ld  [ %fp + 0x44 ], %o0
   18914:	92 10 20 2f 	mov  0x2f, %o1
   18918:	40 00 4e d3 	call  2c464 <strrchr@plt>
   1891c:	01 00 00 00 	nop 
   18920:	82 10 00 08 	mov  %o0, %g1
   18924:	c2 27 bf f4 	st  %g1, [ %fp + -12 ]
   18928:	c2 07 bf f4 	ld  [ %fp + -12 ], %g1
   1892c:	80 a0 60 00 	cmp  %g1, 0
   18930:	02 80 00 07 	be  1894c <expandwildcards+0x4c>
   18934:	01 00 00 00 	nop 
   18938:	c2 07 bf f4 	ld  [ %fp + -12 ], %g1
   1893c:	82 00 60 01 	inc  %g1
   18940:	c2 27 bf f4 	st  %g1, [ %fp + -12 ]
   18944:	10 80 00 04 	b  18954 <expandwildcards+0x54>
   18948:	01 00 00 00 	nop 
   1894c:	c2 07 a0 44 	ld  [ %fp + 0x44 ], %g1
   18950:	c2 27 bf f4 	st  %g1, [ %fp + -12 ]
   18954:	d0 07 a0 44 	ld  [ %fp + 0x44 ], %o0
   18958:	92 10 20 2a 	mov  0x2a, %o1
   1895c:	40 00 4e 11 	call  2c1a0 <strchr@plt>
   18960:	01 00 00 00 	nop 
   18964:	82 10 00 08 	mov  %o0, %g1
   18968:	c2 27 bf f0 	st  %g1, [ %fp + -16 ]
   1896c:	d0 07 a0 44 	ld  [ %fp + 0x44 ], %o0
   18970:	92 10 20 3f 	mov  0x3f, %o1
   18974:	40 00 4e 0b 	call  2c1a0 <strchr@plt>
   18978:	01 00 00 00 	nop 
   1897c:	82 10 00 08 	mov  %o0, %g1
   18980:	c2 27 bf ec 	st  %g1, [ %fp + -20 ]
   18984:	d0 07 a0 44 	ld  [ %fp + 0x44 ], %o0
   18988:	92 10 20 5b 	mov  0x5b, %o1
   1898c:	40 00 4e 05 	call  2c1a0 <strchr@plt>
   18990:	01 00 00 00 	nop 
   18994:	82 10 00 08 	mov  %o0, %g1
   18998:	c2 27 bf e8 	st  %g1, [ %fp + -24 ]
   1899c:	c2 07 bf f0 	ld  [ %fp + -16 ], %g1
   189a0:	80 a0 60 00 	cmp  %g1, 0
   189a4:	12 80 00 0d 	bne  189d8 <expandwildcards+0xd8>
   189a8:	01 00 00 00 	nop 
   189ac:	c2 07 bf ec 	ld  [ %fp + -20 ], %g1
   189b0:	80 a0 60 00 	cmp  %g1, 0
   189b4:	12 80 00 09 	bne  189d8 <expandwildcards+0xd8>
   189b8:	01 00 00 00 	nop 
   189bc:	c2 07 bf e8 	ld  [ %fp + -24 ], %g1
   189c0:	80 a0 60 00 	cmp  %g1, 0
   189c4:	12 80 00 05 	bne  189d8 <expandwildcards+0xd8>
   189c8:	01 00 00 00 	nop 
   189cc:	c0 27 be d4 	clr  [ %fp + -300 ]
   189d0:	10 80 01 15 	b  18e24 <expandwildcards+0x524>
   189d4:	01 00 00 00 	nop 
   189d8:	c2 07 bf f0 	ld  [ %fp + -16 ], %g1
   189dc:	80 a0 60 00 	cmp  %g1, 0
   189e0:	02 80 00 07 	be  189fc <expandwildcards+0xfc>
   189e4:	01 00 00 00 	nop 
   189e8:	c4 07 bf f0 	ld  [ %fp + -16 ], %g2
   189ec:	c2 07 bf f4 	ld  [ %fp + -12 ], %g1
   189f0:	80 a0 80 01 	cmp  %g2, %g1
   189f4:	0a 80 00 16 	bcs  18a4c <expandwildcards+0x14c>
   189f8:	01 00 00 00 	nop 
   189fc:	c2 07 bf ec 	ld  [ %fp + -20 ], %g1
   18a00:	80 a0 60 00 	cmp  %g1, 0
   18a04:	02 80 00 07 	be  18a20 <expandwildcards+0x120>
   18a08:	01 00 00 00 	nop 
   18a0c:	c4 07 bf ec 	ld  [ %fp + -20 ], %g2
   18a10:	c2 07 bf f4 	ld  [ %fp + -12 ], %g1
   18a14:	80 a0 80 01 	cmp  %g2, %g1
   18a18:	0a 80 00 0d 	bcs  18a4c <expandwildcards+0x14c>
   18a1c:	01 00 00 00 	nop 
   18a20:	c2 07 bf e8 	ld  [ %fp + -24 ], %g1
   18a24:	80 a0 60 00 	cmp  %g1, 0
   18a28:	02 80 00 14 	be  18a78 <expandwildcards+0x178>
   18a2c:	01 00 00 00 	nop 
   18a30:	c4 07 bf e8 	ld  [ %fp + -24 ], %g2
   18a34:	c2 07 bf f4 	ld  [ %fp + -12 ], %g1
   18a38:	80 a0 80 01 	cmp  %g2, %g1
   18a3c:	0a 80 00 04 	bcs  18a4c <expandwildcards+0x14c>
   18a40:	01 00 00 00 	nop 
   18a44:	10 80 00 0d 	b  18a78 <expandwildcards+0x178>
   18a48:	01 00 00 00 	nop 
   18a4c:	03 00 00 b3 	sethi  %hi(0x2cc00), %g1
   18a50:	82 10 62 40 	or  %g1, 0x240, %g1	! 2ce40 <stderr@@GLIBC_2.0>
   18a54:	d0 00 40 00 	ld  [ %g1 ], %o0
   18a58:	03 00 00 6c 	sethi  %hi(0x1b000), %g1
   18a5c:	92 10 60 58 	or  %g1, 0x58, %o1	! 1b058 <invalid_date+0xa8>
   18a60:	40 00 4e 66 	call  2c3f8 <fprintf@plt>
   18a64:	01 00 00 00 	nop 
   18a68:	82 10 3f ff 	mov  -1, %g1	! ffffffff <_end+0xfffd29af>
   18a6c:	c2 27 be d4 	st  %g1, [ %fp + -300 ]
   18a70:	10 80 00 ed 	b  18e24 <expandwildcards+0x524>
   18a74:	01 00 00 00 	nop 
   18a78:	82 10 20 2e 	mov  0x2e, %g1	! 2e <_init-0x114da>
   18a7c:	c2 2f be d8 	stb  %g1, [ %fp + -296 ]
   18a80:	c0 2f be d9 	clrb  [ %fp + -295 ]
   18a84:	c4 07 bf f4 	ld  [ %fp + -12 ], %g2
   18a88:	c2 07 a0 44 	ld  [ %fp + 0x44 ], %g1
   18a8c:	80 a0 80 01 	cmp  %g2, %g1
   18a90:	02 80 00 1a 	be  18af8 <expandwildcards+0x1f8>
   18a94:	01 00 00 00 	nop 
   18a98:	86 07 be d8 	add  %fp, -296, %g3
   18a9c:	c4 07 bf f4 	ld  [ %fp + -12 ], %g2
   18aa0:	c2 07 a0 44 	ld  [ %fp + 0x44 ], %g1
   18aa4:	82 20 80 01 	sub  %g2, %g1, %g1
   18aa8:	90 10 00 03 	mov  %g3, %o0
   18aac:	d2 07 a0 44 	ld  [ %fp + 0x44 ], %o1
   18ab0:	94 10 00 01 	mov  %g1, %o2
   18ab4:	40 00 4e 66 	call  2c44c <memcpy@plt>
   18ab8:	01 00 00 00 	nop 
   18abc:	c4 07 bf f4 	ld  [ %fp + -12 ], %g2
   18ac0:	c2 07 a0 44 	ld  [ %fp + 0x44 ], %g1
   18ac4:	84 20 80 01 	sub  %g2, %g1, %g2
   18ac8:	82 07 bf f8 	add  %fp, -8, %g1
   18acc:	82 00 40 02 	add  %g1, %g2, %g1
   18ad0:	c0 28 7e df 	clrb  [ %g1 + -289 ]
   18ad4:	c2 0f be d8 	ldub  [ %fp + -296 ], %g1
   18ad8:	83 28 60 18 	sll  %g1, 0x18, %g1
   18adc:	83 38 60 18 	sra  %g1, 0x18, %g1
   18ae0:	80 a0 60 00 	cmp  %g1, 0
   18ae4:	12 80 00 05 	bne  18af8 <expandwildcards+0x1f8>
   18ae8:	01 00 00 00 	nop 
   18aec:	82 10 20 2f 	mov  0x2f, %g1	! 2f <_init-0x114d9>
   18af0:	c2 2f be d8 	stb  %g1, [ %fp + -296 ]
   18af4:	c0 2f be d9 	clrb  [ %fp + -295 ]
   18af8:	82 07 be d8 	add  %fp, -296, %g1
   18afc:	90 10 00 01 	mov  %g1, %o0
   18b00:	40 00 4e 6b 	call  2c4ac <opendir@plt>
   18b04:	01 00 00 00 	nop 
   18b08:	82 10 00 08 	mov  %o0, %g1
   18b0c:	c2 27 bf e4 	st  %g1, [ %fp + -28 ]
   18b10:	c2 07 bf e4 	ld  [ %fp + -28 ], %g1
   18b14:	80 a0 60 00 	cmp  %g1, 0
   18b18:	12 80 00 0a 	bne  18b40 <expandwildcards+0x240>
   18b1c:	01 00 00 00 	nop 
   18b20:	82 07 be d8 	add  %fp, -296, %g1
   18b24:	90 10 00 01 	mov  %g1, %o0
   18b28:	40 00 4d bf 	call  2c224 <perror@plt>
   18b2c:	01 00 00 00 	nop 
   18b30:	82 10 3f ff 	mov  -1, %g1	! ffffffff <_end+0xfffd29af>
   18b34:	c2 27 be d4 	st  %g1, [ %fp + -300 ]
   18b38:	10 80 00 bb 	b  18e24 <expandwildcards+0x524>
   18b3c:	01 00 00 00 	nop 
   18b40:	82 07 be d8 	add  %fp, -296, %g1
   18b44:	90 10 00 01 	mov  %g1, %o0
   18b48:	40 00 4e 11 	call  2c38c <strlen@plt>
   18b4c:	01 00 00 00 	nop 
   18b50:	82 10 00 08 	mov  %o0, %g1
   18b54:	c2 27 bf dc 	st  %g1, [ %fp + -36 ]
   18b58:	c4 07 bf f4 	ld  [ %fp + -12 ], %g2
   18b5c:	c2 07 a0 44 	ld  [ %fp + 0x44 ], %g1
   18b60:	80 a0 80 01 	cmp  %g2, %g1
   18b64:	12 80 00 06 	bne  18b7c <expandwildcards+0x27c>
   18b68:	01 00 00 00 	nop 
   18b6c:	c0 27 bf dc 	clr  [ %fp + -36 ]
   18b70:	c0 2f be d8 	clrb  [ %fp + -296 ]
   18b74:	10 80 00 18 	b  18bd4 <expandwildcards+0x2d4>
   18b78:	01 00 00 00 	nop 
   18b7c:	c4 07 bf dc 	ld  [ %fp + -36 ], %g2
   18b80:	82 07 bf f8 	add  %fp, -8, %g1
   18b84:	82 00 40 02 	add  %g1, %g2, %g1
   18b88:	c2 08 7e df 	ldub  [ %g1 + -289 ], %g1
   18b8c:	83 28 60 18 	sll  %g1, 0x18, %g1
   18b90:	83 38 60 18 	sra  %g1, 0x18, %g1
   18b94:	80 a0 60 2f 	cmp  %g1, 0x2f
   18b98:	02 80 00 0f 	be  18bd4 <expandwildcards+0x2d4>
   18b9c:	01 00 00 00 	nop 
   18ba0:	88 07 bf dc 	add  %fp, -36, %g4
   18ba4:	c4 01 00 00 	ld  [ %g4 ], %g2
   18ba8:	86 10 00 02 	mov  %g2, %g3
   18bac:	82 07 bf f8 	add  %fp, -8, %g1
   18bb0:	86 00 c0 01 	add  %g3, %g1, %g3
   18bb4:	82 10 20 2f 	mov  0x2f, %g1
   18bb8:	c2 28 fe e0 	stb  %g1, [ %g3 + -288 ]
   18bbc:	84 00 a0 01 	inc  %g2
   18bc0:	c4 21 00 00 	st  %g2, [ %g4 ]
   18bc4:	c4 07 bf dc 	ld  [ %fp + -36 ], %g2
   18bc8:	82 07 bf f8 	add  %fp, -8, %g1
   18bcc:	82 00 40 02 	add  %g1, %g2, %g1
   18bd0:	c0 28 7e e0 	clrb  [ %g1 + -288 ]
   18bd4:	c0 27 bf d8 	clr  [ %fp + -40 ]
   18bd8:	d0 07 bf e4 	ld  [ %fp + -28 ], %o0
   18bdc:	40 00 4e 6d 	call  2c590 <readdir@plt>
   18be0:	01 00 00 00 	nop 
   18be4:	82 10 00 08 	mov  %o0, %g1
   18be8:	c2 27 bf e0 	st  %g1, [ %fp + -32 ]
   18bec:	c2 07 bf e0 	ld  [ %fp + -32 ], %g1
   18bf0:	80 a0 60 00 	cmp  %g1, 0
   18bf4:	02 80 00 79 	be  18dd8 <expandwildcards+0x4d8>
   18bf8:	01 00 00 00 	nop 
   18bfc:	c2 07 bf e0 	ld  [ %fp + -32 ], %g1
   18c00:	82 00 60 0b 	add  %g1, 0xb, %g1
   18c04:	05 00 00 6c 	sethi  %hi(0x1b000), %g2
   18c08:	90 10 00 01 	mov  %g1, %o0
   18c0c:	92 10 a0 90 	or  %g2, 0x90, %o1
   18c10:	40 00 4d 79 	call  2c1f4 <strcmp@plt>
   18c14:	01 00 00 00 	nop 
   18c18:	82 10 00 08 	mov  %o0, %g1
   18c1c:	80 a0 60 00 	cmp  %g1, 0
   18c20:	02 bf ff ee 	be  18bd8 <expandwildcards+0x2d8>
   18c24:	01 00 00 00 	nop 
   18c28:	c2 07 bf e0 	ld  [ %fp + -32 ], %g1
   18c2c:	82 00 60 0b 	add  %g1, 0xb, %g1
   18c30:	05 00 00 6c 	sethi  %hi(0x1b000), %g2
   18c34:	90 10 00 01 	mov  %g1, %o0
   18c38:	92 10 a0 98 	or  %g2, 0x98, %o1
   18c3c:	40 00 4d 6e 	call  2c1f4 <strcmp@plt>
   18c40:	01 00 00 00 	nop 
   18c44:	82 10 00 08 	mov  %o0, %g1
   18c48:	80 a0 60 00 	cmp  %g1, 0
   18c4c:	12 80 00 04 	bne  18c5c <expandwildcards+0x35c>
   18c50:	01 00 00 00 	nop 
   18c54:	10 bf ff e1 	b  18bd8 <expandwildcards+0x2d8>
   18c58:	01 00 00 00 	nop 
   18c5c:	c2 07 bf e0 	ld  [ %fp + -32 ], %g1
   18c60:	82 00 60 0b 	add  %g1, 0xb, %g1
   18c64:	90 10 00 01 	mov  %g1, %o0
   18c68:	d2 07 bf f4 	ld  [ %fp + -12 ], %o1
   18c6c:	40 00 00 7e 	call  18e64 <match>
   18c70:	01 00 00 00 	nop 
   18c74:	82 10 00 08 	mov  %o0, %g1
   18c78:	80 a0 60 00 	cmp  %g1, 0
   18c7c:	12 80 00 04 	bne  18c8c <expandwildcards+0x38c>
   18c80:	01 00 00 00 	nop 
   18c84:	10 bf ff d5 	b  18bd8 <expandwildcards+0x2d8>
   18c88:	01 00 00 00 	nop 
   18c8c:	c4 07 bf d8 	ld  [ %fp + -40 ], %g2
   18c90:	c2 07 a0 48 	ld  [ %fp + 0x48 ], %g1
   18c94:	80 a0 80 01 	cmp  %g2, %g1
   18c98:	06 80 00 10 	bl  18cd8 <expandwildcards+0x3d8>
   18c9c:	01 00 00 00 	nop 
   18ca0:	03 00 00 b3 	sethi  %hi(0x2cc00), %g1
   18ca4:	82 10 62 40 	or  %g1, 0x240, %g1	! 2ce40 <stderr@@GLIBC_2.0>
   18ca8:	d0 00 40 00 	ld  [ %g1 ], %o0
   18cac:	03 00 00 6c 	sethi  %hi(0x1b000), %g1
   18cb0:	92 10 60 a0 	or  %g1, 0xa0, %o1	! 1b0a0 <invalid_date+0xf0>
   18cb4:	40 00 4d d1 	call  2c3f8 <fprintf@plt>
   18cb8:	01 00 00 00 	nop 
   18cbc:	d0 07 bf e4 	ld  [ %fp + -28 ], %o0
   18cc0:	40 00 4d f2 	call  2c488 <closedir@plt>
   18cc4:	01 00 00 00 	nop 
   18cc8:	82 10 3f ff 	mov  -1, %g1	! ffffffff <_end+0xfffd29af>
   18ccc:	c2 27 be d4 	st  %g1, [ %fp + -300 ]
   18cd0:	10 80 00 55 	b  18e24 <expandwildcards+0x524>
   18cd4:	01 00 00 00 	nop 
   18cd8:	c2 07 bf e0 	ld  [ %fp + -32 ], %g1
   18cdc:	82 00 60 0b 	add  %g1, 0xb, %g1
   18ce0:	90 10 00 01 	mov  %g1, %o0
   18ce4:	40 00 4d aa 	call  2c38c <strlen@plt>
   18ce8:	01 00 00 00 	nop 
   18cec:	82 10 00 08 	mov  %o0, %g1
   18cf0:	84 10 00 01 	mov  %g1, %g2
   18cf4:	c2 07 bf dc 	ld  [ %fp + -36 ], %g1
   18cf8:	82 00 80 01 	add  %g2, %g1, %g1
   18cfc:	82 00 60 01 	inc  %g1
   18d00:	90 10 00 01 	mov  %g1, %o0
   18d04:	40 00 01 e3 	call  19490 <getchunk>
   18d08:	01 00 00 00 	nop 
   18d0c:	82 10 00 08 	mov  %o0, %g1
   18d10:	c2 27 bf f0 	st  %g1, [ %fp + -16 ]
   18d14:	c2 07 bf f0 	ld  [ %fp + -16 ], %g1
   18d18:	80 a0 60 00 	cmp  %g1, 0
   18d1c:	12 80 00 10 	bne  18d5c <expandwildcards+0x45c>
   18d20:	01 00 00 00 	nop 
   18d24:	03 00 00 b3 	sethi  %hi(0x2cc00), %g1
   18d28:	82 10 62 40 	or  %g1, 0x240, %g1	! 2ce40 <stderr@@GLIBC_2.0>
   18d2c:	d0 00 40 00 	ld  [ %g1 ], %o0
   18d30:	03 00 00 6c 	sethi  %hi(0x1b000), %g1
   18d34:	92 10 60 c0 	or  %g1, 0xc0, %o1	! 1b0c0 <invalid_date+0x110>
   18d38:	40 00 4d b0 	call  2c3f8 <fprintf@plt>
   18d3c:	01 00 00 00 	nop 
   18d40:	d0 07 bf e4 	ld  [ %fp + -28 ], %o0
   18d44:	40 00 4d d1 	call  2c488 <closedir@plt>
   18d48:	01 00 00 00 	nop 
   18d4c:	82 10 3f ff 	mov  -1, %g1	! ffffffff <_end+0xfffd29af>
   18d50:	c2 27 be d4 	st  %g1, [ %fp + -300 ]
   18d54:	10 80 00 34 	b  18e24 <expandwildcards+0x524>
   18d58:	01 00 00 00 	nop 
   18d5c:	c2 07 bf dc 	ld  [ %fp + -36 ], %g1
   18d60:	80 a0 60 00 	cmp  %g1, 0
   18d64:	02 80 00 08 	be  18d84 <expandwildcards+0x484>
   18d68:	01 00 00 00 	nop 
   18d6c:	82 07 be d8 	add  %fp, -296, %g1
   18d70:	d0 07 bf f0 	ld  [ %fp + -16 ], %o0
   18d74:	92 10 00 01 	mov  %g1, %o1
   18d78:	d4 07 bf dc 	ld  [ %fp + -36 ], %o2
   18d7c:	40 00 4d b4 	call  2c44c <memcpy@plt>
   18d80:	01 00 00 00 	nop 
   18d84:	c4 07 bf f0 	ld  [ %fp + -16 ], %g2
   18d88:	c2 07 bf dc 	ld  [ %fp + -36 ], %g1
   18d8c:	84 00 80 01 	add  %g2, %g1, %g2
   18d90:	c2 07 bf e0 	ld  [ %fp + -32 ], %g1
   18d94:	82 00 60 0b 	add  %g1, 0xb, %g1
   18d98:	90 10 00 02 	mov  %g2, %o0
   18d9c:	92 10 00 01 	mov  %g1, %o1
   18da0:	40 00 4e 0b 	call  2c5cc <strcpy@plt>
   18da4:	01 00 00 00 	nop 
   18da8:	88 07 bf d8 	add  %fp, -40, %g4
   18dac:	c4 01 00 00 	ld  [ %g4 ], %g2
   18db0:	82 10 00 02 	mov  %g2, %g1
   18db4:	87 28 60 02 	sll  %g1, 2, %g3
   18db8:	c2 07 a0 4c 	ld  [ %fp + 0x4c ], %g1
   18dbc:	86 00 c0 01 	add  %g3, %g1, %g3
   18dc0:	c2 07 bf f0 	ld  [ %fp + -16 ], %g1
   18dc4:	c2 20 c0 00 	st  %g1, [ %g3 ]
   18dc8:	84 00 a0 01 	inc  %g2
   18dcc:	c4 21 00 00 	st  %g2, [ %g4 ]
   18dd0:	10 bf ff 82 	b  18bd8 <expandwildcards+0x2d8>
   18dd4:	01 00 00 00 	nop 
   18dd8:	d0 07 bf e4 	ld  [ %fp + -28 ], %o0
   18ddc:	40 00 4d ab 	call  2c488 <closedir@plt>
   18de0:	01 00 00 00 	nop 
   18de4:	c2 07 bf d8 	ld  [ %fp + -40 ], %g1
   18de8:	80 a0 60 00 	cmp  %g1, 0
   18dec:	12 80 00 05 	bne  18e00 <expandwildcards+0x500>
   18df0:	01 00 00 00 	nop 
   18df4:	c0 27 be d4 	clr  [ %fp + -300 ]
   18df8:	10 80 00 0b 	b  18e24 <expandwildcards+0x524>
   18dfc:	01 00 00 00 	nop 
   18e00:	d0 07 a0 4c 	ld  [ %fp + 0x4c ], %o0
   18e04:	d2 07 bf d8 	ld  [ %fp + -40 ], %o1
   18e08:	94 10 20 04 	mov  4, %o2
   18e0c:	03 00 00 63 	sethi  %hi(0x18c00), %g1
   18e10:	96 10 62 30 	or  %g1, 0x230, %o3	! 18e30 <namesort>
   18e14:	40 00 4d 67 	call  2c3b0 <qsort@plt>
   18e18:	01 00 00 00 	nop 
   18e1c:	c2 07 bf d8 	ld  [ %fp + -40 ], %g1
   18e20:	c2 27 be d4 	st  %g1, [ %fp + -300 ]
   18e24:	f0 07 be d4 	ld  [ %fp + -300 ], %i0
   18e28:	81 c7 e0 08 	ret 
   18e2c:	81 e8 00 00 	restore 

00018e30 <namesort>:
namesort():
   18e30:	9d e3 bf 98 	save  %sp, -104, %sp
   18e34:	f0 27 a0 44 	st  %i0, [ %fp + 0x44 ]
   18e38:	f2 27 a0 48 	st  %i1, [ %fp + 0x48 ]
   18e3c:	c2 07 a0 44 	ld  [ %fp + 0x44 ], %g1
   18e40:	c4 07 a0 48 	ld  [ %fp + 0x48 ], %g2
   18e44:	d0 00 40 00 	ld  [ %g1 ], %o0
   18e48:	d2 00 80 00 	ld  [ %g2 ], %o1
   18e4c:	40 00 4c ea 	call  2c1f4 <strcmp@plt>
   18e50:	01 00 00 00 	nop 
   18e54:	82 10 00 08 	mov  %o0, %g1
   18e58:	b0 10 00 01 	mov  %g1, %i0
   18e5c:	81 c7 e0 08 	ret 
   18e60:	81 e8 00 00 	restore 

00018e64 <match>:
match():
   18e64:	9d e3 bf 80 	save  %sp, -128, %sp
   18e68:	f0 27 a0 44 	st  %i0, [ %fp + 0x44 ]
   18e6c:	f2 27 a0 48 	st  %i1, [ %fp + 0x48 ]
   18e70:	c0 27 bf f4 	clr  [ %fp + -12 ]
   18e74:	c0 27 bf f0 	clr  [ %fp + -16 ]
   18e78:	c2 07 a0 44 	ld  [ %fp + 0x44 ], %g1
   18e7c:	c2 08 40 00 	ldub  [ %g1 ], %g1
   18e80:	83 28 60 18 	sll  %g1, 0x18, %g1
   18e84:	83 38 60 18 	sra  %g1, 0x18, %g1
   18e88:	80 a0 60 00 	cmp  %g1, 0
   18e8c:	12 80 00 0b 	bne  18eb8 <match+0x54>
   18e90:	01 00 00 00 	nop 
   18e94:	c2 07 a0 48 	ld  [ %fp + 0x48 ], %g1
   18e98:	c2 08 40 00 	ldub  [ %g1 ], %g1
   18e9c:	83 28 60 18 	sll  %g1, 0x18, %g1
   18ea0:	83 38 60 18 	sra  %g1, 0x18, %g1
   18ea4:	80 a0 60 00 	cmp  %g1, 0
   18ea8:	12 80 00 04 	bne  18eb8 <match+0x54>
   18eac:	01 00 00 00 	nop 
   18eb0:	10 80 00 ac 	b  19160 <match+0x2fc>
   18eb4:	01 00 00 00 	nop 
   18eb8:	86 07 a0 48 	add  %fp, 0x48, %g3
   18ebc:	c4 00 c0 00 	ld  [ %g3 ], %g2
   18ec0:	82 10 00 02 	mov  %g2, %g1
   18ec4:	c2 08 40 00 	ldub  [ %g1 ], %g1
   18ec8:	83 28 60 18 	sll  %g1, 0x18, %g1
   18ecc:	83 38 60 18 	sra  %g1, 0x18, %g1
   18ed0:	c2 27 bf ec 	st  %g1, [ %fp + -20 ]
   18ed4:	84 00 a0 01 	inc  %g2
   18ed8:	c4 20 c0 00 	st  %g2, [ %g3 ]
   18edc:	c2 07 bf ec 	ld  [ %fp + -20 ], %g1
   18ee0:	c2 27 bf e0 	st  %g1, [ %fp + -32 ]
   18ee4:	c2 07 bf e0 	ld  [ %fp + -32 ], %g1
   18ee8:	80 a0 60 3f 	cmp  %g1, 0x3f
   18eec:	02 80 00 54 	be  1903c <match+0x1d8>
   18ef0:	01 00 00 00 	nop 
   18ef4:	c2 07 bf e0 	ld  [ %fp + -32 ], %g1
   18ef8:	80 a0 60 3f 	cmp  %g1, 0x3f
   18efc:	14 80 00 08 	bg  18f1c <match+0xb8>
   18f00:	01 00 00 00 	nop 
   18f04:	c2 07 bf e0 	ld  [ %fp + -32 ], %g1
   18f08:	80 a0 60 2a 	cmp  %g1, 0x2a
   18f0c:	02 80 00 0e 	be  18f44 <match+0xe0>
   18f10:	01 00 00 00 	nop 
   18f14:	10 80 00 66 	b  190ac <match+0x248>
   18f18:	01 00 00 00 	nop 
   18f1c:	c2 07 bf e0 	ld  [ %fp + -32 ], %g1
   18f20:	80 a0 60 5b 	cmp  %g1, 0x5b
   18f24:	02 80 00 0e 	be  18f5c <match+0xf8>
   18f28:	01 00 00 00 	nop 
   18f2c:	c2 07 bf e0 	ld  [ %fp + -32 ], %g1
   18f30:	80 a0 60 5c 	cmp  %g1, 0x5c
   18f34:	02 80 00 4e 	be  1906c <match+0x208>
   18f38:	01 00 00 00 	nop 
   18f3c:	10 80 00 5c 	b  190ac <match+0x248>
   18f40:	01 00 00 00 	nop 
   18f44:	c2 07 a0 48 	ld  [ %fp + 0x48 ], %g1
   18f48:	c2 27 bf f4 	st  %g1, [ %fp + -12 ]
   18f4c:	c2 07 a0 44 	ld  [ %fp + 0x44 ], %g1
   18f50:	c2 27 bf f0 	st  %g1, [ %fp + -16 ]
   18f54:	10 80 00 7c 	b  19144 <match+0x2e0>
   18f58:	01 00 00 00 	nop 
   18f5c:	c0 27 bf e8 	clr  [ %fp + -24 ]
   18f60:	86 07 a0 48 	add  %fp, 0x48, %g3
   18f64:	c4 00 c0 00 	ld  [ %g3 ], %g2
   18f68:	82 10 00 02 	mov  %g2, %g1
   18f6c:	c2 08 40 00 	ldub  [ %g1 ], %g1
   18f70:	83 28 60 18 	sll  %g1, 0x18, %g1
   18f74:	83 38 60 18 	sra  %g1, 0x18, %g1
   18f78:	c2 27 bf ec 	st  %g1, [ %fp + -20 ]
   18f7c:	c2 07 bf ec 	ld  [ %fp + -20 ], %g1
   18f80:	84 00 a0 01 	inc  %g2
   18f84:	c4 20 c0 00 	st  %g2, [ %g3 ]
   18f88:	80 a0 60 5d 	cmp  %g1, 0x5d
   18f8c:	02 80 00 22 	be  19014 <match+0x1b0>
   18f90:	01 00 00 00 	nop 
   18f94:	c2 07 bf ec 	ld  [ %fp + -20 ], %g1
   18f98:	80 a0 60 5c 	cmp  %g1, 0x5c
   18f9c:	12 80 00 0b 	bne  18fc8 <match+0x164>
   18fa0:	01 00 00 00 	nop 
   18fa4:	86 07 a0 48 	add  %fp, 0x48, %g3
   18fa8:	c4 00 c0 00 	ld  [ %g3 ], %g2
   18fac:	82 10 00 02 	mov  %g2, %g1
   18fb0:	c2 08 40 00 	ldub  [ %g1 ], %g1
   18fb4:	83 28 60 18 	sll  %g1, 0x18, %g1
   18fb8:	83 38 60 18 	sra  %g1, 0x18, %g1
   18fbc:	c2 27 bf ec 	st  %g1, [ %fp + -20 ]
   18fc0:	84 00 a0 01 	inc  %g2
   18fc4:	c4 20 c0 00 	st  %g2, [ %g3 ]
   18fc8:	c2 07 bf ec 	ld  [ %fp + -20 ], %g1
   18fcc:	80 a0 60 00 	cmp  %g1, 0
   18fd0:	12 80 00 05 	bne  18fe4 <match+0x180>
   18fd4:	01 00 00 00 	nop 
   18fd8:	c0 27 bf e4 	clr  [ %fp + -28 ]
   18fdc:	10 80 00 63 	b  19168 <match+0x304>
   18fe0:	01 00 00 00 	nop 
   18fe4:	c2 07 a0 44 	ld  [ %fp + 0x44 ], %g1
   18fe8:	c2 08 40 00 	ldub  [ %g1 ], %g1
   18fec:	83 28 60 18 	sll  %g1, 0x18, %g1
   18ff0:	85 38 60 18 	sra  %g1, 0x18, %g2
   18ff4:	c2 07 bf ec 	ld  [ %fp + -20 ], %g1
   18ff8:	80 a0 80 01 	cmp  %g2, %g1
   18ffc:	12 bf ff d9 	bne  18f60 <match+0xfc>
   19000:	01 00 00 00 	nop 
   19004:	82 10 20 01 	mov  1, %g1	! 1 <_init-0x11507>
   19008:	c2 27 bf e8 	st  %g1, [ %fp + -24 ]
   1900c:	10 bf ff d5 	b  18f60 <match+0xfc>
   19010:	01 00 00 00 	nop 
   19014:	c2 07 bf e8 	ld  [ %fp + -24 ], %g1
   19018:	80 a0 60 00 	cmp  %g1, 0
   1901c:	12 80 00 08 	bne  1903c <match+0x1d8>
   19020:	01 00 00 00 	nop 
   19024:	c2 07 bf f4 	ld  [ %fp + -12 ], %g1
   19028:	c2 27 a0 48 	st  %g1, [ %fp + 0x48 ]
   1902c:	c2 07 bf f0 	ld  [ %fp + -16 ], %g1
   19030:	82 00 60 01 	inc  %g1
   19034:	c2 27 bf f0 	st  %g1, [ %fp + -16 ]
   19038:	c2 27 a0 44 	st  %g1, [ %fp + 0x44 ]
   1903c:	c2 07 a0 44 	ld  [ %fp + 0x44 ], %g1
   19040:	c4 08 40 00 	ldub  [ %g1 ], %g2
   19044:	82 00 60 01 	inc  %g1
   19048:	c2 27 a0 44 	st  %g1, [ %fp + 0x44 ]
   1904c:	83 28 a0 18 	sll  %g2, 0x18, %g1
   19050:	83 38 60 18 	sra  %g1, 0x18, %g1
   19054:	80 a0 60 00 	cmp  %g1, 0
   19058:	12 80 00 3b 	bne  19144 <match+0x2e0>
   1905c:	01 00 00 00 	nop 
   19060:	c0 27 bf e4 	clr  [ %fp + -28 ]
   19064:	10 80 00 41 	b  19168 <match+0x304>
   19068:	01 00 00 00 	nop 
   1906c:	86 07 a0 48 	add  %fp, 0x48, %g3
   19070:	c4 00 c0 00 	ld  [ %g3 ], %g2
   19074:	82 10 00 02 	mov  %g2, %g1
   19078:	c2 08 40 00 	ldub  [ %g1 ], %g1
   1907c:	83 28 60 18 	sll  %g1, 0x18, %g1
   19080:	83 38 60 18 	sra  %g1, 0x18, %g1
   19084:	c2 27 bf ec 	st  %g1, [ %fp + -20 ]
   19088:	84 00 a0 01 	inc  %g2
   1908c:	c4 20 c0 00 	st  %g2, [ %g3 ]
   19090:	c2 07 bf ec 	ld  [ %fp + -20 ], %g1
   19094:	80 a0 60 00 	cmp  %g1, 0
   19098:	12 80 00 05 	bne  190ac <match+0x248>
   1909c:	01 00 00 00 	nop 
   190a0:	c0 27 bf e4 	clr  [ %fp + -28 ]
   190a4:	10 80 00 31 	b  19168 <match+0x304>
   190a8:	01 00 00 00 	nop 
   190ac:	c2 07 a0 44 	ld  [ %fp + 0x44 ], %g1
   190b0:	c2 08 40 00 	ldub  [ %g1 ], %g1
   190b4:	83 28 60 18 	sll  %g1, 0x18, %g1
   190b8:	85 38 60 18 	sra  %g1, 0x18, %g2
   190bc:	c2 07 bf ec 	ld  [ %fp + -20 ], %g1
   190c0:	80 a0 80 01 	cmp  %g2, %g1
   190c4:	12 80 00 0e 	bne  190fc <match+0x298>
   190c8:	01 00 00 00 	nop 
   190cc:	c2 07 a0 44 	ld  [ %fp + 0x44 ], %g1
   190d0:	c2 08 40 00 	ldub  [ %g1 ], %g1
   190d4:	83 28 60 18 	sll  %g1, 0x18, %g1
   190d8:	83 38 60 18 	sra  %g1, 0x18, %g1
   190dc:	80 a0 60 00 	cmp  %g1, 0
   190e0:	02 80 00 19 	be  19144 <match+0x2e0>
   190e4:	01 00 00 00 	nop 
   190e8:	c2 07 a0 44 	ld  [ %fp + 0x44 ], %g1
   190ec:	82 00 60 01 	inc  %g1
   190f0:	c2 27 a0 44 	st  %g1, [ %fp + 0x44 ]
   190f4:	10 80 00 14 	b  19144 <match+0x2e0>
   190f8:	01 00 00 00 	nop 
   190fc:	c2 07 a0 44 	ld  [ %fp + 0x44 ], %g1
   19100:	c2 08 40 00 	ldub  [ %g1 ], %g1
   19104:	83 28 60 18 	sll  %g1, 0x18, %g1
   19108:	83 38 60 18 	sra  %g1, 0x18, %g1
   1910c:	80 a0 60 00 	cmp  %g1, 0
   19110:	02 80 00 0a 	be  19138 <match+0x2d4>
   19114:	01 00 00 00 	nop 
   19118:	c2 07 bf f4 	ld  [ %fp + -12 ], %g1
   1911c:	c2 27 a0 48 	st  %g1, [ %fp + 0x48 ]
   19120:	c2 07 bf f0 	ld  [ %fp + -16 ], %g1
   19124:	82 00 60 01 	inc  %g1
   19128:	c2 27 bf f0 	st  %g1, [ %fp + -16 ]
   1912c:	c2 27 a0 44 	st  %g1, [ %fp + 0x44 ]
   19130:	10 80 00 05 	b  19144 <match+0x2e0>
   19134:	01 00 00 00 	nop 
   19138:	c0 27 bf e4 	clr  [ %fp + -28 ]
   1913c:	10 80 00 0b 	b  19168 <match+0x304>
   19140:	01 00 00 00 	nop 
   19144:	c2 07 a0 48 	ld  [ %fp + 0x48 ], %g1
   19148:	80 a0 60 00 	cmp  %g1, 0
   1914c:	12 bf ff 4b 	bne  18e78 <match+0x14>
   19150:	01 00 00 00 	nop 
   19154:	c0 27 bf e4 	clr  [ %fp + -28 ]
   19158:	10 80 00 04 	b  19168 <match+0x304>
   1915c:	01 00 00 00 	nop 
   19160:	82 10 20 01 	mov  1, %g1	! 1 <_init-0x11507>
   19164:	c2 27 bf e4 	st  %g1, [ %fp + -28 ]
   19168:	f0 07 bf e4 	ld  [ %fp + -28 ], %i0
   1916c:	81 c7 e0 08 	ret 
   19170:	81 e8 00 00 	restore 

00019174 <makeargs>:
makeargs():
   19174:	9d e3 bf 88 	save  %sp, -120, %sp
   19178:	f0 27 a0 44 	st  %i0, [ %fp + 0x44 ]
   1917c:	f2 27 a0 48 	st  %i1, [ %fp + 0x48 ]
   19180:	f4 27 a0 4c 	st  %i2, [ %fp + 0x4c ]
   19184:	03 00 00 b4 	sethi  %hi(0x2d000), %g1
   19188:	90 10 61 08 	or  %g1, 0x108, %o0	! 2d108 <strings.0>
   1918c:	d2 07 a0 44 	ld  [ %fp + 0x44 ], %o1
   19190:	40 00 4d 0f 	call  2c5cc <strcpy@plt>
   19194:	01 00 00 00 	nop 
   19198:	c0 27 bf f0 	clr  [ %fp + -16 ]
   1919c:	03 00 00 b4 	sethi  %hi(0x2d000), %g1
   191a0:	82 10 61 08 	or  %g1, 0x108, %g1	! 2d108 <strings.0>
   191a4:	c2 27 bf f4 	st  %g1, [ %fp + -12 ]
   191a8:	c2 07 bf f4 	ld  [ %fp + -12 ], %g1
   191ac:	c2 08 40 00 	ldub  [ %g1 ], %g1
   191b0:	83 28 60 18 	sll  %g1, 0x18, %g1
   191b4:	83 38 60 18 	sra  %g1, 0x18, %g1
   191b8:	80 a0 60 00 	cmp  %g1, 0
   191bc:	02 80 00 a4 	be  1944c <makeargs+0x2d8>
   191c0:	01 00 00 00 	nop 
   191c4:	c2 07 bf f0 	ld  [ %fp + -16 ], %g1
   191c8:	80 a0 60 31 	cmp  %g1, 0x31
   191cc:	04 80 00 0c 	ble  191fc <makeargs+0x88>
   191d0:	01 00 00 00 	nop 
   191d4:	03 00 00 b3 	sethi  %hi(0x2cc00), %g1
   191d8:	82 10 62 40 	or  %g1, 0x240, %g1	! 2ce40 <stderr@@GLIBC_2.0>
   191dc:	d0 00 40 00 	ld  [ %g1 ], %o0
   191e0:	03 00 00 6c 	sethi  %hi(0x1b000), %g1
   191e4:	92 10 60 d8 	or  %g1, 0xd8, %o1	! 1b0d8 <invalid_date+0x128>
   191e8:	40 00 4c 84 	call  2c3f8 <fprintf@plt>
   191ec:	01 00 00 00 	nop 
   191f0:	c0 27 bf e8 	clr  [ %fp + -24 ]
   191f4:	10 80 00 a4 	b  19484 <makeargs+0x310>
   191f8:	01 00 00 00 	nop 
   191fc:	03 00 00 b4 	sethi  %hi(0x2d000), %g1
   19200:	88 10 62 0c 	or  %g1, 0x20c, %g4	! 2d20c <argtable.1>
   19204:	9a 07 bf f0 	add  %fp, -16, %o5
   19208:	c4 03 40 00 	ld  [ %o5 ], %g2
   1920c:	82 10 00 02 	mov  %g2, %g1
   19210:	87 28 60 02 	sll  %g1, 2, %g3
   19214:	c2 07 bf f4 	ld  [ %fp + -12 ], %g1
   19218:	c2 21 00 03 	st  %g1, [ %g4 + %g3 ]
   1921c:	84 00 a0 01 	inc  %g2
   19220:	c4 23 40 00 	st  %g2, [ %o5 ]
   19224:	c2 07 bf f4 	ld  [ %fp + -12 ], %g1
   19228:	c2 08 40 00 	ldub  [ %g1 ], %g1
   1922c:	83 28 60 18 	sll  %g1, 0x18, %g1
   19230:	83 38 60 18 	sra  %g1, 0x18, %g1
   19234:	80 a0 60 00 	cmp  %g1, 0
   19238:	02 80 00 6d 	be  193ec <makeargs+0x278>
   1923c:	01 00 00 00 	nop 
   19240:	c2 07 bf f4 	ld  [ %fp + -12 ], %g1
   19244:	c2 08 40 00 	ldub  [ %g1 ], %g1
   19248:	83 28 60 18 	sll  %g1, 0x18, %g1
   1924c:	83 38 60 18 	sra  %g1, 0x18, %g1
   19250:	80 a0 60 20 	cmp  %g1, 0x20
   19254:	02 80 00 66 	be  193ec <makeargs+0x278>
   19258:	01 00 00 00 	nop 
   1925c:	c2 07 bf f4 	ld  [ %fp + -12 ], %g1
   19260:	c2 08 40 00 	ldub  [ %g1 ], %g1
   19264:	83 28 60 18 	sll  %g1, 0x18, %g1
   19268:	83 38 60 18 	sra  %g1, 0x18, %g1
   1926c:	80 a0 60 09 	cmp  %g1, 9
   19270:	02 80 00 5f 	be  193ec <makeargs+0x278>
   19274:	01 00 00 00 	nop 
   19278:	c2 07 bf f4 	ld  [ %fp + -12 ], %g1
   1927c:	c2 08 40 00 	ldub  [ %g1 ], %g1
   19280:	83 28 60 18 	sll  %g1, 0x18, %g1
   19284:	83 38 60 18 	sra  %g1, 0x18, %g1
   19288:	80 a0 60 22 	cmp  %g1, 0x22
   1928c:	02 80 00 0b 	be  192b8 <makeargs+0x144>
   19290:	01 00 00 00 	nop 
   19294:	c2 07 bf f4 	ld  [ %fp + -12 ], %g1
   19298:	c2 08 40 00 	ldub  [ %g1 ], %g1
   1929c:	83 28 60 18 	sll  %g1, 0x18, %g1
   192a0:	83 38 60 18 	sra  %g1, 0x18, %g1
   192a4:	80 a0 60 27 	cmp  %g1, 0x27
   192a8:	02 80 00 04 	be  192b8 <makeargs+0x144>
   192ac:	01 00 00 00 	nop 
   192b0:	10 80 00 4a 	b  193d8 <makeargs+0x264>
   192b4:	01 00 00 00 	nop 
   192b8:	82 07 bf f4 	add  %fp, -12, %g1
   192bc:	c4 00 40 00 	ld  [ %g1 ], %g2
   192c0:	86 10 00 02 	mov  %g2, %g3
   192c4:	84 00 a0 01 	inc  %g2
   192c8:	c4 20 40 00 	st  %g2, [ %g1 ]
   192cc:	c6 27 bf ec 	st  %g3, [ %fp + -20 ]
   192d0:	c2 07 bf f4 	ld  [ %fp + -12 ], %g1
   192d4:	c2 08 40 00 	ldub  [ %g1 ], %g1
   192d8:	83 28 60 18 	sll  %g1, 0x18, %g1
   192dc:	83 38 60 18 	sra  %g1, 0x18, %g1
   192e0:	80 a0 60 00 	cmp  %g1, 0
   192e4:	02 80 00 12 	be  1932c <makeargs+0x1b8>
   192e8:	01 00 00 00 	nop 
   192ec:	c2 07 bf f4 	ld  [ %fp + -12 ], %g1
   192f0:	c4 07 bf ec 	ld  [ %fp + -20 ], %g2
   192f4:	c2 08 40 00 	ldub  [ %g1 ], %g1
   192f8:	83 28 60 18 	sll  %g1, 0x18, %g1
   192fc:	87 38 60 18 	sra  %g1, 0x18, %g3
   19300:	c2 08 80 00 	ldub  [ %g2 ], %g1
   19304:	83 28 60 18 	sll  %g1, 0x18, %g1
   19308:	83 38 60 18 	sra  %g1, 0x18, %g1
   1930c:	80 a0 c0 01 	cmp  %g3, %g1
   19310:	02 80 00 07 	be  1932c <makeargs+0x1b8>
   19314:	01 00 00 00 	nop 
   19318:	c2 07 bf f4 	ld  [ %fp + -12 ], %g1
   1931c:	82 00 60 01 	inc  %g1
   19320:	c2 27 bf f4 	st  %g1, [ %fp + -12 ]
   19324:	10 bf ff eb 	b  192d0 <makeargs+0x15c>
   19328:	01 00 00 00 	nop 
   1932c:	c2 07 bf f4 	ld  [ %fp + -12 ], %g1
   19330:	c4 07 bf ec 	ld  [ %fp + -20 ], %g2
   19334:	c2 08 40 00 	ldub  [ %g1 ], %g1
   19338:	83 28 60 18 	sll  %g1, 0x18, %g1
   1933c:	87 38 60 18 	sra  %g1, 0x18, %g3
   19340:	c2 08 80 00 	ldub  [ %g2 ], %g1
   19344:	83 28 60 18 	sll  %g1, 0x18, %g1
   19348:	83 38 60 18 	sra  %g1, 0x18, %g1
   1934c:	80 a0 c0 01 	cmp  %g3, %g1
   19350:	12 bf ff b5 	bne  19224 <makeargs+0xb0>
   19354:	01 00 00 00 	nop 
   19358:	c2 07 bf ec 	ld  [ %fp + -20 ], %g1
   1935c:	86 00 60 01 	add  %g1, 1, %g3
   19360:	c4 07 bf f4 	ld  [ %fp + -12 ], %g2
   19364:	c2 07 bf ec 	ld  [ %fp + -20 ], %g1
   19368:	82 20 80 01 	sub  %g2, %g1, %g1
   1936c:	82 00 7f ff 	add  %g1, -1, %g1
   19370:	90 10 00 03 	mov  %g3, %o0
   19374:	d2 07 bf ec 	ld  [ %fp + -20 ], %o1
   19378:	94 10 00 01 	mov  %g1, %o2
   1937c:	40 00 4b cb 	call  2c2a8 <bcopy@plt>
   19380:	01 00 00 00 	nop 
   19384:	c2 07 bf f4 	ld  [ %fp + -12 ], %g1
   19388:	82 00 60 01 	inc  %g1
   1938c:	90 10 00 01 	mov  %g1, %o0
   19390:	40 00 4b ff 	call  2c38c <strlen@plt>
   19394:	01 00 00 00 	nop 
   19398:	82 10 00 08 	mov  %o0, %g1
   1939c:	86 00 60 01 	add  %g1, 1, %g3
   193a0:	c2 07 bf f4 	ld  [ %fp + -12 ], %g1
   193a4:	84 00 60 01 	add  %g1, 1, %g2
   193a8:	c2 07 bf f4 	ld  [ %fp + -12 ], %g1
   193ac:	82 00 7f ff 	add  %g1, -1, %g1
   193b0:	90 10 00 02 	mov  %g2, %o0
   193b4:	92 10 00 01 	mov  %g1, %o1
   193b8:	94 10 00 03 	mov  %g3, %o2
   193bc:	40 00 4b bb 	call  2c2a8 <bcopy@plt>
   193c0:	01 00 00 00 	nop 
   193c4:	c2 07 bf f4 	ld  [ %fp + -12 ], %g1
   193c8:	82 00 7f ff 	add  %g1, -1, %g1
   193cc:	c2 27 bf f4 	st  %g1, [ %fp + -12 ]
   193d0:	10 bf ff 95 	b  19224 <makeargs+0xb0>
   193d4:	01 00 00 00 	nop 
   193d8:	c2 07 bf f4 	ld  [ %fp + -12 ], %g1
   193dc:	82 00 60 01 	inc  %g1
   193e0:	c2 27 bf f4 	st  %g1, [ %fp + -12 ]
   193e4:	10 bf ff 90 	b  19224 <makeargs+0xb0>
   193e8:	01 00 00 00 	nop 
   193ec:	c2 07 bf f4 	ld  [ %fp + -12 ], %g1
   193f0:	c2 08 40 00 	ldub  [ %g1 ], %g1
   193f4:	83 28 60 18 	sll  %g1, 0x18, %g1
   193f8:	83 38 60 18 	sra  %g1, 0x18, %g1
   193fc:	80 a0 60 20 	cmp  %g1, 0x20
   19400:	02 80 00 0b 	be  1942c <makeargs+0x2b8>
   19404:	01 00 00 00 	nop 
   19408:	c2 07 bf f4 	ld  [ %fp + -12 ], %g1
   1940c:	c2 08 40 00 	ldub  [ %g1 ], %g1
   19410:	83 28 60 18 	sll  %g1, 0x18, %g1
   19414:	83 38 60 18 	sra  %g1, 0x18, %g1
   19418:	80 a0 60 09 	cmp  %g1, 9
   1941c:	02 80 00 04 	be  1942c <makeargs+0x2b8>
   19420:	01 00 00 00 	nop 
   19424:	10 bf ff 61 	b  191a8 <makeargs+0x34>
   19428:	01 00 00 00 	nop 
   1942c:	82 07 bf f4 	add  %fp, -12, %g1
   19430:	c4 00 40 00 	ld  [ %g1 ], %g2
   19434:	86 10 00 02 	mov  %g2, %g3
   19438:	c0 28 c0 00 	clrb  [ %g3 ]
   1943c:	84 00 a0 01 	inc  %g2
   19440:	c4 20 40 00 	st  %g2, [ %g1 ]
   19444:	10 bf ff ea 	b  193ec <makeargs+0x278>
   19448:	01 00 00 00 	nop 
   1944c:	03 00 00 b4 	sethi  %hi(0x2d000), %g1
   19450:	84 10 62 0c 	or  %g1, 0x20c, %g2	! 2d20c <argtable.1>
   19454:	c2 07 bf f0 	ld  [ %fp + -16 ], %g1
   19458:	83 28 60 02 	sll  %g1, 2, %g1
   1945c:	c0 20 80 01 	clr  [ %g2 + %g1 ]
   19460:	c4 07 a0 48 	ld  [ %fp + 0x48 ], %g2
   19464:	c2 07 bf f0 	ld  [ %fp + -16 ], %g1
   19468:	c2 20 80 00 	st  %g1, [ %g2 ]
   1946c:	c4 07 a0 4c 	ld  [ %fp + 0x4c ], %g2
   19470:	03 00 00 b4 	sethi  %hi(0x2d000), %g1
   19474:	82 10 62 0c 	or  %g1, 0x20c, %g1	! 2d20c <argtable.1>
   19478:	c2 20 80 00 	st  %g1, [ %g2 ]
   1947c:	82 10 20 01 	mov  1, %g1
   19480:	c2 27 bf e8 	st  %g1, [ %fp + -24 ]
   19484:	f0 07 bf e8 	ld  [ %fp + -24 ], %i0
   19488:	81 c7 e0 08 	ret 
   1948c:	81 e8 00 00 	restore 

00019490 <getchunk>:
getchunk():
   19490:	9d e3 bf 90 	save  %sp, -112, %sp
   19494:	f0 27 a0 44 	st  %i0, [ %fp + 0x44 ]
   19498:	c2 07 a0 44 	ld  [ %fp + 0x44 ], %g1
   1949c:	80 a0 60 03 	cmp  %g1, 3
   194a0:	14 80 00 04 	bg  194b0 <getchunk+0x20>
   194a4:	01 00 00 00 	nop 
   194a8:	82 10 20 04 	mov  4, %g1	! 4 <_init-0x11504>
   194ac:	c2 27 a0 44 	st  %g1, [ %fp + 0x44 ]
   194b0:	c2 07 a0 44 	ld  [ %fp + 0x44 ], %g1
   194b4:	82 00 60 04 	add  %g1, 4, %g1
   194b8:	90 10 00 01 	mov  %g1, %o0
   194bc:	40 00 4b 8a 	call  2c2e4 <malloc@plt>
   194c0:	01 00 00 00 	nop 
   194c4:	82 10 00 08 	mov  %o0, %g1
   194c8:	c2 27 bf f4 	st  %g1, [ %fp + -12 ]
   194cc:	c2 07 bf f4 	ld  [ %fp + -12 ], %g1
   194d0:	80 a0 60 00 	cmp  %g1, 0
   194d4:	12 80 00 05 	bne  194e8 <getchunk+0x58>
   194d8:	01 00 00 00 	nop 
   194dc:	c0 27 bf f0 	clr  [ %fp + -16 ]
   194e0:	10 80 00 0e 	b  19518 <getchunk+0x88>
   194e4:	01 00 00 00 	nop 
   194e8:	c4 07 bf f4 	ld  [ %fp + -12 ], %g2
   194ec:	03 00 00 b4 	sethi  %hi(0x2d000), %g1
   194f0:	82 10 62 d8 	or  %g1, 0x2d8, %g1	! 2d2d8 <chunklist>
   194f4:	c2 00 40 00 	ld  [ %g1 ], %g1
   194f8:	c2 20 80 00 	st  %g1, [ %g2 ]
   194fc:	03 00 00 b4 	sethi  %hi(0x2d000), %g1
   19500:	84 10 62 d8 	or  %g1, 0x2d8, %g2	! 2d2d8 <chunklist>
   19504:	c2 07 bf f4 	ld  [ %fp + -12 ], %g1
   19508:	c2 20 80 00 	st  %g1, [ %g2 ]
   1950c:	c2 07 bf f4 	ld  [ %fp + -12 ], %g1
   19510:	82 00 60 04 	add  %g1, 4, %g1
   19514:	c2 27 bf f0 	st  %g1, [ %fp + -16 ]
   19518:	f0 07 bf f0 	ld  [ %fp + -16 ], %i0
   1951c:	81 c7 e0 08 	ret 
   19520:	81 e8 00 00 	restore 

00019524 <freechunks>:
freechunks():
   19524:	9d e3 bf 90 	save  %sp, -112, %sp
   19528:	03 00 00 b4 	sethi  %hi(0x2d000), %g1
   1952c:	82 10 62 d8 	or  %g1, 0x2d8, %g1	! 2d2d8 <chunklist>
   19530:	c2 00 40 00 	ld  [ %g1 ], %g1
   19534:	80 a0 60 00 	cmp  %g1, 0
   19538:	02 80 00 10 	be  19578 <freechunks+0x54>
   1953c:	01 00 00 00 	nop 
   19540:	03 00 00 b4 	sethi  %hi(0x2d000), %g1
   19544:	82 10 62 d8 	or  %g1, 0x2d8, %g1	! 2d2d8 <chunklist>
   19548:	c2 00 40 00 	ld  [ %g1 ], %g1
   1954c:	c2 27 bf f4 	st  %g1, [ %fp + -12 ]
   19550:	03 00 00 b4 	sethi  %hi(0x2d000), %g1
   19554:	84 10 62 d8 	or  %g1, 0x2d8, %g2	! 2d2d8 <chunklist>
   19558:	c2 07 bf f4 	ld  [ %fp + -12 ], %g1
   1955c:	c2 00 40 00 	ld  [ %g1 ], %g1
   19560:	c2 20 80 00 	st  %g1, [ %g2 ]
   19564:	d0 07 bf f4 	ld  [ %fp + -12 ], %o0
   19568:	40 00 4b e3 	call  2c4f4 <free@plt>
   1956c:	01 00 00 00 	nop 
   19570:	10 bf ff ee 	b  19528 <freechunks+0x4>
   19574:	01 00 00 00 	nop 
   19578:	81 c7 e0 08 	ret 
   1957c:	81 e8 00 00 	restore 

00019580 <expandenvvar>:
expandenvvar():
   19580:	9d e3 be 70 	save  %sp, -400, %sp
   19584:	f0 27 a0 44 	st  %i0, [ %fp + 0x44 ]
   19588:	03 00 00 b4 	sethi  %hi(0x2d000), %g1
   1958c:	82 10 62 e0 	or  %g1, 0x2e0, %g1	! 2d2e0 <newcmd.0>
   19590:	c2 27 bf f4 	st  %g1, [ %fp + -12 ]
   19594:	82 10 21 00 	mov  0x100, %g1
   19598:	c2 27 bf f0 	st  %g1, [ %fp + -16 ]
   1959c:	c2 07 a0 44 	ld  [ %fp + 0x44 ], %g1
   195a0:	80 a0 60 00 	cmp  %g1, 0
   195a4:	12 80 00 05 	bne  195b8 <expandenvvar+0x38>
   195a8:	01 00 00 00 	nop 
   195ac:	c0 27 be d8 	clr  [ %fp + -296 ]
   195b0:	10 80 00 d5 	b  19904 <expandenvvar+0x384>
   195b4:	01 00 00 00 	nop 
   195b8:	d0 07 a0 44 	ld  [ %fp + 0x44 ], %o0
   195bc:	40 00 4b 74 	call  2c38c <strlen@plt>
   195c0:	01 00 00 00 	nop 
   195c4:	82 10 00 08 	mov  %o0, %g1
   195c8:	84 10 00 01 	mov  %g1, %g2
   195cc:	c2 07 bf f0 	ld  [ %fp + -16 ], %g1
   195d0:	80 a0 80 01 	cmp  %g2, %g1
   195d4:	08 80 00 0c 	bleu  19604 <expandenvvar+0x84>
   195d8:	01 00 00 00 	nop 
   195dc:	03 00 00 b3 	sethi  %hi(0x2cc00), %g1
   195e0:	82 10 62 40 	or  %g1, 0x240, %g1	! 2ce40 <stderr@@GLIBC_2.0>
   195e4:	d0 00 40 00 	ld  [ %g1 ], %o0
   195e8:	03 00 00 6c 	sethi  %hi(0x1b000), %g1
   195ec:	92 10 60 f0 	or  %g1, 0xf0, %o1	! 1b0f0 <invalid_date+0x140>
   195f0:	40 00 4b 82 	call  2c3f8 <fprintf@plt>
   195f4:	01 00 00 00 	nop 
   195f8:	c0 27 be d8 	clr  [ %fp + -296 ]
   195fc:	10 80 00 c2 	b  19904 <expandenvvar+0x384>
   19600:	01 00 00 00 	nop 
   19604:	c2 07 a0 44 	ld  [ %fp + 0x44 ], %g1
   19608:	c2 08 40 00 	ldub  [ %g1 ], %g1
   1960c:	83 28 60 18 	sll  %g1, 0x18, %g1
   19610:	83 38 60 18 	sra  %g1, 0x18, %g1
   19614:	80 a0 60 00 	cmp  %g1, 0
   19618:	02 80 00 b6 	be  198f0 <expandenvvar+0x370>
   1961c:	01 00 00 00 	nop 
   19620:	c2 07 a0 44 	ld  [ %fp + 0x44 ], %g1
   19624:	c2 08 40 00 	ldub  [ %g1 ], %g1
   19628:	83 28 60 18 	sll  %g1, 0x18, %g1
   1962c:	83 38 60 18 	sra  %g1, 0x18, %g1
   19630:	c2 27 be d4 	st  %g1, [ %fp + -300 ]
   19634:	c2 07 be d4 	ld  [ %fp + -300 ], %g1
   19638:	80 a0 60 24 	cmp  %g1, 0x24
   1963c:	02 80 00 28 	be  196dc <expandenvvar+0x15c>
   19640:	01 00 00 00 	nop 
   19644:	c2 07 be d4 	ld  [ %fp + -300 ], %g1
   19648:	80 a0 60 5c 	cmp  %g1, 0x5c
   1964c:	02 80 00 04 	be  1965c <expandenvvar+0xdc>
   19650:	01 00 00 00 	nop 
   19654:	10 80 00 8a 	b  1987c <expandenvvar+0x2fc>
   19658:	01 00 00 00 	nop 
   1965c:	c2 07 bf f0 	ld  [ %fp + -16 ], %g1
   19660:	80 a0 60 00 	cmp  %g1, 0
   19664:	14 80 00 0c 	bg  19694 <expandenvvar+0x114>
   19668:	01 00 00 00 	nop 
   1966c:	03 00 00 b3 	sethi  %hi(0x2cc00), %g1
   19670:	82 10 62 40 	or  %g1, 0x240, %g1	! 2ce40 <stderr@@GLIBC_2.0>
   19674:	d0 00 40 00 	ld  [ %g1 ], %o0
   19678:	03 00 00 6c 	sethi  %hi(0x1b000), %g1
   1967c:	92 10 60 f0 	or  %g1, 0xf0, %o1	! 1b0f0 <invalid_date+0x140>
   19680:	40 00 4b 5e 	call  2c3f8 <fprintf@plt>
   19684:	01 00 00 00 	nop 
   19688:	c0 27 be d8 	clr  [ %fp + -296 ]
   1968c:	10 80 00 9e 	b  19904 <expandenvvar+0x384>
   19690:	01 00 00 00 	nop 
   19694:	c2 07 a0 44 	ld  [ %fp + 0x44 ], %g1
   19698:	82 00 60 01 	inc  %g1
   1969c:	c2 27 a0 44 	st  %g1, [ %fp + 0x44 ]
   196a0:	88 07 bf f4 	add  %fp, -12, %g4
   196a4:	c4 01 00 00 	ld  [ %g4 ], %g2
   196a8:	c2 07 a0 44 	ld  [ %fp + 0x44 ], %g1
   196ac:	c6 08 40 00 	ldub  [ %g1 ], %g3
   196b0:	82 00 60 01 	inc  %g1
   196b4:	c2 27 a0 44 	st  %g1, [ %fp + 0x44 ]
   196b8:	82 10 00 02 	mov  %g2, %g1
   196bc:	c6 28 40 00 	stb  %g3, [ %g1 ]
   196c0:	84 00 a0 01 	inc  %g2
   196c4:	c4 21 00 00 	st  %g2, [ %g4 ]
   196c8:	c2 07 bf f0 	ld  [ %fp + -16 ], %g1
   196cc:	82 00 7f ff 	add  %g1, -1, %g1
   196d0:	c2 27 bf f0 	st  %g1, [ %fp + -16 ]
   196d4:	10 bf ff cc 	b  19604 <expandenvvar+0x84>
   196d8:	01 00 00 00 	nop 
   196dc:	c2 07 a0 44 	ld  [ %fp + 0x44 ], %g1
   196e0:	82 00 60 01 	inc  %g1
   196e4:	c2 27 a0 44 	st  %g1, [ %fp + 0x44 ]
   196e8:	82 07 be e8 	add  %fp, -280, %g1
   196ec:	c2 27 be e4 	st  %g1, [ %fp + -284 ]
   196f0:	40 00 4b ab 	call  2c59c <__ctype_b_loc@plt>
   196f4:	01 00 00 00 	nop 
   196f8:	82 10 00 08 	mov  %o0, %g1
   196fc:	86 10 00 01 	mov  %g1, %g3
   19700:	c2 07 a0 44 	ld  [ %fp + 0x44 ], %g1
   19704:	c2 08 40 00 	ldub  [ %g1 ], %g1
   19708:	83 28 60 18 	sll  %g1, 0x18, %g1
   1970c:	83 38 60 18 	sra  %g1, 0x18, %g1
   19710:	84 00 40 01 	add  %g1, %g1, %g2
   19714:	c2 00 c0 00 	ld  [ %g3 ], %g1
   19718:	82 00 80 01 	add  %g2, %g1, %g1
   1971c:	c2 10 40 00 	lduh  [ %g1 ], %g1
   19720:	83 28 60 10 	sll  %g1, 0x10, %g1
   19724:	83 30 60 10 	srl  %g1, 0x10, %g1
   19728:	82 08 68 00 	and  %g1, 0x800, %g1
   1972c:	80 a0 60 00 	cmp  %g1, 0
   19730:	12 80 00 12 	bne  19778 <expandenvvar+0x1f8>
   19734:	01 00 00 00 	nop 
   19738:	c2 07 a0 44 	ld  [ %fp + 0x44 ], %g1
   1973c:	c2 08 40 00 	ldub  [ %g1 ], %g1
   19740:	83 28 60 18 	sll  %g1, 0x18, %g1
   19744:	83 38 60 18 	sra  %g1, 0x18, %g1
   19748:	80 a0 60 5f 	cmp  %g1, 0x5f
   1974c:	02 80 00 0b 	be  19778 <expandenvvar+0x1f8>
   19750:	01 00 00 00 	nop 
   19754:	c2 07 a0 44 	ld  [ %fp + 0x44 ], %g1
   19758:	c2 08 40 00 	ldub  [ %g1 ], %g1
   1975c:	83 28 60 18 	sll  %g1, 0x18, %g1
   19760:	83 38 60 18 	sra  %g1, 0x18, %g1
   19764:	80 a0 60 3f 	cmp  %g1, 0x3f
   19768:	02 80 00 04 	be  19778 <expandenvvar+0x1f8>
   1976c:	01 00 00 00 	nop 
   19770:	10 80 00 0e 	b  197a8 <expandenvvar+0x228>
   19774:	01 00 00 00 	nop 
   19778:	88 07 be e4 	add  %fp, -284, %g4
   1977c:	c4 01 00 00 	ld  [ %g4 ], %g2
   19780:	c2 07 a0 44 	ld  [ %fp + 0x44 ], %g1
   19784:	c6 08 40 00 	ldub  [ %g1 ], %g3
   19788:	82 00 60 01 	inc  %g1
   1978c:	c2 27 a0 44 	st  %g1, [ %fp + 0x44 ]
   19790:	82 10 00 02 	mov  %g2, %g1
   19794:	c6 28 40 00 	stb  %g3, [ %g1 ]
   19798:	84 00 a0 01 	inc  %g2
   1979c:	c4 21 00 00 	st  %g2, [ %g4 ]
   197a0:	10 bf ff d4 	b  196f0 <expandenvvar+0x170>
   197a4:	01 00 00 00 	nop 
   197a8:	c2 07 be e4 	ld  [ %fp + -284 ], %g1
   197ac:	c0 28 40 00 	clrb  [ %g1 ]
   197b0:	c2 0f be e8 	ldub  [ %fp + -280 ], %g1
   197b4:	83 28 60 18 	sll  %g1, 0x18, %g1
   197b8:	83 38 60 18 	sra  %g1, 0x18, %g1
   197bc:	80 a0 60 00 	cmp  %g1, 0
   197c0:	02 bf ff 91 	be  19604 <expandenvvar+0x84>
   197c4:	01 00 00 00 	nop 
   197c8:	82 07 be e8 	add  %fp, -280, %g1
   197cc:	90 10 00 01 	mov  %g1, %o0
   197d0:	40 00 4a 98 	call  2c230 <getenv@plt>
   197d4:	01 00 00 00 	nop 
   197d8:	82 10 00 08 	mov  %o0, %g1
   197dc:	c2 27 be e0 	st  %g1, [ %fp + -288 ]
   197e0:	c2 07 be e0 	ld  [ %fp + -288 ], %g1
   197e4:	80 a0 60 00 	cmp  %g1, 0
   197e8:	02 bf ff 87 	be  19604 <expandenvvar+0x84>
   197ec:	01 00 00 00 	nop 
   197f0:	d0 07 be e0 	ld  [ %fp + -288 ], %o0
   197f4:	40 00 4a e6 	call  2c38c <strlen@plt>
   197f8:	01 00 00 00 	nop 
   197fc:	82 10 00 08 	mov  %o0, %g1
   19800:	c2 27 be dc 	st  %g1, [ %fp + -292 ]
   19804:	c4 07 be dc 	ld  [ %fp + -292 ], %g2
   19808:	c2 07 bf f0 	ld  [ %fp + -16 ], %g1
   1980c:	80 a0 80 01 	cmp  %g2, %g1
   19810:	04 80 00 0c 	ble  19840 <expandenvvar+0x2c0>
   19814:	01 00 00 00 	nop 
   19818:	03 00 00 b3 	sethi  %hi(0x2cc00), %g1
   1981c:	82 10 62 40 	or  %g1, 0x240, %g1	! 2ce40 <stderr@@GLIBC_2.0>
   19820:	d0 00 40 00 	ld  [ %g1 ], %o0
   19824:	03 00 00 6c 	sethi  %hi(0x1b000), %g1
   19828:	92 10 60 f0 	or  %g1, 0xf0, %o1	! 1b0f0 <invalid_date+0x140>
   1982c:	40 00 4a f3 	call  2c3f8 <fprintf@plt>
   19830:	01 00 00 00 	nop 
   19834:	c0 27 be d8 	clr  [ %fp + -296 ]
   19838:	10 80 00 33 	b  19904 <expandenvvar+0x384>
   1983c:	01 00 00 00 	nop 
   19840:	d0 07 bf f4 	ld  [ %fp + -12 ], %o0
   19844:	d2 07 be e0 	ld  [ %fp + -288 ], %o1
   19848:	d4 07 be dc 	ld  [ %fp + -292 ], %o2
   1984c:	40 00 4b 45 	call  2c560 <strncpy@plt>
   19850:	01 00 00 00 	nop 
   19854:	c4 07 bf f4 	ld  [ %fp + -12 ], %g2
   19858:	c2 07 be dc 	ld  [ %fp + -292 ], %g1
   1985c:	82 00 80 01 	add  %g2, %g1, %g1
   19860:	c2 27 bf f4 	st  %g1, [ %fp + -12 ]
   19864:	c4 07 bf f0 	ld  [ %fp + -16 ], %g2
   19868:	c2 07 be dc 	ld  [ %fp + -292 ], %g1
   1986c:	82 20 80 01 	sub  %g2, %g1, %g1
   19870:	c2 27 bf f0 	st  %g1, [ %fp + -16 ]
   19874:	10 bf ff 64 	b  19604 <expandenvvar+0x84>
   19878:	01 00 00 00 	nop 
   1987c:	c2 07 bf f0 	ld  [ %fp + -16 ], %g1
   19880:	80 a0 60 00 	cmp  %g1, 0
   19884:	14 80 00 0c 	bg  198b4 <expandenvvar+0x334>
   19888:	01 00 00 00 	nop 
   1988c:	03 00 00 b3 	sethi  %hi(0x2cc00), %g1
   19890:	82 10 62 40 	or  %g1, 0x240, %g1	! 2ce40 <stderr@@GLIBC_2.0>
   19894:	d0 00 40 00 	ld  [ %g1 ], %o0
   19898:	03 00 00 6c 	sethi  %hi(0x1b000), %g1
   1989c:	92 10 60 f0 	or  %g1, 0xf0, %o1	! 1b0f0 <invalid_date+0x140>
   198a0:	40 00 4a d6 	call  2c3f8 <fprintf@plt>
   198a4:	01 00 00 00 	nop 
   198a8:	c0 27 be d8 	clr  [ %fp + -296 ]
   198ac:	10 80 00 16 	b  19904 <expandenvvar+0x384>
   198b0:	01 00 00 00 	nop 
   198b4:	88 07 bf f4 	add  %fp, -12, %g4
   198b8:	c4 01 00 00 	ld  [ %g4 ], %g2
   198bc:	c2 07 a0 44 	ld  [ %fp + 0x44 ], %g1
   198c0:	c6 08 40 00 	ldub  [ %g1 ], %g3
   198c4:	82 00 60 01 	inc  %g1
   198c8:	c2 27 a0 44 	st  %g1, [ %fp + 0x44 ]
   198cc:	82 10 00 02 	mov  %g2, %g1
   198d0:	c6 28 40 00 	stb  %g3, [ %g1 ]
   198d4:	84 00 a0 01 	inc  %g2
   198d8:	c4 21 00 00 	st  %g2, [ %g4 ]
   198dc:	c2 07 bf f0 	ld  [ %fp + -16 ], %g1
   198e0:	82 00 7f ff 	add  %g1, -1, %g1
   198e4:	c2 27 bf f0 	st  %g1, [ %fp + -16 ]
   198e8:	10 bf ff 47 	b  19604 <expandenvvar+0x84>
   198ec:	01 00 00 00 	nop 
   198f0:	c2 07 bf f4 	ld  [ %fp + -12 ], %g1
   198f4:	c0 28 40 00 	clrb  [ %g1 ]
   198f8:	03 00 00 b4 	sethi  %hi(0x2d000), %g1
   198fc:	82 10 62 e0 	or  %g1, 0x2e0, %g1	! 2d2e0 <newcmd.0>
   19900:	c2 27 be d8 	st  %g1, [ %fp + -296 ]
   19904:	f0 07 be d8 	ld  [ %fp + -296 ], %i0
   19908:	81 c7 e0 08 	ret 
   1990c:	81 e8 00 00 	restore 
   19910:	81 c3 e0 08 	retl 
   19914:	ae 03 c0 17 	add  %o7, %l7, %l7

00019918 <_fpadd_parts>:
_fpadd_parts():
/home/eiselekd/bcc-dir/bcc/gcc-sparc-linux-3.4.4-build/gcc/fp-bit.c:590
   19918:	9d e3 bf 98 	save  %sp, -104, %sp
isnan():
/home/eiselekd/bcc-dir/bcc/gcc-sparc-linux-3.4.4-build/gcc/fp-bit.c:164
   1991c:	c4 06 00 00 	ld  [ %i0 ], %g2
_fpadd_parts():
/home/eiselekd/bcc-dir/bcc/gcc-sparc-linux-3.4.4-build/gcc/fp-bit.c:590
   19920:	2f 00 00 49 	sethi  %hi(0x12400), %l7
   19924:	7f ff ff fb 	call  19910 <expandenvvar+0x390>
   19928:	ae 05 e3 c0 	add  %l7, 0x3c0, %l7	! 127c0 <runcmd+0x340>
/home/eiselekd/bcc-dir/bcc/gcc-sparc-linux-3.4.4-build/gcc/fp-bit.c:164
   1992c:	80 a0 a0 01 	cmp  %g2, 1
   19930:	08 80 00 84 	bleu  19b40 <_fpadd_parts+0x228>
   19934:	88 10 00 18 	mov  %i0, %g4
isnan():
   19938:	c2 06 40 00 	ld  [ %i1 ], %g1
   1993c:	80 a0 60 01 	cmp  %g1, 1
   19940:	08 80 00 80 	bleu  19b40 <_fpadd_parts+0x228>
   19944:	b0 10 00 19 	mov  %i1, %i0
_fpadd_parts():
/home/eiselekd/bcc-dir/bcc/gcc-sparc-linux-3.4.4-build/gcc/fp-bit.c:170
   19948:	80 a0 a0 04 	cmp  %g2, 4
   1994c:	12 80 00 0c 	bne  1997c <_fpadd_parts+0x64>
   19950:	80 a0 60 04 	cmp  %g1, 4
   19954:	12 80 00 7b 	bne  19b40 <_fpadd_parts+0x228>
   19958:	b0 10 00 04 	mov  %g4, %i0
   1995c:	c4 06 60 04 	ld  [ %i1 + 4 ], %g2
   19960:	c2 01 20 04 	ld  [ %g4 + 4 ], %g1
   19964:	80 a0 40 02 	cmp  %g1, %g2
   19968:	02 80 00 76 	be  19b40 <_fpadd_parts+0x228>
   1996c:	03 00 00 00 	sethi  %hi(0), %g1
nan():
/home/eiselekd/bcc-dir/bcc/gcc-sparc-linux-3.4.4-build/gcc/fp-bit.c:154
   19970:	82 10 60 08 	or  %g1, 8, %g1	! 8 <_init-0x11500>
   19974:	10 80 00 73 	b  19b40 <_fpadd_parts+0x228>
   19978:	f0 05 c0 01 	ld  [ %l7 + %g1 ], %i0
_fpadd_parts():
/home/eiselekd/bcc-dir/bcc/gcc-sparc-linux-3.4.4-build/gcc/fp-bit.c:170
   1997c:	02 80 00 71 	be  19b40 <_fpadd_parts+0x228>
   19980:	b0 10 00 19 	mov  %i1, %i0
/home/eiselekd/bcc-dir/bcc/gcc-sparc-linux-3.4.4-build/gcc/fp-bit.c:179
   19984:	80 a0 60 02 	cmp  %g1, 2
   19988:	02 80 00 48 	be  19aa8 <_fpadd_parts+0x190>
   1998c:	80 a0 a0 02 	cmp  %g2, 2
   19990:	02 80 00 6c 	be  19b40 <_fpadd_parts+0x228>
   19994:	01 00 00 00 	nop 
/home/eiselekd/bcc-dir/bcc/gcc-sparc-linux-3.4.4-build/gcc/fp-bit.c:638
   19998:	de 01 20 08 	ld  [ %g4 + 8 ], %o7
/home/eiselekd/bcc-dir/bcc/gcc-sparc-linux-3.4.4-build/gcc/fp-bit.c:639
   1999c:	c6 06 60 08 	ld  [ %i1 + 8 ], %g3
/home/eiselekd/bcc-dir/bcc/gcc-sparc-linux-3.4.4-build/gcc/fp-bit.c:643
   199a0:	82 23 c0 03 	sub  %o7, %g3, %g1
/home/eiselekd/bcc-dir/bcc/gcc-sparc-linux-3.4.4-build/gcc/fp-bit.c:646
   199a4:	85 38 60 1f 	sra  %g1, 0x1f, %g2
   199a8:	82 18 40 02 	xor  %g1, %g2, %g1
   199ac:	82 20 40 02 	sub  %g1, %g2, %g1
/home/eiselekd/bcc-dir/bcc/gcc-sparc-linux-3.4.4-build/gcc/fp-bit.c:647
   199b0:	80 a0 60 1f 	cmp  %g1, 0x1f
/home/eiselekd/bcc-dir/bcc/gcc-sparc-linux-3.4.4-build/gcc/fp-bit.c:640
   199b4:	da 01 20 0c 	ld  [ %g4 + 0xc ], %o5
/home/eiselekd/bcc-dir/bcc/gcc-sparc-linux-3.4.4-build/gcc/fp-bit.c:647
   199b8:	14 80 00 4b 	bg  19ae4 <_fpadd_parts+0x1cc>
   199bc:	d8 06 60 0c 	ld  [ %i1 + 0xc ], %o4
/home/eiselekd/bcc-dir/bcc/gcc-sparc-linux-3.4.4-build/gcc/fp-bit.c:653
   199c0:	80 a3 c0 03 	cmp  %o7, %g3
   199c4:	04 80 00 0a 	ble  199ec <_fpadd_parts+0xd4>
   199c8:	80 a0 c0 0f 	cmp  %g3, %o7
   199cc:	86 23 c0 03 	sub  %o7, %g3, %g3
   199d0:	85 33 20 01 	srl  %o4, 1, %g2
   199d4:	82 0b 20 01 	and  %o4, 1, %g1
   199d8:	86 80 ff ff 	addcc  %g3, -1, %g3
   199dc:	12 bf ff fd 	bne  199d0 <_fpadd_parts+0xb8>
   199e0:	98 10 40 02 	or  %g1, %g2, %o4
   199e4:	86 10 00 0f 	mov  %o7, %g3
/home/eiselekd/bcc-dir/bcc/gcc-sparc-linux-3.4.4-build/gcc/fp-bit.c:658
   199e8:	80 a0 c0 0f 	cmp  %g3, %o7
   199ec:	24 80 00 0a 	ble,a   19a14 <_fpadd_parts+0xfc>
   199f0:	f0 01 20 04 	ld  [ %g4 + 4 ], %i0
   199f4:	9e 20 c0 0f 	sub  %g3, %o7, %o7
   199f8:	85 33 60 01 	srl  %o5, 1, %g2
   199fc:	82 0b 60 01 	and  %o5, 1, %g1
   19a00:	9e 83 ff ff 	addcc  %o7, -1, %o7
   19a04:	12 bf ff fd 	bne  199f8 <_fpadd_parts+0xe0>
   19a08:	9a 10 40 02 	or  %g1, %g2, %o5
   19a0c:	9e 10 00 03 	mov  %g3, %o7
/home/eiselekd/bcc-dir/bcc/gcc-sparc-linux-3.4.4-build/gcc/fp-bit.c:677
   19a10:	f0 01 20 04 	ld  [ %g4 + 4 ], %i0
   19a14:	c2 06 60 04 	ld  [ %i1 + 4 ], %g1
   19a18:	80 a6 00 01 	cmp  %i0, %g1
   19a1c:	02 80 00 37 	be  19af8 <_fpadd_parts+0x1e0>
   19a20:	80 a6 20 00 	cmp  %i0, 0
/home/eiselekd/bcc-dir/bcc/gcc-sparc-linux-3.4.4-build/gcc/fp-bit.c:679
   19a24:	12 80 00 03 	bne  19a30 <_fpadd_parts+0x118>
   19a28:	82 23 00 0d 	sub  %o4, %o5, %g1
/home/eiselekd/bcc-dir/bcc/gcc-sparc-linux-3.4.4-build/gcc/fp-bit.c:685
   19a2c:	82 23 40 0c 	sub  %o5, %o4, %g1
/home/eiselekd/bcc-dir/bcc/gcc-sparc-linux-3.4.4-build/gcc/fp-bit.c:687
   19a30:	80 a0 60 00 	cmp  %g1, 0
   19a34:	06 80 00 40 	bl  19b34 <_fpadd_parts+0x21c>
   19a38:	88 20 00 01 	neg  %g1, %g4
/home/eiselekd/bcc-dir/bcc/gcc-sparc-linux-3.4.4-build/gcc/fp-bit.c:691
   19a3c:	88 10 00 01 	mov  %g1, %g4
/home/eiselekd/bcc-dir/bcc/gcc-sparc-linux-3.4.4-build/gcc/fp-bit.c:689
   19a40:	c0 26 a0 04 	clr  [ %i2 + 4 ]
/home/eiselekd/bcc-dir/bcc/gcc-sparc-linux-3.4.4-build/gcc/fp-bit.c:704
   19a44:	03 0f ff ff 	sethi  %hi(0x3ffffc00), %g1
   19a48:	84 01 3f ff 	add  %g4, -1, %g2
   19a4c:	82 10 63 fe 	or  %g1, 0x3fe, %g1
   19a50:	80 a0 80 01 	cmp  %g2, %g1
/home/eiselekd/bcc-dir/bcc/gcc-sparc-linux-3.4.4-build/gcc/fp-bit.c:696
   19a54:	86 10 00 0f 	mov  %o7, %g3
/home/eiselekd/bcc-dir/bcc/gcc-sparc-linux-3.4.4-build/gcc/fp-bit.c:697
   19a58:	b2 10 00 04 	mov  %g4, %i1
/home/eiselekd/bcc-dir/bcc/gcc-sparc-linux-3.4.4-build/gcc/fp-bit.c:704
   19a5c:	18 80 00 0b 	bgu  19a88 <_fpadd_parts+0x170>
   19a60:	84 10 00 04 	mov  %g4, %g2
   19a64:	b0 10 00 01 	mov  %g1, %i0
/home/eiselekd/bcc-dir/bcc/gcc-sparc-linux-3.4.4-build/gcc/fp-bit.c:703
   19a68:	88 00 80 02 	add  %g2, %g2, %g4
/home/eiselekd/bcc-dir/bcc/gcc-sparc-linux-3.4.4-build/gcc/fp-bit.c:704
   19a6c:	9e 00 ff ff 	add  %g3, -1, %o7
   19a70:	82 01 3f ff 	add  %g4, -1, %g1
   19a74:	80 a0 40 18 	cmp  %g1, %i0
/home/eiselekd/bcc-dir/bcc/gcc-sparc-linux-3.4.4-build/gcc/fp-bit.c:703
   19a78:	b2 10 00 04 	mov  %g4, %i1
/home/eiselekd/bcc-dir/bcc/gcc-sparc-linux-3.4.4-build/gcc/fp-bit.c:704
   19a7c:	86 10 00 0f 	mov  %o7, %g3
   19a80:	08 bf ff fa 	bleu  19a68 <_fpadd_parts+0x150>
   19a84:	84 10 00 04 	mov  %g4, %g2
/home/eiselekd/bcc-dir/bcc/gcc-sparc-linux-3.4.4-build/gcc/fp-bit.c:713
   19a88:	82 10 20 03 	mov  3, %g1
/home/eiselekd/bcc-dir/bcc/gcc-sparc-linux-3.4.4-build/gcc/fp-bit.c:717
   19a8c:	80 a6 60 00 	cmp  %i1, 0
   19a90:	06 80 00 21 	bl  19b14 <_fpadd_parts+0x1fc>
   19a94:	c2 26 80 00 	st  %g1, [ %i2 ]
   19a98:	c8 26 a0 0c 	st  %g4, [ %i2 + 0xc ]
   19a9c:	de 26 a0 08 	st  %o7, [ %i2 + 8 ]
/home/eiselekd/bcc-dir/bcc/gcc-sparc-linux-3.4.4-build/gcc/fp-bit.c:722
   19aa0:	10 80 00 28 	b  19b40 <_fpadd_parts+0x228>
   19aa4:	b0 10 00 1a 	mov  %i2, %i0
/home/eiselekd/bcc-dir/bcc/gcc-sparc-linux-3.4.4-build/gcc/fp-bit.c:179
   19aa8:	12 80 00 26 	bne  19b40 <_fpadd_parts+0x228>
   19aac:	b0 10 00 04 	mov  %g4, %i0
/home/eiselekd/bcc-dir/bcc/gcc-sparc-linux-3.4.4-build/gcc/fp-bit.c:622
   19ab0:	c4 26 80 00 	st  %g2, [ %i2 ]
   19ab4:	c2 01 20 04 	ld  [ %g4 + 4 ], %g1
   19ab8:	c2 26 a0 04 	st  %g1, [ %i2 + 4 ]
   19abc:	c4 01 20 08 	ld  [ %g4 + 8 ], %g2
   19ac0:	c4 26 a0 08 	st  %g2, [ %i2 + 8 ]
   19ac4:	c6 01 20 0c 	ld  [ %g4 + 0xc ], %g3
   19ac8:	c6 26 a0 0c 	st  %g3, [ %i2 + 0xc ]
/home/eiselekd/bcc-dir/bcc/gcc-sparc-linux-3.4.4-build/gcc/fp-bit.c:623
   19acc:	c2 01 20 04 	ld  [ %g4 + 4 ], %g1
   19ad0:	c4 06 60 04 	ld  [ %i1 + 4 ], %g2
   19ad4:	82 08 40 02 	and  %g1, %g2, %g1
   19ad8:	c2 26 a0 04 	st  %g1, [ %i2 + 4 ]
/home/eiselekd/bcc-dir/bcc/gcc-sparc-linux-3.4.4-build/gcc/fp-bit.c:722
   19adc:	10 80 00 19 	b  19b40 <_fpadd_parts+0x228>
   19ae0:	b0 10 00 1a 	mov  %i2, %i0
/home/eiselekd/bcc-dir/bcc/gcc-sparc-linux-3.4.4-build/gcc/fp-bit.c:664
   19ae4:	80 a3 c0 03 	cmp  %o7, %g3
   19ae8:	24 80 00 09 	ble,a   19b0c <_fpadd_parts+0x1f4>
   19aec:	9e 10 00 03 	mov  %g3, %o7
/home/eiselekd/bcc-dir/bcc/gcc-sparc-linux-3.4.4-build/gcc/fp-bit.c:667
   19af0:	10 bf ff c8 	b  19a10 <_fpadd_parts+0xf8>
   19af4:	98 10 20 00 	clr  %o4
/home/eiselekd/bcc-dir/bcc/gcc-sparc-linux-3.4.4-build/gcc/fp-bit.c:711
   19af8:	88 03 40 0c 	add  %o5, %o4, %g4
/home/eiselekd/bcc-dir/bcc/gcc-sparc-linux-3.4.4-build/gcc/fp-bit.c:709
   19afc:	f0 26 a0 04 	st  %i0, [ %i2 + 4 ]
/home/eiselekd/bcc-dir/bcc/gcc-sparc-linux-3.4.4-build/gcc/fp-bit.c:710
   19b00:	86 10 00 0f 	mov  %o7, %g3
/home/eiselekd/bcc-dir/bcc/gcc-sparc-linux-3.4.4-build/gcc/fp-bit.c:711
   19b04:	10 bf ff e1 	b  19a88 <_fpadd_parts+0x170>
   19b08:	b2 10 00 04 	mov  %g4, %i1
/home/eiselekd/bcc-dir/bcc/gcc-sparc-linux-3.4.4-build/gcc/fp-bit.c:672
   19b0c:	10 bf ff c1 	b  19a10 <_fpadd_parts+0xf8>
   19b10:	9a 10 20 00 	clr  %o5
/home/eiselekd/bcc-dir/bcc/gcc-sparc-linux-3.4.4-build/gcc/fp-bit.c:719
   19b14:	83 36 60 01 	srl  %i1, 1, %g1
   19b18:	84 0e 60 01 	and  %i1, 1, %g2
   19b1c:	84 10 80 01 	or  %g2, %g1, %g2
/home/eiselekd/bcc-dir/bcc/gcc-sparc-linux-3.4.4-build/gcc/fp-bit.c:720
   19b20:	86 00 e0 01 	inc  %g3
/home/eiselekd/bcc-dir/bcc/gcc-sparc-linux-3.4.4-build/gcc/fp-bit.c:719
   19b24:	c4 26 a0 0c 	st  %g2, [ %i2 + 0xc ]
/home/eiselekd/bcc-dir/bcc/gcc-sparc-linux-3.4.4-build/gcc/fp-bit.c:720
   19b28:	c6 26 a0 08 	st  %g3, [ %i2 + 8 ]
/home/eiselekd/bcc-dir/bcc/gcc-sparc-linux-3.4.4-build/gcc/fp-bit.c:722
   19b2c:	10 80 00 05 	b  19b40 <_fpadd_parts+0x228>
   19b30:	b0 10 00 1a 	mov  %i2, %i0
/home/eiselekd/bcc-dir/bcc/gcc-sparc-linux-3.4.4-build/gcc/fp-bit.c:695
   19b34:	82 10 20 01 	mov  1, %g1
   19b38:	10 bf ff c3 	b  19a44 <_fpadd_parts+0x12c>
   19b3c:	c2 26 a0 04 	st  %g1, [ %i2 + 4 ]
   19b40:	81 c7 e0 08 	ret 
   19b44:	81 e8 00 00 	restore 

00019b48 <__addsf3>:
__addsf3():
/home/eiselekd/bcc-dir/bcc/gcc-sparc-linux-3.4.4-build/gcc/fp-bit.c:728
   19b48:	9d e3 bf 60 	save  %sp, -160, %sp
/home/eiselekd/bcc-dir/bcc/gcc-sparc-linux-3.4.4-build/gcc/fp-bit.c:738
   19b4c:	a2 07 bf e8 	add  %fp, -24, %l1
/home/eiselekd/bcc-dir/bcc/gcc-sparc-linux-3.4.4-build/gcc/fp-bit.c:735
   19b50:	f0 27 bf c4 	st  %i0, [ %fp + -60 ]
/home/eiselekd/bcc-dir/bcc/gcc-sparc-linux-3.4.4-build/gcc/fp-bit.c:738
   19b54:	90 07 bf c4 	add  %fp, -60, %o0
   19b58:	92 10 00 11 	mov  %l1, %o1
   19b5c:	40 00 01 c5 	call  1a270 <__unpack_f>
   19b60:	f2 27 bf c0 	st  %i1, [ %fp + -64 ]
/home/eiselekd/bcc-dir/bcc/gcc-sparc-linux-3.4.4-build/gcc/fp-bit.c:739
   19b64:	a0 07 bf d8 	add  %fp, -40, %l0
   19b68:	90 07 bf c0 	add  %fp, -64, %o0
   19b6c:	40 00 01 c1 	call  1a270 <__unpack_f>
   19b70:	92 10 00 10 	mov  %l0, %o1
/home/eiselekd/bcc-dir/bcc/gcc-sparc-linux-3.4.4-build/gcc/fp-bit.c:741
   19b74:	92 10 00 10 	mov  %l0, %o1
   19b78:	94 07 bf c8 	add  %fp, -56, %o2
   19b7c:	7f ff ff 67 	call  19918 <_fpadd_parts>
   19b80:	90 10 00 11 	mov  %l1, %o0
/home/eiselekd/bcc-dir/bcc/gcc-sparc-linux-3.4.4-build/gcc/fp-bit.c:743
   19b84:	40 00 01 69 	call  1a128 <__pack_f>
   19b88:	01 00 00 00 	nop 
   19b8c:	81 c7 e0 08 	ret 
   19b90:	91 e8 00 08 	restore  %g0, %o0, %o0

00019b94 <__subsf3>:
__subsf3():
/home/eiselekd/bcc-dir/bcc/gcc-sparc-linux-3.4.4-build/gcc/fp-bit.c:748
   19b94:	9d e3 bf 60 	save  %sp, -160, %sp
/home/eiselekd/bcc-dir/bcc/gcc-sparc-linux-3.4.4-build/gcc/fp-bit.c:758
   19b98:	a2 07 bf e8 	add  %fp, -24, %l1
/home/eiselekd/bcc-dir/bcc/gcc-sparc-linux-3.4.4-build/gcc/fp-bit.c:755
   19b9c:	f0 27 bf c4 	st  %i0, [ %fp + -60 ]
/home/eiselekd/bcc-dir/bcc/gcc-sparc-linux-3.4.4-build/gcc/fp-bit.c:758
   19ba0:	90 07 bf c4 	add  %fp, -60, %o0
   19ba4:	92 10 00 11 	mov  %l1, %o1
   19ba8:	40 00 01 b2 	call  1a270 <__unpack_f>
   19bac:	f2 27 bf c0 	st  %i1, [ %fp + -64 ]
/home/eiselekd/bcc-dir/bcc/gcc-sparc-linux-3.4.4-build/gcc/fp-bit.c:759
   19bb0:	a0 07 bf d8 	add  %fp, -40, %l0
   19bb4:	90 07 bf c0 	add  %fp, -64, %o0
   19bb8:	40 00 01 ae 	call  1a270 <__unpack_f>
   19bbc:	92 10 00 10 	mov  %l0, %o1
/home/eiselekd/bcc-dir/bcc/gcc-sparc-linux-3.4.4-build/gcc/fp-bit.c:761
   19bc0:	c2 07 bf dc 	ld  [ %fp + -36 ], %g1
   19bc4:	82 18 60 01 	xor  %g1, 1, %g1
   19bc8:	c2 27 bf dc 	st  %g1, [ %fp + -36 ]
/home/eiselekd/bcc-dir/bcc/gcc-sparc-linux-3.4.4-build/gcc/fp-bit.c:763
   19bcc:	92 10 00 10 	mov  %l0, %o1
   19bd0:	94 07 bf c8 	add  %fp, -56, %o2
   19bd4:	7f ff ff 51 	call  19918 <_fpadd_parts>
   19bd8:	90 10 00 11 	mov  %l1, %o0
/home/eiselekd/bcc-dir/bcc/gcc-sparc-linux-3.4.4-build/gcc/fp-bit.c:765
   19bdc:	40 00 01 53 	call  1a128 <__pack_f>
   19be0:	01 00 00 00 	nop 
   19be4:	81 c7 e0 08 	ret 
   19be8:	91 e8 00 08 	restore  %g0, %o0, %o0
   19bec:	81 c3 e0 08 	retl 
   19bf0:	ae 03 c0 17 	add  %o7, %l7, %l7

00019bf4 <__mulsf3>:
__mulsf3():
/home/eiselekd/bcc-dir/bcc/gcc-sparc-linux-3.4.4-build/gcc/fp-bit.c:938
   19bf4:	9d e3 bf 60 	save  %sp, -160, %sp
/home/eiselekd/bcc-dir/bcc/gcc-sparc-linux-3.4.4-build/gcc/fp-bit.c:948
   19bf8:	a0 07 bf e8 	add  %fp, -24, %l0
/home/eiselekd/bcc-dir/bcc/gcc-sparc-linux-3.4.4-build/gcc/fp-bit.c:938
   19bfc:	2f 00 00 49 	sethi  %hi(0x12400), %l7
   19c00:	7f ff ff fb 	call  19bec <__subsf3+0x58>
   19c04:	ae 05 e0 e4 	add  %l7, 0xe4, %l7	! 124e4 <runcmd+0x64>
/home/eiselekd/bcc-dir/bcc/gcc-sparc-linux-3.4.4-build/gcc/fp-bit.c:946
   19c08:	f2 27 bf c0 	st  %i1, [ %fp + -64 ]
/home/eiselekd/bcc-dir/bcc/gcc-sparc-linux-3.4.4-build/gcc/fp-bit.c:948
   19c0c:	90 07 bf c4 	add  %fp, -60, %o0
   19c10:	92 10 00 10 	mov  %l0, %o1
   19c14:	40 00 01 97 	call  1a270 <__unpack_f>
   19c18:	f0 27 bf c4 	st  %i0, [ %fp + -60 ]
/home/eiselekd/bcc-dir/bcc/gcc-sparc-linux-3.4.4-build/gcc/fp-bit.c:949
   19c1c:	b2 07 bf d8 	add  %fp, -40, %i1
   19c20:	90 07 bf c0 	add  %fp, -64, %o0
   19c24:	40 00 01 93 	call  1a270 <__unpack_f>
   19c28:	92 10 00 19 	mov  %i1, %o1
isnan():
/home/eiselekd/bcc-dir/bcc/gcc-sparc-linux-3.4.4-build/gcc/fp-bit.c:164
   19c2c:	c2 07 bf e8 	ld  [ %fp + -24 ], %g1
   19c30:	80 a0 60 01 	cmp  %g1, 1
   19c34:	08 80 00 12 	bleu  19c7c <__mulsf3+0x88>
   19c38:	90 07 bf c8 	add  %fp, -56, %o0
   19c3c:	c4 07 bf d8 	ld  [ %fp + -40 ], %g2
   19c40:	80 a0 a0 01 	cmp  %g2, 1
   19c44:	28 80 00 1b 	bleu,a   19cb0 <__mulsf3+0xbc>
   19c48:	c4 07 bf dc 	ld  [ %fp + -36 ], %g2
_fpmul_parts():
/home/eiselekd/bcc-dir/bcc/gcc-sparc-linux-3.4.4-build/gcc/fp-bit.c:170
   19c4c:	80 a0 60 04 	cmp  %g1, 4
   19c50:	12 80 00 13 	bne  19c9c <__mulsf3+0xa8>
   19c54:	80 a0 a0 04 	cmp  %g2, 4
/home/eiselekd/bcc-dir/bcc/gcc-sparc-linux-3.4.4-build/gcc/fp-bit.c:179
   19c58:	80 a0 a0 02 	cmp  %g2, 2
   19c5c:	12 80 00 09 	bne  19c80 <__mulsf3+0x8c>
   19c60:	c2 07 bf ec 	ld  [ %fp + -20 ], %g1
nan():
/home/eiselekd/bcc-dir/bcc/gcc-sparc-linux-3.4.4-build/gcc/fp-bit.c:154
   19c64:	03 00 00 00 	sethi  %hi(0), %g1
   19c68:	82 10 60 08 	or  %g1, 8, %g1	! 8 <_init-0x11500>
   19c6c:	10 80 00 58 	b  19dcc <__mulsf3+0x1d8>
   19c70:	d0 05 c0 01 	ld  [ %l7 + %g1 ], %o0
_fpmul_parts():
/home/eiselekd/bcc-dir/bcc/gcc-sparc-linux-3.4.4-build/gcc/fp-bit.c:179
   19c74:	12 80 00 16 	bne  19ccc <__mulsf3+0xd8>
   19c78:	80 a0 a0 02 	cmp  %g2, 2
/home/eiselekd/bcc-dir/bcc/gcc-sparc-linux-3.4.4-build/gcc/fp-bit.c:806
   19c7c:	c2 07 bf ec 	ld  [ %fp + -20 ], %g1
   19c80:	c4 07 bf dc 	ld  [ %fp + -36 ], %g2
   19c84:	82 18 40 02 	xor  %g1, %g2, %g1
   19c88:	80 a0 00 01 	cmp  %g0, %g1
   19c8c:	84 40 20 00 	addx  %g0, 0, %g2
   19c90:	c4 27 bf ec 	st  %g2, [ %fp + -20 ]
   19c94:	10 80 00 4e 	b  19dcc <__mulsf3+0x1d8>
   19c98:	90 10 00 10 	mov  %l0, %o0
/home/eiselekd/bcc-dir/bcc/gcc-sparc-linux-3.4.4-build/gcc/fp-bit.c:170
   19c9c:	12 bf ff f6 	bne  19c74 <__mulsf3+0x80>
   19ca0:	80 a0 60 02 	cmp  %g1, 2
/home/eiselekd/bcc-dir/bcc/gcc-sparc-linux-3.4.4-build/gcc/fp-bit.c:179
   19ca4:	02 bf ff f1 	be  19c68 <__mulsf3+0x74>
   19ca8:	03 00 00 00 	sethi  %hi(0), %g1
/home/eiselekd/bcc-dir/bcc/gcc-sparc-linux-3.4.4-build/gcc/fp-bit.c:811
   19cac:	c4 07 bf dc 	ld  [ %fp + -36 ], %g2
   19cb0:	c2 07 bf ec 	ld  [ %fp + -20 ], %g1
   19cb4:	82 18 40 02 	xor  %g1, %g2, %g1
   19cb8:	80 a0 00 01 	cmp  %g0, %g1
   19cbc:	84 40 20 00 	addx  %g0, 0, %g2
   19cc0:	c4 27 bf dc 	st  %g2, [ %fp + -36 ]
   19cc4:	10 80 00 42 	b  19dcc <__mulsf3+0x1d8>
   19cc8:	90 10 00 19 	mov  %i1, %o0
/home/eiselekd/bcc-dir/bcc/gcc-sparc-linux-3.4.4-build/gcc/fp-bit.c:179
   19ccc:	02 bf ff f9 	be  19cb0 <__mulsf3+0xbc>
   19cd0:	c4 07 bf dc 	ld  [ %fp + -36 ], %g2
/home/eiselekd/bcc-dir/bcc/gcc-sparc-linux-3.4.4-build/gcc/fp-bit.c:847
   19cd4:	c2 07 bf e4 	ld  [ %fp + -28 ], %g1
   19cd8:	d8 07 bf f4 	ld  [ %fp + -12 ], %o4
   19cdc:	9a 53 00 01 	umul  %o4, %g1, %o5
   19ce0:	99 40 00 00 	rd  %y, %o4
/home/eiselekd/bcc-dir/bcc/gcc-sparc-linux-3.4.4-build/gcc/fp-bit.c:883
   19ce4:	c8 07 bf dc 	ld  [ %fp + -36 ], %g4
   19ce8:	c2 07 bf ec 	ld  [ %fp + -20 ], %g1
   19cec:	82 18 40 04 	xor  %g1, %g4, %g1
   19cf0:	80 a0 00 01 	cmp  %g0, %g1
/home/eiselekd/bcc-dir/bcc/gcc-sparc-linux-3.4.4-build/gcc/fp-bit.c:881
   19cf4:	c8 07 bf f0 	ld  [ %fp + -16 ], %g4
   19cf8:	c2 07 bf e0 	ld  [ %fp + -32 ], %g1
   19cfc:	88 01 00 01 	add  %g4, %g1, %g4
/home/eiselekd/bcc-dir/bcc/gcc-sparc-linux-3.4.4-build/gcc/fp-bit.c:849
   19d00:	86 10 00 0c 	mov  %o4, %g3
/home/eiselekd/bcc-dir/bcc/gcc-sparc-linux-3.4.4-build/gcc/fp-bit.c:883
   19d04:	96 40 20 00 	addx  %g0, 0, %o3
/home/eiselekd/bcc-dir/bcc/gcc-sparc-linux-3.4.4-build/gcc/fp-bit.c:881
   19d08:	88 01 20 02 	add  %g4, 2, %g4
/home/eiselekd/bcc-dir/bcc/gcc-sparc-linux-3.4.4-build/gcc/fp-bit.c:849
   19d0c:	84 10 00 03 	mov  %g3, %g2
/home/eiselekd/bcc-dir/bcc/gcc-sparc-linux-3.4.4-build/gcc/fp-bit.c:883
   19d10:	d6 27 bf cc 	st  %o3, [ %fp + -52 ]
/home/eiselekd/bcc-dir/bcc/gcc-sparc-linux-3.4.4-build/gcc/fp-bit.c:850
   19d14:	98 10 00 0d 	mov  %o5, %o4
/home/eiselekd/bcc-dir/bcc/gcc-sparc-linux-3.4.4-build/gcc/fp-bit.c:892
   19d18:	80 a0 e0 00 	cmp  %g3, 0
   19d1c:	06 80 00 1c 	bl  19d8c <__mulsf3+0x198>
   19d20:	c8 27 bf d0 	st  %g4, [ %fp + -48 ]
/home/eiselekd/bcc-dir/bcc/gcc-sparc-linux-3.4.4-build/gcc/fp-bit.c:901
   19d24:	03 0f ff ff 	sethi  %hi(0x3ffffc00), %g1
   19d28:	82 10 63 ff 	or  %g1, 0x3ff, %g1	! 3fffffff <_end+0x3ffd29af>
   19d2c:	80 a0 80 01 	cmp  %g2, %g1
   19d30:	38 80 00 10 	bgu,a   19d70 <__mulsf3+0x17c>
   19d34:	82 08 a0 7f 	and  %g2, 0x7f, %g1
   19d38:	10 80 00 05 	b  19d4c <__mulsf3+0x158>
   19d3c:	c8 02 20 08 	ld  [ %o0 + 8 ], %g4
   19d40:	80 a0 80 01 	cmp  %g2, %g1
   19d44:	38 80 00 0a 	bgu,a   19d6c <__mulsf3+0x178>
   19d48:	c6 22 20 08 	st  %g3, [ %o0 + 8 ]
/home/eiselekd/bcc-dir/bcc/gcc-sparc-linux-3.4.4-build/gcc/fp-bit.c:896
   19d4c:	86 01 3f ff 	add  %g4, -1, %g3
/home/eiselekd/bcc-dir/bcc/gcc-sparc-linux-3.4.4-build/gcc/fp-bit.c:899
   19d50:	80 a3 20 00 	cmp  %o4, 0
/home/eiselekd/bcc-dir/bcc/gcc-sparc-linux-3.4.4-build/gcc/fp-bit.c:898
   19d54:	84 00 80 02 	add  %g2, %g2, %g2
/home/eiselekd/bcc-dir/bcc/gcc-sparc-linux-3.4.4-build/gcc/fp-bit.c:901
   19d58:	98 03 00 0c 	add  %o4, %o4, %o4
/home/eiselekd/bcc-dir/bcc/gcc-sparc-linux-3.4.4-build/gcc/fp-bit.c:899
   19d5c:	16 bf ff f9 	bge  19d40 <__mulsf3+0x14c>
   19d60:	88 10 00 03 	mov  %g3, %g4
/home/eiselekd/bcc-dir/bcc/gcc-sparc-linux-3.4.4-build/gcc/fp-bit.c:900
   19d64:	10 bf ff f7 	b  19d40 <__mulsf3+0x14c>
   19d68:	84 10 a0 01 	or  %g2, 1, %g2
/home/eiselekd/bcc-dir/bcc/gcc-sparc-linux-3.4.4-build/gcc/fp-bit.c:918
   19d6c:	82 08 a0 7f 	and  %g2, 0x7f, %g1
   19d70:	80 a0 60 40 	cmp  %g1, 0x40
   19d74:	02 80 00 0f 	be  19db0 <__mulsf3+0x1bc>
   19d78:	80 88 a0 80 	btst  0x80, %g2
/home/eiselekd/bcc-dir/bcc/gcc-sparc-linux-3.4.4-build/gcc/fp-bit.c:932
   19d7c:	82 10 20 03 	mov  3, %g1
/home/eiselekd/bcc-dir/bcc/gcc-sparc-linux-3.4.4-build/gcc/fp-bit.c:931
   19d80:	c4 22 20 0c 	st  %g2, [ %o0 + 0xc ]
/home/eiselekd/bcc-dir/bcc/gcc-sparc-linux-3.4.4-build/gcc/fp-bit.c:932
   19d84:	10 80 00 12 	b  19dcc <__mulsf3+0x1d8>
   19d88:	c2 22 00 00 	st  %g1, [ %o0 ]
/home/eiselekd/bcc-dir/bcc/gcc-sparc-linux-3.4.4-build/gcc/fp-bit.c:887
   19d8c:	80 88 e0 01 	btst  1, %g3
   19d90:	02 80 00 05 	be  19da4 <__mulsf3+0x1b0>
   19d94:	88 01 20 01 	inc  %g4
/home/eiselekd/bcc-dir/bcc/gcc-sparc-linux-3.4.4-build/gcc/fp-bit.c:889
   19d98:	99 33 60 01 	srl  %o5, 1, %o4
/home/eiselekd/bcc-dir/bcc/gcc-sparc-linux-3.4.4-build/gcc/fp-bit.c:890
   19d9c:	03 20 00 00 	sethi  %hi(0x80000000), %g1
   19da0:	98 13 00 01 	or  %o4, %g1, %o4
/home/eiselekd/bcc-dir/bcc/gcc-sparc-linux-3.4.4-build/gcc/fp-bit.c:892
   19da4:	85 30 a0 01 	srl  %g2, 1, %g2
   19da8:	10 bf ff df 	b  19d24 <__mulsf3+0x130>
   19dac:	c8 22 20 08 	st  %g4, [ %o0 + 8 ]
/home/eiselekd/bcc-dir/bcc/gcc-sparc-linux-3.4.4-build/gcc/fp-bit.c:920
   19db0:	32 bf ff f3 	bne,a   19d7c <__mulsf3+0x188>
   19db4:	84 00 a0 40 	add  %g2, 0x40, %g2
/home/eiselekd/bcc-dir/bcc/gcc-sparc-linux-3.4.4-build/gcc/fp-bit.c:925
   19db8:	80 a3 20 00 	cmp  %o4, 0
   19dbc:	02 bf ff f1 	be  19d80 <__mulsf3+0x18c>
   19dc0:	82 10 20 03 	mov  3, %g1
/home/eiselekd/bcc-dir/bcc/gcc-sparc-linux-3.4.4-build/gcc/fp-bit.c:928
   19dc4:	10 bf ff ef 	b  19d80 <__mulsf3+0x18c>
   19dc8:	84 00 a0 40 	add  %g2, 0x40, %g2
__mulsf3():
/home/eiselekd/bcc-dir/bcc/gcc-sparc-linux-3.4.4-build/gcc/fp-bit.c:953
   19dcc:	40 00 00 d7 	call  1a128 <__pack_f>
   19dd0:	01 00 00 00 	nop 
   19dd4:	81 c7 e0 08 	ret 
   19dd8:	91 e8 00 08 	restore  %g0, %o0, %o0
   19ddc:	81 c3 e0 08 	retl 
   19de0:	ae 03 c0 17 	add  %o7, %l7, %l7

00019de4 <__divsf3>:
__divsf3():
/home/eiselekd/bcc-dir/bcc/gcc-sparc-linux-3.4.4-build/gcc/fp-bit.c:1049
   19de4:	9d e3 bf 70 	save  %sp, -144, %sp
/home/eiselekd/bcc-dir/bcc/gcc-sparc-linux-3.4.4-build/gcc/fp-bit.c:1058
   19de8:	a0 07 bf e8 	add  %fp, -24, %l0
/home/eiselekd/bcc-dir/bcc/gcc-sparc-linux-3.4.4-build/gcc/fp-bit.c:1049
   19dec:	2f 00 00 48 	sethi  %hi(0x12000), %l7
   19df0:	7f ff ff fb 	call  19ddc <__mulsf3+0x1e8>
   19df4:	ae 05 e2 f4 	add  %l7, 0x2f4, %l7	! 122f4 <trybuiltin+0x120>
/home/eiselekd/bcc-dir/bcc/gcc-sparc-linux-3.4.4-build/gcc/fp-bit.c:1056
   19df8:	f2 27 bf d0 	st  %i1, [ %fp + -48 ]
/home/eiselekd/bcc-dir/bcc/gcc-sparc-linux-3.4.4-build/gcc/fp-bit.c:1058
   19dfc:	90 07 bf d4 	add  %fp, -44, %o0
   19e00:	92 10 00 10 	mov  %l0, %o1
   19e04:	40 00 01 1b 	call  1a270 <__unpack_f>
   19e08:	f0 27 bf d4 	st  %i0, [ %fp + -44 ]
/home/eiselekd/bcc-dir/bcc/gcc-sparc-linux-3.4.4-build/gcc/fp-bit.c:1059
   19e0c:	b2 07 bf d8 	add  %fp, -40, %i1
   19e10:	90 07 bf d0 	add  %fp, -48, %o0
   19e14:	40 00 01 17 	call  1a270 <__unpack_f>
   19e18:	92 10 00 19 	mov  %i1, %o1
isnan():
/home/eiselekd/bcc-dir/bcc/gcc-sparc-linux-3.4.4-build/gcc/fp-bit.c:164
   19e1c:	c6 07 bf e8 	ld  [ %fp + -24 ], %g3
   19e20:	80 a0 e0 01 	cmp  %g3, 1
   19e24:	08 80 00 48 	bleu  19f44 <__divsf3+0x160>
   19e28:	90 10 00 10 	mov  %l0, %o0
   19e2c:	c8 07 bf d8 	ld  [ %fp + -40 ], %g4
   19e30:	80 a1 20 01 	cmp  %g4, 1
   19e34:	08 80 00 44 	bleu  19f44 <__divsf3+0x160>
   19e38:	90 10 00 19 	mov  %i1, %o0
_fpdiv_parts():
/home/eiselekd/bcc-dir/bcc/gcc-sparc-linux-3.4.4-build/gcc/fp-bit.c:976
   19e3c:	c2 07 bf ec 	ld  [ %fp + -20 ], %g1
   19e40:	c4 07 bf dc 	ld  [ %fp + -36 ], %g2
   19e44:	82 18 40 02 	xor  %g1, %g2, %g1
/home/eiselekd/bcc-dir/bcc/gcc-sparc-linux-3.4.4-build/gcc/fp-bit.c:170
   19e48:	80 a0 e0 04 	cmp  %g3, 4
   19e4c:	02 80 00 0f 	be  19e88 <__divsf3+0xa4>
   19e50:	c2 27 bf ec 	st  %g1, [ %fp + -20 ]
/home/eiselekd/bcc-dir/bcc/gcc-sparc-linux-3.4.4-build/gcc/fp-bit.c:179
   19e54:	80 a0 e0 02 	cmp  %g3, 2
   19e58:	02 80 00 0d 	be  19e8c <__divsf3+0xa8>
   19e5c:	80 a0 c0 04 	cmp  %g3, %g4
/home/eiselekd/bcc-dir/bcc/gcc-sparc-linux-3.4.4-build/gcc/fp-bit.c:170
   19e60:	80 a1 20 04 	cmp  %g4, 4
   19e64:	22 80 00 10 	be,a   19ea4 <__divsf3+0xc0>
   19e68:	c0 27 bf f4 	clr  [ %fp + -12 ]
/home/eiselekd/bcc-dir/bcc/gcc-sparc-linux-3.4.4-build/gcc/fp-bit.c:179
   19e6c:	80 a1 20 02 	cmp  %g4, 2
   19e70:	12 80 00 10 	bne  19eb0 <__divsf3+0xcc>
   19e74:	c6 07 bf f4 	ld  [ %fp + -12 ], %g3
/home/eiselekd/bcc-dir/bcc/gcc-sparc-linux-3.4.4-build/gcc/fp-bit.c:993
   19e78:	82 10 20 04 	mov  4, %g1
   19e7c:	c2 27 bf e8 	st  %g1, [ %fp + -24 ]
/home/eiselekd/bcc-dir/bcc/gcc-sparc-linux-3.4.4-build/gcc/fp-bit.c:1042
   19e80:	10 80 00 31 	b  19f44 <__divsf3+0x160>
   19e84:	90 10 00 10 	mov  %l0, %o0
/home/eiselekd/bcc-dir/bcc/gcc-sparc-linux-3.4.4-build/gcc/fp-bit.c:980
   19e88:	80 a0 c0 04 	cmp  %g3, %g4
   19e8c:	12 80 00 2e 	bne  19f44 <__divsf3+0x160>
   19e90:	90 10 00 10 	mov  %l0, %o0
nan():
/home/eiselekd/bcc-dir/bcc/gcc-sparc-linux-3.4.4-build/gcc/fp-bit.c:154
   19e94:	03 00 00 00 	sethi  %hi(0), %g1
   19e98:	82 10 60 08 	or  %g1, 8, %g1	! 8 <_init-0x11500>
   19e9c:	10 80 00 2a 	b  19f44 <__divsf3+0x160>
   19ea0:	d0 05 c0 01 	ld  [ %l7 + %g1 ], %o0
_fpdiv_parts():
/home/eiselekd/bcc-dir/bcc/gcc-sparc-linux-3.4.4-build/gcc/fp-bit.c:988
   19ea4:	c0 27 bf f0 	clr  [ %fp + -16 ]
/home/eiselekd/bcc-dir/bcc/gcc-sparc-linux-3.4.4-build/gcc/fp-bit.c:1042
   19ea8:	10 80 00 27 	b  19f44 <__divsf3+0x160>
   19eac:	90 10 00 10 	mov  %l0, %o0
/home/eiselekd/bcc-dir/bcc/gcc-sparc-linux-3.4.4-build/gcc/fp-bit.c:1006
   19eb0:	c8 07 bf e4 	ld  [ %fp + -28 ], %g4
/home/eiselekd/bcc-dir/bcc/gcc-sparc-linux-3.4.4-build/gcc/fp-bit.c:1004
   19eb4:	c4 07 bf f0 	ld  [ %fp + -16 ], %g2
   19eb8:	c2 07 bf e0 	ld  [ %fp + -32 ], %g1
/home/eiselekd/bcc-dir/bcc/gcc-sparc-linux-3.4.4-build/gcc/fp-bit.c:1008
   19ebc:	80 a0 c0 04 	cmp  %g3, %g4
   19ec0:	1a 80 00 1f 	bcc  19f3c <__divsf3+0x158>
   19ec4:	82 20 80 01 	sub  %g2, %g1, %g1
/home/eiselekd/bcc-dir/bcc/gcc-sparc-linux-3.4.4-build/gcc/fp-bit.c:1012
   19ec8:	82 00 7f ff 	add  %g1, -1, %g1
   19ecc:	c2 27 bf f0 	st  %g1, [ %fp + -16 ]
/home/eiselekd/bcc-dir/bcc/gcc-sparc-linux-3.4.4-build/gcc/fp-bit.c:1011
   19ed0:	86 00 c0 03 	add  %g3, %g3, %g3
/home/eiselekd/bcc-dir/bcc/gcc-sparc-linux-3.4.4-build/gcc/fp-bit.c:1014
   19ed4:	03 10 00 00 	sethi  %hi(0x40000000), %g1
/home/eiselekd/bcc-dir/bcc/gcc-sparc-linux-3.4.4-build/gcc/fp-bit.c:1015
   19ed8:	84 10 20 00 	clr  %g2
/home/eiselekd/bcc-dir/bcc/gcc-sparc-linux-3.4.4-build/gcc/fp-bit.c:1019
   19edc:	80 a0 c0 04 	cmp  %g3, %g4
   19ee0:	2a 80 00 05 	bcs,a   19ef4 <__divsf3+0x110>
   19ee4:	83 30 60 01 	srl  %g1, 1, %g1
/home/eiselekd/bcc-dir/bcc/gcc-sparc-linux-3.4.4-build/gcc/fp-bit.c:1021
   19ee8:	84 10 80 01 	or  %g2, %g1, %g2
/home/eiselekd/bcc-dir/bcc/gcc-sparc-linux-3.4.4-build/gcc/fp-bit.c:1022
   19eec:	86 20 c0 04 	sub  %g3, %g4, %g3
/home/eiselekd/bcc-dir/bcc/gcc-sparc-linux-3.4.4-build/gcc/fp-bit.c:1024
   19ef0:	83 30 60 01 	srl  %g1, 1, %g1
/home/eiselekd/bcc-dir/bcc/gcc-sparc-linux-3.4.4-build/gcc/fp-bit.c:1025
   19ef4:	80 a0 60 00 	cmp  %g1, 0
   19ef8:	12 bf ff f9 	bne  19edc <__divsf3+0xf8>
   19efc:	86 00 c0 03 	add  %g3, %g3, %g3
/home/eiselekd/bcc-dir/bcc/gcc-sparc-linux-3.4.4-build/gcc/fp-bit.c:1028
   19f00:	82 08 a0 7f 	and  %g2, 0x7f, %g1
   19f04:	80 a0 60 40 	cmp  %g1, 0x40
   19f08:	02 80 00 05 	be  19f1c <__divsf3+0x138>
   19f0c:	80 88 a0 80 	btst  0x80, %g2
/home/eiselekd/bcc-dir/bcc/gcc-sparc-linux-3.4.4-build/gcc/fp-bit.c:1042
   19f10:	c4 24 20 0c 	st  %g2, [ %l0 + 0xc ]
   19f14:	10 80 00 0c 	b  19f44 <__divsf3+0x160>
   19f18:	90 10 00 10 	mov  %l0, %o0
/home/eiselekd/bcc-dir/bcc/gcc-sparc-linux-3.4.4-build/gcc/fp-bit.c:1030
   19f1c:	32 80 00 06 	bne,a   19f34 <__divsf3+0x150>
   19f20:	84 00 a0 40 	add  %g2, 0x40, %g2
/home/eiselekd/bcc-dir/bcc/gcc-sparc-linux-3.4.4-build/gcc/fp-bit.c:1035
   19f24:	80 a0 e0 00 	cmp  %g3, 0
   19f28:	22 bf ff fb 	be,a   19f14 <__divsf3+0x130>
   19f2c:	c4 24 20 0c 	st  %g2, [ %l0 + 0xc ]
/home/eiselekd/bcc-dir/bcc/gcc-sparc-linux-3.4.4-build/gcc/fp-bit.c:1038
   19f30:	84 00 a0 40 	add  %g2, 0x40, %g2
/home/eiselekd/bcc-dir/bcc/gcc-sparc-linux-3.4.4-build/gcc/fp-bit.c:1042
   19f34:	10 bf ff f8 	b  19f14 <__divsf3+0x130>
   19f38:	c4 24 20 0c 	st  %g2, [ %l0 + 0xc ]
   19f3c:	10 bf ff e6 	b  19ed4 <__divsf3+0xf0>
   19f40:	c2 27 bf f0 	st  %g1, [ %fp + -16 ]
__divsf3():
/home/eiselekd/bcc-dir/bcc/gcc-sparc-linux-3.4.4-build/gcc/fp-bit.c:1063
   19f44:	40 00 00 79 	call  1a128 <__pack_f>
   19f48:	01 00 00 00 	nop 
   19f4c:	81 c7 e0 08 	ret 
   19f50:	91 e8 00 08 	restore  %g0, %o0, %o0

00019f54 <__nesf2>:
__nesf2():
/home/eiselekd/bcc-dir/bcc/gcc-sparc-linux-3.4.4-build/gcc/fp-bit.c:1199
   19f54:	9d e3 bf 70 	save  %sp, -144, %sp
/home/eiselekd/bcc-dir/bcc/gcc-sparc-linux-3.4.4-build/gcc/fp-bit.c:1207
   19f58:	a0 07 bf e8 	add  %fp, -24, %l0
/home/eiselekd/bcc-dir/bcc/gcc-sparc-linux-3.4.4-build/gcc/fp-bit.c:1204
   19f5c:	f0 27 bf d4 	st  %i0, [ %fp + -44 ]
/home/eiselekd/bcc-dir/bcc/gcc-sparc-linux-3.4.4-build/gcc/fp-bit.c:1205
   19f60:	f2 27 bf d0 	st  %i1, [ %fp + -48 ]
/home/eiselekd/bcc-dir/bcc/gcc-sparc-linux-3.4.4-build/gcc/fp-bit.c:1207
   19f64:	90 07 bf d4 	add  %fp, -44, %o0
   19f68:	40 00 00 c2 	call  1a270 <__unpack_f>
   19f6c:	92 10 00 10 	mov  %l0, %o1
/home/eiselekd/bcc-dir/bcc/gcc-sparc-linux-3.4.4-build/gcc/fp-bit.c:1208
   19f70:	b2 07 bf d8 	add  %fp, -40, %i1
   19f74:	90 07 bf d0 	add  %fp, -48, %o0
   19f78:	40 00 00 be 	call  1a270 <__unpack_f>
   19f7c:	92 10 00 19 	mov  %i1, %o1
isnan():
/home/eiselekd/bcc-dir/bcc/gcc-sparc-linux-3.4.4-build/gcc/fp-bit.c:164
   19f80:	c2 07 bf e8 	ld  [ %fp + -24 ], %g1
   19f84:	80 a0 60 01 	cmp  %g1, 1
   19f88:	08 80 00 0a 	bleu  19fb0 <__nesf2+0x5c>
   19f8c:	b0 10 20 01 	mov  1, %i0
   19f90:	c2 07 bf d8 	ld  [ %fp + -40 ], %g1
__nesf2():
/home/eiselekd/bcc-dir/bcc/gcc-sparc-linux-3.4.4-build/gcc/fp-bit.c:1213
   19f94:	90 10 00 10 	mov  %l0, %o0
/home/eiselekd/bcc-dir/bcc/gcc-sparc-linux-3.4.4-build/gcc/fp-bit.c:164
   19f98:	80 a0 60 01 	cmp  %g1, 1
   19f9c:	08 80 00 05 	bleu  19fb0 <__nesf2+0x5c>
   19fa0:	92 10 00 19 	mov  %i1, %o1
/home/eiselekd/bcc-dir/bcc/gcc-sparc-linux-3.4.4-build/gcc/fp-bit.c:1213
   19fa4:	40 00 00 e9 	call  1a348 <__fpcmp_parts_f>
   19fa8:	01 00 00 00 	nop 
   19fac:	b0 10 00 08 	mov  %o0, %i0
   19fb0:	81 c7 e0 08 	ret 
   19fb4:	81 e8 00 00 	restore 
   19fb8:	81 c3 e0 08 	retl 
   19fbc:	ae 03 c0 17 	add  %o7, %l7, %l7

00019fc0 <__floatsisf>:
__floatsisf():
/home/eiselekd/bcc-dir/bcc/gcc-sparc-linux-3.4.4-build/gcc/fp-bit.c:1323
   19fc0:	9d e3 bf 88 	save  %sp, -120, %sp
/home/eiselekd/bcc-dir/bcc/gcc-sparc-linux-3.4.4-build/gcc/fp-bit.c:1327
   19fc4:	85 36 20 1f 	srl  %i0, 0x1f, %g2
/home/eiselekd/bcc-dir/bcc/gcc-sparc-linux-3.4.4-build/gcc/fp-bit.c:1323
   19fc8:	2f 00 00 48 	sethi  %hi(0x12000), %l7
   19fcc:	7f ff ff fb 	call  19fb8 <__nesf2+0x64>
   19fd0:	ae 05 e1 18 	add  %l7, 0x118, %l7	! 12118 <command_in_path+0x130>
/home/eiselekd/bcc-dir/bcc/gcc-sparc-linux-3.4.4-build/gcc/fp-bit.c:1328
   19fd4:	80 a6 20 00 	cmp  %i0, 0
   19fd8:	12 80 00 07 	bne  19ff4 <__floatsisf+0x34>
   19fdc:	c4 27 bf ec 	st  %g2, [ %fp + -20 ]
/home/eiselekd/bcc-dir/bcc/gcc-sparc-linux-3.4.4-build/gcc/fp-bit.c:1330
   19fe0:	82 10 20 02 	mov  2, %g1
   19fe4:	c2 27 bf e8 	st  %g1, [ %fp + -24 ]
/home/eiselekd/bcc-dir/bcc/gcc-sparc-linux-3.4.4-build/gcc/fp-bit.c:1354
   19fe8:	40 00 00 50 	call  1a128 <__pack_f>
   19fec:	90 07 bf e8 	add  %fp, -24, %o0
   19ff0:	30 80 00 23 	b,a   1a07c <__floatsisf+0xbc>
   19ff4:	82 10 20 03 	mov  3, %g1
   19ff8:	c2 27 bf e8 	st  %g1, [ %fp + -24 ]
/home/eiselekd/bcc-dir/bcc/gcc-sparc-linux-3.4.4-build/gcc/fp-bit.c:1346
   19ffc:	86 10 00 18 	mov  %i0, %g3
/home/eiselekd/bcc-dir/bcc/gcc-sparc-linux-3.4.4-build/gcc/fp-bit.c:1335
   1a000:	80 a0 a0 00 	cmp  %g2, 0
/home/eiselekd/bcc-dir/bcc/gcc-sparc-linux-3.4.4-build/gcc/fp-bit.c:1334
   1a004:	88 10 20 1e 	mov  0x1e, %g4
   1a008:	98 10 20 1e 	mov  0x1e, %o4
/home/eiselekd/bcc-dir/bcc/gcc-sparc-linux-3.4.4-build/gcc/fp-bit.c:1335
   1a00c:	12 80 00 12 	bne  1a054 <__floatsisf+0x94>
   1a010:	82 10 00 18 	mov  %i0, %g1
/home/eiselekd/bcc-dir/bcc/gcc-sparc-linux-3.4.4-build/gcc/fp-bit.c:1351
   1a014:	84 10 00 01 	mov  %g1, %g2
   1a018:	03 0f ff ff 	sethi  %hi(0x3ffffc00), %g1
   1a01c:	82 10 63 ff 	or  %g1, 0x3ff, %g1	! 3fffffff <_end+0x3ffd29af>
   1a020:	80 a0 80 01 	cmp  %g2, %g1
   1a024:	18 80 00 09 	bgu  1a048 <__floatsisf+0x88>
   1a028:	9a 10 00 01 	mov  %g1, %o5
   1a02c:	82 01 3f ff 	add  %g4, -1, %g1
/home/eiselekd/bcc-dir/bcc/gcc-sparc-linux-3.4.4-build/gcc/fp-bit.c:1350
   1a030:	86 00 80 02 	add  %g2, %g2, %g3
/home/eiselekd/bcc-dir/bcc/gcc-sparc-linux-3.4.4-build/gcc/fp-bit.c:1351
   1a034:	88 10 00 01 	mov  %g1, %g4
   1a038:	80 a0 c0 0d 	cmp  %g3, %o5
   1a03c:	98 10 00 01 	mov  %g1, %o4
   1a040:	08 bf ff fb 	bleu  1a02c <__floatsisf+0x6c>
   1a044:	84 10 00 03 	mov  %g3, %g2
   1a048:	c6 27 bf f4 	st  %g3, [ %fp + -12 ]
   1a04c:	10 bf ff e7 	b  19fe8 <__floatsisf+0x28>
   1a050:	d8 27 bf f0 	st  %o4, [ %fp + -16 ]
/home/eiselekd/bcc-dir/bcc/gcc-sparc-linux-3.4.4-build/gcc/fp-bit.c:1339
   1a054:	03 20 00 00 	sethi  %hi(0x80000000), %g1
/home/eiselekd/bcc-dir/bcc/gcc-sparc-linux-3.4.4-build/gcc/fp-bit.c:1343
   1a058:	86 20 00 18 	neg  %i0, %g3
/home/eiselekd/bcc-dir/bcc/gcc-sparc-linux-3.4.4-build/gcc/fp-bit.c:1339
   1a05c:	80 a6 00 01 	cmp  %i0, %g1
   1a060:	12 bf ff ed 	bne  1a014 <__floatsisf+0x54>
   1a064:	82 10 00 03 	mov  %g3, %g1
/home/eiselekd/bcc-dir/bcc/gcc-sparc-linux-3.4.4-build/gcc/fp-bit.c:1341
   1a068:	03 00 00 00 	sethi  %hi(0), %g1
   1a06c:	82 10 60 04 	or  %g1, 4, %g1	! 4 <_init-0x11504>
   1a070:	c4 05 c0 01 	ld  [ %l7 + %g1 ], %g2
   1a074:	d8 27 bf f0 	st  %o4, [ %fp + -16 ]
   1a078:	d0 00 80 00 	ld  [ %g2 ], %o0
   1a07c:	81 c7 e0 08 	ret 
   1a080:	91 e8 00 08 	restore  %g0, %o0, %o0

0001a084 <__fixsfsi>:
__fixsfsi():
/home/eiselekd/bcc-dir/bcc/gcc-sparc-linux-3.4.4-build/gcc/fp-bit.c:1393
   1a084:	9d e3 bf 80 	save  %sp, -128, %sp
/home/eiselekd/bcc-dir/bcc/gcc-sparc-linux-3.4.4-build/gcc/fp-bit.c:1398
   1a088:	f0 27 bf e4 	st  %i0, [ %fp + -28 ]
/home/eiselekd/bcc-dir/bcc/gcc-sparc-linux-3.4.4-build/gcc/fp-bit.c:1399
   1a08c:	90 07 bf e4 	add  %fp, -28, %o0
   1a090:	40 00 00 78 	call  1a270 <__unpack_f>
   1a094:	92 07 bf e8 	add  %fp, -24, %o1
iszero():
/home/eiselekd/bcc-dir/bcc/gcc-sparc-linux-3.4.4-build/gcc/fp-bit.c:180
   1a098:	c6 07 bf e8 	ld  [ %fp + -24 ], %g3
__fixsfsi():
/home/eiselekd/bcc-dir/bcc/gcc-sparc-linux-3.4.4-build/gcc/fp-bit.c:179
   1a09c:	80 a0 e0 02 	cmp  %g3, 2
   1a0a0:	02 80 00 20 	be  1a120 <__fixsfsi+0x9c>
   1a0a4:	b0 10 20 00 	clr  %i0
isnan():
/home/eiselekd/bcc-dir/bcc/gcc-sparc-linux-3.4.4-build/gcc/fp-bit.c:164
   1a0a8:	80 a0 e0 01 	cmp  %g3, 1
   1a0ac:	08 80 00 1d 	bleu  1a120 <__fixsfsi+0x9c>
   1a0b0:	80 a0 e0 04 	cmp  %g3, 4
__fixsfsi():
/home/eiselekd/bcc-dir/bcc/gcc-sparc-linux-3.4.4-build/gcc/fp-bit.c:170
   1a0b4:	02 80 00 11 	be  1a0f8 <__fixsfsi+0x74>
   1a0b8:	c2 07 bf ec 	ld  [ %fp + -20 ], %g1
/home/eiselekd/bcc-dir/bcc/gcc-sparc-linux-3.4.4-build/gcc/fp-bit.c:1409
   1a0bc:	c4 07 bf f0 	ld  [ %fp + -16 ], %g2
   1a0c0:	80 a0 a0 00 	cmp  %g2, 0
   1a0c4:	06 80 00 17 	bl  1a120 <__fixsfsi+0x9c>
   1a0c8:	80 a0 a0 1e 	cmp  %g2, 0x1e
/home/eiselekd/bcc-dir/bcc/gcc-sparc-linux-3.4.4-build/gcc/fp-bit.c:1411
   1a0cc:	14 80 00 11 	bg  1a110 <__fixsfsi+0x8c>
   1a0d0:	80 a0 60 00 	cmp  %g1, 0
/home/eiselekd/bcc-dir/bcc/gcc-sparc-linux-3.4.4-build/gcc/fp-bit.c:1413
   1a0d4:	82 10 20 1e 	mov  0x1e, %g1
   1a0d8:	82 20 40 02 	sub  %g1, %g2, %g1
   1a0dc:	c4 07 bf f4 	ld  [ %fp + -12 ], %g2
/home/eiselekd/bcc-dir/bcc/gcc-sparc-linux-3.4.4-build/gcc/fp-bit.c:1414
   1a0e0:	c6 07 bf ec 	ld  [ %fp + -20 ], %g3
   1a0e4:	80 a0 e0 00 	cmp  %g3, 0
   1a0e8:	02 80 00 0e 	be  1a120 <__fixsfsi+0x9c>
   1a0ec:	b1 30 80 01 	srl  %g2, %g1, %i0
   1a0f0:	10 80 00 0c 	b  1a120 <__fixsfsi+0x9c>
   1a0f4:	b0 20 00 18 	neg  %i0
/home/eiselekd/bcc-dir/bcc/gcc-sparc-linux-3.4.4-build/gcc/fp-bit.c:1407
   1a0f8:	80 a0 60 00 	cmp  %g1, 0
   1a0fc:	12 80 00 09 	bne  1a120 <__fixsfsi+0x9c>
   1a100:	31 20 00 00 	sethi  %hi(0x80000000), %i0
/home/eiselekd/bcc-dir/bcc/gcc-sparc-linux-3.4.4-build/gcc/fp-bit.c:1412
   1a104:	03 1f ff ff 	sethi  %hi(0x7ffffc00), %g1
   1a108:	10 80 00 06 	b  1a120 <__fixsfsi+0x9c>
   1a10c:	b0 10 63 ff 	or  %g1, 0x3ff, %i0	! 7fffffff <_end+0x7ffd29af>
   1a110:	12 80 00 04 	bne  1a120 <__fixsfsi+0x9c>
   1a114:	31 20 00 00 	sethi  %hi(0x80000000), %i0
   1a118:	03 1f ff ff 	sethi  %hi(0x7ffffc00), %g1
   1a11c:	b0 10 63 ff 	or  %g1, 0x3ff, %i0	! 7fffffff <_end+0x7ffd29af>
   1a120:	81 c7 e0 08 	ret 
   1a124:	81 e8 00 00 	restore 

0001a128 <__pack_f>:
isnan():
/home/eiselekd/bcc-dir/bcc/gcc-sparc-linux-3.4.4-build/gcc/fp-bit.c:164
   1a128:	c2 02 00 00 	ld  [ %o0 ], %g1
   1a12c:	80 a0 60 01 	cmp  %g1, 1
__pack_f():
/home/eiselekd/bcc-dir/bcc/gcc-sparc-linux-3.4.4-build/gcc/fp-bit.c:197
   1a130:	c8 02 20 0c 	ld  [ %o0 + 0xc ], %g4
/home/eiselekd/bcc-dir/bcc/gcc-sparc-linux-3.4.4-build/gcc/fp-bit.c:198
   1a134:	c6 02 20 04 	ld  [ %o0 + 4 ], %g3
/home/eiselekd/bcc-dir/bcc/gcc-sparc-linux-3.4.4-build/gcc/fp-bit.c:164
   1a138:	18 80 00 06 	bgu  1a150 <__pack_f+0x28>
   1a13c:	9a 10 20 00 	clr  %o5
/home/eiselekd/bcc-dir/bcc/gcc-sparc-linux-3.4.4-build/gcc/fp-bit.c:217
   1a140:	03 00 04 00 	sethi  %hi(0x100000), %g1
   1a144:	88 11 00 01 	or  %g4, %g1, %g4
/home/eiselekd/bcc-dir/bcc/gcc-sparc-linux-3.4.4-build/gcc/fp-bit.c:211
   1a148:	10 80 00 42 	b  1a250 <__pack_f+0x128>
   1a14c:	9a 10 20 ff 	mov  0xff, %o5
/home/eiselekd/bcc-dir/bcc/gcc-sparc-linux-3.4.4-build/gcc/fp-bit.c:170
   1a150:	80 a0 60 04 	cmp  %g1, 4
   1a154:	12 80 00 05 	bne  1a168 <__pack_f+0x40>
   1a158:	80 a0 60 02 	cmp  %g1, 2
/home/eiselekd/bcc-dir/bcc/gcc-sparc-linux-3.4.4-build/gcc/fp-bit.c:286
   1a15c:	9a 10 20 ff 	mov  0xff, %o5
/home/eiselekd/bcc-dir/bcc/gcc-sparc-linux-3.4.4-build/gcc/fp-bit.c:287
   1a160:	10 80 00 3c 	b  1a250 <__pack_f+0x128>
   1a164:	88 10 20 00 	clr  %g4
/home/eiselekd/bcc-dir/bcc/gcc-sparc-linux-3.4.4-build/gcc/fp-bit.c:179
   1a168:	22 80 00 3a 	be,a   1a250 <__pack_f+0x128>
   1a16c:	88 10 20 00 	clr  %g4
/home/eiselekd/bcc-dir/bcc/gcc-sparc-linux-3.4.4-build/gcc/fp-bit.c:231
   1a170:	80 a1 20 00 	cmp  %g4, 0
   1a174:	02 80 00 38 	be  1a254 <__pack_f+0x12c>
   1a178:	84 0b 60 ff 	and  %o5, 0xff, %g2
/home/eiselekd/bcc-dir/bcc/gcc-sparc-linux-3.4.4-build/gcc/fp-bit.c:237
   1a17c:	d0 02 20 08 	ld  [ %o0 + 8 ], %o0
   1a180:	80 a2 3f 82 	cmp  %o0, -126
   1a184:	16 80 00 14 	bge  1a1d4 <__pack_f+0xac>
   1a188:	80 a2 20 7f 	cmp  %o0, 0x7f
/home/eiselekd/bcc-dir/bcc/gcc-sparc-linux-3.4.4-build/gcc/fp-bit.c:250
   1a18c:	82 10 3f 82 	mov  -126, %g1
   1a190:	84 20 40 08 	sub  %g1, %o0, %g2
/home/eiselekd/bcc-dir/bcc/gcc-sparc-linux-3.4.4-build/gcc/fp-bit.c:254
   1a194:	80 a0 a0 19 	cmp  %g2, 0x19
   1a198:	04 80 00 1d 	ble  1a20c <__pack_f+0xe4>
   1a19c:	82 10 20 01 	mov  1, %g1
/home/eiselekd/bcc-dir/bcc/gcc-sparc-linux-3.4.4-build/gcc/fp-bit.c:257
   1a1a0:	88 10 20 00 	clr  %g4
/home/eiselekd/bcc-dir/bcc/gcc-sparc-linux-3.4.4-build/gcc/fp-bit.c:264
   1a1a4:	82 09 20 7f 	and  %g4, 0x7f, %g1
   1a1a8:	80 a0 60 40 	cmp  %g1, 0x40
   1a1ac:	02 80 00 20 	be  1a22c <__pack_f+0x104>
   1a1b0:	80 89 20 80 	btst  0x80, %g4
/home/eiselekd/bcc-dir/bcc/gcc-sparc-linux-3.4.4-build/gcc/fp-bit.c:272
   1a1b4:	88 01 20 3f 	add  %g4, 0x3f, %g4
/home/eiselekd/bcc-dir/bcc/gcc-sparc-linux-3.4.4-build/gcc/fp-bit.c:276
   1a1b8:	03 0f ff ff 	sethi  %hi(0x3ffffc00), %g1
   1a1bc:	82 10 63 ff 	or  %g1, 0x3ff, %g1	! 3fffffff <_end+0x3ffd29af>
   1a1c0:	80 a1 00 01 	cmp  %g4, %g1
   1a1c4:	38 80 00 02 	bgu,a   1a1cc <__pack_f+0xa4>
   1a1c8:	9a 10 20 01 	mov  1, %o5
/home/eiselekd/bcc-dir/bcc/gcc-sparc-linux-3.4.4-build/gcc/fp-bit.c:313
   1a1cc:	10 80 00 21 	b  1a250 <__pack_f+0x128>
   1a1d0:	89 31 20 07 	srl  %g4, 7, %g4
/home/eiselekd/bcc-dir/bcc/gcc-sparc-linux-3.4.4-build/gcc/fp-bit.c:283
   1a1d4:	14 bf ff e3 	bg  1a160 <__pack_f+0x38>
   1a1d8:	9a 10 20 ff 	mov  0xff, %o5
/home/eiselekd/bcc-dir/bcc/gcc-sparc-linux-3.4.4-build/gcc/fp-bit.c:297
   1a1dc:	82 09 20 7f 	and  %g4, 0x7f, %g1
   1a1e0:	80 a0 60 40 	cmp  %g1, 0x40
   1a1e4:	02 80 00 16 	be  1a23c <__pack_f+0x114>
   1a1e8:	9a 02 20 7f 	add  %o0, 0x7f, %o5
/home/eiselekd/bcc-dir/bcc/gcc-sparc-linux-3.4.4-build/gcc/fp-bit.c:305
   1a1ec:	88 01 20 3f 	add  %g4, 0x3f, %g4
/home/eiselekd/bcc-dir/bcc/gcc-sparc-linux-3.4.4-build/gcc/fp-bit.c:307
   1a1f0:	80 a1 20 00 	cmp  %g4, 0
   1a1f4:	36 80 00 17 	bge,a   1a250 <__pack_f+0x128>
   1a1f8:	89 31 20 07 	srl  %g4, 7, %g4
/home/eiselekd/bcc-dir/bcc/gcc-sparc-linux-3.4.4-build/gcc/fp-bit.c:309
   1a1fc:	89 31 20 01 	srl  %g4, 1, %g4
/home/eiselekd/bcc-dir/bcc/gcc-sparc-linux-3.4.4-build/gcc/fp-bit.c:310
   1a200:	9a 03 60 01 	inc  %o5
/home/eiselekd/bcc-dir/bcc/gcc-sparc-linux-3.4.4-build/gcc/fp-bit.c:313
   1a204:	10 80 00 13 	b  1a250 <__pack_f+0x128>
   1a208:	89 31 20 07 	srl  %g4, 7, %g4
/home/eiselekd/bcc-dir/bcc/gcc-sparc-linux-3.4.4-build/gcc/fp-bit.c:261
   1a20c:	83 28 40 02 	sll  %g1, %g2, %g1
   1a210:	82 00 7f ff 	add  %g1, -1, %g1
   1a214:	82 08 40 04 	and  %g1, %g4, %g1
   1a218:	80 a0 00 01 	cmp  %g0, %g1
/home/eiselekd/bcc-dir/bcc/gcc-sparc-linux-3.4.4-build/gcc/fp-bit.c:262
   1a21c:	85 31 00 02 	srl  %g4, %g2, %g2
/home/eiselekd/bcc-dir/bcc/gcc-sparc-linux-3.4.4-build/gcc/fp-bit.c:261
   1a220:	82 40 20 00 	addx  %g0, 0, %g1
/home/eiselekd/bcc-dir/bcc/gcc-sparc-linux-3.4.4-build/gcc/fp-bit.c:262
   1a224:	10 bf ff e0 	b  1a1a4 <__pack_f+0x7c>
   1a228:	88 10 80 01 	or  %g2, %g1, %g4
/home/eiselekd/bcc-dir/bcc/gcc-sparc-linux-3.4.4-build/gcc/fp-bit.c:266
   1a22c:	32 bf ff e3 	bne,a   1a1b8 <__pack_f+0x90>
   1a230:	88 01 20 40 	add  %g4, 0x40, %g4
/home/eiselekd/bcc-dir/bcc/gcc-sparc-linux-3.4.4-build/gcc/fp-bit.c:276
   1a234:	10 bf ff e2 	b  1a1bc <__pack_f+0x94>
   1a238:	03 0f ff ff 	sethi  %hi(0x3ffffc00), %g1
/home/eiselekd/bcc-dir/bcc/gcc-sparc-linux-3.4.4-build/gcc/fp-bit.c:299
   1a23c:	80 89 20 80 	btst  0x80, %g4
   1a240:	32 bf ff ec 	bne,a   1a1f0 <__pack_f+0xc8>
   1a244:	88 01 20 40 	add  %g4, 0x40, %g4
/home/eiselekd/bcc-dir/bcc/gcc-sparc-linux-3.4.4-build/gcc/fp-bit.c:307
   1a248:	10 bf ff eb 	b  1a1f4 <__pack_f+0xcc>
   1a24c:	80 a1 20 00 	cmp  %g4, 0
/home/eiselekd/bcc-dir/bcc/gcc-sparc-linux-3.4.4-build/gcc/fp-bit.c:407
   1a250:	84 0b 60 ff 	and  %o5, 0xff, %g2
/home/eiselekd/bcc-dir/bcc/gcc-sparc-linux-3.4.4-build/gcc/fp-bit.c:406
   1a254:	03 3f e0 00 	sethi  %hi(0xff800000), %g1
   1a258:	82 29 00 01 	andn  %g4, %g1, %g1
/home/eiselekd/bcc-dir/bcc/gcc-sparc-linux-3.4.4-build/gcc/fp-bit.c:407
   1a25c:	85 28 a0 17 	sll  %g2, 0x17, %g2
   1a260:	82 10 40 02 	or  %g1, %g2, %g1
/home/eiselekd/bcc-dir/bcc/gcc-sparc-linux-3.4.4-build/gcc/fp-bit.c:408
   1a264:	87 28 e0 1f 	sll  %g3, 0x1f, %g3
   1a268:	81 c3 e0 08 	retl 
   1a26c:	90 10 40 03 	or  %g1, %g3, %o0

0001a270 <__unpack_f>:
__unpack_f():
/home/eiselekd/bcc-dir/bcc/gcc-sparc-linux-3.4.4-build/gcc/fp-bit.c:510
   1a270:	c4 02 00 00 	ld  [ %o0 ], %g2
/home/eiselekd/bcc-dir/bcc/gcc-sparc-linux-3.4.4-build/gcc/fp-bit.c:512
   1a274:	87 30 a0 1f 	srl  %g2, 0x1f, %g3
/home/eiselekd/bcc-dir/bcc/gcc-sparc-linux-3.4.4-build/gcc/fp-bit.c:511
   1a278:	89 30 a0 17 	srl  %g2, 0x17, %g4
/home/eiselekd/bcc-dir/bcc/gcc-sparc-linux-3.4.4-build/gcc/fp-bit.c:516
   1a27c:	c6 22 60 04 	st  %g3, [ %o1 + 4 ]
/home/eiselekd/bcc-dir/bcc/gcc-sparc-linux-3.4.4-build/gcc/fp-bit.c:510
   1a280:	03 3f e0 00 	sethi  %hi(0xff800000), %g1
/home/eiselekd/bcc-dir/bcc/gcc-sparc-linux-3.4.4-build/gcc/fp-bit.c:517
   1a284:	86 89 20 ff 	andcc  %g4, 0xff, %g3
   1a288:	12 80 00 07 	bne  1a2a4 <__unpack_f+0x34>
   1a28c:	9a 28 80 01 	andn  %g2, %g1, %o5
/home/eiselekd/bcc-dir/bcc/gcc-sparc-linux-3.4.4-build/gcc/fp-bit.c:520
   1a290:	80 a3 60 00 	cmp  %o5, 0
   1a294:	12 80 00 0e 	bne  1a2cc <__unpack_f+0x5c>
   1a298:	82 10 20 02 	mov  2, %g1
/home/eiselekd/bcc-dir/bcc/gcc-sparc-linux-3.4.4-build/gcc/fp-bit.c:579
   1a29c:	10 80 00 29 	b  1a340 <__unpack_f+0xd0>
   1a2a0:	c2 22 40 00 	st  %g1, [ %o1 ]
/home/eiselekd/bcc-dir/bcc/gcc-sparc-linux-3.4.4-build/gcc/fp-bit.c:548
   1a2a4:	80 a0 e0 ff 	cmp  %g3, 0xff
   1a2a8:	02 80 00 1a 	be  1a310 <__unpack_f+0xa0>
   1a2ac:	83 2b 60 07 	sll  %o5, 7, %g1
/home/eiselekd/bcc-dir/bcc/gcc-sparc-linux-3.4.4-build/gcc/fp-bit.c:580
   1a2b0:	05 10 00 00 	sethi  %hi(0x40000000), %g2
   1a2b4:	82 10 40 02 	or  %g1, %g2, %g1
/home/eiselekd/bcc-dir/bcc/gcc-sparc-linux-3.4.4-build/gcc/fp-bit.c:578
   1a2b8:	86 00 ff 81 	add  %g3, -127, %g3
/home/eiselekd/bcc-dir/bcc/gcc-sparc-linux-3.4.4-build/gcc/fp-bit.c:580
   1a2bc:	c2 22 60 0c 	st  %g1, [ %o1 + 0xc ]
/home/eiselekd/bcc-dir/bcc/gcc-sparc-linux-3.4.4-build/gcc/fp-bit.c:578
   1a2c0:	c6 22 60 08 	st  %g3, [ %o1 + 8 ]
/home/eiselekd/bcc-dir/bcc/gcc-sparc-linux-3.4.4-build/gcc/fp-bit.c:579
   1a2c4:	10 bf ff f6 	b  1a29c <__unpack_f+0x2c>
   1a2c8:	82 10 20 03 	mov  3, %g1
/home/eiselekd/bcc-dir/bcc/gcc-sparc-linux-3.4.4-build/gcc/fp-bit.c:537
   1a2cc:	84 10 20 03 	mov  3, %g2
/home/eiselekd/bcc-dir/bcc/gcc-sparc-linux-3.4.4-build/gcc/fp-bit.c:542
   1a2d0:	03 0f ff ff 	sethi  %hi(0x3ffffc00), %g1
/home/eiselekd/bcc-dir/bcc/gcc-sparc-linux-3.4.4-build/gcc/fp-bit.c:535
   1a2d4:	9b 2b 60 07 	sll  %o5, 7, %o5
/home/eiselekd/bcc-dir/bcc/gcc-sparc-linux-3.4.4-build/gcc/fp-bit.c:542
   1a2d8:	82 10 63 ff 	or  %g1, 0x3ff, %g1
/home/eiselekd/bcc-dir/bcc/gcc-sparc-linux-3.4.4-build/gcc/fp-bit.c:537
   1a2dc:	c4 22 40 00 	st  %g2, [ %o1 ]
/home/eiselekd/bcc-dir/bcc/gcc-sparc-linux-3.4.4-build/gcc/fp-bit.c:542
   1a2e0:	80 a3 40 01 	cmp  %o5, %g1
/home/eiselekd/bcc-dir/bcc/gcc-sparc-linux-3.4.4-build/gcc/fp-bit.c:534
   1a2e4:	84 10 3f 82 	mov  -126, %g2
/home/eiselekd/bcc-dir/bcc/gcc-sparc-linux-3.4.4-build/gcc/fp-bit.c:542
   1a2e8:	18 80 00 07 	bgu  1a304 <__unpack_f+0x94>
   1a2ec:	86 10 3f 82 	mov  -126, %g3
/home/eiselekd/bcc-dir/bcc/gcc-sparc-linux-3.4.4-build/gcc/fp-bit.c:541
   1a2f0:	9a 03 40 0d 	add  %o5, %o5, %o5
/home/eiselekd/bcc-dir/bcc/gcc-sparc-linux-3.4.4-build/gcc/fp-bit.c:542
   1a2f4:	84 00 bf ff 	add  %g2, -1, %g2
   1a2f8:	80 a3 40 01 	cmp  %o5, %g1
   1a2fc:	08 bf ff fd 	bleu  1a2f0 <__unpack_f+0x80>
   1a300:	86 10 00 02 	mov  %g2, %g3
/home/eiselekd/bcc-dir/bcc/gcc-sparc-linux-3.4.4-build/gcc/fp-bit.c:545
   1a304:	da 22 60 0c 	st  %o5, [ %o1 + 0xc ]
   1a308:	10 80 00 0e 	b  1a340 <__unpack_f+0xd0>
   1a30c:	c6 22 60 08 	st  %g3, [ %o1 + 8 ]
/home/eiselekd/bcc-dir/bcc/gcc-sparc-linux-3.4.4-build/gcc/fp-bit.c:551
   1a310:	80 a3 60 00 	cmp  %o5, 0
   1a314:	02 bf ff e2 	be  1a29c <__unpack_f+0x2c>
   1a318:	82 10 20 04 	mov  4, %g1
/home/eiselekd/bcc-dir/bcc/gcc-sparc-linux-3.4.4-build/gcc/fp-bit.c:562
   1a31c:	03 00 04 00 	sethi  %hi(0x100000), %g1
   1a320:	80 8b 40 01 	btst  %o5, %g1
   1a324:	22 80 00 06 	be,a   1a33c <__unpack_f+0xcc>
   1a328:	c0 22 40 00 	clr  [ %o1 ]
/home/eiselekd/bcc-dir/bcc/gcc-sparc-linux-3.4.4-build/gcc/fp-bit.c:565
   1a32c:	82 10 20 01 	mov  1, %g1
   1a330:	c2 22 40 00 	st  %g1, [ %o1 ]
/home/eiselekd/bcc-dir/bcc/gcc-sparc-linux-3.4.4-build/gcc/fp-bit.c:572
   1a334:	10 80 00 03 	b  1a340 <__unpack_f+0xd0>
   1a338:	da 22 60 0c 	st  %o5, [ %o1 + 0xc ]
   1a33c:	da 22 60 0c 	st  %o5, [ %o1 + 0xc ]
   1a340:	81 c3 e0 08 	retl 
   1a344:	01 00 00 00 	nop 

0001a348 <__fpcmp_parts_f>:
isnan():
/home/eiselekd/bcc-dir/bcc/gcc-sparc-linux-3.4.4-build/gcc/fp-bit.c:164
   1a348:	c6 02 00 00 	ld  [ %o0 ], %g3
   1a34c:	80 a0 e0 01 	cmp  %g3, 1
   1a350:	08 80 00 06 	bleu  1a368 <__fpcmp_parts_f+0x20>
   1a354:	9a 10 00 08 	mov  %o0, %o5
   1a358:	c8 02 40 00 	ld  [ %o1 ], %g4
   1a35c:	80 a1 20 01 	cmp  %g4, 1
   1a360:	18 80 00 04 	bgu  1a370 <__fpcmp_parts_f+0x28>
   1a364:	80 a0 e0 04 	cmp  %g3, 4
/home/eiselekd/bcc-dir/bcc/gcc-sparc-linux-3.4.4-build/gcc/fp-bit.c:1088
   1a368:	10 80 00 3f 	b  1a464 <__fpcmp_parts_f+0x11c>
   1a36c:	90 10 20 01 	mov  1, %o0
__fpcmp_parts_f():
/home/eiselekd/bcc-dir/bcc/gcc-sparc-linux-3.4.4-build/gcc/fp-bit.c:170
   1a370:	12 80 00 09 	bne  1a394 <__fpcmp_parts_f+0x4c>
   1a374:	80 a0 e0 04 	cmp  %g3, 4
   1a378:	80 a1 20 04 	cmp  %g4, 4
   1a37c:	12 80 00 06 	bne  1a394 <__fpcmp_parts_f+0x4c>
   1a380:	80 a0 e0 04 	cmp  %g3, 4
/home/eiselekd/bcc-dir/bcc/gcc-sparc-linux-3.4.4-build/gcc/fp-bit.c:1101
   1a384:	c4 02 60 04 	ld  [ %o1 + 4 ], %g2
   1a388:	c2 02 20 04 	ld  [ %o0 + 4 ], %g1
   1a38c:	10 80 00 36 	b  1a464 <__fpcmp_parts_f+0x11c>
   1a390:	90 20 80 01 	sub  %g2, %g1, %o0
/home/eiselekd/bcc-dir/bcc/gcc-sparc-linux-3.4.4-build/gcc/fp-bit.c:170
   1a394:	22 80 00 1a 	be,a   1a3fc <__fpcmp_parts_f+0xb4>
   1a398:	c2 03 60 04 	ld  [ %o5 + 4 ], %g1
   1a39c:	80 a1 20 04 	cmp  %g4, 4
   1a3a0:	22 80 00 1b 	be,a   1a40c <__fpcmp_parts_f+0xc4>
   1a3a4:	c2 02 60 04 	ld  [ %o1 + 4 ], %g1
/home/eiselekd/bcc-dir/bcc/gcc-sparc-linux-3.4.4-build/gcc/fp-bit.c:179
   1a3a8:	80 a0 e0 02 	cmp  %g3, 2
   1a3ac:	12 80 00 06 	bne  1a3c4 <__fpcmp_parts_f+0x7c>
   1a3b0:	01 00 00 00 	nop 
   1a3b4:	80 a1 20 02 	cmp  %g4, 2
   1a3b8:	02 80 00 2b 	be  1a464 <__fpcmp_parts_f+0x11c>
   1a3bc:	90 10 20 00 	clr  %o0
   1a3c0:	80 a0 e0 02 	cmp  %g3, 2
   1a3c4:	22 80 00 12 	be,a   1a40c <__fpcmp_parts_f+0xc4>
   1a3c8:	c2 02 60 04 	ld  [ %o1 + 4 ], %g1
   1a3cc:	80 a1 20 02 	cmp  %g4, 2
   1a3d0:	22 80 00 0b 	be,a   1a3fc <__fpcmp_parts_f+0xb4>
   1a3d4:	c2 03 60 04 	ld  [ %o5 + 4 ], %g1
/home/eiselekd/bcc-dir/bcc/gcc-sparc-linux-3.4.4-build/gcc/fp-bit.c:1125
   1a3d8:	c4 03 60 04 	ld  [ %o5 + 4 ], %g2
   1a3dc:	c2 02 60 04 	ld  [ %o1 + 4 ], %g1
   1a3e0:	80 a0 80 01 	cmp  %g2, %g1
   1a3e4:	22 80 00 0e 	be,a   1a41c <__fpcmp_parts_f+0xd4>
   1a3e8:	c6 03 60 08 	ld  [ %o5 + 8 ], %g3
/home/eiselekd/bcc-dir/bcc/gcc-sparc-linux-3.4.4-build/gcc/fp-bit.c:1142
   1a3ec:	80 a0 00 02 	cmp  %g0, %g2
   1a3f0:	82 60 20 00 	subx  %g0, 0, %g1
/home/eiselekd/bcc-dir/bcc/gcc-sparc-linux-3.4.4-build/gcc/fp-bit.c:1146
   1a3f4:	10 80 00 1c 	b  1a464 <__fpcmp_parts_f+0x11c>
   1a3f8:	90 10 60 01 	or  %g1, 1, %o0
/home/eiselekd/bcc-dir/bcc/gcc-sparc-linux-3.4.4-build/gcc/fp-bit.c:1122
   1a3fc:	80 a0 00 01 	cmp  %g0, %g1
   1a400:	84 60 20 00 	subx  %g0, 0, %g2
   1a404:	10 80 00 18 	b  1a464 <__fpcmp_parts_f+0x11c>
   1a408:	90 10 a0 01 	or  %g2, 1, %o0
/home/eiselekd/bcc-dir/bcc/gcc-sparc-linux-3.4.4-build/gcc/fp-bit.c:1118
   1a40c:	80 a0 00 01 	cmp  %g0, %g1
   1a410:	84 40 3f ff 	addx  %g0, -1, %g2
/home/eiselekd/bcc-dir/bcc/gcc-sparc-linux-3.4.4-build/gcc/fp-bit.c:1122
   1a414:	10 80 00 14 	b  1a464 <__fpcmp_parts_f+0x11c>
   1a418:	90 10 a0 01 	or  %g2, 1, %o0
/home/eiselekd/bcc-dir/bcc/gcc-sparc-linux-3.4.4-build/gcc/fp-bit.c:1131
   1a41c:	c2 02 60 08 	ld  [ %o1 + 8 ], %g1
   1a420:	80 a0 c0 01 	cmp  %g3, %g1
   1a424:	14 bf ff f3 	bg  1a3f0 <__fpcmp_parts_f+0xa8>
   1a428:	80 a0 00 02 	cmp  %g0, %g2
/home/eiselekd/bcc-dir/bcc/gcc-sparc-linux-3.4.4-build/gcc/fp-bit.c:1135
   1a42c:	80 a0 c0 01 	cmp  %g3, %g1
   1a430:	06 80 00 0b 	bl  1a45c <__fpcmp_parts_f+0x114>
   1a434:	80 a0 00 02 	cmp  %g0, %g2
/home/eiselekd/bcc-dir/bcc/gcc-sparc-linux-3.4.4-build/gcc/fp-bit.c:1140
   1a438:	d0 03 60 0c 	ld  [ %o5 + 0xc ], %o0
   1a43c:	d2 02 60 0c 	ld  [ %o1 + 0xc ], %o1
   1a440:	80 a2 00 09 	cmp  %o0, %o1
   1a444:	18 bf ff eb 	bgu  1a3f0 <__fpcmp_parts_f+0xa8>
   1a448:	80 a0 00 02 	cmp  %g0, %g2
/home/eiselekd/bcc-dir/bcc/gcc-sparc-linux-3.4.4-build/gcc/fp-bit.c:1144
   1a44c:	80 a2 00 09 	cmp  %o0, %o1
   1a450:	1a 80 00 05 	bcc  1a464 <__fpcmp_parts_f+0x11c>
   1a454:	90 10 20 00 	clr  %o0
/home/eiselekd/bcc-dir/bcc/gcc-sparc-linux-3.4.4-build/gcc/fp-bit.c:1146
   1a458:	80 a0 00 02 	cmp  %g0, %g2
   1a45c:	82 40 3f ff 	addx  %g0, -1, %g1
   1a460:	90 10 60 01 	or  %g1, 1, %o0
   1a464:	81 c3 e0 08 	retl 
   1a468:	01 00 00 00 	nop 
   1a46c:	81 c3 e0 08 	retl 
   1a470:	ae 03 c0 17 	add  %o7, %l7, %l7

0001a474 <__libc_csu_init>:
__libc_csu_init():
   1a474:	9d e3 bf 90 	save  %sp, -112, %sp
   1a478:	2f 00 00 47 	sethi  %hi(0x11c00), %l7
   1a47c:	7f ff ff fc 	call  1a46c <__fpcmp_parts_f+0x124>
   1a480:	ae 05 e0 68 	add  %l7, 0x68, %l7	! 11c68 <readfile+0x3c8>
   1a484:	7f ff dc 21 	call  11508 <_init>
   1a488:	a0 10 20 00 	clr  %l0
   1a48c:	03 00 00 00 	sethi  %hi(0), %g1
   1a490:	82 10 60 0c 	or  %g1, 0xc, %g1	! c <_init-0x114fc>
   1a494:	07 00 00 00 	sethi  %hi(0), %g3
   1a498:	c4 05 c0 01 	ld  [ %l7 + %g1 ], %g2
   1a49c:	86 10 e0 10 	or  %g3, 0x10, %g3
   1a4a0:	c2 05 c0 03 	ld  [ %l7 + %g3 ], %g1
   1a4a4:	84 20 80 01 	sub  %g2, %g1, %g2
   1a4a8:	85 38 a0 02 	sra  %g2, 2, %g2
   1a4ac:	80 a4 00 02 	cmp  %l0, %g2
   1a4b0:	1a 80 00 0d 	bcc  1a4e4 <__libc_csu_init+0x70>
   1a4b4:	a4 10 00 01 	mov  %g1, %l2
   1a4b8:	a2 10 00 02 	mov  %g2, %l1
   1a4bc:	83 2c 20 02 	sll  %l0, 2, %g1
   1a4c0:	c4 04 80 01 	ld  [ %l2 + %g1 ], %g2
   1a4c4:	90 10 00 18 	mov  %i0, %o0
   1a4c8:	92 10 00 19 	mov  %i1, %o1
   1a4cc:	9f c0 80 00 	call  %g2
   1a4d0:	94 10 00 1a 	mov  %i2, %o2
   1a4d4:	a0 04 20 01 	inc  %l0
   1a4d8:	80 a4 00 11 	cmp  %l0, %l1
   1a4dc:	0a bf ff f9 	bcs  1a4c0 <__libc_csu_init+0x4c>
   1a4e0:	83 2c 20 02 	sll  %l0, 2, %g1
   1a4e4:	81 c7 e0 08 	ret 
   1a4e8:	81 e8 00 00 	restore 

0001a4ec <__libc_csu_fini>:
__libc_csu_fini():
   1a4ec:	81 c3 e0 08 	retl 
   1a4f0:	01 00 00 00 	nop 

0001a4f4 <__stat>:
stat():
   1a4f4:	94 10 00 09 	mov  %o1, %o2
   1a4f8:	92 10 00 08 	mov  %o0, %o1
   1a4fc:	90 10 20 03 	mov  3, %o0
   1a500:	82 13 c0 00 	mov  %o7, %g1
   1a504:	10 80 47 8a 	b  2c32c <__xstat@plt>
   1a508:	01 00 00 00 	nop 
   1a50c:	01 00 00 00 	nop 

0001a510 <__lstat>:
__lstat():
   1a510:	94 10 00 09 	mov  %o1, %o2
   1a514:	92 10 00 08 	mov  %o0, %o1
   1a518:	90 10 20 03 	mov  3, %o0
   1a51c:	82 13 c0 00 	mov  %o7, %g1
   1a520:	10 80 47 a1 	b  2c3a4 <__lxstat@plt>
   1a524:	01 00 00 00 	nop 
   1a528:	01 00 00 00 	nop 

0001a52c <__mknod>:
__mknod():
   1a52c:	9d e3 bf 88 	save  %sp, -120, %sp
   1a530:	92 10 00 18 	mov  %i0, %o1
   1a534:	f4 3f bf e8 	std  %i2, [ %fp + -24 ]
   1a538:	94 10 00 19 	mov  %i1, %o2
   1a53c:	90 10 20 01 	mov  1, %o0
   1a540:	40 00 48 05 	call  2c554 <__xmknod@plt>
   1a544:	96 07 bf e8 	add  %fp, -24, %o3
   1a548:	81 c7 e0 08 	ret 
   1a54c:	91 e8 00 08 	restore  %g0, %o0, %o0

0001a550 <__do_global_ctors_aux>:
__do_global_ctors_aux():
   1a550:	9d e3 bf 98 	save  %sp, -104, %sp
   1a554:	03 00 00 b0 	sethi  %hi(0x2c000), %g1
   1a558:	82 10 60 04 	or  %g1, 4, %g1	! 2c004 <__CTOR_END__>
   1a55c:	c4 00 7f fc 	ld  [ %g1 + -4 ], %g2
   1a560:	80 a0 bf ff 	cmp  %g2, -1
   1a564:	02 80 00 09 	be  1a588 <__do_global_ctors_aux+0x38>
   1a568:	a0 00 7f fc 	add  %g1, -4, %l0
   1a56c:	82 10 00 02 	mov  %g2, %g1
   1a570:	9f c0 40 00 	call  %g1
   1a574:	a0 04 3f fc 	add  %l0, -4, %l0
   1a578:	c2 04 00 00 	ld  [ %l0 ], %g1
   1a57c:	80 a0 7f ff 	cmp  %g1, -1
   1a580:	12 bf ff fc 	bne  1a570 <__do_global_ctors_aux+0x20>
   1a584:	01 00 00 00 	nop 
   1a588:	81 c7 e0 08 	ret 
   1a58c:	81 e8 00 00 	restore 

0001a590 <call___do_global_ctors_aux>:
call___do_global_ctors_aux():
   1a590:	9d e3 bf 98 	save  %sp, -104, %sp
   1a594:	81 c7 e0 08 	ret 
   1a598:	81 e8 00 00 	restore 
セクション .fini の逆アセンブル:

0001a59c <_fini>:
_fini():
   1a59c:	9d e3 bf a0 	save  %sp, -96, %sp
   1a5a0:	7f ff db ef 	call  1155c <__do_global_dtors_aux>
   1a5a4:	01 00 00 00 	nop 
   1a5a8:	81 c7 e0 08 	ret 
   1a5ac:	81 e8 00 00 	restore 
セクション .plt の逆アセンブル:

0002c0f8 <_PROCEDURE_LINKAGE_TABLE_>:
	...

0002c128 <wait4@plt>:
   2c128:	03 00 00 30 	sethi  %hi(0xc000), %g1
   2c12c:	30 bf ff f3 	b,a   2c0f8 <_PROCEDURE_LINKAGE_TABLE_>
   2c130:	01 00 00 00 	nop 

0002c134 <readlink@plt>:
   2c134:	03 00 00 3c 	sethi  %hi(0xf000), %g1
   2c138:	30 bf ff f0 	b,a   2c0f8 <_PROCEDURE_LINKAGE_TABLE_>
   2c13c:	01 00 00 00 	nop 

0002c140 <atol@plt>:
   2c140:	03 00 00 48 	sethi  %hi(0x12000), %g1
   2c144:	30 bf ff ed 	b,a   2c0f8 <_PROCEDURE_LINKAGE_TABLE_>
   2c148:	01 00 00 00 	nop 

0002c14c <mkdir@plt>:
   2c14c:	03 00 00 54 	sethi  %hi(0x15000), %g1
   2c150:	30 bf ff ea 	b,a   2c0f8 <_PROCEDURE_LINKAGE_TABLE_>
   2c154:	01 00 00 00 	nop 

0002c158 <getgrnam@plt>:
   2c158:	03 00 00 60 	sethi  %hi(0x18000), %g1
   2c15c:	30 bf ff e7 	b,a   2c0f8 <_PROCEDURE_LINKAGE_TABLE_>
   2c160:	01 00 00 00 	nop 

0002c164 <fgetc@plt>:
   2c164:	03 00 00 6c 	sethi  %hi(0x1b000), %g1
   2c168:	30 bf ff e4 	b,a   2c0f8 <_PROCEDURE_LINKAGE_TABLE_>
   2c16c:	01 00 00 00 	nop 

0002c170 <rename@plt>:
   2c170:	03 00 00 78 	sethi  %hi(0x1e000), %g1
   2c174:	30 bf ff e1 	b,a   2c0f8 <_PROCEDURE_LINKAGE_TABLE_>
   2c178:	01 00 00 00 	nop 

0002c17c <ferror@plt>:
   2c17c:	03 00 00 84 	sethi  %hi(0x21000), %g1
   2c180:	30 bf ff de 	b,a   2c0f8 <_PROCEDURE_LINKAGE_TABLE_>
   2c184:	01 00 00 00 	nop 

0002c188 <sigaction@plt>:
   2c188:	03 00 00 90 	sethi  %hi(0x24000), %g1
   2c18c:	30 bf ff db 	b,a   2c0f8 <_PROCEDURE_LINKAGE_TABLE_>
   2c190:	01 00 00 00 	nop 

0002c194 <strncat@plt>:
   2c194:	03 00 00 9c 	sethi  %hi(0x27000), %g1
   2c198:	30 bf ff d8 	b,a   2c0f8 <_PROCEDURE_LINKAGE_TABLE_>
   2c19c:	01 00 00 00 	nop 

0002c1a0 <strchr@plt>:
   2c1a0:	03 00 00 a8 	sethi  %hi(0x2a000), %g1
   2c1a4:	30 bf ff d5 	b,a   2c0f8 <_PROCEDURE_LINKAGE_TABLE_>
   2c1a8:	01 00 00 00 	nop 

0002c1ac <feof@plt>:
   2c1ac:	03 00 00 b4 	sethi  %hi(0x2d000), %g1
   2c1b0:	30 bf ff d2 	b,a   2c0f8 <_PROCEDURE_LINKAGE_TABLE_>
   2c1b4:	01 00 00 00 	nop 

0002c1b8 <getpid@plt>:
   2c1b8:	03 00 00 c0 	sethi  %hi(0x30000), %g1
   2c1bc:	30 bf ff cf 	b,a   2c0f8 <_PROCEDURE_LINKAGE_TABLE_>
   2c1c0:	01 00 00 00 	nop 

0002c1c4 <strdup@plt>:
   2c1c4:	03 00 00 cc 	sethi  %hi(0x33000), %g1
   2c1c8:	30 bf ff cc 	b,a   2c0f8 <_PROCEDURE_LINKAGE_TABLE_>
   2c1cc:	01 00 00 00 	nop 

0002c1d0 <write@plt>:
   2c1d0:	03 00 00 d8 	sethi  %hi(0x36000), %g1
   2c1d4:	30 bf ff c9 	b,a   2c0f8 <_PROCEDURE_LINKAGE_TABLE_>
   2c1d8:	01 00 00 00 	nop 

0002c1dc <localtime@plt>:
   2c1dc:	03 00 00 e4 	sethi  %hi(0x39000), %g1
   2c1e0:	30 bf ff c6 	b,a   2c0f8 <_PROCEDURE_LINKAGE_TABLE_>
   2c1e4:	01 00 00 00 	nop 

0002c1e8 <fileno@plt>:
   2c1e8:	03 00 00 f0 	sethi  %hi(0x3c000), %g1
   2c1ec:	30 bf ff c3 	b,a   2c0f8 <_PROCEDURE_LINKAGE_TABLE_>
   2c1f0:	01 00 00 00 	nop 

0002c1f4 <strcmp@plt>:
   2c1f4:	03 00 00 fc 	sethi  %hi(0x3f000), %g1
   2c1f8:	30 bf ff c0 	b,a   2c0f8 <_PROCEDURE_LINKAGE_TABLE_>
   2c1fc:	01 00 00 00 	nop 

0002c200 <close@plt>:
   2c200:	03 00 01 08 	sethi  %hi(0x42000), %g1
   2c204:	30 bf ff bd 	b,a   2c0f8 <_PROCEDURE_LINKAGE_TABLE_>
   2c208:	01 00 00 00 	nop 

0002c20c <statfs@plt>:
   2c20c:	03 00 01 14 	sethi  %hi(0x45000), %g1
   2c210:	30 bf ff ba 	b,a   2c0f8 <_PROCEDURE_LINKAGE_TABLE_>
   2c214:	01 00 00 00 	nop 

0002c218 <vfork@plt>:
   2c218:	03 00 01 20 	sethi  %hi(0x48000), %g1
   2c21c:	30 bf ff b7 	b,a   2c0f8 <_PROCEDURE_LINKAGE_TABLE_>
   2c220:	01 00 00 00 	nop 

0002c224 <perror@plt>:
   2c224:	03 00 01 2c 	sethi  %hi(0x4b000), %g1
   2c228:	30 bf ff b4 	b,a   2c0f8 <_PROCEDURE_LINKAGE_TABLE_>
   2c22c:	01 00 00 00 	nop 

0002c230 <getenv@plt>:
   2c230:	03 00 01 38 	sethi  %hi(0x4e000), %g1
   2c234:	30 bf ff b1 	b,a   2c0f8 <_PROCEDURE_LINKAGE_TABLE_>
   2c238:	01 00 00 00 	nop 

0002c23c <umask@plt>:
   2c23c:	03 00 01 44 	sethi  %hi(0x51000), %g1
   2c240:	30 bf ff ae 	b,a   2c0f8 <_PROCEDURE_LINKAGE_TABLE_>
   2c244:	01 00 00 00 	nop 

0002c248 <signal@plt>:
   2c248:	03 00 01 50 	sethi  %hi(0x54000), %g1
   2c24c:	30 bf ff ab 	b,a   2c0f8 <_PROCEDURE_LINKAGE_TABLE_>
   2c250:	01 00 00 00 	nop 

0002c254 <fflush@plt>:
   2c254:	03 00 01 5c 	sethi  %hi(0x57000), %g1
   2c258:	30 bf ff a8 	b,a   2c0f8 <_PROCEDURE_LINKAGE_TABLE_>
   2c25c:	01 00 00 00 	nop 

0002c260 <unlink@plt>:
   2c260:	03 00 01 68 	sethi  %hi(0x5a000), %g1
   2c264:	30 bf ff a5 	b,a   2c0f8 <_PROCEDURE_LINKAGE_TABLE_>
   2c268:	01 00 00 00 	nop 

0002c26c <sethostname@plt>:
   2c26c:	03 00 01 74 	sethi  %hi(0x5d000), %g1
   2c270:	30 bf ff a2 	b,a   2c0f8 <_PROCEDURE_LINKAGE_TABLE_>
   2c274:	01 00 00 00 	nop 

0002c278 <setenv@plt>:
   2c278:	03 00 01 80 	sethi  %hi(0x60000), %g1
   2c27c:	30 bf ff 9f 	b,a   2c0f8 <_PROCEDURE_LINKAGE_TABLE_>
   2c280:	01 00 00 00 	nop 

0002c284 <strerror@plt>:
   2c284:	03 00 01 8c 	sethi  %hi(0x63000), %g1
   2c288:	30 bf ff 9c 	b,a   2c0f8 <_PROCEDURE_LINKAGE_TABLE_>
   2c28c:	01 00 00 00 	nop 

0002c290 <putchar@plt>:
   2c290:	03 00 01 98 	sethi  %hi(0x66000), %g1
   2c294:	30 bf ff 99 	b,a   2c0f8 <_PROCEDURE_LINKAGE_TABLE_>
   2c298:	01 00 00 00 	nop 

0002c29c <putenv@plt>:
   2c29c:	03 00 01 a4 	sethi  %hi(0x69000), %g1
   2c2a0:	30 bf ff 96 	b,a   2c0f8 <_PROCEDURE_LINKAGE_TABLE_>
   2c2a4:	01 00 00 00 	nop 

0002c2a8 <bcopy@plt>:
   2c2a8:	03 00 01 b0 	sethi  %hi(0x6c000), %g1
   2c2ac:	30 bf ff 93 	b,a   2c0f8 <_PROCEDURE_LINKAGE_TABLE_>
   2c2b0:	01 00 00 00 	nop 

0002c2b4 <__errno_location@plt>:
   2c2b4:	03 00 01 bc 	sethi  %hi(0x6f000), %g1
   2c2b8:	30 bf ff 90 	b,a   2c0f8 <_PROCEDURE_LINKAGE_TABLE_>
   2c2bc:	01 00 00 00 	nop 

0002c2c0 <system@plt>:
   2c2c0:	03 00 01 c8 	sethi  %hi(0x72000), %g1
   2c2c4:	30 bf ff 8d 	b,a   2c0f8 <_PROCEDURE_LINKAGE_TABLE_>
   2c2c8:	01 00 00 00 	nop 

0002c2cc <chmod@plt>:
   2c2cc:	03 00 01 d4 	sethi  %hi(0x75000), %g1
   2c2d0:	30 bf ff 8a 	b,a   2c0f8 <_PROCEDURE_LINKAGE_TABLE_>
   2c2d4:	01 00 00 00 	nop 

0002c2d8 <access@plt>:
   2c2d8:	03 00 01 e0 	sethi  %hi(0x78000), %g1
   2c2dc:	30 bf ff 87 	b,a   2c0f8 <_PROCEDURE_LINKAGE_TABLE_>
   2c2e0:	01 00 00 00 	nop 

0002c2e4 <malloc@plt>:
   2c2e4:	03 00 01 ec 	sethi  %hi(0x7b000), %g1
   2c2e8:	30 bf ff 84 	b,a   2c0f8 <_PROCEDURE_LINKAGE_TABLE_>
   2c2ec:	01 00 00 00 	nop 

0002c2f0 <index@plt>:
   2c2f0:	03 00 01 f8 	sethi  %hi(0x7e000), %g1
   2c2f4:	30 bf ff 81 	b,a   2c0f8 <_PROCEDURE_LINKAGE_TABLE_>
   2c2f8:	01 00 00 00 	nop 

0002c2fc <fread@plt>:
   2c2fc:	03 00 02 04 	sethi  %hi(0x81000), %g1
   2c300:	30 bf ff 7e 	b,a   2c0f8 <_PROCEDURE_LINKAGE_TABLE_>
   2c304:	01 00 00 00 	nop 

0002c308 <clearerr@plt>:
   2c308:	03 00 02 10 	sethi  %hi(0x84000), %g1
   2c30c:	30 bf ff 7b 	b,a   2c0f8 <_PROCEDURE_LINKAGE_TABLE_>
   2c310:	01 00 00 00 	nop 

0002c314 <link@plt>:
   2c314:	03 00 02 1c 	sethi  %hi(0x87000), %g1
   2c318:	30 bf ff 78 	b,a   2c0f8 <_PROCEDURE_LINKAGE_TABLE_>
   2c31c:	01 00 00 00 	nop 

0002c320 <stime@plt>:
   2c320:	03 00 02 28 	sethi  %hi(0x8a000), %g1
   2c324:	30 bf ff 75 	b,a   2c0f8 <_PROCEDURE_LINKAGE_TABLE_>
   2c328:	01 00 00 00 	nop 

0002c32c <__xstat@plt>:
   2c32c:	03 00 02 34 	sethi  %hi(0x8d000), %g1
   2c330:	30 bf ff 72 	b,a   2c0f8 <_PROCEDURE_LINKAGE_TABLE_>
   2c334:	01 00 00 00 	nop 

0002c338 <umount@plt>:
   2c338:	03 00 02 40 	sethi  %hi(0x90000), %g1
   2c33c:	30 bf ff 6f 	b,a   2c0f8 <_PROCEDURE_LINKAGE_TABLE_>
   2c340:	01 00 00 00 	nop 

0002c344 <fseek@plt>:
   2c344:	03 00 02 4c 	sethi  %hi(0x93000), %g1
   2c348:	30 bf ff 6c 	b,a   2c0f8 <_PROCEDURE_LINKAGE_TABLE_>
   2c34c:	01 00 00 00 	nop 

0002c350 <time@plt>:
   2c350:	03 00 02 58 	sethi  %hi(0x96000), %g1
   2c354:	30 bf ff 69 	b,a   2c0f8 <_PROCEDURE_LINKAGE_TABLE_>
   2c358:	01 00 00 00 	nop 

0002c35c <mktime@plt>:
   2c35c:	03 00 02 64 	sethi  %hi(0x99000), %g1
   2c360:	30 bf ff 66 	b,a   2c0f8 <_PROCEDURE_LINKAGE_TABLE_>
   2c364:	01 00 00 00 	nop 

0002c368 <fgets@plt>:
   2c368:	03 00 02 70 	sethi  %hi(0x9c000), %g1
   2c36c:	30 bf ff 63 	b,a   2c0f8 <_PROCEDURE_LINKAGE_TABLE_>
   2c370:	01 00 00 00 	nop 

0002c374 <chdir@plt>:
   2c374:	03 00 02 7c 	sethi  %hi(0x9f000), %g1
   2c378:	30 bf ff 60 	b,a   2c0f8 <_PROCEDURE_LINKAGE_TABLE_>
   2c37c:	01 00 00 00 	nop 

0002c380 <fputs@plt>:
   2c380:	03 00 02 88 	sethi  %hi(0xa2000), %g1
   2c384:	30 bf ff 5d 	b,a   2c0f8 <_PROCEDURE_LINKAGE_TABLE_>
   2c388:	01 00 00 00 	nop 

0002c38c <strlen@plt>:
   2c38c:	03 00 02 94 	sethi  %hi(0xa5000), %g1
   2c390:	30 bf ff 5a 	b,a   2c0f8 <_PROCEDURE_LINKAGE_TABLE_>
   2c394:	01 00 00 00 	nop 

0002c398 <sleep@plt>:
   2c398:	03 00 02 a0 	sethi  %hi(0xa8000), %g1
   2c39c:	30 bf ff 57 	b,a   2c0f8 <_PROCEDURE_LINKAGE_TABLE_>
   2c3a0:	01 00 00 00 	nop 

0002c3a4 <__lxstat@plt>:
   2c3a4:	03 00 02 ac 	sethi  %hi(0xab000), %g1
   2c3a8:	30 bf ff 54 	b,a   2c0f8 <_PROCEDURE_LINKAGE_TABLE_>
   2c3ac:	01 00 00 00 	nop 

0002c3b0 <qsort@plt>:
   2c3b0:	03 00 02 b8 	sethi  %hi(0xae000), %g1
   2c3b4:	30 bf ff 51 	b,a   2c0f8 <_PROCEDURE_LINKAGE_TABLE_>
   2c3b8:	01 00 00 00 	nop 

0002c3bc <execvp@plt>:
   2c3bc:	03 00 02 c4 	sethi  %hi(0xb1000), %g1
   2c3c0:	30 bf ff 4e 	b,a   2c0f8 <_PROCEDURE_LINKAGE_TABLE_>
   2c3c4:	01 00 00 00 	nop 

0002c3c8 <strncmp@plt>:
   2c3c8:	03 00 02 d0 	sethi  %hi(0xb4000), %g1
   2c3cc:	30 bf ff 4b 	b,a   2c0f8 <_PROCEDURE_LINKAGE_TABLE_>
   2c3d0:	01 00 00 00 	nop 

0002c3d4 <fputc@plt>:
   2c3d4:	03 00 02 dc 	sethi  %hi(0xb7000), %g1
   2c3d8:	30 bf ff 48 	b,a   2c0f8 <_PROCEDURE_LINKAGE_TABLE_>
   2c3dc:	01 00 00 00 	nop 

0002c3e0 <memcmp@plt>:
   2c3e0:	03 00 02 e8 	sethi  %hi(0xba000), %g1
   2c3e4:	30 bf ff 45 	b,a   2c0f8 <_PROCEDURE_LINKAGE_TABLE_>
   2c3e8:	01 00 00 00 	nop 

0002c3ec <sprintf@plt>:
   2c3ec:	03 00 02 f4 	sethi  %hi(0xbd000), %g1
   2c3f0:	30 bf ff 42 	b,a   2c0f8 <_PROCEDURE_LINKAGE_TABLE_>
   2c3f4:	01 00 00 00 	nop 

0002c3f8 <fprintf@plt>:
   2c3f8:	03 00 03 00 	sethi  %hi(0xc0000), %g1
   2c3fc:	30 bf ff 3f 	b,a   2c0f8 <_PROCEDURE_LINKAGE_TABLE_>
   2c400:	01 00 00 00 	nop 

0002c404 <__libc_start_main@plt>:
   2c404:	03 00 03 0c 	sethi  %hi(0xc3000), %g1
   2c408:	30 bf ff 3c 	b,a   2c0f8 <_PROCEDURE_LINKAGE_TABLE_>
   2c40c:	01 00 00 00 	nop 

0002c410 <sscanf@plt>:
   2c410:	03 00 03 18 	sethi  %hi(0xc6000), %g1
   2c414:	30 bf ff 39 	b,a   2c0f8 <_PROCEDURE_LINKAGE_TABLE_>
   2c418:	01 00 00 00 	nop 

0002c41c <toupper@plt>:
   2c41c:	03 00 03 24 	sethi  %hi(0xc9000), %g1
   2c420:	30 bf ff 36 	b,a   2c0f8 <_PROCEDURE_LINKAGE_TABLE_>
   2c424:	01 00 00 00 	nop 

0002c428 <strcat@plt>:
   2c428:	03 00 03 30 	sethi  %hi(0xcc000), %g1
   2c42c:	30 bf ff 33 	b,a   2c0f8 <_PROCEDURE_LINKAGE_TABLE_>
   2c430:	01 00 00 00 	nop 

0002c434 <asctime@plt>:
   2c434:	03 00 03 3c 	sethi  %hi(0xcf000), %g1
   2c438:	30 bf ff 30 	b,a   2c0f8 <_PROCEDURE_LINKAGE_TABLE_>
   2c43c:	01 00 00 00 	nop 

0002c440 <chown@plt>:
   2c440:	03 00 03 48 	sethi  %hi(0xd2000), %g1
   2c444:	30 bf ff 2d 	b,a   2c0f8 <_PROCEDURE_LINKAGE_TABLE_>
   2c448:	01 00 00 00 	nop 

0002c44c <memcpy@plt>:
   2c44c:	03 00 03 54 	sethi  %hi(0xd5000), %g1
   2c450:	30 bf ff 2a 	b,a   2c0f8 <_PROCEDURE_LINKAGE_TABLE_>
   2c454:	01 00 00 00 	nop 

0002c458 <fclose@plt>:
   2c458:	03 00 03 60 	sethi  %hi(0xd8000), %g1
   2c45c:	30 bf ff 27 	b,a   2c0f8 <_PROCEDURE_LINKAGE_TABLE_>
   2c460:	01 00 00 00 	nop 

0002c464 <strrchr@plt>:
   2c464:	03 00 03 6c 	sethi  %hi(0xdb000), %g1
   2c468:	30 bf ff 24 	b,a   2c0f8 <_PROCEDURE_LINKAGE_TABLE_>
   2c46c:	01 00 00 00 	nop 

0002c470 <ctime@plt>:
   2c470:	03 00 03 78 	sethi  %hi(0xde000), %g1
   2c474:	30 bf ff 21 	b,a   2c0f8 <_PROCEDURE_LINKAGE_TABLE_>
   2c478:	01 00 00 00 	nop 

0002c47c <rmdir@plt>:
   2c47c:	03 00 03 84 	sethi  %hi(0xe1000), %g1
   2c480:	30 bf ff 1e 	b,a   2c0f8 <_PROCEDURE_LINKAGE_TABLE_>
   2c484:	01 00 00 00 	nop 

0002c488 <closedir@plt>:
   2c488:	03 00 03 90 	sethi  %hi(0xe4000), %g1
   2c48c:	30 bf ff 1b 	b,a   2c0f8 <_PROCEDURE_LINKAGE_TABLE_>
   2c490:	01 00 00 00 	nop 

0002c494 <symlink@plt>:
   2c494:	03 00 03 9c 	sethi  %hi(0xe7000), %g1
   2c498:	30 bf ff 18 	b,a   2c0f8 <_PROCEDURE_LINKAGE_TABLE_>
   2c49c:	01 00 00 00 	nop 

0002c4a0 <gettimeofday@plt>:
   2c4a0:	03 00 03 a8 	sethi  %hi(0xea000), %g1
   2c4a4:	30 bf ff 15 	b,a   2c0f8 <_PROCEDURE_LINKAGE_TABLE_>
   2c4a8:	01 00 00 00 	nop 

0002c4ac <opendir@plt>:
   2c4ac:	03 00 03 b4 	sethi  %hi(0xed000), %g1
   2c4b0:	30 bf ff 12 	b,a   2c0f8 <_PROCEDURE_LINKAGE_TABLE_>
   2c4b4:	01 00 00 00 	nop 

0002c4b8 <gethostname@plt>:
   2c4b8:	03 00 03 c0 	sethi  %hi(0xf0000), %g1
   2c4bc:	30 bf ff 0f 	b,a   2c0f8 <_PROCEDURE_LINKAGE_TABLE_>
   2c4c0:	01 00 00 00 	nop 

0002c4c4 <open@plt>:
   2c4c4:	03 00 03 cc 	sethi  %hi(0xf3000), %g1
   2c4c8:	30 bf ff 0c 	b,a   2c0f8 <_PROCEDURE_LINKAGE_TABLE_>
   2c4cc:	01 00 00 00 	nop 

0002c4d0 <getpwnam@plt>:
   2c4d0:	03 00 03 d8 	sethi  %hi(0xf6000), %g1
   2c4d4:	30 bf ff 09 	b,a   2c0f8 <_PROCEDURE_LINKAGE_TABLE_>
   2c4d8:	01 00 00 00 	nop 

0002c4dc <exit@plt>:
   2c4dc:	03 00 03 e4 	sethi  %hi(0xf9000), %g1
   2c4e0:	30 bf ff 06 	b,a   2c0f8 <_PROCEDURE_LINKAGE_TABLE_>
   2c4e4:	01 00 00 00 	nop 

0002c4e8 <atoi@plt>:
   2c4e8:	03 00 03 f0 	sethi  %hi(0xfc000), %g1
   2c4ec:	30 bf ff 03 	b,a   2c0f8 <_PROCEDURE_LINKAGE_TABLE_>
   2c4f0:	01 00 00 00 	nop 

0002c4f4 <free@plt>:
   2c4f4:	03 00 03 fc 	sethi  %hi(0xff000), %g1
   2c4f8:	30 bf ff 00 	b,a   2c0f8 <_PROCEDURE_LINKAGE_TABLE_>
   2c4fc:	01 00 00 00 	nop 

0002c500 <strtoul@plt>:
   2c500:	03 00 04 08 	sethi  %hi(0x102000), %g1
   2c504:	30 bf fe fd 	b,a   2c0f8 <_PROCEDURE_LINKAGE_TABLE_>
   2c508:	01 00 00 00 	nop 

0002c50c <utime@plt>:
   2c50c:	03 00 04 14 	sethi  %hi(0x105000), %g1
   2c510:	30 bf fe fa 	b,a   2c0f8 <_PROCEDURE_LINKAGE_TABLE_>
   2c514:	01 00 00 00 	nop 

0002c518 <getcwd@plt>:
   2c518:	03 00 04 20 	sethi  %hi(0x108000), %g1
   2c51c:	30 bf fe f7 	b,a   2c0f8 <_PROCEDURE_LINKAGE_TABLE_>
   2c520:	01 00 00 00 	nop 

0002c524 <isatty@plt>:
   2c524:	03 00 04 2c 	sethi  %hi(0x10b000), %g1
   2c528:	30 bf fe f4 	b,a   2c0f8 <_PROCEDURE_LINKAGE_TABLE_>
   2c52c:	01 00 00 00 	nop 

0002c530 <memset@plt>:
   2c530:	03 00 04 38 	sethi  %hi(0x10e000), %g1
   2c534:	30 bf fe f1 	b,a   2c0f8 <_PROCEDURE_LINKAGE_TABLE_>
   2c538:	01 00 00 00 	nop 

0002c53c <_exit@plt>:
   2c53c:	03 00 04 44 	sethi  %hi(0x111000), %g1
   2c540:	30 bf fe ee 	b,a   2c0f8 <_PROCEDURE_LINKAGE_TABLE_>
   2c544:	01 00 00 00 	nop 

0002c548 <mount@plt>:
   2c548:	03 00 04 50 	sethi  %hi(0x114000), %g1
   2c54c:	30 bf fe eb 	b,a   2c0f8 <_PROCEDURE_LINKAGE_TABLE_>
   2c550:	01 00 00 00 	nop 

0002c554 <__xmknod@plt>:
   2c554:	03 00 04 5c 	sethi  %hi(0x117000), %g1
   2c558:	30 bf fe e8 	b,a   2c0f8 <_PROCEDURE_LINKAGE_TABLE_>
   2c55c:	01 00 00 00 	nop 

0002c560 <strncpy@plt>:
   2c560:	03 00 04 68 	sethi  %hi(0x11a000), %g1
   2c564:	30 bf fe e5 	b,a   2c0f8 <_PROCEDURE_LINKAGE_TABLE_>
   2c568:	01 00 00 00 	nop 

0002c56c <fopen@plt>:
   2c56c:	03 00 04 74 	sethi  %hi(0x11d000), %g1
   2c570:	30 bf fe e2 	b,a   2c0f8 <_PROCEDURE_LINKAGE_TABLE_>
   2c574:	01 00 00 00 	nop 

0002c578 <kill@plt>:
   2c578:	03 00 04 80 	sethi  %hi(0x120000), %g1
   2c57c:	30 bf fe df 	b,a   2c0f8 <_PROCEDURE_LINKAGE_TABLE_>
   2c580:	01 00 00 00 	nop 

0002c584 <fwrite@plt>:
   2c584:	03 00 04 8c 	sethi  %hi(0x123000), %g1
   2c588:	30 bf fe dc 	b,a   2c0f8 <_PROCEDURE_LINKAGE_TABLE_>
   2c58c:	01 00 00 00 	nop 

0002c590 <readdir@plt>:
   2c590:	03 00 04 98 	sethi  %hi(0x126000), %g1
   2c594:	30 bf fe d9 	b,a   2c0f8 <_PROCEDURE_LINKAGE_TABLE_>
   2c598:	01 00 00 00 	nop 

0002c59c <__ctype_b_loc@plt>:
   2c59c:	03 00 04 a4 	sethi  %hi(0x129000), %g1
   2c5a0:	30 bf fe d6 	b,a   2c0f8 <_PROCEDURE_LINKAGE_TABLE_>
   2c5a4:	01 00 00 00 	nop 

0002c5a8 <printf@plt>:
   2c5a8:	03 00 04 b0 	sethi  %hi(0x12c000), %g1
   2c5ac:	30 bf fe d3 	b,a   2c0f8 <_PROCEDURE_LINKAGE_TABLE_>
   2c5b0:	01 00 00 00 	nop 

0002c5b4 <read@plt>:
   2c5b4:	03 00 04 bc 	sethi  %hi(0x12f000), %g1
   2c5b8:	30 bf fe d0 	b,a   2c0f8 <_PROCEDURE_LINKAGE_TABLE_>
   2c5bc:	01 00 00 00 	nop 

0002c5c0 <sync@plt>:
   2c5c0:	03 00 04 c8 	sethi  %hi(0x132000), %g1
   2c5c4:	30 bf fe cd 	b,a   2c0f8 <_PROCEDURE_LINKAGE_TABLE_>
   2c5c8:	01 00 00 00 	nop 

0002c5cc <strcpy@plt>:
   2c5cc:	03 00 04 d4 	sethi  %hi(0x135000), %g1
   2c5d0:	30 bf fe ca 	b,a   2c0f8 <_PROCEDURE_LINKAGE_TABLE_>
   2c5d4:	01 00 00 00 	nop 
   2c5d8:	01 00 00 00 	nop 
