Archive member included because of file (symbol)

libbb/lib.a(appletlib.o)      /opt/sparc-linux-3.4.4/lib/gcc/sparc-linux/3.4.4/../../../../sparc-linux/lib/soft/v8/crt1.o (main)
libbb/lib.a(bb_basename.o)    libbb/lib.a(appletlib.o) (bb_basename)
libbb/lib.a(concat_path_file.o)
                              libbb/lib.a(appletlib.o) (concat_path_file)
libbb/lib.a(default_error_retval.o)
                              libbb/lib.a(appletlib.o) (xfunc_error_retval)
libbb/lib.a(error_msg_and_die.o)
                              libbb/lib.a(appletlib.o) (xfunc_die)
libbb/lib.a(get_last_path_component.o)
                              libbb/lib.a(appletlib.o) (bb_get_last_path_component_nostrip)
libbb/lib.a(last_char_is.o)   libbb/lib.a(concat_path_file.o) (last_char_is)
libbb/lib.a(messages.o)       libbb/lib.a(appletlib.o) (bb_busybox_exec_path)
libbb/lib.a(perror_msg.o)     libbb/lib.a(appletlib.o) (bb_simple_perror_msg)
libbb/lib.a(verror_msg.o)     libbb/lib.a(error_msg_and_die.o) (bb_verror_msg)
libbb/lib.a(xfuncs.o)         libbb/lib.a(appletlib.o) (malloc_or_warn)
libbb/lib.a(xreadlink.o)      libbb/lib.a(appletlib.o) (xmalloc_readlink)
libbb/lib.a(copyfd.o)         libbb/lib.a(xfuncs.o) (bb_copyfd_eof)
libbb/lib.a(error_msg.o)      libbb/lib.a(xfuncs.o) (bb_error_msg)
libbb/lib.a(full_write.o)     libbb/lib.a(verror_msg.o) (full_write)
libbb/lib.a(perror_msg_and_die.o)
                              libbb/lib.a(xfuncs.o) (bb_perror_msg_and_die)
libbb/lib.a(read.o)           libbb/lib.a(xfuncs.o) (safe_read)
libbb/lib.a(safe_write.o)     libbb/lib.a(full_write.o) (safe_write)
loginutils/lib.a(addgroup.o)  libbb/lib.a(appletlib.o) (addgroup_main)
loginutils/lib.a(adduser.o)   libbb/lib.a(appletlib.o) (adduser_main)
loginutils/lib.a(chpasswd.o)  libbb/lib.a(appletlib.o) (chpasswd_main)
loginutils/lib.a(cryptpw.o)   libbb/lib.a(appletlib.o) (cryptpw_main)
loginutils/lib.a(deluser.o)   libbb/lib.a(appletlib.o) (deluser_main)
loginutils/lib.a(getty.o)     libbb/lib.a(appletlib.o) (getty_main)
loginutils/lib.a(login.o)     libbb/lib.a(appletlib.o) (login_main)
loginutils/lib.a(passwd.o)    libbb/lib.a(appletlib.o) (passwd_main)
loginutils/lib.a(su.o)        libbb/lib.a(appletlib.o) (su_main)
loginutils/lib.a(sulogin.o)   libbb/lib.a(appletlib.o) (sulogin_main)
loginutils/lib.a(vlock.o)     libbb/lib.a(appletlib.o) (vlock_main)
miscutils/lib.a(adjtimex.o)   libbb/lib.a(appletlib.o) (adjtimex_main)
miscutils/lib.a(chrt.o)       libbb/lib.a(appletlib.o) (chrt_main)
miscutils/lib.a(crond.o)      libbb/lib.a(appletlib.o) (crond_main)
miscutils/lib.a(crontab.o)    libbb/lib.a(appletlib.o) (crontab_main)
miscutils/lib.a(dc.o)         libbb/lib.a(appletlib.o) (dc_main)
miscutils/lib.a(eject.o)      libbb/lib.a(appletlib.o) (eject_main)
miscutils/lib.a(hdparm.o)     libbb/lib.a(appletlib.o) (hdparm_main)
miscutils/lib.a(last.o)       libbb/lib.a(appletlib.o) (last_main)
miscutils/lib.a(less.o)       libbb/lib.a(appletlib.o) (less_main)
miscutils/lib.a(makedevs.o)   libbb/lib.a(appletlib.o) (makedevs_main)
miscutils/lib.a(microcom.o)   libbb/lib.a(appletlib.o) (microcom_main)
miscutils/lib.a(mountpoint.o)
                              libbb/lib.a(appletlib.o) (mountpoint_main)
miscutils/lib.a(mt.o)         libbb/lib.a(appletlib.o) (mt_main)
miscutils/lib.a(raidautorun.o)
                              libbb/lib.a(appletlib.o) (raidautorun_main)
miscutils/lib.a(readahead.o)  libbb/lib.a(appletlib.o) (readahead_main)
miscutils/lib.a(runlevel.o)   libbb/lib.a(appletlib.o) (runlevel_main)
miscutils/lib.a(rx.o)         libbb/lib.a(appletlib.o) (rx_main)
miscutils/lib.a(setsid.o)     libbb/lib.a(appletlib.o) (setsid_main)
miscutils/lib.a(strings.o)    libbb/lib.a(appletlib.o) (strings_main)
miscutils/lib.a(time.o)       libbb/lib.a(appletlib.o) (time_main)
miscutils/lib.a(ttysize.o)    libbb/lib.a(appletlib.o) (ttysize_main)
miscutils/lib.a(watchdog.o)   libbb/lib.a(appletlib.o) (watchdog_main)
modutils/lib.a(lsmod.o)       libbb/lib.a(appletlib.o) (lsmod_main)
modutils/lib.a(modprobe.o)    libbb/lib.a(appletlib.o) (modprobe_main)
networking/lib.a(arp.o)       libbb/lib.a(appletlib.o) (arp_main)
networking/lib.a(arping.o)    libbb/lib.a(appletlib.o) (arping_main)
networking/lib.a(dnsd.o)      libbb/lib.a(appletlib.o) (dnsd_main)
networking/lib.a(ether-wake.o)
                              libbb/lib.a(appletlib.o) (ether_wake_main)
networking/lib.a(ftpgetput.o)
                              libbb/lib.a(appletlib.o) (ftpgetput_main)
networking/lib.a(hostname.o)  libbb/lib.a(appletlib.o) (hostname_main)
networking/lib.a(httpd.o)     libbb/lib.a(appletlib.o) (httpd_main)
networking/lib.a(ifconfig.o)  libbb/lib.a(appletlib.o) (ifconfig_main)
networking/lib.a(ifupdown.o)  libbb/lib.a(appletlib.o) (ifupdown_main)
networking/lib.a(inetd.o)     libbb/lib.a(appletlib.o) (inetd_main)
networking/lib.a(interface.o)
                              networking/lib.a(arp.o) (get_aftype)
networking/lib.a(ip.o)        libbb/lib.a(appletlib.o) (ipaddr_main)
networking/lib.a(ipcalc.o)    libbb/lib.a(appletlib.o) (ipcalc_main)
networking/lib.a(isrv_identd.o)
                              libbb/lib.a(appletlib.o) (fakeidentd_main)
networking/lib.a(nameif.o)    libbb/lib.a(appletlib.o) (nameif_main)
networking/lib.a(nc.o)        libbb/lib.a(appletlib.o) (nc_main)
networking/lib.a(netstat.o)   libbb/lib.a(appletlib.o) (netstat_main)
networking/lib.a(nslookup.o)  libbb/lib.a(appletlib.o) (nslookup_main)
networking/lib.a(ping.o)      libbb/lib.a(appletlib.o) (ping_main)
networking/lib.a(pscan.o)     libbb/lib.a(appletlib.o) (pscan_main)
networking/lib.a(route.o)     networking/lib.a(netstat.o) (bb_displayroutes)
networking/lib.a(slattach.o)  libbb/lib.a(appletlib.o) (slattach_main)
networking/lib.a(telnet.o)    libbb/lib.a(appletlib.o) (telnet_main)
networking/lib.a(telnetd.o)   libbb/lib.a(appletlib.o) (telnetd_main)
networking/lib.a(tftp.o)      libbb/lib.a(appletlib.o) (tftp_main)
networking/lib.a(traceroute.o)
                              libbb/lib.a(appletlib.o) (traceroute_main)
networking/lib.a(vconfig.o)   libbb/lib.a(appletlib.o) (vconfig_main)
networking/lib.a(wget.o)      libbb/lib.a(appletlib.o) (wget_main)
networking/lib.a(zcip.o)      libbb/lib.a(appletlib.o) (zcip_main)
networking/lib.a(isrv.o)      networking/lib.a(isrv_identd.o) (isrv_want_rd)
networking/libiproute/lib.a(ip_parse_common_args.o)
                              networking/lib.a(ip.o) (ip_parse_common_args)
networking/libiproute/lib.a(ipaddress.o)
                              networking/lib.a(ip.o) (do_ipaddr)
networking/libiproute/lib.a(iplink.o)
                              networking/lib.a(ip.o) (do_iplink)
networking/libiproute/lib.a(iproute.o)
                              networking/lib.a(ip.o) (do_iproute)
networking/libiproute/lib.a(iprule.o)
                              networking/lib.a(ip.o) (do_iprule)
networking/libiproute/lib.a(iptunnel.o)
                              networking/lib.a(ip.o) (do_iptunnel)
networking/libiproute/lib.a(libnetlink.o)
                              networking/libiproute/lib.a(ipaddress.o) (xrtnl_open)
networking/libiproute/lib.a(ll_addr.o)
                              networking/libiproute/lib.a(ipaddress.o) (ll_addr_n2a)
networking/libiproute/lib.a(ll_map.o)
                              networking/libiproute/lib.a(ipaddress.o) (ll_remember_index)
networking/libiproute/lib.a(ll_types.o)
                              networking/libiproute/lib.a(ipaddress.o) (ll_type_n2a)
networking/libiproute/lib.a(rt_names.o)
                              networking/libiproute/lib.a(iproute.o) (rtnl_rtprot_a2n)
networking/libiproute/lib.a(rtm_map.o)
                              networking/libiproute/lib.a(iproute.o) (rtnl_rtntype_n2a)
networking/libiproute/lib.a(utils.o)
                              networking/libiproute/lib.a(iplink.o) (get_integer)
networking/udhcp/lib.a(dhcpc.o)
                              libbb/lib.a(appletlib.o) (udhcpc_main)
networking/udhcp/lib.a(dhcpd.o)
                              libbb/lib.a(appletlib.o) (udhcpd_main)
networking/udhcp/lib.a(dhcprelay.o)
                              libbb/lib.a(appletlib.o) (dhcprelay_main)
networking/udhcp/lib.a(dumpleases.o)
                              libbb/lib.a(appletlib.o) (dumpleases_main)
networking/udhcp/lib.a(files.o)
                              networking/udhcp/lib.a(dhcpd.o) (find_option)
networking/udhcp/lib.a(leases.o)
                              networking/udhcp/lib.a(files.o) (add_lease)
networking/udhcp/lib.a(options.o)
                              networking/udhcp/lib.a(files.o) (udhcp_option_lengths)
networking/udhcp/lib.a(packet.o)
                              networking/udhcp/lib.a(dhcpc.o) (udhcp_get_packet)
networking/udhcp/lib.a(script.o)
                              networking/udhcp/lib.a(dhcpc.o) (udhcp_run_script)
networking/udhcp/lib.a(serverpacket.o)
                              networking/udhcp/lib.a(dhcpd.o) (sendOffer)
networking/udhcp/lib.a(signalpipe.o)
                              networking/udhcp/lib.a(dhcpc.o) (udhcp_sp_setup)
networking/udhcp/lib.a(socket.o)
                              networking/udhcp/lib.a(dhcpc.o) (udhcp_read_interface)
networking/udhcp/lib.a(static_leases.o)
                              networking/udhcp/lib.a(files.o) (addStaticLease)
networking/udhcp/lib.a(arpping.o)
                              networking/udhcp/lib.a(leases.o) (arpping)
networking/udhcp/lib.a(clientpacket.o)
                              networking/udhcp/lib.a(dhcpc.o) (random_xid)
networking/udhcp/lib.a(clientsocket.o)
                              networking/udhcp/lib.a(dhcpc.o) (raw_socket)
networking/udhcp/lib.a(common.o)
                              networking/udhcp/lib.a(serverpacket.o) (MAC_BCAST_ADDR)
networking/udhcp/lib.a(domain_codec.o)
                              networking/udhcp/lib.a(script.o) (dname_dec)
procps/lib.a(free.o)          libbb/lib.a(appletlib.o) (free_main)
procps/lib.a(fuser.o)         libbb/lib.a(appletlib.o) (fuser_main)
procps/lib.a(kill.o)          libbb/lib.a(appletlib.o) (kill_main)
procps/lib.a(nmeter.o)        libbb/lib.a(appletlib.o) (nmeter_main)
procps/lib.a(pgrep.o)         libbb/lib.a(appletlib.o) (pgrep_main)
procps/lib.a(pidof.o)         libbb/lib.a(appletlib.o) (pidof_main)
procps/lib.a(ps.o)            libbb/lib.a(appletlib.o) (ps_main)
procps/lib.a(renice.o)        libbb/lib.a(appletlib.o) (renice_main)
procps/lib.a(sysctl.o)        libbb/lib.a(appletlib.o) (sysctl_main)
procps/lib.a(top.o)           libbb/lib.a(appletlib.o) (top_main)
procps/lib.a(uptime.o)        libbb/lib.a(appletlib.o) (uptime_main)
procps/lib.a(watch.o)         libbb/lib.a(appletlib.o) (watch_main)
runit/lib.a(chpst.o)          libbb/lib.a(appletlib.o) (chpst_main)
runit/lib.a(runsv.o)          libbb/lib.a(appletlib.o) (runsv_main)
runit/lib.a(runsvdir.o)       libbb/lib.a(appletlib.o) (runsvdir_main)
runit/lib.a(sv.o)             libbb/lib.a(appletlib.o) (sv_main)
runit/lib.a(svlogd.o)         libbb/lib.a(appletlib.o) (svlogd_main)
runit/lib.a(runit_lib.o)      runit/lib.a(runsv.o) (lock_ex)
shell/lib.a(hush.o)           libbb/lib.a(appletlib.o) (hush_main)
sysklogd/lib.a(klogd.o)       libbb/lib.a(appletlib.o) (klogd_main)
sysklogd/lib.a(logger.o)      libbb/lib.a(appletlib.o) (logger_main)
sysklogd/lib.a(logread.o)     libbb/lib.a(appletlib.o) (logread_main)
sysklogd/lib.a(syslogd.o)     sysklogd/lib.a(logger.o) (facilitynames)
util-linux/lib.a(dmesg.o)     libbb/lib.a(appletlib.o) (dmesg_main)
util-linux/lib.a(fbset.o)     libbb/lib.a(appletlib.o) (fbset_main)
util-linux/lib.a(fdformat.o)  libbb/lib.a(appletlib.o) (fdformat_main)
util-linux/lib.a(fdisk.o)     libbb/lib.a(appletlib.o) (fdisk_main)
util-linux/lib.a(freeramdisk.o)
                              libbb/lib.a(appletlib.o) (freeramdisk_main)
util-linux/lib.a(fsck_minix.o)
                              libbb/lib.a(appletlib.o) (fsck_minix_main)
util-linux/lib.a(getopt.o)    libbb/lib.a(appletlib.o) (getopt_main)
util-linux/lib.a(hexdump.o)   libbb/lib.a(appletlib.o) (hexdump_main)
util-linux/lib.a(hwclock.o)   libbb/lib.a(appletlib.o) (hwclock_main)
util-linux/lib.a(ipcrm.o)     libbb/lib.a(appletlib.o) (ipcrm_main)
util-linux/lib.a(ipcs.o)      libbb/lib.a(appletlib.o) (ipcs_main)
util-linux/lib.a(losetup.o)   libbb/lib.a(appletlib.o) (losetup_main)
util-linux/lib.a(mdev.o)      libbb/lib.a(appletlib.o) (mdev_main)
util-linux/lib.a(mkfs_minix.o)
                              libbb/lib.a(appletlib.o) (mkfs_minix_main)
util-linux/lib.a(mkswap.o)    libbb/lib.a(appletlib.o) (mkswap_main)
util-linux/lib.a(more.o)      libbb/lib.a(appletlib.o) (more_main)
util-linux/lib.a(mount.o)     libbb/lib.a(appletlib.o) (mount_main)
util-linux/lib.a(pivot_root.o)
                              libbb/lib.a(appletlib.o) (pivot_root_main)
util-linux/lib.a(rdate.o)     libbb/lib.a(appletlib.o) (rdate_main)
util-linux/lib.a(readprofile.o)
                              libbb/lib.a(appletlib.o) (readprofile_main)
util-linux/lib.a(setarch.o)   libbb/lib.a(appletlib.o) (setarch_main)
util-linux/lib.a(swaponoff.o)
                              libbb/lib.a(appletlib.o) (swap_on_off_main)
util-linux/lib.a(switch_root.o)
                              libbb/lib.a(appletlib.o) (switch_root_main)
util-linux/lib.a(umount.o)    libbb/lib.a(appletlib.o) (umount_main)
archival/lib.a(ar.o)          libbb/lib.a(appletlib.o) (ar_main)
archival/lib.a(bbunzip.o)     libbb/lib.a(appletlib.o) (bunzip2_main)
archival/lib.a(bzip2.o)       libbb/lib.a(appletlib.o) (bzip2_main)
archival/lib.a(cpio.o)        libbb/lib.a(appletlib.o) (cpio_main)
archival/lib.a(gzip.o)        libbb/lib.a(appletlib.o) (gzip_main)
archival/lib.a(rpm.o)         libbb/lib.a(appletlib.o) (rpm_main)
archival/lib.a(rpm2cpio.o)    libbb/lib.a(appletlib.o) (rpm2cpio_main)
archival/lib.a(tar.o)         libbb/lib.a(appletlib.o) (tar_main)
archival/lib.a(unzip.o)       libbb/lib.a(appletlib.o) (unzip_main)
archival/libunarchive/lib.a(data_extract_all.o)
                              archival/lib.a(ar.o) (data_extract_all)
archival/libunarchive/lib.a(data_extract_to_stdout.o)
                              archival/lib.a(ar.o) (data_extract_to_stdout)
archival/libunarchive/lib.a(data_skip.o)
                              archival/libunarchive/lib.a(data_extract_all.o) (data_skip)
archival/libunarchive/lib.a(decompress_bunzip2.o)
                              libbb/lib.a(appletlib.o) (read_bunzip)
archival/libunarchive/lib.a(decompress_uncompress.o)
                              archival/lib.a(bbunzip.o) (uncompress)
archival/libunarchive/lib.a(decompress_unlzma.o)
                              archival/lib.a(bbunzip.o) (unpack_lzma_stream)
archival/libunarchive/lib.a(decompress_unzip.o)
                              archival/lib.a(unzip.o) (inflate_unzip)
archival/libunarchive/lib.a(filter_accept_list.o)
                              archival/lib.a(ar.o) (filter_accept_list)
archival/libunarchive/lib.a(filter_accept_reject_list.o)
                              archival/lib.a(tar.o) (filter_accept_reject_list)
archival/libunarchive/lib.a(find_list_entry.o)
                              archival/lib.a(tar.o) (find_list_entry)
archival/libunarchive/lib.a(get_header_ar.o)
                              archival/lib.a(ar.o) (get_header_ar)
archival/libunarchive/lib.a(get_header_cpio.o)
                              archival/lib.a(cpio.o) (get_header_cpio)
archival/libunarchive/lib.a(get_header_tar.o)
                              archival/lib.a(tar.o) (get_header_tar)
archival/libunarchive/lib.a(get_header_tar_bz2.o)
                              archival/lib.a(tar.o) (get_header_tar_bz2)
archival/libunarchive/lib.a(get_header_tar_gz.o)
                              archival/lib.a(tar.o) (get_header_tar_gz)
archival/libunarchive/lib.a(get_header_tar_lzma.o)
                              archival/lib.a(tar.o) (get_header_tar_lzma)
archival/libunarchive/lib.a(header_list.o)
                              archival/lib.a(ar.o) (header_list)
archival/libunarchive/lib.a(header_verbose_list.o)
                              archival/lib.a(cpio.o) (header_verbose_list)
archival/libunarchive/lib.a(init_handle.o)
                              archival/lib.a(ar.o) (init_handle)
archival/libunarchive/lib.a(open_transformer.o)
                              archival/lib.a(rpm.o) (open_transformer)
archival/libunarchive/lib.a(seek_by_jump.o)
                              archival/lib.a(cpio.o) (seek_by_jump)
archival/libunarchive/lib.a(seek_by_read.o)
                              archival/lib.a(cpio.o) (seek_by_read)
archival/libunarchive/lib.a(archive_xread_all_eof.o)
                              archival/libunarchive/lib.a(get_header_cpio.o) (archive_xread_all_eof)
archival/libunarchive/lib.a(data_align.o)
                              archival/libunarchive/lib.a(get_header_cpio.o) (data_align)
archival/libunarchive/lib.a(filter_accept_all.o)
                              archival/libunarchive/lib.a(init_handle.o) (filter_accept_all)
archival/libunarchive/lib.a(header_skip.o)
                              archival/libunarchive/lib.a(init_handle.o) (header_skip)
console-tools/lib.a(chvt.o)   libbb/lib.a(appletlib.o) (chvt_main)
console-tools/lib.a(clear.o)  libbb/lib.a(appletlib.o) (clear_main)
console-tools/lib.a(deallocvt.o)
                              libbb/lib.a(appletlib.o) (deallocvt_main)
console-tools/lib.a(dumpkmap.o)
                              libbb/lib.a(appletlib.o) (dumpkmap_main)
console-tools/lib.a(kbd_mode.o)
                              libbb/lib.a(appletlib.o) (kbd_mode_main)
console-tools/lib.a(loadfont.o)
                              libbb/lib.a(appletlib.o) (loadfont_main)
console-tools/lib.a(loadkmap.o)
                              libbb/lib.a(appletlib.o) (loadkmap_main)
console-tools/lib.a(openvt.o)
                              libbb/lib.a(appletlib.o) (openvt_main)
console-tools/lib.a(reset.o)  libbb/lib.a(appletlib.o) (reset_main)
console-tools/lib.a(resize.o)
                              libbb/lib.a(appletlib.o) (resize_main)
console-tools/lib.a(setconsole.o)
                              libbb/lib.a(appletlib.o) (setconsole_main)
console-tools/lib.a(setkeycodes.o)
                              libbb/lib.a(appletlib.o) (setkeycodes_main)
console-tools/lib.a(setlogcons.o)
                              libbb/lib.a(appletlib.o) (setlogcons_main)
coreutils/lib.a(basename.o)   libbb/lib.a(appletlib.o) (basename_main)
coreutils/lib.a(cal.o)        libbb/lib.a(appletlib.o) (cal_main)
coreutils/lib.a(cat.o)        miscutils/lib.a(less.o) (bb_cat)
coreutils/lib.a(catv.o)       libbb/lib.a(appletlib.o) (catv_main)
coreutils/lib.a(chgrp.o)      libbb/lib.a(appletlib.o) (chgrp_main)
coreutils/lib.a(chmod.o)      libbb/lib.a(appletlib.o) (chmod_main)
coreutils/lib.a(chown.o)      libbb/lib.a(appletlib.o) (chown_main)
coreutils/lib.a(chroot.o)     libbb/lib.a(appletlib.o) (chroot_main)
coreutils/lib.a(cksum.o)      libbb/lib.a(appletlib.o) (cksum_main)
coreutils/lib.a(comm.o)       libbb/lib.a(appletlib.o) (comm_main)
coreutils/lib.a(cp.o)         libbb/lib.a(appletlib.o) (cp_main)
coreutils/lib.a(cut.o)        libbb/lib.a(appletlib.o) (cut_main)
coreutils/lib.a(date.o)       libbb/lib.a(appletlib.o) (date_main)
coreutils/lib.a(dd.o)         libbb/lib.a(appletlib.o) (dd_main)
coreutils/lib.a(df.o)         libbb/lib.a(appletlib.o) (df_main)
coreutils/lib.a(dirname.o)    libbb/lib.a(appletlib.o) (dirname_main)
coreutils/lib.a(dos2unix.o)   libbb/lib.a(appletlib.o) (dos2unix_main)
coreutils/lib.a(du.o)         libbb/lib.a(appletlib.o) (du_main)
coreutils/lib.a(echo.o)       libbb/lib.a(appletlib.o) (echo_main)
coreutils/lib.a(env.o)        libbb/lib.a(appletlib.o) (env_main)
coreutils/lib.a(expand.o)     libbb/lib.a(appletlib.o) (expand_main)
coreutils/lib.a(expr.o)       libbb/lib.a(appletlib.o) (expr_main)
coreutils/lib.a(false.o)      libbb/lib.a(appletlib.o) (false_main)
coreutils/lib.a(fold.o)       libbb/lib.a(appletlib.o) (fold_main)
coreutils/lib.a(head.o)       libbb/lib.a(appletlib.o) (head_main)
coreutils/lib.a(hostid.o)     libbb/lib.a(appletlib.o) (hostid_main)
coreutils/lib.a(id.o)         libbb/lib.a(appletlib.o) (id_main)
coreutils/lib.a(install.o)    libbb/lib.a(appletlib.o) (install_main)
coreutils/lib.a(length.o)     libbb/lib.a(appletlib.o) (length_main)
coreutils/lib.a(ln.o)         libbb/lib.a(appletlib.o) (ln_main)
coreutils/lib.a(logname.o)    libbb/lib.a(appletlib.o) (logname_main)
coreutils/lib.a(ls.o)         libbb/lib.a(appletlib.o) (ls_main)
coreutils/lib.a(md5_sha1_sum.o)
                              libbb/lib.a(appletlib.o) (md5_sha1_sum_main)
coreutils/lib.a(mkdir.o)      libbb/lib.a(appletlib.o) (mkdir_main)
coreutils/lib.a(mkfifo.o)     libbb/lib.a(appletlib.o) (mkfifo_main)
coreutils/lib.a(mknod.o)      libbb/lib.a(appletlib.o) (mknod_main)
coreutils/lib.a(mv.o)         libbb/lib.a(appletlib.o) (mv_main)
coreutils/lib.a(nice.o)       libbb/lib.a(appletlib.o) (nice_main)
coreutils/lib.a(nohup.o)      libbb/lib.a(appletlib.o) (nohup_main)
coreutils/lib.a(od.o)         libbb/lib.a(appletlib.o) (od_main)
coreutils/lib.a(printenv.o)   libbb/lib.a(appletlib.o) (printenv_main)
coreutils/lib.a(printf.o)     libbb/lib.a(appletlib.o) (printf_main)
coreutils/lib.a(pwd.o)        libbb/lib.a(appletlib.o) (pwd_main)
coreutils/lib.a(readlink.o)   libbb/lib.a(appletlib.o) (readlink_main)
coreutils/lib.a(realpath.o)   libbb/lib.a(appletlib.o) (realpath_main)
coreutils/lib.a(rm.o)         libbb/lib.a(appletlib.o) (rm_main)
coreutils/lib.a(rmdir.o)      libbb/lib.a(appletlib.o) (rmdir_main)
coreutils/lib.a(seq.o)        libbb/lib.a(appletlib.o) (seq_main)
coreutils/lib.a(sleep.o)      libbb/lib.a(appletlib.o) (sleep_main)
coreutils/lib.a(sort.o)       libbb/lib.a(appletlib.o) (sort_main)
coreutils/lib.a(split.o)      libbb/lib.a(appletlib.o) (split_main)
coreutils/lib.a(stat.o)       libbb/lib.a(appletlib.o) (stat_main)
coreutils/lib.a(stty.o)       libbb/lib.a(appletlib.o) (stty_main)
coreutils/lib.a(sum.o)        libbb/lib.a(appletlib.o) (sum_main)
coreutils/lib.a(sync.o)       libbb/lib.a(appletlib.o) (sync_main)
coreutils/lib.a(tail.o)       libbb/lib.a(appletlib.o) (tail_main)
coreutils/lib.a(tee.o)        libbb/lib.a(appletlib.o) (tee_main)
coreutils/lib.a(test.o)       libbb/lib.a(appletlib.o) (test_main)
coreutils/lib.a(touch.o)      libbb/lib.a(appletlib.o) (touch_main)
coreutils/lib.a(tr.o)         libbb/lib.a(appletlib.o) (tr_main)
coreutils/lib.a(true.o)       libbb/lib.a(appletlib.o) (true_main)
coreutils/lib.a(tty.o)        libbb/lib.a(appletlib.o) (tty_main)
coreutils/lib.a(uname.o)      libbb/lib.a(appletlib.o) (uname_main)
coreutils/lib.a(uniq.o)       libbb/lib.a(appletlib.o) (uniq_main)
coreutils/lib.a(usleep.o)     libbb/lib.a(appletlib.o) (usleep_main)
coreutils/lib.a(uudecode.o)   libbb/lib.a(appletlib.o) (uudecode_main)
coreutils/lib.a(uuencode.o)   libbb/lib.a(appletlib.o) (uuencode_main)
coreutils/lib.a(wc.o)         libbb/lib.a(appletlib.o) (wc_main)
coreutils/lib.a(who.o)        libbb/lib.a(appletlib.o) (who_main)
coreutils/lib.a(whoami.o)     libbb/lib.a(appletlib.o) (whoami_main)
coreutils/lib.a(yes.o)        libbb/lib.a(appletlib.o) (yes_main)
coreutils/libcoreutils/lib.a(cp_mv_stat.o)
                              coreutils/lib.a(cp.o) (cp_mv_stat2)
coreutils/libcoreutils/lib.a(getopt_mk_fifo_nod.o)
                              coreutils/lib.a(mkfifo.o) (getopt_mk_fifo_nod)
debianutils/lib.a(mktemp.o)   libbb/lib.a(appletlib.o) (mktemp_main)
debianutils/lib.a(pipe_progress.o)
                              libbb/lib.a(appletlib.o) (pipe_progress_main)
debianutils/lib.a(run_parts.o)
                              libbb/lib.a(appletlib.o) (run_parts_main)
debianutils/lib.a(start_stop_daemon.o)
                              libbb/lib.a(appletlib.o) (start_stop_daemon_main)
debianutils/lib.a(which.o)    libbb/lib.a(appletlib.o) (which_main)
e2fsprogs/lib.a(chattr.o)     libbb/lib.a(appletlib.o) (chattr_main)
e2fsprogs/lib.a(e2fs_lib.o)   e2fsprogs/lib.a(chattr.o) (e2attr_flags_sname)
e2fsprogs/lib.a(fsck.o)       libbb/lib.a(appletlib.o) (fsck_main)
e2fsprogs/lib.a(lsattr.o)     libbb/lib.a(appletlib.o) (lsattr_main)
editors/lib.a(awk.o)          libbb/lib.a(appletlib.o) (awk_main)
editors/lib.a(cmp.o)          libbb/lib.a(appletlib.o) (cmp_main)
editors/lib.a(diff.o)         libbb/lib.a(appletlib.o) (diff_main)
editors/lib.a(ed.o)           libbb/lib.a(appletlib.o) (ed_main)
editors/lib.a(patch.o)        libbb/lib.a(appletlib.o) (patch_main)
editors/lib.a(sed.o)          libbb/lib.a(appletlib.o) (sed_main)
editors/lib.a(vi.o)           libbb/lib.a(appletlib.o) (vi_main)
findutils/lib.a(find.o)       libbb/lib.a(appletlib.o) (find_main)
findutils/lib.a(grep.o)       libbb/lib.a(appletlib.o) (grep_main)
findutils/lib.a(xargs.o)      libbb/lib.a(appletlib.o) (xargs_main)
init/lib.a(halt.o)            libbb/lib.a(appletlib.o) (halt_main)
init/lib.a(init.o)            libbb/lib.a(appletlib.o) (init_main)
init/lib.a(mesg.o)            libbb/lib.a(appletlib.o) (mesg_main)
ipsvd/lib.a(tcpudp.o)         libbb/lib.a(appletlib.o) (tcpudpsvd_main)
ipsvd/lib.a(ipsvd_perhost.o)  ipsvd/lib.a(tcpudp.o) (ipsvd_perhost_init)
libbb/lib.a(ask_confirmation.o)
                              coreutils/lib.a(mv.o) (bb_ask_confirmation)
libbb/lib.a(bb_askpass.o)     loginutils/lib.a(passwd.o) (bb_askpass)
libbb/lib.a(bb_do_delay.o)    loginutils/lib.a(login.o) (bb_do_delay)
libbb/lib.a(bb_pwd.o)         loginutils/lib.a(passwd.o) (bb_getpwuid)
libbb/lib.a(bb_strtonum.o)    networking/lib.a(httpd.o) (bb_strtoull)
libbb/lib.a(change_identity.o)
                              miscutils/lib.a(crond.o) (change_identity_e2str)
libbb/lib.a(chomp.o)          networking/lib.a(hostname.o) (chomp)
libbb/lib.a(compare_string_array.o)
                              miscutils/lib.a(mt.o) (index_in_strings)
libbb/lib.a(concat_subpath_file.o)
                              procps/lib.a(fuser.o) (concat_subpath_file)
libbb/lib.a(copy_file.o)      archival/lib.a(rpm.o) (copy_file)
libbb/lib.a(correct_password.o)
                              loginutils/lib.a(login.o) (correct_password)
libbb/lib.a(crc32.o)          archival/lib.a(bzip2.o) (crc32_filltable)
libbb/lib.a(create_icmp6_socket.o)
                              networking/lib.a(ping.o) (create_icmp6_socket)
libbb/lib.a(create_icmp_socket.o)
                              networking/lib.a(ping.o) (create_icmp_socket)
libbb/lib.a(crypt_make_salt.o)
                              loginutils/lib.a(chpasswd.o) (crypt_make_salt)
libbb/lib.a(device_open.o)    sysklogd/lib.a(syslogd.o) (device_open)
libbb/lib.a(dump.o)           util-linux/lib.a(hexdump.o) (bb_dump_length)
libbb/lib.a(execable.o)       debianutils/lib.a(which.o) (execable_file)
libbb/lib.a(fclose_nonstdin.o)
                              miscutils/lib.a(strings.o) (fclose_if_not_stdin)
libbb/lib.a(fflush_stdout_and_exit.o)
                              loginutils/lib.a(vlock.o) (fflush_stdout_and_exit)
libbb/lib.a(find_mount_point.o)
                              util-linux/lib.a(mkfs_minix.o) (find_mount_point)
libbb/lib.a(find_pid_by_name.o)
                              procps/lib.a(kill.o) (find_pid_by_name)
libbb/lib.a(find_root_device.o)
                              coreutils/lib.a(df.o) (find_block_device)
libbb/lib.a(get_console.o)    console-tools/lib.a(chvt.o) (get_console_fd)
libbb/lib.a(get_line_from_file.o)
                              coreutils/lib.a(sort.o) (bb_get_chunk_from_file)
libbb/lib.a(getopt32.o)       loginutils/lib.a(addgroup.o) (getopt32)
libbb/lib.a(herror_msg.o)     util-linux/lib.a(mount.o) (bb_herror_msg)
libbb/lib.a(herror_msg_and_die.o)
                              networking/lib.a(arp.o) (bb_herror_msg_and_die)
libbb/lib.a(human_readable.o)
                              coreutils/lib.a(df.o) (make_human_readable_str)
libbb/lib.a(inet_common.o)    networking/lib.a(interface.o) (INET_resolve)
libbb/lib.a(info_msg.o)       loginutils/lib.a(chpasswd.o) (bb_info_msg)
libbb/lib.a(inode_hash.o)     coreutils/lib.a(du.o) (is_in_ino_dev_hashtable)
libbb/lib.a(isdirectory.o)    networking/lib.a(httpd.o) (is_directory)
libbb/lib.a(kernel_version.o)
                              util-linux/lib.a(mount.o) (get_linux_version_code)
libbb/lib.a(lineedit.o)       shell/lib.a(hush.o) (read_line_input)
libbb/lib.a(llist.o)          networking/lib.a(ifupdown.o) (llist_add_to)
libbb/lib.a(login.o)          loginutils/lib.a(getty.o) (print_login_issue)
libbb/lib.a(loop.o)           util-linux/lib.a(losetup.o) (query_loop)
libbb/lib.a(make_directory.o)
                              miscutils/lib.a(makedevs.o) (bb_make_directory)
libbb/lib.a(makedev.o)        miscutils/lib.a(makedevs.o) (bb_makedev)
libbb/lib.a(match_fstype.o)   util-linux/lib.a(mount.o) (match_fstype)
libbb/lib.a(md5.o)            coreutils/lib.a(md5_sha1_sum.o) (md5_begin)
libbb/lib.a(mode_string.o)    archival/lib.a(ar.o) (bb_mode_string)
libbb/lib.a(mtab_file.o)      util-linux/lib.a(mount.o) (bb_path_mtab_file)
libbb/lib.a(obscure.o)        loginutils/lib.a(passwd.o) (obscure)
libbb/lib.a(parse_mode.o)     coreutils/lib.a(chmod.o) (bb_parse_mode)
libbb/lib.a(perror_nomsg.o)   coreutils/lib.a(dos2unix.o) (bb_perror_nomsg)
libbb/lib.a(perror_nomsg_and_die.o)
                              loginutils/lib.a(adduser.o) (bb_perror_nomsg_and_die)
libbb/lib.a(pidfile.o)        miscutils/lib.a(crond.o) (write_pidfile)
libbb/lib.a(process_escape_sequence.o)
                              loginutils/lib.a(getty.o) (bb_process_escape_sequence)
libbb/lib.a(procps.o)         procps/lib.a(top.o) (clear_username_cache)
libbb/lib.a(pw_encrypt.o)     loginutils/lib.a(chpasswd.o) (pw_encrypt)
libbb/lib.a(recursive_action.o)
                              util-linux/lib.a(mdev.o) (recursive_action)
libbb/lib.a(remove_file.o)    archival/lib.a(rpm.o) (remove_file)
libbb/lib.a(restricted_shell.o)
                              loginutils/lib.a(su.o) (restricted_shell)
libbb/lib.a(run_shell.o)      loginutils/lib.a(login.o) (run_shell)
libbb/lib.a(safe_poll.o)      miscutils/lib.a(microcom.o) (safe_poll)
libbb/lib.a(safe_strncpy.o)   loginutils/lib.a(getty.o) (safe_strncpy)
libbb/lib.a(setup_environment.o)
                              loginutils/lib.a(login.o) (setup_environment)
libbb/lib.a(sha1.o)           coreutils/lib.a(md5_sha1_sum.o) (sha1_begin)
libbb/lib.a(simplify_path.o)  util-linux/lib.a(mount.o) (bb_simplify_path)
libbb/lib.a(skip_whitespace.o)
                              miscutils/lib.a(dc.o) (skip_whitespace)
libbb/lib.a(speed_table.o)    coreutils/lib.a(stty.o) (tty_baud_to_value)
libbb/lib.a(str_tolower.o)    networking/lib.a(wget.o) (str_tolower)
libbb/lib.a(time.o)           miscutils/lib.a(hdparm.o) (monotonic_us)
libbb/lib.a(trim.o)           miscutils/lib.a(crond.o) (trim)
libbb/lib.a(u_signal_names.o)
                              procps/lib.a(fuser.o) (get_signum)
libbb/lib.a(udp_io.o)         ipsvd/lib.a(tcpudp.o) (socket_want_pktinfo)
libbb/lib.a(update_passwd.o)  loginutils/lib.a(chpasswd.o) (update_passwd)
libbb/lib.a(uuencode.o)       coreutils/lib.a(uuencode.o) (bb_uuenc_tbl_std)
libbb/lib.a(vfork_daemon_rexec.o)
                              modutils/lib.a(modprobe.o) (spawn)
libbb/lib.a(warn_ignoring_args.o)
                              networking/libiproute/lib.a(iprule.o) (bb_warn_ignoring_args)
libbb/lib.a(wfopen.o)         loginutils/lib.a(addgroup.o) (fopen_or_warn)
libbb/lib.a(wfopen_input.o)   coreutils/lib.a(cksum.o) (fopen_or_warn_stdin)
libbb/lib.a(xatonum.o)        coreutils/lib.a(dd.o) (xatoull_sfx)
libbb/lib.a(xconnect.o)       networking/lib.a(inetd.o) (setsockopt_reuseaddr)
libbb/lib.a(xgetcwd.o)        networking/lib.a(httpd.o) (xrealloc_getcwd_or_warn)
libbb/lib.a(xgethostbyname.o)
                              networking/lib.a(hostname.o) (xgethostbyname)
libbb/lib.a(xregcomp.o)       miscutils/lib.a(less.o) (regcomp_or_errmsg)
libpwdgrp/lib.a(pwd_grp.o)    coreutils/lib.a(stat.o) (bb_internal_setpwent)
libpwdgrp/lib.a(uidgid_get.o)
                              runit/lib.a(chpst.o) (get_uidgid)
/opt/sparc-linux-3.4.4/lib/gcc/sparc-linux/3.4.4/soft/v8/libgcc.a(_lshrdi3.oS)
                              libbb/lib.a(md5.o) (__lshrdi3)
/opt/sparc-linux-3.4.4/lib/gcc/sparc-linux/3.4.4/soft/v8/libgcc.a(_cmpdi2.oS)
                              util-linux/lib.a(readprofile.o) (__cmpdi2)
/opt/sparc-linux-3.4.4/lib/gcc/sparc-linux/3.4.4/soft/v8/libgcc.a(_floatdidf.oS)
                              util-linux/lib.a(readprofile.o) (__floatdidf)
/opt/sparc-linux-3.4.4/lib/gcc/sparc-linux/3.4.4/soft/v8/libgcc.a(_fixunsdfsi.oS)
                              miscutils/lib.a(dc.o) (__fixunsdfsi)
/opt/sparc-linux-3.4.4/lib/gcc/sparc-linux/3.4.4/soft/v8/libgcc.a(_divdi3.oS)
                              util-linux/lib.a(fdisk.o) (__divdi3)
/opt/sparc-linux-3.4.4/lib/gcc/sparc-linux/3.4.4/soft/v8/libgcc.a(_moddi3.oS)
                              archival/libunarchive/lib.a(data_align.o) (__moddi3)
/opt/sparc-linux-3.4.4/lib/gcc/sparc-linux/3.4.4/soft/v8/libgcc.a(_udivdi3.oS)
                              miscutils/lib.a(hdparm.o) (__udivdi3)
/opt/sparc-linux-3.4.4/lib/gcc/sparc-linux/3.4.4/soft/v8/libgcc.a(_umoddi3.oS)
                              procps/lib.a(nmeter.o) (__umoddi3)
/opt/sparc-linux-3.4.4/lib/gcc/sparc-linux/3.4.4/soft/v8/libgcc.a(_addsub_sf.oS)
                              miscutils/lib.a(hdparm.o) (__addsf3)
/opt/sparc-linux-3.4.4/lib/gcc/sparc-linux/3.4.4/soft/v8/libgcc.a(_mul_sf.oS)
                              miscutils/lib.a(hdparm.o) (__mulsf3)
/opt/sparc-linux-3.4.4/lib/gcc/sparc-linux/3.4.4/soft/v8/libgcc.a(_si_to_sf.oS)
                              miscutils/lib.a(hdparm.o) (__floatsisf)
/opt/sparc-linux-3.4.4/lib/gcc/sparc-linux/3.4.4/soft/v8/libgcc.a(_sf_to_df.oS)
                              miscutils/lib.a(hdparm.o) (__extendsfdf2)
/opt/sparc-linux-3.4.4/lib/gcc/sparc-linux/3.4.4/soft/v8/libgcc.a(_thenan_sf.oS)
                              /opt/sparc-linux-3.4.4/lib/gcc/sparc-linux/3.4.4/soft/v8/libgcc.a(_addsub_sf.oS) (__thenan_sf)
/opt/sparc-linux-3.4.4/lib/gcc/sparc-linux/3.4.4/soft/v8/libgcc.a(_addsub_df.oS)
                              miscutils/lib.a(dc.o) (__adddf3)
/opt/sparc-linux-3.4.4/lib/gcc/sparc-linux/3.4.4/soft/v8/libgcc.a(_mul_df.oS)
                              miscutils/lib.a(dc.o) (__muldf3)
/opt/sparc-linux-3.4.4/lib/gcc/sparc-linux/3.4.4/soft/v8/libgcc.a(_div_df.oS)
                              miscutils/lib.a(dc.o) (__divdf3)
/opt/sparc-linux-3.4.4/lib/gcc/sparc-linux/3.4.4/soft/v8/libgcc.a(_eq_df.oS)
                              coreutils/lib.a(sort.o) (__eqdf2)
/opt/sparc-linux-3.4.4/lib/gcc/sparc-linux/3.4.4/soft/v8/libgcc.a(_ne_df.oS)
                              coreutils/lib.a(sort.o) (__nedf2)
/opt/sparc-linux-3.4.4/lib/gcc/sparc-linux/3.4.4/soft/v8/libgcc.a(_gt_df.oS)
                              coreutils/lib.a(seq.o) (__gtdf2)
/opt/sparc-linux-3.4.4/lib/gcc/sparc-linux/3.4.4/soft/v8/libgcc.a(_ge_df.oS)
                              coreutils/lib.a(seq.o) (__gedf2)
/opt/sparc-linux-3.4.4/lib/gcc/sparc-linux/3.4.4/soft/v8/libgcc.a(_lt_df.oS)
                              coreutils/lib.a(seq.o) (__ltdf2)
/opt/sparc-linux-3.4.4/lib/gcc/sparc-linux/3.4.4/soft/v8/libgcc.a(_le_df.oS)
                              coreutils/lib.a(seq.o) (__ledf2)
/opt/sparc-linux-3.4.4/lib/gcc/sparc-linux/3.4.4/soft/v8/libgcc.a(_si_to_df.oS)
                              miscutils/lib.a(dc.o) (__floatsidf)
/opt/sparc-linux-3.4.4/lib/gcc/sparc-linux/3.4.4/soft/v8/libgcc.a(_df_to_si.oS)
                              util-linux/lib.a(fbset.o) (__fixdfsi)
/opt/sparc-linux-3.4.4/lib/gcc/sparc-linux/3.4.4/soft/v8/libgcc.a(_make_df.oS)
                              /opt/sparc-linux-3.4.4/lib/gcc/sparc-linux/3.4.4/soft/v8/libgcc.a(_sf_to_df.oS) (__make_dp)
/opt/sparc-linux-3.4.4/lib/gcc/sparc-linux/3.4.4/soft/v8/libgcc.a(_thenan_df.oS)
                              /opt/sparc-linux-3.4.4/lib/gcc/sparc-linux/3.4.4/soft/v8/libgcc.a(_addsub_df.oS) (__thenan_df)
/opt/sparc-linux-3.4.4/lib/gcc/sparc-linux/3.4.4/soft/v8/libgcc.a(_clz.oS)
                              /opt/sparc-linux-3.4.4/lib/gcc/sparc-linux/3.4.4/soft/v8/libgcc.a(_divdi3.oS) (__clz_tab)
/opt/sparc-linux-3.4.4/lib/gcc/sparc-linux/3.4.4/soft/v8/libgcc.a(_pack_sf.oS)
                              /opt/sparc-linux-3.4.4/lib/gcc/sparc-linux/3.4.4/soft/v8/libgcc.a(_addsub_sf.oS) (__pack_f)
/opt/sparc-linux-3.4.4/lib/gcc/sparc-linux/3.4.4/soft/v8/libgcc.a(_unpack_sf.oS)
                              /opt/sparc-linux-3.4.4/lib/gcc/sparc-linux/3.4.4/soft/v8/libgcc.a(_addsub_sf.oS) (__unpack_f)
/opt/sparc-linux-3.4.4/lib/gcc/sparc-linux/3.4.4/soft/v8/libgcc.a(_pack_df.oS)
                              /opt/sparc-linux-3.4.4/lib/gcc/sparc-linux/3.4.4/soft/v8/libgcc.a(_addsub_df.oS) (__pack_d)
/opt/sparc-linux-3.4.4/lib/gcc/sparc-linux/3.4.4/soft/v8/libgcc.a(_unpack_df.oS)
                              /opt/sparc-linux-3.4.4/lib/gcc/sparc-linux/3.4.4/soft/v8/libgcc.a(_addsub_df.oS) (__unpack_d)
/opt/sparc-linux-3.4.4/lib/gcc/sparc-linux/3.4.4/soft/v8/libgcc.a(_fpcmp_parts_df.oS)
                              /opt/sparc-linux-3.4.4/lib/gcc/sparc-linux/3.4.4/soft/v8/libgcc.a(_eq_df.oS) (__fpcmp_parts_d)
/opt/sparc-linux-3.4.4/lib/gcc/sparc-linux/3.4.4/soft/v8/libgcc.a(_ashldi3.oS)
                              /opt/sparc-linux-3.4.4/lib/gcc/sparc-linux/3.4.4/soft/v8/libgcc.a(_pack_df.oS) (__ashldi3)
/opt/sparc-linux-3.4.4/sparc-linux/lib/soft/v8/libc_nonshared.a(elf-init.oS)
                              /opt/sparc-linux-3.4.4/lib/gcc/sparc-linux/3.4.4/../../../../sparc-linux/lib/soft/v8/crt1.o (__libc_csu_init)
/opt/sparc-linux-3.4.4/sparc-linux/lib/soft/v8/libc_nonshared.a(atexit.oS)
                              procps/lib.a(top.o) (atexit)
/opt/sparc-linux-3.4.4/sparc-linux/lib/soft/v8/libc_nonshared.a(stat64.oS)
                              coreutils/lib.a(cp.o) (stat64)
/opt/sparc-linux-3.4.4/sparc-linux/lib/soft/v8/libc_nonshared.a(lstat64.oS)
                              coreutils/lib.a(cp.o) (lstat64)

Memory Configuration

Name             Origin             Length             Attributes
*default*        0x0000000000000000 0xffffffffffffffff

Linker script and memory map

LOAD /opt/sparc-linux-3.4.4/lib/gcc/sparc-linux/3.4.4/../../../../sparc-linux/lib/soft/v8/crt1.o
LOAD /opt/sparc-linux-3.4.4/lib/gcc/sparc-linux/3.4.4/soft/v8/crti.o
LOAD /opt/sparc-linux-3.4.4/lib/gcc/sparc-linux/3.4.4/soft/v8/crtbegin.o
START GROUP
LOAD applets/built-in.o
LOAD archival/lib.a
LOAD archival/libunarchive/lib.a
LOAD console-tools/lib.a
LOAD coreutils/lib.a
LOAD coreutils/libcoreutils/lib.a
LOAD debianutils/lib.a
LOAD e2fsprogs/lib.a
LOAD editors/lib.a
LOAD findutils/lib.a
LOAD init/lib.a
LOAD ipsvd/lib.a
LOAD libbb/lib.a
LOAD libpwdgrp/lib.a
LOAD loginutils/lib.a
LOAD miscutils/lib.a
LOAD modutils/lib.a
LOAD networking/lib.a
LOAD networking/libiproute/lib.a
LOAD networking/udhcp/lib.a
LOAD procps/lib.a
LOAD runit/lib.a
LOAD selinux/lib.a
LOAD shell/lib.a
LOAD sysklogd/lib.a
LOAD util-linux/lib.a
LOAD archival/built-in.o
LOAD archival/libunarchive/built-in.o
LOAD console-tools/built-in.o
LOAD coreutils/built-in.o
LOAD coreutils/libcoreutils/built-in.o
LOAD debianutils/built-in.o
LOAD e2fsprogs/built-in.o
LOAD editors/built-in.o
LOAD findutils/built-in.o
LOAD init/built-in.o
LOAD ipsvd/built-in.o
LOAD libbb/built-in.o
LOAD libpwdgrp/built-in.o
LOAD loginutils/built-in.o
LOAD miscutils/built-in.o
LOAD modutils/built-in.o
LOAD networking/built-in.o
LOAD networking/libiproute/built-in.o
LOAD networking/udhcp/built-in.o
LOAD procps/built-in.o
LOAD runit/built-in.o
LOAD selinux/built-in.o
LOAD shell/built-in.o
LOAD sysklogd/built-in.o
LOAD util-linux/built-in.o
END GROUP
START GROUP
LOAD /opt/sparc-linux-3.4.4/lib/gcc/sparc-linux/3.4.4/../../../../sparc-linux/lib/soft/v8/libcrypt.so
LOAD /opt/sparc-linux-3.4.4/lib/gcc/sparc-linux/3.4.4/../../../../sparc-linux/lib/soft/v8/libm.so
END GROUP
LOAD /opt/sparc-linux-3.4.4/lib/gcc/sparc-linux/3.4.4/soft/v8/libgcc.a
LOAD /opt/sparc-linux-3.4.4/lib/gcc/sparc-linux/3.4.4/../../../../sparc-linux/lib/libgcc_s_soft_v8.so
LOAD /opt/sparc-linux-3.4.4/lib/gcc/sparc-linux/3.4.4/../../../../sparc-linux/lib/soft/v8/libc.so
START GROUP
LOAD /opt/sparc-linux-3.4.4/sparc-linux/lib/soft/v8/libc.so.6
LOAD /opt/sparc-linux-3.4.4/sparc-linux/lib/soft/v8/libc_nonshared.a
LOAD /opt/sparc-linux-3.4.4/sparc-linux/lib/soft/v8/ld-linux.so.2
END GROUP
LOAD /opt/sparc-linux-3.4.4/lib/gcc/sparc-linux/3.4.4/soft/v8/libgcc.a
LOAD /opt/sparc-linux-3.4.4/lib/gcc/sparc-linux/3.4.4/../../../../sparc-linux/lib/libgcc_s_soft_v8.so
LOAD /opt/sparc-linux-3.4.4/lib/gcc/sparc-linux/3.4.4/soft/v8/crtend.o
LOAD /opt/sparc-linux-3.4.4/lib/gcc/sparc-linux/3.4.4/soft/v8/crtn.o
                0x0000000000010000                PROVIDE (__executable_start, 0x10000)
                0x0000000000010114                . = (0x10000 + SIZEOF_HEADERS)

.interp         0x0000000000010114       0x13
 *(SORT(.interp))
 .interp        0x0000000000010114       0x13 /opt/sparc-linux-3.4.4/lib/gcc/sparc-linux/3.4.4/../../../../sparc-linux/lib/soft/v8/crt1.o

.hash           0x0000000000010128      0xa28
 *(SORT(.hash))
 .hash          0x0000000000010128      0xa28 /opt/sparc-linux-3.4.4/lib/gcc/sparc-linux/3.4.4/../../../../sparc-linux/lib/soft/v8/crt1.o

.dynsym         0x0000000000010b50     0x1810
 *(SORT(.dynsym))
 .dynsym        0x0000000000010b50     0x1810 /opt/sparc-linux-3.4.4/lib/gcc/sparc-linux/3.4.4/../../../../sparc-linux/lib/soft/v8/crt1.o

.dynstr         0x0000000000012360      0xcf0
 *(SORT(.dynstr))
 .dynstr        0x0000000000012360      0xcf0 /opt/sparc-linux-3.4.4/lib/gcc/sparc-linux/3.4.4/../../../../sparc-linux/lib/soft/v8/crt1.o

.gnu.version    0x0000000000013050      0x302
 *(SORT(.gnu.version))
 .gnu.version   0x0000000000013050      0x302 /opt/sparc-linux-3.4.4/lib/gcc/sparc-linux/3.4.4/../../../../sparc-linux/lib/soft/v8/crt1.o

.gnu.version_d
 *(SORT(.gnu.version_d))

.gnu.version_r  0x0000000000013354       0xf0
 *(SORT(.gnu.version_r))
 .gnu.version_r
                0x0000000000013354       0xf0 /opt/sparc-linux-3.4.4/lib/gcc/sparc-linux/3.4.4/../../../../sparc-linux/lib/soft/v8/crt1.o

.rel.dyn
 *(SORT(.rel.init))
 *(SORT(.rel.text) .rel.text.* .rel.gnu.linkonce.t.*)
 *(SORT(.rel.fini))
 *(SORT(.rel.rodata) .rel.rodata.* .rel.gnu.linkonce.r.*)
 *(SORT(.rel.data.rel.ro*))
 *(SORT(.rel.data) .rel.data.* .rel.gnu.linkonce.d.*)
 *(SORT(.rel.tdata) .rel.tdata.* .rel.gnu.linkonce.td.*)
 *(SORT(.rel.tbss) .rel.tbss.* .rel.gnu.linkonce.tb.*)
 *(SORT(.rel.ctors))
 *(SORT(.rel.dtors))
 *(SORT(.rel.got))
 *(SORT(.rel.bss) .rel.bss.* .rel.gnu.linkonce.b.*)

.rela.dyn       0x0000000000013444       0x84
 *(SORT(.rela.init))
 *(SORT(.rela.text) .rela.text.* .rela.gnu.linkonce.t.*)
 *(SORT(.rela.fini))
 *(SORT(.rela.rodata) .rela.rodata.* .rela.gnu.linkonce.r.*)
 *(SORT(.rela.data) .rela.data.* .rela.gnu.linkonce.d.*)
 *(SORT(.rela.tdata) .rela.tdata.* .rela.gnu.linkonce.td.*)
 *(SORT(.rela.tbss) .rela.tbss.* .rela.gnu.linkonce.tb.*)
 *(SORT(.rela.ctors))
 *(SORT(.rela.dtors))
 *(SORT(.rela.got))
 .rela.got      0x0000000000013444       0x18 /opt/sparc-linux-3.4.4/lib/gcc/sparc-linux/3.4.4/../../../../sparc-linux/lib/soft/v8/crt1.o
 *(SORT(.rela.bss) .rela.bss.* .rela.gnu.linkonce.b.*)
 .rela.bss      0x000000000001345c       0x6c /opt/sparc-linux-3.4.4/lib/gcc/sparc-linux/3.4.4/../../../../sparc-linux/lib/soft/v8/crt1.o

.rel.plt
 *(SORT(.rel.plt))

.rela.plt       0x00000000000134c8     0x1134
 *(SORT(.rela.plt))
 .rela.plt      0x00000000000134c8     0x1134 /opt/sparc-linux-3.4.4/lib/gcc/sparc-linux/3.4.4/../../../../sparc-linux/lib/soft/v8/crt1.o

.init           0x00000000000145fc       0x1c
 *(SORT(.init))
 .init          0x00000000000145fc        0x4 /opt/sparc-linux-3.4.4/lib/gcc/sparc-linux/3.4.4/soft/v8/crti.o
                0x00000000000145fc                _init
 .init          0x0000000000014600        0x8 /opt/sparc-linux-3.4.4/lib/gcc/sparc-linux/3.4.4/soft/v8/crtn.o
 .init          0x0000000000014608        0x8 /opt/sparc-linux-3.4.4/lib/gcc/sparc-linux/3.4.4/soft/v8/crtbegin.o
 .init          0x0000000000014610        0x8 /opt/sparc-linux-3.4.4/lib/gcc/sparc-linux/3.4.4/soft/v8/crtend.o

.text           0x0000000000014618    0x8e414
 *(SORT(.text) .stub .text.* .gnu.linkonce.t.*)
 .text          0x0000000000014618       0x38 /opt/sparc-linux-3.4.4/lib/gcc/sparc-linux/3.4.4/../../../../sparc-linux/lib/soft/v8/crt1.o
                0x0000000000014618                _start
 .text          0x0000000000014650       0xa4 /opt/sparc-linux-3.4.4/lib/gcc/sparc-linux/3.4.4/soft/v8/crtbegin.o
 .text.applet_name_compare
                0x00000000000146f4       0x14 libbb/lib.a(appletlib.o)
 .text.find_applet_by_name
                0x0000000000014708       0x28 libbb/lib.a(appletlib.o)
                0x0000000000014708                find_applet_by_name
 .text.bb_show_usage
                0x0000000000014730      0x10c libbb/lib.a(appletlib.o)
                0x0000000000014730                bb_show_usage
 .text.lbb_prepare
                0x000000000001483c       0x44 libbb/lib.a(appletlib.o)
                0x000000000001483c                lbb_prepare
 .text.run_appletstruct_and_exit
                0x0000000000014880       0xf4 libbb/lib.a(appletlib.o)
                0x0000000000014880                run_appletstruct_and_exit
 .text.run_applet_and_exit
                0x0000000000014974      0x28c libbb/lib.a(appletlib.o)
                0x0000000000014974                run_applet_and_exit
 .text.main     0x0000000000014c00       0x68 libbb/lib.a(appletlib.o)
                0x0000000000014c00                main
 .text.bb_basename
                0x0000000000014c68       0x2c libbb/lib.a(bb_basename.o)
                0x0000000000014c68                bb_basename
 .text.concat_path_file
                0x0000000000014c94       0x68 libbb/lib.a(concat_path_file.o)
                0x0000000000014c94                concat_path_file
 .text.xfunc_die
                0x0000000000014cfc       0x50 libbb/lib.a(error_msg_and_die.o)
                0x0000000000014cfc                xfunc_die
 .text.bb_error_msg_and_die
                0x0000000000014d4c       0x34 libbb/lib.a(error_msg_and_die.o)
                0x0000000000014d4c                bb_error_msg_and_die
 .text.bb_get_last_path_component_nostrip
                0x0000000000014d80       0x44 libbb/lib.a(get_last_path_component.o)
                0x0000000000014d80                bb_get_last_path_component_nostrip
 .text.bb_get_last_path_component_strip
                0x0000000000014dc4       0x5c libbb/lib.a(get_last_path_component.o)
                0x0000000000014dc4                bb_get_last_path_component_strip
 .text.last_char_is
                0x0000000000014e20       0x4c libbb/lib.a(last_char_is.o)
                0x0000000000014e20                last_char_is
 .text.bb_perror_msg
                0x0000000000014e6c       0x54 libbb/lib.a(perror_msg.o)
                0x0000000000014e6c                bb_perror_msg
 .text.bb_simple_perror_msg
                0x0000000000014ec0       0x1c libbb/lib.a(perror_msg.o)
                0x0000000000014ec0                bb_simple_perror_msg
 .text.bb_verror_msg
                0x0000000000014edc      0x178 libbb/lib.a(verror_msg.o)
                0x0000000000014edc                bb_verror_msg
 .text.malloc_or_warn
                0x0000000000015054       0x40 libbb/lib.a(xfuncs.o)
                0x0000000000015054                malloc_or_warn
 .text.xmalloc  0x0000000000015094       0x3c libbb/lib.a(xfuncs.o)
                0x0000000000015094                xmalloc
 .text.xrealloc
                0x00000000000150d0       0x40 libbb/lib.a(xfuncs.o)
                0x00000000000150d0                xrealloc
 .text.xzalloc  0x0000000000015110       0x28 libbb/lib.a(xfuncs.o)
                0x0000000000015110                xzalloc
 .text.xstrdup  0x0000000000015138       0x38 libbb/lib.a(xfuncs.o)
                0x0000000000015138                xstrdup
 .text.xstrndup
                0x0000000000015170       0x54 libbb/lib.a(xfuncs.o)
                0x0000000000015170                xstrndup
 .text.xfopen   0x00000000000151c4       0x34 libbb/lib.a(xfuncs.o)
                0x00000000000151c4                xfopen
 .text.xopen3   0x00000000000151f8       0x38 libbb/lib.a(xfuncs.o)
                0x00000000000151f8                xopen3
 .text.xopen    0x0000000000015230       0x14 libbb/lib.a(xfuncs.o)
                0x0000000000015230                xopen
 .text.open3_or_warn
                0x0000000000015244       0x3c libbb/lib.a(xfuncs.o)
                0x0000000000015244                open3_or_warn
 .text.open_or_warn
                0x0000000000015280       0x14 libbb/lib.a(xfuncs.o)
                0x0000000000015280                open_or_warn
 .text.xpipe    0x0000000000015294       0x2c libbb/lib.a(xfuncs.o)
                0x0000000000015294                xpipe
 .text.xunlink  0x00000000000152c0       0x30 libbb/lib.a(xfuncs.o)
                0x00000000000152c0                xunlink
 .text.ndelay_on
                0x00000000000152f0       0x24 libbb/lib.a(xfuncs.o)
                0x00000000000152f0                ndelay_on
 .text.close_on_exec_on
                0x0000000000015314       0x18 libbb/lib.a(xfuncs.o)
                0x0000000000015314                close_on_exec_on
 .text.ndelay_off
                0x000000000001532c       0x24 libbb/lib.a(xfuncs.o)
                0x000000000001532c                ndelay_off
 .text.xdup2    0x0000000000015350       0x30 libbb/lib.a(xfuncs.o)
                0x0000000000015350                xdup2
 .text.xmove_fd
                0x0000000000015380       0x30 libbb/lib.a(xfuncs.o)
                0x0000000000015380                xmove_fd
 .text.xwrite   0x00000000000153b0       0x3c libbb/lib.a(xfuncs.o)
                0x00000000000153b0                xwrite
 .text.xlseek   0x00000000000153ec       0x5c libbb/lib.a(xfuncs.o)
                0x00000000000153ec                xlseek
 .text.die_if_ferror
                0x0000000000015448       0x30 libbb/lib.a(xfuncs.o)
                0x0000000000015448                die_if_ferror
 .text.die_if_ferror_stdout
                0x0000000000015478       0x20 libbb/lib.a(xfuncs.o)
                0x0000000000015478                die_if_ferror_stdout
 .text.xfflush_stdout
                0x0000000000015498       0x30 libbb/lib.a(xfuncs.o)
                0x0000000000015498                xfflush_stdout
 .text.sig_block
                0x00000000000154c8       0x38 libbb/lib.a(xfuncs.o)
                0x00000000000154c8                sig_block
 .text.sig_unblock
                0x0000000000015500       0x38 libbb/lib.a(xfuncs.o)
                0x0000000000015500                sig_unblock
 .text.sig_catch
                0x0000000000015538       0x30 libbb/lib.a(xfuncs.o)
                0x0000000000015538                sig_catch
 .text.sig_pause
                0x0000000000015568       0x24 libbb/lib.a(xfuncs.o)
                0x0000000000015568                sig_pause
 .text.xsetenv  0x000000000001558c       0x34 libbb/lib.a(xfuncs.o)
                0x000000000001558c                xsetenv
 .text.smart_ulltoa5
                0x00000000000155c0      0x220 libbb/lib.a(xfuncs.o)
                0x00000000000155c0                smart_ulltoa5
 .text.utoa_to_buf
                0x00000000000157e0       0x9c libbb/lib.a(xfuncs.o)
                0x00000000000157e0                utoa_to_buf
 .text.itoa_to_buf
                0x000000000001587c       0x38 libbb/lib.a(xfuncs.o)
                0x000000000001587c                itoa_to_buf
 .text.utoa     0x00000000000158b4       0x24 libbb/lib.a(xfuncs.o)
                0x00000000000158b4                utoa
 .text.itoa     0x00000000000158d8       0x24 libbb/lib.a(xfuncs.o)
                0x00000000000158d8                itoa
 .text.bin2hex  0x00000000000158fc       0x50 libbb/lib.a(xfuncs.o)
                0x00000000000158fc                bin2hex
 .text.xsetgid  0x000000000001594c       0x2c libbb/lib.a(xfuncs.o)
                0x000000000001594c                xsetgid
 .text.xsetuid  0x0000000000015978       0x2c libbb/lib.a(xfuncs.o)
                0x0000000000015978                xsetuid
 .text.fdlength
                0x00000000000159a4      0x17c libbb/lib.a(xfuncs.o)
                0x00000000000159a4                fdlength
 .text.bb_putchar
                0x0000000000015b20       0x18 libbb/lib.a(xfuncs.o)
                0x0000000000015b20                bb_putchar
 .text.xasprintf
                0x0000000000015b38       0x48 libbb/lib.a(xfuncs.o)
                0x0000000000015b38                xasprintf
 .text.xprint_and_close_file
                0x0000000000015b80       0x48 libbb/lib.a(xfuncs.o)
                0x0000000000015b80                xprint_and_close_file
 .text.xchdir   0x0000000000015bc8       0x30 libbb/lib.a(xfuncs.o)
                0x0000000000015bc8                xchdir
 .text.warn_opendir
                0x0000000000015bf8       0x34 libbb/lib.a(xfuncs.o)
                0x0000000000015bf8                warn_opendir
 .text.xopendir
                0x0000000000015c2c       0x30 libbb/lib.a(xfuncs.o)
                0x0000000000015c2c                xopendir
 .text.xsocket  0x0000000000015c5c       0x34 libbb/lib.a(xfuncs.o)
                0x0000000000015c5c                xsocket
 .text.xbind    0x0000000000015c90       0x34 libbb/lib.a(xfuncs.o)
                0x0000000000015c90                xbind
 .text.xlisten  0x0000000000015cc4       0x30 libbb/lib.a(xfuncs.o)
                0x0000000000015cc4                xlisten
 .text.xsendto  0x0000000000015cf4       0x40 libbb/lib.a(xfuncs.o)
                0x0000000000015cf4                xsendto
 .text.xstat    0x0000000000015d34       0x38 libbb/lib.a(xfuncs.o)
                0x0000000000015d34                xstat
 .text.get_terminal_width_height
                0x0000000000015d6c      0x108 libbb/lib.a(xfuncs.o)
                0x0000000000015d6c                get_terminal_width_height
 .text.ioctl_or_perror_and_die
                0x0000000000015e74       0x58 libbb/lib.a(xfuncs.o)
                0x0000000000015e74                ioctl_or_perror_and_die
 .text.ioctl_or_perror
                0x0000000000015ecc       0x4c libbb/lib.a(xfuncs.o)
                0x0000000000015ecc                ioctl_or_perror
 .text.bb_ioctl_or_warn
                0x0000000000015f18       0x34 libbb/lib.a(xfuncs.o)
                0x0000000000015f18                bb_ioctl_or_warn
 .text.bb_xioctl
                0x0000000000015f4c       0x34 libbb/lib.a(xfuncs.o)
                0x0000000000015f4c                bb_xioctl
 .text.xmalloc_readlink
                0x0000000000015f80       0x6c libbb/lib.a(xreadlink.o)
                0x0000000000015f80                xmalloc_readlink
 .text.xmalloc_readlink_or_warn
                0x0000000000015fec       0x34 libbb/lib.a(xreadlink.o)
                0x0000000000015fec                xmalloc_readlink_or_warn
 .text.bb_full_fd_action
                0x0000000000016020      0x128 libbb/lib.a(copyfd.o)
 .text.bb_copyfd_size
                0x0000000000016148       0x20 libbb/lib.a(copyfd.o)
                0x0000000000016148                bb_copyfd_size
 .text.bb_copyfd_exact_size
                0x0000000000016168       0x60 libbb/lib.a(copyfd.o)
                0x0000000000016168                bb_copyfd_exact_size
 .text.bb_copyfd_eof
                0x00000000000161c8       0x18 libbb/lib.a(copyfd.o)
                0x00000000000161c8                bb_copyfd_eof
 .text.bb_error_msg
                0x00000000000161e0       0x34 libbb/lib.a(error_msg.o)
                0x00000000000161e0                bb_error_msg
 .text.full_write
                0x0000000000016214       0x4c libbb/lib.a(full_write.o)
                0x0000000000016214                full_write
 .text.bb_perror_msg_and_die
                0x0000000000016260       0x54 libbb/lib.a(perror_msg_and_die.o)
                0x0000000000016260                bb_perror_msg_and_die
 .text.bb_simple_perror_msg_and_die
                0x00000000000162b4       0x18 libbb/lib.a(perror_msg_and_die.o)
                0x00000000000162b4                bb_simple_perror_msg_and_die
 .text.safe_read
                0x00000000000162cc       0x3c libbb/lib.a(read.o)
                0x00000000000162cc                safe_read
 .text.full_read
                0x0000000000016308       0x54 libbb/lib.a(read.o)
                0x0000000000016308                full_read
 .text.xread    0x000000000001635c       0x3c libbb/lib.a(read.o)
                0x000000000001635c                xread
 .text.xread_char
                0x0000000000016398       0x20 libbb/lib.a(read.o)
                0x0000000000016398                xread_char
 .text.reads    0x00000000000163b8       0xac libbb/lib.a(read.o)
                0x00000000000163b8                reads
 .text.xmalloc_reads
                0x0000000000016464       0xa8 libbb/lib.a(read.o)
                0x0000000000016464                xmalloc_reads
 .text.read_close
                0x000000000001650c       0x2c libbb/lib.a(read.o)
                0x000000000001650c                read_close
 .text.open_read_close
                0x0000000000016538       0x2c libbb/lib.a(read.o)
                0x0000000000016538                open_read_close
 .text.xmalloc_open_read_close
                0x0000000000016564       0xe0 libbb/lib.a(read.o)
                0x0000000000016564                xmalloc_open_read_close
 .text.safe_write
                0x0000000000016644       0x3c libbb/lib.a(safe_write.o)
                0x0000000000016644                safe_write
 .text.add_user_to_group
                0x0000000000016680      0x10c loginutils/lib.a(addgroup.o)
 .text.addgroup_main
                0x000000000001678c      0x20c loginutils/lib.a(addgroup.o)
                0x000000000001678c                addgroup_main
 .text.adduser_main
                0x0000000000016998      0x320 loginutils/lib.a(adduser.o)
                0x0000000000016998                adduser_main
 .text.chpasswd_main
                0x0000000000016cb8      0x178 loginutils/lib.a(chpasswd.o)
                0x0000000000016cb8                chpasswd_main
 .text.cryptpw_main
                0x0000000000016e30       0xa4 loginutils/lib.a(cryptpw.o)
                0x0000000000016e30                cryptpw_main
 .text.del_line_matching
                0x0000000000016ed4      0x210 loginutils/lib.a(deluser.o)
 .text.deluser_main
                0x00000000000170e4       0xe8 loginutils/lib.a(deluser.o)
                0x00000000000170e4                deluser_main
 .text.bcode    0x00000000000171cc       0x48 loginutils/lib.a(getty.o)
 .text.parse_speeds
                0x0000000000017214       0x9c loginutils/lib.a(getty.o)
 .text.getty_main
                0x00000000000172b0      0xb68 loginutils/lib.a(getty.o)
                0x00000000000172b0                getty_main
 .text.alarm_handler
                0x0000000000017e18       0x30 loginutils/lib.a(login.o)
 .text.login_main
                0x0000000000017e48      0x7ec loginutils/lib.a(login.o)
                0x0000000000017e48                login_main
 .text.nuke_str
                0x0000000000018634       0x30 loginutils/lib.a(passwd.o)
 .text.passwd_main
                0x0000000000018664      0x4f0 loginutils/lib.a(passwd.o)
                0x0000000000018664                passwd_main
 .text.su_main  0x0000000000018b54      0x274 loginutils/lib.a(su.o)
                0x0000000000018b54                su_main
 .text.sulogin_main
                0x0000000000018dc8      0x270 loginutils/lib.a(sulogin.o)
                0x0000000000018dc8                sulogin_main
 .text.release_vt
                0x0000000000019038       0x2c loginutils/lib.a(vlock.o)
 .text.acquire_vt
                0x0000000000019064       0x20 loginutils/lib.a(vlock.o)
 .text.vlock_main
                0x0000000000019084      0x2a8 loginutils/lib.a(vlock.o)
                0x0000000000019084                vlock_main
 .text.adjtimex_main
                0x000000000001932c      0x218 miscutils/lib.a(adjtimex.o)
                0x000000000001932c                adjtimex_main
 .text.show_min_max
                0x0000000000019544       0x6c miscutils/lib.a(chrt.o)
 .text.chrt_main
                0x00000000000195b0      0x210 miscutils/lib.a(chrt.o)
                0x00000000000195b0                chrt_main
 .text.crondlog
                0x00000000000197c0       0xd4 miscutils/lib.a(crond.o)
 .text.ParseField
                0x0000000000019894      0x2e8 miscutils/lib.a(crond.o)
 .text.DeleteFile
                0x0000000000019b7c       0xd4 miscutils/lib.a(crond.o)
 .text.SynchronizeFile
                0x0000000000019c50      0x2cc miscutils/lib.a(crond.o)
 .text.SynchronizeDir
                0x0000000000019f1c      0x10c miscutils/lib.a(crond.o)
 .text.ForkJob  0x000000000001a028      0x218 miscutils/lib.a(crond.o)
 .text.crond_main
                0x000000000001a240      0x6cc miscutils/lib.a(crond.o)
                0x000000000001a240                crond_main
 .text.ChangeUser
                0x000000000001a90c       0xbc miscutils/lib.a(crontab.o)
 .text.crontab_main
                0x000000000001a9c8      0x724 miscutils/lib.a(crontab.o)
                0x000000000001a9c8                crontab_main
 .text.push     0x000000000001b0ec       0x40 miscutils/lib.a(dc.o)
 .text.pop      0x000000000001b12c       0x44 miscutils/lib.a(dc.o)
 .text.add      0x000000000001b170       0x3c miscutils/lib.a(dc.o)
 .text.sub      0x000000000001b1ac       0x34 miscutils/lib.a(dc.o)
 .text.mul      0x000000000001b1e0       0x3c miscutils/lib.a(dc.o)
 .text.power    0x000000000001b21c       0x34 miscutils/lib.a(dc.o)
 .text.divide   0x000000000001b250       0x34 miscutils/lib.a(dc.o)
 .text.mod      0x000000000001b284       0x7c miscutils/lib.a(dc.o)
 .text.and      0x000000000001b300       0x64 miscutils/lib.a(dc.o)
 .text.or       0x000000000001b364       0x64 miscutils/lib.a(dc.o)
 .text.eor      0x000000000001b3c8       0x64 miscutils/lib.a(dc.o)
 .text.not      0x000000000001b42c       0x54 miscutils/lib.a(dc.o)
 .text.set_output_base
                0x000000000001b480       0x64 miscutils/lib.a(dc.o)
 .text.print_base
                0x000000000001b4e4       0x54 miscutils/lib.a(dc.o)
 .text.print_stack_no_pop
                0x000000000001b538       0x44 miscutils/lib.a(dc.o)
 .text.print_no_pop
                0x000000000001b57c       0x2c miscutils/lib.a(dc.o)
 .text.stack_machine
                0x000000000001b5a8       0x90 miscutils/lib.a(dc.o)
 .text.get_token
                0x000000000001b638       0x34 miscutils/lib.a(dc.o)
 .text.dc_main  0x000000000001b66c       0xc4 miscutils/lib.a(dc.o)
                0x000000000001b66c                dc_main
 .text.eject_main
                0x000000000001b730       0xb4 miscutils/lib.a(eject.o)
                0x000000000001b730                eject_main
 .text.ioctl_alt_func
                0x000000000001b7e4       0x44 miscutils/lib.a(hdparm.o)
 .text.on_off   0x000000000001b828       0x28 miscutils/lib.a(hdparm.o)
 .text.print_flag_on_off
                0x000000000001b850       0x3c miscutils/lib.a(hdparm.o)
 .text.print_value_on_off
                0x000000000001b88c       0x2c miscutils/lib.a(hdparm.o)
 .text.xprint_ascii
                0x000000000001b8b8       0x98 miscutils/lib.a(hdparm.o)
 .text.mode_loop
                0x000000000001b950       0xa4 miscutils/lib.a(hdparm.o)
 .text.identify
                0x000000000001b9f4     0x1878 miscutils/lib.a(hdparm.o)
 .text.flush_buffer_cache
                0x000000000001d26c       0x78 miscutils/lib.a(hdparm.o)
 .text.seek_to_zero
                0x000000000001d2e4       0x20 miscutils/lib.a(hdparm.o)
 .text.read_big_block
                0x000000000001d304       0x44 miscutils/lib.a(hdparm.o)
 .text.do_time  0x000000000001d348      0x230 miscutils/lib.a(hdparm.o)
 .text.bus_state_value
                0x000000000001d578       0x58 miscutils/lib.a(hdparm.o)
 .text.print_flag
                0x000000000001d5d0       0x28 miscutils/lib.a(hdparm.o)
 .text.process_dev
                0x000000000001d5f8     0x18a8 miscutils/lib.a(hdparm.o)
 .text.parse_opts
                0x000000000001eea0       0x48 miscutils/lib.a(hdparm.o)
 .text.parse_xfermode
                0x000000000001eee8       0xc8 miscutils/lib.a(hdparm.o)
 .text.hdparm_main
                0x000000000001efb0      0x5c8 miscutils/lib.a(hdparm.o)
                0x000000000001efb0                hdparm_main
 .text.last_main
                0x000000000001f578      0x234 miscutils/lib.a(last.o)
                0x000000000001f578                last_main
 .text.set_tty_cooked
                0x000000000001f7ac       0x2c miscutils/lib.a(less.o)
 .text.less_exit
                0x000000000001f7d8       0x18 miscutils/lib.a(less.o)
 .text.clear_line
                0x000000000001f7f0       0x28 miscutils/lib.a(less.o)
 .text.print_hilite
                0x000000000001f818       0x1c miscutils/lib.a(less.o)
 .text.print_statusline
                0x000000000001f834       0x2c miscutils/lib.a(less.o)
 .text.m_status_print
                0x000000000001f860      0x114 miscutils/lib.a(less.o)
 .text.cap_cur_fline
                0x000000000001f974       0x70 miscutils/lib.a(less.o)
 .text.fill_match_lines
                0x000000000001f9e4       0xd0 miscutils/lib.a(less.o)
 .text.read_lines
                0x000000000001fab4      0x3c4 miscutils/lib.a(less.o)
 .text.buffer_print
                0x000000000001fe78      0x374 miscutils/lib.a(less.o)
 .text.buffer_fill_and_print
                0x00000000000201ec       0xb8 miscutils/lib.a(less.o)
 .text.buffer_down
                0x00000000000202a4       0x30 miscutils/lib.a(less.o)
 .text.buffer_up
                0x00000000000202d4       0x38 miscutils/lib.a(less.o)
 .text.buffer_line
                0x000000000002030c       0x58 miscutils/lib.a(less.o)
 .text.reinitialize
                0x0000000000020364       0xdc miscutils/lib.a(less.o)
 .text.less_getch
                0x0000000000020440      0x1f0 miscutils/lib.a(less.o)
 .text.less_gets
                0x0000000000020630       0xfc miscutils/lib.a(less.o)
 .text.examine_file
                0x000000000002072c       0x4c miscutils/lib.a(less.o)
 .text.change_file
                0x0000000000020778       0x9c miscutils/lib.a(less.o)
 .text.goto_match
                0x0000000000020814       0xc0 miscutils/lib.a(less.o)
 .text.regex_process
                0x00000000000208d4      0x150 miscutils/lib.a(less.o)
 .text.opp_bracket
                0x0000000000020a24       0x6c miscutils/lib.a(less.o)
 .text.sig_catcher
                0x0000000000020a90       0x18 miscutils/lib.a(less.o)
 .text.less_main
                0x0000000000020aa8      0xc14 miscutils/lib.a(less.o)
                0x0000000000020cc0                less_main
 .text.makedevs_main
                0x00000000000216bc      0x534 miscutils/lib.a(makedevs.o)
                0x00000000000216bc                makedevs_main
 .text.microcom_main
                0x0000000000021bf0      0x378 miscutils/lib.a(microcom.o)
                0x0000000000021bf0                microcom_main
 .text.mountpoint_main
                0x0000000000021f68      0x224 miscutils/lib.a(mountpoint.o)
                0x0000000000021f68                mountpoint_main
 .text.mt_main  0x000000000002218c      0x140 miscutils/lib.a(mt.o)
                0x000000000002218c                mt_main
 .text.raidautorun_main
                0x00000000000222cc       0x40 miscutils/lib.a(raidautorun.o)
                0x00000000000222cc                raidautorun_main
 .text.readahead_main
                0x000000000002230c       0x9c miscutils/lib.a(readahead.o)
                0x000000000002230c                readahead_main
 .text.runlevel_main
                0x00000000000223a8       0x9c miscutils/lib.a(runlevel.o)
                0x00000000000223a8                runlevel_main
 .text.read_byte
                0x0000000000022444       0x40 miscutils/lib.a(rx.o)
 .text.sigalrm_handler
                0x0000000000022484        0x8 miscutils/lib.a(rx.o)
 .text.rx_main  0x000000000002248c      0x474 miscutils/lib.a(rx.o)
                0x000000000002248c                rx_main
 .text.setsid_main
                0x0000000000022900       0x5c miscutils/lib.a(setsid.o)
                0x0000000000022900                setsid_main
 .text.strings_main
                0x000000000002295c      0x1b8 miscutils/lib.a(strings.o)
                0x000000000002295c                strings_main
 .text.ptok     0x0000000000022b14       0x64 miscutils/lib.a(time.o)
 .text.run_command
                0x0000000000022b78      0x13c miscutils/lib.a(time.o)
 .text.time_main
                0x0000000000022cb4      0x7bc miscutils/lib.a(time.o)
                0x0000000000022d8c                time_main
 .text.ttysize_main
                0x0000000000023470       0xb8 miscutils/lib.a(ttysize.o)
                0x0000000000023470                ttysize_main
 .text.watchdog_shutdown
                0x0000000000023528       0x24 miscutils/lib.a(watchdog.o)
 .text.watchdog_main
                0x000000000002354c       0xc0 miscutils/lib.a(watchdog.o)
                0x000000000002354c                watchdog_main
 .text.lsmod_main
                0x000000000002360c      0x1fc modutils/lib.a(lsmod.o)
                0x000000000002360c                lsmod_main
 .text.parse_tag_value
                0x0000000000023808       0x74 modutils/lib.a(modprobe.o)
 .text.append_option
                0x000000000002387c       0x64 modutils/lib.a(modprobe.o)
 .text.include_conf
                0x00000000000238e0      0x484 modutils/lib.a(modprobe.o)
 .text.already_loaded
                0x0000000000023d64      0x100 modutils/lib.a(modprobe.o)
 .text.mod_process
                0x0000000000023e64      0x1a8 modutils/lib.a(modprobe.o)
 .text.check_pattern
                0x000000000002400c       0x70 modutils/lib.a(modprobe.o)
 .text.check_dep
                0x000000000002407c      0x1fc modutils/lib.a(modprobe.o)
 .text.modprobe_main
                0x0000000000024278      0x6f4 modutils/lib.a(modprobe.o)
                0x0000000000024278                modprobe_main
 .text.arp_main
                0x000000000002496c      0xa94 networking/lib.a(arp.o)
                0x00000000000249ac                arp_main
 .text.finish   0x0000000000025400       0xb8 networking/lib.a(arping.o)
 .text.catcher  0x00000000000254b8      0x218 networking/lib.a(arping.o)
 .text.arping_main
                0x00000000000256d0      0x958 networking/lib.a(arping.o)
                0x00000000000256d0                arping_main
 .text.interrupt
                0x0000000000026028       0x1c networking/lib.a(dnsd.o)
 .text.dnsd_main
                0x0000000000026044      0x6fc networking/lib.a(dnsd.o)
                0x0000000000026044                dnsd_main
 .text.ether_wake_main
                0x0000000000026740      0x320 networking/lib.a(ether-wake.o)
                0x0000000000026740                ether_wake_main
 .text.ftp_die  0x0000000000026a60       0x78 networking/lib.a(ftpgetput.o)
 .text.ftpcmd   0x0000000000026ad8       0xf0 networking/lib.a(ftpgetput.o)
 .text.xconnect_ftpdata
                0x0000000000026bc8       0x90 networking/lib.a(ftpgetput.o)
 .text.ftp_receive
                0x0000000000026c58      0x228 networking/lib.a(ftpgetput.o)
 .text.ftp_send
                0x0000000000026e80      0x188 networking/lib.a(ftpgetput.o)
 .text.ftpgetput_main
                0x0000000000027008      0x200 networking/lib.a(ftpgetput.o)
                0x0000000000027008                ftpgetput_main
 .text.do_sethostname
                0x0000000000027208       0xc8 networking/lib.a(hostname.o)
 .text.hostname_main
                0x00000000000272d0      0x164 networking/lib.a(hostname.o)
                0x00000000000272d0                hostname_main
 .text.free_llist
                0x0000000000027434       0x30 networking/lib.a(httpd.o)
 .text.scan_ip  0x0000000000027464      0x144 networking/lib.a(httpd.o)
 .text.parse_conf
                0x00000000000275a8      0x7a8 networking/lib.a(httpd.o)
 .text.hex_to_bin
                0x0000000000027d50       0x38 networking/lib.a(httpd.o)
 .text.decodeString
                0x0000000000027d88       0xf4 networking/lib.a(httpd.o)
 .text.log_and_exit
                0x0000000000027e7c       0x64 networking/lib.a(httpd.o)
 .text.get_line
                0x0000000000027ee0       0xb0 networking/lib.a(httpd.o)
 .text.cgi_io_loop_and_exit
                0x0000000000027f90      0x298 networking/lib.a(httpd.o)
 .text.setenv1  0x0000000000028228       0x24 networking/lib.a(httpd.o)
 .text.send_file_and_exit
                0x000000000002824c      0x3e4 networking/lib.a(httpd.o)
 .text.send_headers
                0x0000000000028630      0x33c networking/lib.a(httpd.o)
 .text.send_headers_and_exit
                0x000000000002896c       0x18 networking/lib.a(httpd.o)
 .text.send_cgi_and_exit
                0x0000000000028984      0x3b0 networking/lib.a(httpd.o)
 .text.checkPermIP
                0x0000000000028d34       0x64 networking/lib.a(httpd.o)
 .text.checkPerm
                0x0000000000028d98      0x194 networking/lib.a(httpd.o)
 .text.exit_on_signal
                0x0000000000028f2c       0x10 networking/lib.a(httpd.o)
 .text.handle_incoming_and_exit
                0x0000000000028f3c      0xbb0 networking/lib.a(httpd.o)
 .text.httpd_main
                0x0000000000029aec      0x324 networking/lib.a(httpd.o)
                0x0000000000029aec                httpd_main
 .text.ifconfig_main
                0x0000000000029e10      0x5d0 networking/lib.a(ifconfig.o)
                0x0000000000029e10                ifconfig_main
 .text.addstr   0x000000000002a3e0       0x50 networking/lib.a(ifupdown.o)
 .text.strncmpz
                0x000000000002a430       0x30 networking/lib.a(ifupdown.o)
 .text.get_var  0x000000000002a460       0xcc networking/lib.a(ifupdown.o)
 .text.execute  0x000000000002a52c      0x350 networking/lib.a(ifupdown.o)
 .text.loopback_up6
                0x000000000002a87c       0x48 networking/lib.a(ifupdown.o)
 .text.loopback_down6
                0x000000000002a8c4       0x24 networking/lib.a(ifupdown.o)
 .text.static_up6
                0x000000000002a8e8       0x64 networking/lib.a(ifupdown.o)
 .text.static_down6
                0x000000000002a94c       0x24 networking/lib.a(ifupdown.o)
 .text.v4tunnel_up
                0x000000000002a970       0x7c networking/lib.a(ifupdown.o)
 .text.v4tunnel_down
                0x000000000002a9ec       0x24 networking/lib.a(ifupdown.o)
 .text.loopback_up
                0x000000000002aa10       0x48 networking/lib.a(ifupdown.o)
 .text.loopback_down
                0x000000000002aa58       0x48 networking/lib.a(ifupdown.o)
 .text.static_up
                0x000000000002aaa0       0x64 networking/lib.a(ifupdown.o)
 .text.static_down
                0x000000000002ab04       0x48 networking/lib.a(ifupdown.o)
 .text.dhcp_up  0x000000000002ab4c       0x44 networking/lib.a(ifupdown.o)
 .text.dhcp_down
                0x000000000002ab90       0x24 networking/lib.a(ifupdown.o)
 .text.manual_up_down
                0x000000000002abb4        0x8 networking/lib.a(ifupdown.o)
 .text.bootp_up
                0x000000000002abbc       0x24 networking/lib.a(ifupdown.o)
 .text.ppp_up   0x000000000002abe0       0x24 networking/lib.a(ifupdown.o)
 .text.ppp_down
                0x000000000002ac04       0x24 networking/lib.a(ifupdown.o)
 .text.wvdial_up
                0x000000000002ac28       0x24 networking/lib.a(ifupdown.o)
 .text.wvdial_down
                0x000000000002ac4c       0x24 networking/lib.a(ifupdown.o)
 .text.next_word
                0x000000000002ac70       0xa0 networking/lib.a(ifupdown.o)
 .text.setlocalenv
                0x000000000002ad10       0xf8 networking/lib.a(ifupdown.o)
 .text.set_environ
                0x000000000002ae08      0x1ac networking/lib.a(ifupdown.o)
 .text.doit     0x000000000002afb4       0xc4 networking/lib.a(ifupdown.o)
 .text.execute_all
                0x000000000002b078       0x74 networking/lib.a(ifupdown.o)
 .text.check    0x000000000002b0ec        0xc networking/lib.a(ifupdown.o)
 .text.iface_up
                0x000000000002b0f8       0xa0 networking/lib.a(ifupdown.o)
 .text.iface_down
                0x000000000002b198       0xa0 networking/lib.a(ifupdown.o)
 .text.popen2   0x000000000002b238      0x19c networking/lib.a(ifupdown.o)
 .text.find_iface_state
                0x000000000002b3d4       0x64 networking/lib.a(ifupdown.o)
 .text.read_iface_state
                0x000000000002b438       0x74 networking/lib.a(ifupdown.o)
 .text.ifupdown_main
                0x000000000002b4ac      0xb84 networking/lib.a(ifupdown.o)
                0x000000000002b4ac                ifupdown_main
 .text.xxstrdup
                0x000000000002c030       0x20 networking/lib.a(inetd.o)
 .text.freeconfig
                0x000000000002c050       0x58 networking/lib.a(inetd.o)
 .text.setup    0x000000000002c0a8      0x250 networking/lib.a(inetd.o)
 .text.nextline
                0x000000000002c2f8       0x54 networking/lib.a(inetd.o)
 .text.skip     0x000000000002c34c      0x114 networking/lib.a(inetd.o)
 .text.new_servtab
                0x000000000002c460       0x14 networking/lib.a(inetd.o)
 .text.dupconfig
                0x000000000002c474       0xac networking/lib.a(inetd.o)
 .text.getconfigent
                0x000000000002c520      0x564 networking/lib.a(inetd.o)
 .text.config   0x000000000002ca84      0x66c networking/lib.a(inetd.o)
 .text.reapchild
                0x000000000002d0f0       0xf4 networking/lib.a(inetd.o)
 .text.retry    0x000000000002d1e4       0x6c networking/lib.a(inetd.o)
 .text.goaway   0x000000000002d250       0x74 networking/lib.a(inetd.o)
 .text.inetd_setproctitle
                0x000000000002d2c4       0xfc networking/lib.a(inetd.o)
 .text.inetd_main
                0x000000000002d3c0      0xa4c networking/lib.a(inetd.o)
                0x000000000002d3c0                inetd_main
 .text.dg_badinput
                0x000000000002de0c       0x2c networking/lib.a(inetd.o)
 .text.echo_stream
                0x000000000002de38       0x68 networking/lib.a(inetd.o)
 .text.echo_dg  0x000000000002dea0       0x94 networking/lib.a(inetd.o)
 .text.discard_stream
                0x000000000002df34       0x44 networking/lib.a(inetd.o)
 .text.discard_dg
                0x000000000002df78       0x2c networking/lib.a(inetd.o)
 .text.initring
                0x000000000002dfa4       0x54 networking/lib.a(inetd.o)
 .text.chargen_stream
                0x000000000002dff8       0xd8 networking/lib.a(inetd.o)
 .text.chargen_dg
                0x000000000002e0d0      0x110 networking/lib.a(inetd.o)
 .text.machtime
                0x000000000002e1e0       0x4c networking/lib.a(inetd.o)
 .text.machtime_stream
                0x000000000002e22c       0x2c networking/lib.a(inetd.o)
 .text.machtime_dg
                0x000000000002e258       0x84 networking/lib.a(inetd.o)
 .text.daytime_stream
                0x000000000002e2dc       0x54 networking/lib.a(inetd.o)
 .text.daytime_dg
                0x000000000002e330       0xa8 networking/lib.a(inetd.o)
 .text.INET_sprint
                0x000000000002e3d8       0x60 networking/lib.a(interface.o)
 .text.INET_input
                0x000000000002e438       0x14 networking/lib.a(interface.o)
 .text.INET6_sprint
                0x000000000002e44c       0x5c networking/lib.a(interface.o)
 .text.INET6_input
                0x000000000002e4a8       0x10 networking/lib.a(interface.o)
 .text.UNSPEC_print
                0x000000000002e4b8       0x54 networking/lib.a(interface.o)
 .text.UNSPEC_sprint
                0x000000000002e50c       0x40 networking/lib.a(interface.o)
 .text.get_aftype
                0x000000000002e54c       0x50 networking/lib.a(interface.o)
                0x000000000002e54c                get_aftype
 .text.get_afntype
                0x000000000002e59c       0x44 networking/lib.a(interface.o)
 .text.add_interface
                0x000000000002e5e0       0x9c networking/lib.a(interface.o)
 .text.if_readconf
                0x000000000002e67c       0xd0 networking/lib.a(interface.o)
 .text.if_readlist_proc
                0x000000000002e74c      0x2ac networking/lib.a(interface.o)
 .text.do_if_fetch
                0x000000000002e9f8      0x300 networking/lib.a(interface.o)
 .text.pr_ether
                0x000000000002ecf8       0x44 networking/lib.a(interface.o)
 .text.hexchar2int
                0x000000000002ed3c       0x30 networking/lib.a(interface.o)
 .text.in_ether
                0x000000000002ed6c       0xec networking/lib.a(interface.o)
 .text.get_hwtype
                0x000000000002ee58       0x50 networking/lib.a(interface.o)
                0x000000000002ee58                get_hwtype
 .text.get_hwntype
                0x000000000002eea8       0x44 networking/lib.a(interface.o)
                0x000000000002eea8                get_hwntype
 .text.print_bytes_scaled
                0x000000000002eeec       0xa8 networking/lib.a(interface.o)
 .text.ife_print
                0x000000000002ef94      0x60c networking/lib.a(interface.o)
 .text.display_interfaces
                0x000000000002f5a0       0xf4 networking/lib.a(interface.o)
                0x000000000002f5a0                display_interfaces
 .text.ip_print_help
                0x000000000002f694       0x10 networking/lib.a(ip.o)
 .text.ip_do    0x000000000002f6a4       0x3c networking/lib.a(ip.o)
 .text.ipaddr_main
                0x000000000002f6e0       0x20 networking/lib.a(ip.o)
                0x000000000002f6e0                ipaddr_main
 .text.iplink_main
                0x000000000002f700       0x20 networking/lib.a(ip.o)
                0x000000000002f700                iplink_main
 .text.iproute_main
                0x000000000002f720       0x20 networking/lib.a(ip.o)
                0x000000000002f720                iproute_main
 .text.iprule_main
                0x000000000002f740       0x20 networking/lib.a(ip.o)
                0x000000000002f740                iprule_main
 .text.iptunnel_main
                0x000000000002f760       0x20 networking/lib.a(ip.o)
                0x000000000002f760                iptunnel_main
 .text.ip_main  0x000000000002f780       0xe0 networking/lib.a(ip.o)
                0x000000000002f780                ip_main
 .text.ipcalc_main
                0x000000000002f860      0x2f0 networking/lib.a(ipcalc.o)
                0x000000000002f860                ipcalc_main
 .text.new_peer
                0x000000000002fb50       0x7c networking/lib.a(isrv_identd.o)
 .text.do_rd    0x000000000002fbcc      0x124 networking/lib.a(isrv_identd.o)
 .text.do_timeout
                0x000000000002fcf0        0x8 networking/lib.a(isrv_identd.o)
 .text.fakeidentd_main
                0x000000000002fcf8      0x158 networking/lib.a(isrv_identd.o)
                0x000000000002fcf8                fakeidentd_main
 .text.cc_macaddr
                0x000000000002fe50       0x4c networking/lib.a(nameif.o)
 .text.nameif_main
                0x000000000002fe9c      0x338 networking/lib.a(nameif.o)
                0x000000000002fe9c                nameif_main
 .text.timeout  0x00000000000301d4       0x14 networking/lib.a(nc.o)
 .text.nc_main  0x00000000000301e8      0x530 networking/lib.a(nc.o)
                0x00000000000301e8                nc_main
 .text.build_ipv6_addr
                0x0000000000030718       0x60 networking/lib.a(netstat.o)
 .text.build_ipv4_addr
                0x0000000000030778       0x28 networking/lib.a(netstat.o)
 .text.ip_port_str
                0x00000000000307a0       0x98 networking/lib.a(netstat.o)
 .text.tcp_do_one
                0x0000000000030838      0x1b8 networking/lib.a(netstat.o)
 .text.udp_do_one
                0x00000000000309f0      0x218 networking/lib.a(netstat.o)
 .text.raw_do_one
                0x0000000000030c08      0x1f4 networking/lib.a(netstat.o)
 .text.unix_do_one
                0x0000000000030dfc      0x380 networking/lib.a(netstat.o)
 .text.do_info  0x000000000003117c       0x90 networking/lib.a(netstat.o)
 .text.netstat_main
                0x000000000003120c      0x2ac networking/lib.a(netstat.o)
                0x000000000003120c                netstat_main
 .text.print_host
                0x00000000000314b8       0xec networking/lib.a(nslookup.o)
 .text.nslookup_main
                0x00000000000315a4       0xc4 networking/lib.a(nslookup.o)
                0x00000000000315a4                nslookup_main
 .text.pingstats
                0x0000000000031668      0x13c networking/lib.a(ping.o)
 .text.sendping_tail
                0x00000000000317a4       0xb8 networking/lib.a(ping.o)
 .text.sendping4
                0x000000000003185c       0xdc networking/lib.a(ping.o)
 .text.sendping6
                0x0000000000031938       0x6c networking/lib.a(ping.o)
 .text.unpack_tail
                0x00000000000319a4      0x154 networking/lib.a(ping.o)
 .text.ping_main
                0x0000000000031af8      0x8b8 networking/lib.a(ping.o)
                0x0000000000031b44                ping_main
 .text.ping6_main
                0x00000000000323b0       0x24 networking/lib.a(ping.o)
                0x00000000000323b0                ping6_main
 .text.pscan_main
                0x00000000000323d4      0x288 networking/lib.a(pscan.o)
                0x00000000000323d4                pscan_main
 .text.kw_lookup
                0x000000000003265c       0x80 networking/lib.a(route.o)
 .text.set_flags
                0x00000000000326dc       0x60 networking/lib.a(route.o)
 .text.bb_displayroutes
                0x000000000003273c      0x208 networking/lib.a(route.o)
                0x000000000003273c                bb_displayroutes
 .text.route_main
                0x0000000000032944      0x9dc networking/lib.a(route.o)
                0x0000000000032944                route_main
 .text.set_termios_state_and_warn
                0x0000000000033320       0x3c networking/lib.a(slattach.o)
 .text.restore_state_and_exit
                0x000000000003335c       0xa4 networking/lib.a(slattach.o)
 .text.sig_handler
                0x0000000000033400       0x10 networking/lib.a(slattach.o)
 .text.slattach_main
                0x0000000000033410      0x314 networking/lib.a(slattach.o)
                0x0000000000033410                slattach_main
 .text.iacflush
                0x0000000000033724       0x28 networking/lib.a(telnet.o)
 .text.putiac   0x000000000003374c       0x28 networking/lib.a(telnet.o)
 .text.putiac2  0x0000000000033774       0x44 networking/lib.a(telnet.o)
 .text.fgotsig  0x00000000000337b8        0xc networking/lib.a(telnet.o)
 .text.rawmode  0x00000000000337c4       0x38 networking/lib.a(telnet.o)
 .text.cookmode
                0x00000000000337fc       0x38 networking/lib.a(telnet.o)
 .text.setConMode
                0x0000000000033834       0x80 networking/lib.a(telnet.o)
 .text.doexit   0x00000000000338b4       0x18 networking/lib.a(telnet.o)
 .text.conescape
                0x00000000000338cc      0x190 networking/lib.a(telnet.o)
 .text.telnet_main
                0x0000000000033a5c      0x868 networking/lib.a(telnet.o)
                0x0000000000033a70                telnet_main
 .text.make_new_session
                0x00000000000342c4      0x290 networking/lib.a(telnetd.o)
 .text.free_session
                0x0000000000034554       0xc8 networking/lib.a(telnetd.o)
 .text.handle_sigchld
                0x000000000003461c       0x58 networking/lib.a(telnetd.o)
 .text.telnetd_main
                0x0000000000034674      0x780 networking/lib.a(telnetd.o)
                0x0000000000034674                telnetd_main
 .text.tftp_blocksize_check
                0x0000000000034df4       0x78 networking/lib.a(tftp.o)
 .text.tftp     0x0000000000034e6c      0x594 networking/lib.a(tftp.o)
 .text.tftp_main
                0x0000000000035400      0x194 networking/lib.a(tftp.o)
                0x0000000000035400                tftp_main
 .text.ifaddrlist
                0x0000000000035594      0x1ac networking/lib.a(traceroute.o)
 .text.setsin   0x0000000000035740       0x28 networking/lib.a(traceroute.o)
 .text.in_cksum
                0x0000000000035768       0x64 networking/lib.a(traceroute.o)
 .text.gethostinfo
                0x00000000000357cc      0x108 networking/lib.a(traceroute.o)
 .text.freehostinfo
                0x00000000000358d4       0x20 networking/lib.a(traceroute.o)
 .text.traceroute_main
                0x00000000000358f4      0xe4c networking/lib.a(traceroute.o)
                0x0000000000035934                traceroute_main
 .text.xfind_str
                0x0000000000036740       0x44 networking/lib.a(vconfig.o)
 .text.vconfig_main
                0x0000000000036784      0x150 networking/lib.a(vconfig.o)
                0x0000000000036784                vconfig_main
 .text.progressmeter
                0x00000000000368d4      0x448 networking/lib.a(wget.o)
 .text.safe_fgets
                0x0000000000036d1c       0x60 networking/lib.a(wget.o)
 .text.base64enc_512
                0x0000000000036d7c       0x3c networking/lib.a(wget.o)
 .text.open_socket
                0x0000000000036db8       0x38 networking/lib.a(wget.o)
 .text.ftpcmd   0x0000000000036df0       0xbc networking/lib.a(wget.o)
 .text.parse_url
                0x0000000000036eac      0x1b0 networking/lib.a(wget.o)
 .text.gethdr   0x000000000003705c      0x144 networking/lib.a(wget.o)
 .text.wget_main
                0x00000000000371a0      0xb94 networking/lib.a(wget.o)
                0x00000000000371a0                wget_main
 .text.pick     0x0000000000037d34       0x3c networking/lib.a(zcip.o)
 .text.arp      0x0000000000037d70       0xc8 networking/lib.a(zcip.o)
 .text.run      0x0000000000037e38       0xc0 networking/lib.a(zcip.o)
 .text.zcip_main
                0x0000000000037ef8      0x6b8 networking/lib.a(zcip.o)
                0x0000000000037ef8                zcip_main
 .text.isrv_want_rd
                0x00000000000385b0       0x28 networking/lib.a(isrv.o)
                0x00000000000385b0                isrv_want_rd
 .text.isrv_dont_want_rd
                0x00000000000385d8       0x28 networking/lib.a(isrv.o)
                0x00000000000385d8                isrv_dont_want_rd
 .text.isrv_dont_want_wr
                0x0000000000038600       0x48 networking/lib.a(isrv.o)
                0x0000000000038600                isrv_dont_want_wr
 .text.isrv_register_fd
                0x0000000000038648       0x78 networking/lib.a(isrv.o)
                0x0000000000038648                isrv_register_fd
 .text.isrv_close_fd
                0x00000000000386c0       0x8c networking/lib.a(isrv.o)
                0x00000000000386c0                isrv_close_fd
 .text.isrv_register_peer
                0x000000000003874c       0x68 networking/lib.a(isrv.o)
                0x000000000003874c                isrv_register_peer
 .text.remove_peer
                0x00000000000387b4       0xf0 networking/lib.a(isrv.o)
 .text.handle_fd_set
                0x00000000000388a4      0x180 networking/lib.a(isrv.o)
 .text.isrv_run
                0x0000000000038a24      0x1f8 networking/lib.a(isrv.o)
                0x0000000000038a24                isrv_run
 .text.ip_parse_common_args
                0x0000000000038c1c      0x168 networking/libiproute/lib.a(ip_parse_common_args.o)
                0x0000000000038c1c                ip_parse_common_args
 .text.flush_update
                0x0000000000038d84       0x48 networking/libiproute/lib.a(ipaddress.o)
 .text.print_addrinfo
                0x0000000000038dcc      0x624 networking/libiproute/lib.a(ipaddress.o)
 .text.store_nlmsg
                0x00000000000393f0       0x6c networking/libiproute/lib.a(ipaddress.o)
 .text.ipaddr_list_or_flush
                0x000000000003945c      0xb84 networking/libiproute/lib.a(ipaddress.o)
                0x0000000000039470                ipaddr_list_or_flush
 .text.ipaddr_modify
                0x0000000000039fe0      0x54c networking/libiproute/lib.a(ipaddress.o)
 .text.do_ipaddr
                0x000000000003a52c       0xac networking/libiproute/lib.a(ipaddress.o)
                0x000000000003a52c                do_ipaddr
 .text.on_off   0x000000000003a5d8       0x18 networking/libiproute/lib.a(iplink.o)
 .text.get_ctl_fd
                0x000000000003a5f0       0x58 networking/libiproute/lib.a(iplink.o)
 .text.parse_address
                0x000000000003a648       0x70 networking/libiproute/lib.a(iplink.o)
 .text.set_address
                0x000000000003a6b8       0x54 networking/libiproute/lib.a(iplink.o)
 .text.ipaddr_list_link
                0x000000000003a70c       0x20 networking/libiproute/lib.a(iplink.o)
 .text.do_iplink
                0x000000000003a72c      0x4ec networking/libiproute/lib.a(iplink.o)
                0x000000000003a72c                do_iplink
 .text.flush_update
                0x000000000003ac18       0x48 networking/libiproute/lib.a(iproute.o)
 .text.print_route
                0x000000000003ac60      0x888 networking/libiproute/lib.a(iproute.o)
 .text.iproute_reset_filter
                0x000000000003b4e8       0x30 networking/libiproute/lib.a(iproute.o)
 .text.iproute_list_or_flush
                0x000000000003b518      0x5a4 networking/libiproute/lib.a(iproute.o)
 .text.do_iproute
                0x000000000003babc      0x998 networking/libiproute/lib.a(iproute.o)
                0x000000000003bb08                do_iproute
 .text.print_rule
                0x000000000003c454      0x3d4 networking/libiproute/lib.a(iprule.o)
 .text.iprule_list
                0x000000000003c828       0x74 networking/libiproute/lib.a(iprule.o)
 .text.do_iprule
                0x000000000003c89c      0x4bc networking/libiproute/lib.a(iprule.o)
                0x000000000003c89c                do_iprule
 .text.do_get_ioctl
                0x000000000003cd58       0x5c networking/libiproute/lib.a(iptunnel.o)
 .text.do_add_ioctl
                0x000000000003cdb4       0x9c networking/libiproute/lib.a(iptunnel.o)
 .text.do_del_ioctl
                0x000000000003ce50       0x74 networking/libiproute/lib.a(iptunnel.o)
 .text.parse_args
                0x000000000003cec4      0x7c0 networking/libiproute/lib.a(iptunnel.o)
 .text.do_add   0x000000000003d684       0xb8 networking/libiproute/lib.a(iptunnel.o)
 .text.print_tunnel
                0x000000000003d73c      0x354 networking/libiproute/lib.a(iptunnel.o)
 .text.do_iptunnel
                0x000000000003da90      0x4a4 networking/libiproute/lib.a(iptunnel.o)
                0x000000000003da90                do_iptunnel
 .text.xrtnl_open
                0x000000000003df34       0xc4 networking/libiproute/lib.a(libnetlink.o)
                0x000000000003df34                xrtnl_open
 .text.xrtnl_wilddump_request
                0x000000000003dff8       0x6c networking/libiproute/lib.a(libnetlink.o)
                0x000000000003dff8                xrtnl_wilddump_request
 .text.rtnl_send
                0x000000000003e064       0x3c networking/libiproute/lib.a(libnetlink.o)
                0x000000000003e064                rtnl_send
 .text.xrtnl_dump_filter
                0x000000000003e0a0      0x258 networking/libiproute/lib.a(libnetlink.o)
                0x000000000003e0a0                xrtnl_dump_filter
 .text.rtnl_talk
                0x000000000003e2f8      0x318 networking/libiproute/lib.a(libnetlink.o)
                0x000000000003e2f8                rtnl_talk
 .text.addattr32
                0x000000000003e610       0x64 networking/libiproute/lib.a(libnetlink.o)
                0x000000000003e610                addattr32
 .text.addattr_l
                0x000000000003e674       0x64 networking/libiproute/lib.a(libnetlink.o)
                0x000000000003e674                addattr_l
 .text.rta_addattr32
                0x000000000003e6d8       0x64 networking/libiproute/lib.a(libnetlink.o)
                0x000000000003e6d8                rta_addattr32
 .text.parse_rtattr
                0x000000000003e73c       0x78 networking/libiproute/lib.a(libnetlink.o)
                0x000000000003e73c                parse_rtattr
 .text.ll_addr_n2a
                0x000000000003e7b4       0xc8 networking/libiproute/lib.a(ll_addr.o)
                0x000000000003e7b4                ll_addr_n2a
 .text.ll_addr_a2n
                0x000000000003e87c       0xf8 networking/libiproute/lib.a(ll_addr.o)
                0x000000000003e87c                ll_addr_a2n
 .text.find_by_index
                0x000000000003e974       0x44 networking/libiproute/lib.a(ll_map.o)
 .text.ll_remember_index
                0x000000000003e9b8      0x138 networking/libiproute/lib.a(ll_map.o)
                0x000000000003e9b8                ll_remember_index
 .text.ll_idx_n2a
                0x000000000003eaf0       0x58 networking/libiproute/lib.a(ll_map.o)
                0x000000000003eaf0                ll_idx_n2a
 .text.ll_index_to_name
                0x000000000003eb48       0x18 networking/libiproute/lib.a(ll_map.o)
                0x000000000003eb48                ll_index_to_name
 .text.ll_index_to_flags
                0x000000000003eb60       0x2c networking/libiproute/lib.a(ll_map.o)
                0x000000000003eb60                ll_index_to_flags
 .text.xll_name_to_index
                0x000000000003eb8c       0x98 networking/libiproute/lib.a(ll_map.o)
                0x000000000003eb8c                xll_name_to_index
 .text.ll_init_map
                0x000000000003ec24       0x34 networking/libiproute/lib.a(ll_map.o)
                0x000000000003ec24                ll_init_map
 .text.ll_type_n2a
                0x000000000003ec58       0x70 networking/libiproute/lib.a(ll_types.o)
                0x000000000003ec58                ll_type_n2a
 .text.rtnl_tab_initialize
                0x000000000003ecc8      0x17c networking/libiproute/lib.a(rt_names.o)
 .text.rtnl_rtprot_initialize
                0x000000000003ee44       0x50 networking/libiproute/lib.a(rt_names.o)
 .text.rtnl_rtprot_a2n
                0x000000000003ee94       0xd8 networking/libiproute/lib.a(rt_names.o)
                0x000000000003ee94                rtnl_rtprot_a2n
 .text.rtnl_rtscope_initialize
                0x000000000003ef6c       0x7c networking/libiproute/lib.a(rt_names.o)
 .text.rtnl_rtscope_n2a
                0x000000000003efe8       0x68 networking/libiproute/lib.a(rt_names.o)
                0x000000000003efe8                rtnl_rtscope_n2a
 .text.rtnl_rtscope_a2n
                0x000000000003f050       0xd8 networking/libiproute/lib.a(rt_names.o)
                0x000000000003f050                rtnl_rtscope_a2n
 .text.rtnl_rtrealm_initialize
                0x000000000003f128       0x4c networking/libiproute/lib.a(rt_names.o)
 .text.rtnl_rtrealm_a2n
                0x000000000003f174       0xd8 networking/libiproute/lib.a(rt_names.o)
                0x000000000003f174                rtnl_rtrealm_a2n
 .text.rtnl_rtrealm_n2a
                0x000000000003f24c       0x68 networking/libiproute/lib.a(rt_names.o)
                0x000000000003f24c                rtnl_rtrealm_n2a
 .text.rtnl_rtdsfield_initialize
                0x000000000003f2b4       0x4c networking/libiproute/lib.a(rt_names.o)
 .text.rtnl_dsfield_n2a
                0x000000000003f300       0x68 networking/libiproute/lib.a(rt_names.o)
                0x000000000003f300                rtnl_dsfield_n2a
 .text.rtnl_dsfield_a2n
                0x000000000003f368       0xd8 networking/libiproute/lib.a(rt_names.o)
                0x000000000003f368                rtnl_dsfield_a2n
 .text.rtnl_rttable_initialize
                0x000000000003f440       0x74 networking/libiproute/lib.a(rt_names.o)
 .text.rtnl_rttable_n2a
                0x000000000003f4b4       0x68 networking/libiproute/lib.a(rt_names.o)
                0x000000000003f4b4                rtnl_rttable_n2a
 .text.rtnl_rttable_a2n
                0x000000000003f51c       0xe4 networking/libiproute/lib.a(rt_names.o)
                0x000000000003f51c                rtnl_rttable_a2n
 .text.rtnl_rtntype_n2a
                0x000000000003f600      0x108 networking/libiproute/lib.a(rtm_map.o)
                0x000000000003f630                rtnl_rtntype_n2a
 .text.rtnl_rtntype_a2n
                0x000000000003f708      0x10c networking/libiproute/lib.a(rtm_map.o)
                0x000000000003f708                rtnl_rtntype_a2n
 .text.get_rt_realms
                0x000000000003f814       0xa8 networking/libiproute/lib.a(rtm_map.o)
                0x000000000003f814                get_rt_realms
 .text.get_integer
                0x000000000003f8bc       0x6c networking/libiproute/lib.a(utils.o)
                0x000000000003f8bc                get_integer
 .text.get_unsigned
                0x000000000003f928       0x6c networking/libiproute/lib.a(utils.o)
                0x000000000003f928                get_unsigned
 .text.get_u32  0x000000000003f994       0x6c networking/libiproute/lib.a(utils.o)
                0x000000000003f994                get_u32
 .text.get_addr_1
                0x000000000003fa00      0x1ac networking/libiproute/lib.a(utils.o)
                0x000000000003fa00                get_addr_1
 .text.get_prefix_1
                0x000000000003fbac       0xfc networking/libiproute/lib.a(utils.o)
                0x000000000003fbac                get_prefix_1
 .text.get_addr
                0x000000000003fca8       0x50 networking/libiproute/lib.a(utils.o)
                0x000000000003fca8                get_addr
 .text.get_prefix
                0x000000000003fcf8       0x50 networking/libiproute/lib.a(utils.o)
                0x000000000003fcf8                get_prefix
 .text.get_addr32
                0x000000000003fd48       0x38 networking/libiproute/lib.a(utils.o)
                0x000000000003fd48                get_addr32
 .text.incomplete_command
                0x000000000003fd80       0x14 networking/libiproute/lib.a(utils.o)
                0x000000000003fd80                incomplete_command
 .text.invarg   0x000000000003fd94       0x1c networking/libiproute/lib.a(utils.o)
                0x000000000003fd94                invarg
 .text.duparg   0x000000000003fdb0       0x1c networking/libiproute/lib.a(utils.o)
                0x000000000003fdb0                duparg
 .text.duparg2  0x000000000003fdcc       0x1c networking/libiproute/lib.a(utils.o)
                0x000000000003fdcc                duparg2
 .text.inet_addr_match
                0x000000000003fde8       0x7c networking/libiproute/lib.a(utils.o)
                0x000000000003fde8                inet_addr_match
 .text.rt_addr_n2a
                0x000000000003fe64       0x34 networking/libiproute/lib.a(utils.o)
                0x000000000003fe64                rt_addr_n2a
 .text.format_host
                0x000000000003fe98       0x10 networking/libiproute/lib.a(utils.o)
                0x000000000003fe98                format_host
 .text.change_mode
                0x000000000003fea8       0x38 networking/udhcp/lib.a(dhcpc.o)
 .text.perform_release
                0x000000000003fee0       0xb4 networking/udhcp/lib.a(dhcpc.o)
 .text.client_background
                0x000000000003ff94       0x40 networking/udhcp/lib.a(dhcpc.o)
 .text.alloc_dhcp_option
                0x000000000003ffd4       0x54 networking/udhcp/lib.a(dhcpc.o)
 .text.udhcpc_main
                0x0000000000040028      0xb1c networking/udhcp/lib.a(dhcpc.o)
                0x0000000000040064                udhcpc_main
 .text.udhcpd_main
                0x0000000000040b44      0x5e8 networking/udhcp/lib.a(dhcpd.o)
                0x0000000000040b64                udhcpd_main
 .text.get_dhcp_packet_type
                0x000000000004112c       0x40 networking/udhcp/lib.a(dhcprelay.o)
 .text.dhcprelay_main
                0x000000000004116c      0x528 networking/udhcp/lib.a(dhcprelay.o)
                0x000000000004116c                dhcprelay_main
 .text.dumpleases_main
                0x0000000000041694      0x200 networking/udhcp/lib.a(dumpleases.o)
                0x0000000000041694                dumpleases_main
 .text.read_ip  0x0000000000041894       0x38 networking/udhcp/lib.a(files.o)
 .text.read_str
                0x00000000000418cc       0x20 networking/udhcp/lib.a(files.o)
 .text.read_u32
                0x00000000000418ec       0x34 networking/udhcp/lib.a(files.o)
 .text.read_yn  0x0000000000041920       0x5c networking/udhcp/lib.a(files.o)
 .text.find_option
                0x000000000004197c       0x68 networking/udhcp/lib.a(files.o)
                0x000000000004197c                find_option
 .text.read_opt
                0x00000000000419e4      0x408 networking/udhcp/lib.a(files.o)
 .text.read_staticlease
                0x0000000000041dec       0x78 networking/udhcp/lib.a(files.o)
 .text.read_config
                0x0000000000041e64      0x1b4 networking/udhcp/lib.a(files.o)
                0x0000000000041e64                read_config
 .text.write_leases
                0x0000000000042018      0x124 networking/udhcp/lib.a(files.o)
                0x0000000000042018                write_leases
 .text.read_leases
                0x000000000004213c       0xe4 networking/udhcp/lib.a(files.o)
                0x000000000004213c                read_leases
 .text.add_lease
                0x0000000000042220      0x15c networking/udhcp/lib.a(leases.o)
                0x0000000000042220                add_lease
 .text.lease_expired
                0x000000000004237c       0x20 networking/udhcp/lib.a(leases.o)
                0x000000000004237c                lease_expired
 .text.find_lease_by_chaddr
                0x000000000004239c       0x78 networking/udhcp/lib.a(leases.o)
                0x000000000004239c                find_lease_by_chaddr
 .text.find_lease_by_yiaddr
                0x0000000000042414       0x4c networking/udhcp/lib.a(leases.o)
                0x0000000000042414                find_lease_by_yiaddr
 .text.find_address
                0x0000000000042460       0xf4 networking/udhcp/lib.a(leases.o)
                0x0000000000042460                find_address
 .text.udhcp_get_option
                0x0000000000042554      0x144 networking/udhcp/lib.a(options.o)
                0x0000000000042554                udhcp_get_option
 .text.udhcp_end_option
                0x0000000000042698       0x50 networking/udhcp/lib.a(options.o)
                0x0000000000042698                udhcp_end_option
 .text.udhcp_add_option_string
                0x00000000000426e8       0x74 networking/udhcp/lib.a(options.o)
                0x00000000000426e8                udhcp_add_option_string
 .text.udhcp_add_simple_option
                0x000000000004275c       0xa8 networking/udhcp/lib.a(options.o)
                0x000000000004275c                udhcp_add_simple_option
 .text.udhcp_init_header
                0x0000000000042804       0x80 networking/udhcp/lib.a(packet.o)
                0x0000000000042804                udhcp_init_header
 .text.udhcp_get_packet
                0x0000000000042884       0xc8 networking/udhcp/lib.a(packet.o)
                0x0000000000042884                udhcp_get_packet
 .text.udhcp_checksum
                0x000000000004294c       0x7c networking/udhcp/lib.a(packet.o)
                0x000000000004294c                udhcp_checksum
 .text.udhcp_raw_packet
                0x00000000000429c8      0x188 networking/udhcp/lib.a(packet.o)
                0x00000000000429c8                udhcp_raw_packet
 .text.udhcp_kernel_packet
                0x0000000000042b50       0xcc networking/udhcp/lib.a(packet.o)
                0x0000000000042b50                udhcp_kernel_packet
 .text.sprintip
                0x0000000000042c1c       0x34 networking/udhcp/lib.a(script.o)
 .text.udhcp_run_script
                0x0000000000042c50      0x60c networking/udhcp/lib.a(script.o)
                0x0000000000042c78                udhcp_run_script
 .text.send_packet
                0x000000000004325c       0x98 networking/udhcp/lib.a(serverpacket.o)
 .text.init_packet
                0x00000000000432f4       0x58 networking/udhcp/lib.a(serverpacket.o)
 .text.add_bootp_options
                0x000000000004334c       0x60 networking/udhcp/lib.a(serverpacket.o)
 .text.sendOffer
                0x00000000000433ac      0x24c networking/udhcp/lib.a(serverpacket.o)
                0x00000000000433ac                sendOffer
 .text.sendNAK  0x00000000000435f8       0x2c networking/udhcp/lib.a(serverpacket.o)
                0x00000000000435f8                sendNAK
 .text.sendACK  0x0000000000043624      0x124 networking/udhcp/lib.a(serverpacket.o)
                0x0000000000043624                sendACK
 .text.send_inform
                0x0000000000043748       0x6c networking/udhcp/lib.a(serverpacket.o)
                0x0000000000043748                send_inform
 .text.signal_handler
                0x00000000000437b4       0x40 networking/udhcp/lib.a(signalpipe.o)
 .text.udhcp_sp_setup
                0x00000000000437f4       0x58 networking/udhcp/lib.a(signalpipe.o)
                0x00000000000437f4                udhcp_sp_setup
 .text.udhcp_sp_fd_set
                0x000000000004384c       0x8c networking/udhcp/lib.a(signalpipe.o)
                0x000000000004384c                udhcp_sp_fd_set
 .text.udhcp_sp_read
                0x00000000000438d8       0x54 networking/udhcp/lib.a(signalpipe.o)
                0x00000000000438d8                udhcp_sp_read
 .text.udhcp_read_interface
                0x000000000004392c      0x110 networking/udhcp/lib.a(socket.o)
                0x000000000004392c                udhcp_read_interface
 .text.udhcp_listen_socket
                0x0000000000043a3c       0xb8 networking/udhcp/lib.a(socket.o)
                0x0000000000043a3c                udhcp_listen_socket
 .text.addStaticLease
                0x0000000000043af4       0x50 networking/udhcp/lib.a(static_leases.o)
                0x0000000000043af4                addStaticLease
 .text.getIpByMac
                0x0000000000043b44       0x48 networking/udhcp/lib.a(static_leases.o)
                0x0000000000043b44                getIpByMac
 .text.reservedIp
                0x0000000000043b8c       0x38 networking/udhcp/lib.a(static_leases.o)
                0x0000000000043b8c                reservedIp
 .text.arpping  0x0000000000043bc4      0x1f0 networking/udhcp/lib.a(arpping.o)
                0x0000000000043bc4                arpping
 .text.random_xid
                0x0000000000043db4       0x3c networking/udhcp/lib.a(clientpacket.o)
                0x0000000000043db4                random_xid
 .text.init_packet
                0x0000000000043df0       0x8c networking/udhcp/lib.a(clientpacket.o)
 .text.add_requests
                0x0000000000043e7c       0x80 networking/udhcp/lib.a(clientpacket.o)
 .text.send_discover
                0x0000000000043efc       0x7c networking/udhcp/lib.a(clientpacket.o)
                0x0000000000043efc                send_discover
 .text.send_selecting
                0x0000000000043f78       0x94 networking/udhcp/lib.a(clientpacket.o)
                0x0000000000043f78                send_selecting
 .text.send_renew
                0x000000000004400c       0x8c networking/udhcp/lib.a(clientpacket.o)
                0x000000000004400c                send_renew
 .text.send_release
                0x0000000000044098       0x74 networking/udhcp/lib.a(clientpacket.o)
                0x0000000000044098                send_release
 .text.get_raw_packet
                0x000000000004410c      0x198 networking/udhcp/lib.a(clientpacket.o)
                0x000000000004410c                get_raw_packet
 .text.raw_socket
                0x00000000000442a4       0x40 networking/udhcp/lib.a(clientsocket.o)
                0x00000000000442a4                raw_socket
 .text.dname_dec
                0x00000000000442e4      0x1c0 networking/udhcp/lib.a(domain_codec.o)
                0x00000000000442e4                dname_dec
 .text.dname_enc
                0x00000000000444a4      0x224 networking/udhcp/lib.a(domain_codec.o)
                0x00000000000444a4                dname_enc
 .text.free_main
                0x00000000000446c8      0x19c procps/lib.a(free.o)
                0x00000000000446c8                free_main
 .text.fuser_file_to_dev_inode
                0x0000000000044864       0x3c procps/lib.a(fuser.o)
 .text.fuser_add_pid
                0x00000000000448a0       0x58 procps/lib.a(fuser.o)
 .text.fuser_add_inode
                0x00000000000448f8       0xb8 procps/lib.a(fuser.o)
 .text.fuser_search_dev_inode
                0x00000000000449b0       0x98 procps/lib.a(fuser.o)
 .text.fuser_scan_link
                0x0000000000044a48       0x58 procps/lib.a(fuser.o)
 .text.fuser_scan_dir_links
                0x0000000000044aa0       0x8c procps/lib.a(fuser.o)
 .text.fuser_main
                0x0000000000044b2c      0x698 procps/lib.a(fuser.o)
                0x0000000000044b2c                fuser_main
 .text.kill_main
                0x00000000000451c4      0x3ac procps/lib.a(kill.o)
                0x00000000000451c4                kill_main
 .text.put      0x0000000000045570       0x58 procps/lib.a(nmeter.o)
 .text.put_c    0x00000000000455c8       0x30 procps/lib.a(nmeter.o)
 .text.put_question_marks
                0x00000000000455f8       0x34 procps/lib.a(nmeter.o)
 .text.get_file
                0x000000000004562c       0xcc procps/lib.a(nmeter.o)
 .text.vrdval   0x00000000000456f8      0x104 procps/lib.a(nmeter.o)
 .text.rdval    0x00000000000457fc       0x30 procps/lib.a(nmeter.o)
 .text.rdval_loadavg
                0x000000000004582c       0x38 procps/lib.a(nmeter.o)
 .text.scale    0x0000000000045864       0x2c procps/lib.a(nmeter.o)
 .text.collect_literal
                0x0000000000045890        0x8 procps/lib.a(nmeter.o)
 .text.init_delay
                0x0000000000045898       0x74 procps/lib.a(nmeter.o)
 .text.init_cr  0x000000000004590c       0x1c procps/lib.a(nmeter.o)
 .text.collect_cpu
                0x0000000000045928      0x2c0 procps/lib.a(nmeter.o)
 .text.init_cpu
                0x0000000000045be8       0x68 procps/lib.a(nmeter.o)
 .text.collect_int
                0x0000000000045c50       0x90 procps/lib.a(nmeter.o)
 .text.init_int
                0x0000000000045ce0       0x58 procps/lib.a(nmeter.o)
 .text.collect_ctx
                0x0000000000045d38       0x90 procps/lib.a(nmeter.o)
 .text.init_ctx
                0x0000000000045dc8       0x20 procps/lib.a(nmeter.o)
 .text.collect_blk
                0x0000000000045de8      0x268 procps/lib.a(nmeter.o)
 .text.init_blk
                0x0000000000046050       0x2c procps/lib.a(nmeter.o)
 .text.collect_thread_nr
                0x000000000004607c       0x4c procps/lib.a(nmeter.o)
 .text.collect_fork
                0x00000000000460c8       0x90 procps/lib.a(nmeter.o)
 .text.init_fork
                0x0000000000046158       0x38 procps/lib.a(nmeter.o)
 .text.collect_if
                0x0000000000046190      0x104 procps/lib.a(nmeter.o)
 .text.init_if  0x0000000000046294       0x74 procps/lib.a(nmeter.o)
 .text.collect_mem
                0x0000000000046308      0x16c procps/lib.a(nmeter.o)
 .text.init_mem
                0x0000000000046474       0x28 procps/lib.a(nmeter.o)
 .text.collect_swp
                0x000000000004649c       0x94 procps/lib.a(nmeter.o)
 .text.init_swp
                0x0000000000046530       0x20 procps/lib.a(nmeter.o)
 .text.collect_fd
                0x0000000000046550       0x64 procps/lib.a(nmeter.o)
 .text.init_fd  0x00000000000465b4       0x20 procps/lib.a(nmeter.o)
 .text.collect_time
                0x00000000000465d4       0xc8 procps/lib.a(nmeter.o)
 .text.init_time
                0x000000000004669c       0x78 procps/lib.a(nmeter.o)
 .text.collect_info
                0x0000000000046714       0x4c procps/lib.a(nmeter.o)
 .text.nmeter_main
                0x0000000000046760      0x3c4 procps/lib.a(nmeter.o)
                0x0000000000046760                nmeter_main
 .text.act      0x0000000000046b24       0x6c procps/lib.a(pgrep.o)
 .text.pgrep_main
                0x0000000000046b90      0x260 procps/lib.a(pgrep.o)
                0x0000000000046b90                pgrep_main
 .text.pidof_main
                0x0000000000046df0      0x164 procps/lib.a(pidof.o)
                0x0000000000046df0                pidof_main
 .text.ps_main  0x0000000000046f54      0x140 procps/lib.a(ps.o)
                0x0000000000046f54                ps_main
 .text.renice_main
                0x0000000000047094      0x1d0 procps/lib.a(renice.o)
                0x0000000000047094                renice_main
 .text.dwrite_str
                0x0000000000047264       0x18 procps/lib.a(sysctl.o)
 .text.sysctl_write_setting
                0x000000000004727c      0x1b0 procps/lib.a(sysctl.o)
 .text.sysctl_read_setting
                0x000000000004742c      0x174 procps/lib.a(sysctl.o)
 .text.sysctl_display_all
                0x00000000000475a0       0xd4 procps/lib.a(sysctl.o)
 .text.sysctl_main
                0x0000000000047674      0x288 procps/lib.a(sysctl.o)
                0x0000000000047674                sysctl_main
 .text.pid_sort
                0x00000000000478fc       0x10 procps/lib.a(top.o)
 .text.mem_sort
                0x000000000004790c       0x28 procps/lib.a(top.o)
 .text.pcpu_sort
                0x0000000000047934       0x10 procps/lib.a(top.o)
 .text.time_sort
                0x0000000000047944       0x28 procps/lib.a(top.o)
 .text.mult_lvl_cmp
                0x000000000004796c       0x4c procps/lib.a(top.o)
 .text.do_stats
                0x00000000000479b8      0x210 procps/lib.a(top.o)
 .text.display_process_list
                0x0000000000047bc8      0x59c procps/lib.a(top.o)
 .text.clearmems
                0x0000000000048164       0x28 procps/lib.a(top.o)
 .text.reset_term
                0x000000000004818c       0x20 procps/lib.a(top.o)
 .text.sig_catcher
                0x00000000000481ac       0x18 procps/lib.a(top.o)
 .text.topmem_sort
                0x00000000000481c4       0x54 procps/lib.a(top.o)
 .text.grab_number
                0x0000000000048218       0x44 procps/lib.a(top.o)
 .text.smart_ulltoa6
                0x000000000004825c      0x2e8 procps/lib.a(top.o)
 .text.display_topmem_process_list
                0x0000000000048544      0x520 procps/lib.a(top.o)
 .text.top_main
                0x0000000000048a64      0x5bc procps/lib.a(top.o)
                0x0000000000048a64                top_main
 .text.uptime_main
                0x0000000000049020      0x190 procps/lib.a(uptime.o)
                0x0000000000049020                uptime_main
 .text.watch_main
                0x00000000000491b0      0x1a8 procps/lib.a(watch.o)
                0x00000000000491b0                watch_main
 .text.suidgid  0x0000000000049358       0x6c runit/lib.a(chpst.o)
 .text.euidgid  0x00000000000493c4       0x6c runit/lib.a(chpst.o)
 .text.edir     0x0000000000049430      0x1ec runit/lib.a(chpst.o)
 .text.limit    0x000000000004961c       0x9c runit/lib.a(chpst.o)
 .text.slimit   0x00000000000496b8      0x108 runit/lib.a(chpst.o)
 .text.chpst_main
                0x00000000000497c0      0x644 runit/lib.a(chpst.o)
                0x00000000000497c0                chpst_main
 .text.gettimeofday_ns
                0x0000000000049e04       0x24 runit/lib.a(runsv.o)
 .text.fatal2_cannot
                0x0000000000049e28       0x24 runit/lib.a(runsv.o)
 .text.fatal_cannot
                0x0000000000049e4c       0x18 runit/lib.a(runsv.o)
 .text.fatal2x_cannot
                0x0000000000049e64       0x24 runit/lib.a(runsv.o)
 .text.warn_cannot
                0x0000000000049e88       0x24 runit/lib.a(runsv.o)
 .text.s_child  0x0000000000049eac       0x24 runit/lib.a(runsv.o)
 .text.s_term   0x0000000000049ed0       0x30 runit/lib.a(runsv.o)
 .text.add_str  0x0000000000049f00       0x30 runit/lib.a(runsv.o)
 .text.open_trunc_or_warn
                0x0000000000049f30       0x38 runit/lib.a(runsv.o)
 .text.rename_or_warn
                0x0000000000049f68       0x44 runit/lib.a(runsv.o)
 .text.update_status
                0x0000000000049fac      0x318 runit/lib.a(runsv.o)
 .text.custom   0x000000000004a2c4      0x16c runit/lib.a(runsv.o)
 .text.stopservice
                0x000000000004a430       0x88 runit/lib.a(runsv.o)
 .text.startservice
                0x000000000004a4b8      0x188 runit/lib.a(runsv.o)
 .text.ctrl     0x000000000004a640      0x24c runit/lib.a(runsv.o)
 .text.runsv_main
                0x000000000004a88c      0x800 runit/lib.a(runsv.o)
                0x000000000004a88c                runsv_main
 .text.fatal2_cannot
                0x000000000004b08c       0x24 runit/lib.a(runsvdir.o)
 .text.warn3x   0x000000000004b0b0       0x30 runit/lib.a(runsvdir.o)
 .text.warn2_cannot
                0x000000000004b0e0       0x24 runit/lib.a(runsvdir.o)
 .text.warnx    0x000000000004b104       0x1c runit/lib.a(runsvdir.o)
 .text.s_term   0x000000000004b120       0x10 runit/lib.a(runsvdir.o)
 .text.s_hangup
                0x000000000004b130       0x10 runit/lib.a(runsvdir.o)
 .text.runsv    0x000000000004b140       0xd0 runit/lib.a(runsvdir.o)
 .text.runsvdir_main
                0x000000000004b210      0x80c runit/lib.a(runsvdir.o)
                0x000000000004b210                runsvdir_main
 .text.fatal_cannot
                0x000000000004ba1c       0x20 runit/lib.a(sv.o)
 .text.out      0x000000000004ba3c       0x64 runit/lib.a(sv.o)
 .text.fail     0x000000000004baa0       0x30 runit/lib.a(sv.o)
 .text.failx    0x000000000004bad0       0x1c runit/lib.a(sv.o)
 .text.warn     0x000000000004baec       0x30 runit/lib.a(sv.o)
 .text.ok       0x000000000004bb1c       0x28 runit/lib.a(sv.o)
 .text.svstatus_get
                0x000000000004bb44      0x100 runit/lib.a(sv.o)
 .text.svstatus_print
                0x000000000004bc44      0x1f0 runit/lib.a(sv.o)
 .text.status   0x000000000004be34       0xb0 runit/lib.a(sv.o)
 .text.checkscript
                0x000000000004bee4      0x100 runit/lib.a(sv.o)
 .text.check    0x000000000004bfe4      0x250 runit/lib.a(sv.o)
 .text.control  0x000000000004c234       0xe4 runit/lib.a(sv.o)
 .text.sv_main  0x000000000004c318      0x650 runit/lib.a(sv.o)
                0x000000000004c318                sv_main
 .text.warn2    0x000000000004c968       0x24 runit/lib.a(svlogd.o)
 .text.warnx    0x000000000004c98c       0x24 runit/lib.a(svlogd.o)
 .text.pause_nomem
                0x000000000004c9b0       0x1c runit/lib.a(svlogd.o)
 .text.pause1cannot
                0x000000000004c9cc       0x20 runit/lib.a(svlogd.o)
 .text.pause2cannot
                0x000000000004c9ec       0x24 runit/lib.a(svlogd.o)
 .text.fmt_time_bernstein_25
                0x000000000004ca10       0x6c runit/lib.a(svlogd.o)
 .text.processorstart
                0x000000000004ca7c      0x1f0 runit/lib.a(svlogd.o)
 .text.processorstop
                0x000000000004cc6c      0x258 runit/lib.a(svlogd.o)
 .text.rmoldest
                0x000000000004cec4      0x1a0 runit/lib.a(svlogd.o)
 .text.rotate   0x000000000004d064      0x2c8 runit/lib.a(svlogd.o)
 .text.buffer_pwrite
                0x000000000004d32c      0x2bc runit/lib.a(svlogd.o)
 .text.logdir_close
                0x000000000004d5e8       0xf0 runit/lib.a(svlogd.o)
 .text.logdirs_reopen
                0x000000000004d6d8      0x6e4 runit/lib.a(svlogd.o)
 .text.buffer_pread
                0x000000000004ddbc      0x344 runit/lib.a(svlogd.o)
 .text.sig_term_handler
                0x000000000004e100       0x40 runit/lib.a(svlogd.o)
 .text.sig_child_handler
                0x000000000004e140       0xb0 runit/lib.a(svlogd.o)
 .text.sig_alarm_handler
                0x000000000004e1f0       0x40 runit/lib.a(svlogd.o)
 .text.sig_hangup_handler
                0x000000000004e230       0x40 runit/lib.a(svlogd.o)
 .text.svlogd_main
                0x000000000004e270      0x7ec runit/lib.a(svlogd.o)
                0x000000000004e270                svlogd_main
 .text.lock_ex  0x000000000004ea5c       0x14 runit/lib.a(runit_lib.o)
                0x000000000004ea5c                lock_ex
 .text.lock_exnb
                0x000000000004ea70       0x14 runit/lib.a(runit_lib.o)
                0x000000000004ea70                lock_exnb
 .text.open_read
                0x000000000004ea84       0x18 runit/lib.a(runit_lib.o)
                0x000000000004ea84                open_read
 .text.open_trunc
                0x000000000004ea9c       0x1c runit/lib.a(runit_lib.o)
                0x000000000004ea9c                open_trunc
 .text.open_write
                0x000000000004eab8       0x18 runit/lib.a(runit_lib.o)
                0x000000000004eab8                open_write
 .text.pmatch   0x000000000004ead0       0xe4 runit/lib.a(runit_lib.o)
                0x000000000004ead0                pmatch
 .text.syntax   0x000000000004ebb4       0x60 shell/lib.a(hush.o)
 .text.add_strings_to_strings
                0x000000000004ec14       0xc0 shell/lib.a(hush.o)
 .text.free_strings
                0x000000000004ecd4       0x4c shell/lib.a(hush.o)
 .text.set_cwd  0x000000000004ed20       0x48 shell/lib.a(hush.o)
 .text.builtin_cd
                0x000000000004ed68       0x7c shell/lib.a(hush.o)
 .text.builtin_exit
                0x000000000004ede4       0x40 shell/lib.a(hush.o)
 .text.builtin_pwd
                0x000000000004ee24       0x1c shell/lib.a(hush.o)
 .text.builtin_shift
                0x000000000004ee40       0x70 shell/lib.a(hush.o)
 .text.builtin_umask
                0x000000000004eeb0       0x7c shell/lib.a(hush.o)
 .text.b_addchr
                0x000000000004ef2c       0x68 shell/lib.a(hush.o)
 .text.b_reset  0x000000000004ef94       0x20 shell/lib.a(hush.o)
 .text.b_addqchr
                0x000000000004efb4       0x58 shell/lib.a(hush.o)
 .text.static_get
                0x000000000004f00c       0x28 shell/lib.a(hush.o)
 .text.static_peek
                0x000000000004f034        0xc shell/lib.a(hush.o)
 .text.file_get
                0x000000000004f040      0x134 shell/lib.a(hush.o)
 .text.file_peek
                0x000000000004f174       0x7c shell/lib.a(hush.o)
 .text.setup_redirects
                0x000000000004f1f0       0xd4 shell/lib.a(hush.o)
 .text.restore_redirects
                0x000000000004f2c4       0x3c shell/lib.a(hush.o)
 .text.checkjobs
                0x000000000004f300      0x13c shell/lib.a(hush.o)
 .text.free_pipe_list
                0x000000000004f43c      0x11c shell/lib.a(hush.o)
 .text.globhack
                0x000000000004f558       0xa0 shell/lib.a(hush.o)
 .text.count_ifs
                0x000000000004f5f8       0x40 shell/lib.a(hush.o)
 .text.expand_on_ifs
                0x000000000004f638       0x84 shell/lib.a(hush.o)
 .text.get_local_var
                0x000000000004f6bc       0x74 shell/lib.a(hush.o)
 .text.lookup_param
                0x000000000004f730       0x30 shell/lib.a(hush.o)
 .text.expand_variables
                0x000000000004f760      0x62c shell/lib.a(hush.o)
 .text.expand_strvec_to_strvec
                0x000000000004fd8c       0x14 shell/lib.a(hush.o)
 .text.expand_string_to_string
                0x000000000004fda0       0x54 shell/lib.a(hush.o)
 .text.builtin_unset
                0x000000000004fdf4       0xc4 shell/lib.a(hush.o)
 .text.set_local_var
                0x000000000004feb8      0x148 shell/lib.a(hush.o)
 .text.builtin_set
                0x0000000000050000       0x50 shell/lib.a(hush.o)
 .text.builtin_read
                0x0000000000050050       0x44 shell/lib.a(hush.o)
 .text.builtin_export
                0x0000000000050094       0x98 shell/lib.a(hush.o)
 .text.is_assignment
                0x000000000005012c       0x64 shell/lib.a(hush.o)
 .text.pseudo_exec_argv
                0x0000000000050190       0xdc shell/lib.a(hush.o)
 .text.run_list_real
                0x000000000005026c      0x6a0 shell/lib.a(hush.o)
 .text.builtin_exec
                0x000000000005090c       0x24 shell/lib.a(hush.o)
 .text.setup_redirect
                0x0000000000050930      0x14c shell/lib.a(hush.o)
 .text.new_pipe
                0x0000000000050a7c       0x14 shell/lib.a(hush.o)
 .text.done_command
                0x0000000000050a90       0x9c shell/lib.a(hush.o)
 .text.initialize_context
                0x0000000000050b2c       0x30 shell/lib.a(hush.o)
 .text.done_pipe
                0x0000000000050b5c       0x4c shell/lib.a(hush.o)
 .text.done_word
                0x0000000000050ba8      0x364 shell/lib.a(hush.o)
 .text.redirect_opt_num
                0x0000000000050f0c       0x78 shell/lib.a(hush.o)
 .text.parse_stream
                0x0000000000050f84      0x6ec shell/lib.a(hush.o)
 .text.set_in_charmap
                0x0000000000051670       0x3c shell/lib.a(hush.o)
 .text.parse_and_run_stream
                0x00000000000516ac      0x1ac shell/lib.a(hush.o)
 .text.parse_and_run_string
                0x0000000000051858       0x44 shell/lib.a(hush.o)
 .text.builtin_eval
                0x000000000005189c       0xc8 shell/lib.a(hush.o)
 .text.parse_and_run_file
                0x0000000000051964       0x44 shell/lib.a(hush.o)
 .text.builtin_source
                0x00000000000519a8       0x70 shell/lib.a(hush.o)
 .text.hush_main
                0x0000000000051a18      0x304 shell/lib.a(hush.o)
                0x0000000000051a18                hush_main
 .text.klogd_signal
                0x0000000000051d1c       0x40 sysklogd/lib.a(klogd.o)
 .text.klogd_main
                0x0000000000051d5c      0x1e8 sysklogd/lib.a(klogd.o)
                0x0000000000051d5c                klogd_main
 .text.decode   0x0000000000051f44       0x58 sysklogd/lib.a(logger.o)
 .text.logger_main
                0x0000000000051f9c      0x248 sysklogd/lib.a(logger.o)
                0x0000000000051f9c                logger_main
 .text.error_exit
                0x00000000000521e4       0x1c sysklogd/lib.a(logread.o)
 .text.sem_up   0x0000000000052200       0x38 sysklogd/lib.a(logread.o)
 .text.interrupted
                0x0000000000052238       0x28 sysklogd/lib.a(logread.o)
 .text.logread_main
                0x0000000000052260      0x220 sysklogd/lib.a(logread.o)
                0x0000000000052260                logread_main
 .text.timestamp_and_log
                0x0000000000052480      0x4f0 sysklogd/lib.a(syslogd.o)
 .text.quit_signal
                0x0000000000052970       0x80 sysklogd/lib.a(syslogd.o)
 .text.syslogd_main
                0x00000000000529f0      0x5c4 sysklogd/lib.a(syslogd.o)
                0x00000000000529f0                syslogd_main
 .text.dmesg_main
                0x0000000000052fb4      0x114 util-linux/lib.a(dmesg.o)
                0x0000000000052fb4                dmesg_main
 .text.fbset_main
                0x00000000000530c8      0x924 util-linux/lib.a(fbset.o)
                0x00000000000530c8                fbset_main
 .text.fdformat_main
                0x00000000000539ec      0x27c util-linux/lib.a(fdformat.o)
                0x00000000000539ec                fdformat_main
 .text.read_line
                0x0000000000053c68       0x98 util-linux/lib.a(fdisk.o)
 .text.str_units
                0x0000000000053d00       0x58 util-linux/lib.a(fdisk.o)
 .text.valid_part_table_flag
                0x0000000000053d58       0x2c util-linux/lib.a(fdisk.o)
 .text.read_nonempty
                0x0000000000053d84       0x2c util-linux/lib.a(fdisk.o)
 .text.read_maybe_empty
                0x0000000000053db0       0x48 util-linux/lib.a(fdisk.o)
 .text.store4_little_endian
                0x0000000000053df8       0x20 util-linux/lib.a(fdisk.o)
 .text.read4_little_endian
                0x0000000000053e18       0x2c util-linux/lib.a(fdisk.o)
 .text.set_start_sect
                0x0000000000053e44       0x14 util-linux/lib.a(fdisk.o)
 .text.get_start_sect
                0x0000000000053e58       0x14 util-linux/lib.a(fdisk.o)
 .text.set_nr_sects
                0x0000000000053e6c       0x14 util-linux/lib.a(fdisk.o)
 .text.get_nr_sects
                0x0000000000053e80       0x14 util-linux/lib.a(fdisk.o)
 .text.fdisk_fatal
                0x0000000000053e94       0x48 util-linux/lib.a(fdisk.o)
 .text.seek_sector
                0x0000000000053edc       0x6c util-linux/lib.a(fdisk.o)
 .text.get_partition_start
                0x0000000000053f48       0x18 util-linux/lib.a(fdisk.o)
 .text.is_dos_partition
                0x0000000000053f60      0x138 util-linux/lib.a(fdisk.o)
 .text.menu     0x0000000000054098       0xc8 util-linux/lib.a(fdisk.o)
 .text.get_sys_types
                0x0000000000054160        0xc util-linux/lib.a(fdisk.o)
 .text.partition_type
                0x000000000005416c       0x5c util-linux/lib.a(fdisk.o)
 .text.list_types
                0x00000000000541c8      0x108 util-linux/lib.a(fdisk.o)
 .text.is_cleared_partition
                0x00000000000542d0       0xc4 util-linux/lib.a(fdisk.o)
 .text.clear_partition
                0x0000000000054394       0x28 util-linux/lib.a(fdisk.o)
 .text.set_partition
                0x00000000000543bc      0x2a4 util-linux/lib.a(fdisk.o)
 .text.warn_geometry
                0x0000000000054660       0xb8 util-linux/lib.a(fdisk.o)
 .text.update_units
                0x0000000000054718       0x50 util-linux/lib.a(fdisk.o)
 .text.warn_cylinders
                0x0000000000054768       0x50 util-linux/lib.a(fdisk.o)
 .text.read_int
                0x00000000000547b8      0x300 util-linux/lib.a(fdisk.o)
 .text.get_partition
                0x0000000000054ab8       0x70 util-linux/lib.a(fdisk.o)
 .text.get_existing_partition
                0x0000000000054b28       0xac util-linux/lib.a(fdisk.o)
 .text.get_nonexisting_partition
                0x0000000000054bd4       0xa8 util-linux/lib.a(fdisk.o)
 .text.delete_partition
                0x0000000000054c7c      0x228 util-linux/lib.a(fdisk.o)
 .text.get_boot
                0x0000000000054ea4      0x884 util-linux/lib.a(fdisk.o)
 .text.linear2chs
                0x0000000000055728       0x78 util-linux/lib.a(fdisk.o)
 .text.check_consistency
                0x00000000000557a0      0x1ec util-linux/lib.a(fdisk.o)
 .text.list_disk_geometry
                0x000000000005598c      0x17c util-linux/lib.a(fdisk.o)
 .text.wrong_p_order
                0x0000000000055b08       0xd0 util-linux/lib.a(fdisk.o)
 .text.list_table
                0x0000000000055bd8      0x3d4 util-linux/lib.a(fdisk.o)
 .text.x_list_table
                0x0000000000055fac      0x140 util-linux/lib.a(fdisk.o)
 .text.fill_bounds
                0x00000000000560ec       0xe0 util-linux/lib.a(fdisk.o)
 .text.verify   0x00000000000561cc      0x64c util-linux/lib.a(fdisk.o)
 .text.add_partition
                0x0000000000056818      0xa2c util-linux/lib.a(fdisk.o)
 .text.add_logical
                0x0000000000057244       0xa0 util-linux/lib.a(fdisk.o)
 .text.write_table
                0x00000000000572e4      0x13c util-linux/lib.a(fdisk.o)
 .text.print_buffer
                0x0000000000057420       0x90 util-linux/lib.a(fdisk.o)
 .text.trydev   0x00000000000574b0      0x204 util-linux/lib.a(fdisk.o)
 .text.unknown_command
                0x00000000000576b4       0x1c util-linux/lib.a(fdisk.o)
 .text.fdisk_main
                0x00000000000576d0     0x105c util-linux/lib.a(fdisk.o)
                0x0000000000057794                fdisk_main
 .text.freeramdisk_main
                0x000000000005872c       0x60 util-linux/lib.a(freeramdisk.o)
                0x000000000005872c                freeramdisk_main
 .text.minix_bit
                0x000000000005878c       0x1c util-linux/lib.a(fsck_minix.o)
 .text.minix_setbit
                0x00000000000587a8       0x2c util-linux/lib.a(fsck_minix.o)
 .text.minix_clrbit
                0x00000000000587d4       0x2c util-linux/lib.a(fsck_minix.o)
 .text.die      0x0000000000058800       0x3c util-linux/lib.a(fsck_minix.o)
 .text.push_filename
                0x000000000005883c       0x70 util-linux/lib.a(fsck_minix.o)
 .text.pop_filename
                0x00000000000588ac       0x58 util-linux/lib.a(fsck_minix.o)
 .text.ask      0x0000000000058904      0x13c util-linux/lib.a(fsck_minix.o)
 .text.check_zone_nr2
                0x0000000000058a40       0xa8 util-linux/lib.a(fsck_minix.o)
 .text.check_zone_nr
                0x0000000000058ae8       0x28 util-linux/lib.a(fsck_minix.o)
 .text.read_block
                0x0000000000058b10       0xf0 util-linux/lib.a(fsck_minix.o)
 .text.write_block
                0x0000000000058c00       0xe8 util-linux/lib.a(fsck_minix.o)
 .text.write_super_block
                0x0000000000058ce8       0x9c util-linux/lib.a(fsck_minix.o)
 .text.add_zone
                0x0000000000058d84      0x120 util-linux/lib.a(fsck_minix.o)
 .text.add_zone2
                0x0000000000058ea4      0x120 util-linux/lib.a(fsck_minix.o)
 .text.add_zone_ind
                0x0000000000058fc4       0x7c util-linux/lib.a(fsck_minix.o)
 .text.add_zone_ind2
                0x0000000000059040       0x7c util-linux/lib.a(fsck_minix.o)
 .text.add_zone_dind2
                0x00000000000590bc       0x7c util-linux/lib.a(fsck_minix.o)
 .text.check_zones
                0x0000000000059138      0x130 util-linux/lib.a(fsck_minix.o)
 .text.check_zones2
                0x0000000000059268      0x13c util-linux/lib.a(fsck_minix.o)
 .text.recursive_check
                0x00000000000593a4      0x5c0 util-linux/lib.a(fsck_minix.o)
 .text.recursive_check2
                0x0000000000059964      0x650 util-linux/lib.a(fsck_minix.o)
 .text.bad_zone
                0x0000000000059fb4       0x78 util-linux/lib.a(fsck_minix.o)
 .text.fsck_minix_main
                0x000000000005a02c     0x1250 util-linux/lib.a(fsck_minix.o)
                0x000000000005a084                fsck_minix_main
 .text.normalize
                0x000000000005b27c      0x16c util-linux/lib.a(getopt.o)
 .text.generate_output
                0x000000000005b3e8      0x1ec util-linux/lib.a(getopt.o)
 .text.getopt_main
                0x000000000005b5d4      0x36c util-linux/lib.a(getopt.o)
                0x000000000005b5d4                getopt_main
 .text.hexdump_main
                0x000000000005b940      0x200 util-linux/lib.a(hexdump.o)
                0x000000000005b940                hexdump_main
 .text.xopen_rtc
                0x000000000005bb40       0x78 util-linux/lib.a(hwclock.o)
 .text.read_rtc
                0x000000000005bbb8       0xcc util-linux/lib.a(hwclock.o)
 .text.hwclock_main
                0x000000000005bc84      0x250 util-linux/lib.a(hwclock.o)
                0x000000000005bc84                hwclock_main
 .text.ipcrm_main
                0x000000000005bed4      0x46c util-linux/lib.a(ipcrm.o)
                0x000000000005bed4                ipcrm_main
 .text.print_perms
                0x000000000005c340       0xf0 util-linux/lib.a(ipcs.o)
 .text.ipcs_main
                0x000000000005c430     0x1054 util-linux/lib.a(ipcs.o)
                0x000000000005c46c                ipcs_main
 .text.losetup_main
                0x000000000005d484      0x188 util-linux/lib.a(losetup.o)
                0x000000000005d484                losetup_main
 .text.make_device
                0x000000000005d60c      0x578 util-linux/lib.a(mdev.o)
 .text.fileAction
                0x000000000005db84       0x54 util-linux/lib.a(mdev.o)
 .text.dirAction
                0x000000000005dbd8       0x18 util-linux/lib.a(mdev.o)
 .text.mdev_main
                0x000000000005dbf0      0x250 util-linux/lib.a(mdev.o)
                0x000000000005dbf0                mdev_main
 .text.minix_bit
                0x000000000005de40       0x1c util-linux/lib.a(mkfs_minix.o)
 .text.minix_setbit
                0x000000000005de5c       0x20 util-linux/lib.a(mkfs_minix.o)
 .text.minix_clrbit
                0x000000000005de7c       0x20 util-linux/lib.a(mkfs_minix.o)
 .text.valid_offset
                0x000000000005de9c       0x50 util-linux/lib.a(mkfs_minix.o)
 .text.write_block
                0x000000000005deec       0x3c util-linux/lib.a(mkfs_minix.o)
 .text.get_free_block
                0x000000000005df28       0xe4 util-linux/lib.a(mkfs_minix.o)
 .text.next     0x000000000005e00c       0x88 util-linux/lib.a(mkfs_minix.o)
 .text.alarm_intr
                0x000000000005e094       0x94 util-linux/lib.a(mkfs_minix.o)
 .text.mkfs_minix_main
                0x000000000005e128      0xf18 util-linux/lib.a(mkfs_minix.o)
                0x000000000005e128                mkfs_minix_main
 .text.mkswap_main
                0x000000000005f040       0xf8 util-linux/lib.a(mkswap.o)
                0x000000000005f040                mkswap_main
 .text.gotsig   0x000000000005f138       0x30 util-linux/lib.a(more.o)
 .text.more_main
                0x000000000005f168      0x38c util-linux/lib.a(more.o)
                0x000000000005f168                more_main
 .text.append_mount_options
                0x000000000005f4f4      0x118 util-linux/lib.a(mount.o)
 .text.parse_mount_options
                0x000000000005f60c      0x120 util-linux/lib.a(mount.o)
 .text.mount_it_now
                0x000000000005f72c       0xb4 util-linux/lib.a(mount.o)
 .text.nfs_strerror
                0x000000000005f7e0       0x6c util-linux/lib.a(mount.o)
 .text.xdr_fhstatus
                0x000000000005f84c       0x58 util-linux/lib.a(mount.o)
 .text.xdr_dirpath
                0x000000000005f8a4       0x24 util-linux/lib.a(mount.o)
 .text.xdr_mountres3
                0x000000000005f8c8       0x8c util-linux/lib.a(mount.o)
 .text.daemonize
                0x000000000005f954       0xb0 util-linux/lib.a(mount.o)
 .text.error_msg_rpc
                0x000000000005fa04       0x7c util-linux/lib.a(mount.o)
 .text.singlemount
                0x000000000005fa80     0x14dc util-linux/lib.a(mount.o)
 .text.mount_main
                0x0000000000060f5c      0x434 util-linux/lib.a(mount.o)
                0x0000000000060f5c                mount_main
 .text.pivot_root_main
                0x0000000000061390       0x3c util-linux/lib.a(pivot_root.o)
                0x0000000000061390                pivot_root_main
 .text.socket_timeout
                0x00000000000613cc       0x14 util-linux/lib.a(rdate.o)
 .text.rdate_main
                0x00000000000613e0      0x148 util-linux/lib.a(rdate.o)
                0x00000000000613e0                rdate_main
 .text.readprofile_main
                0x0000000000061528      0x920 util-linux/lib.a(readprofile.o)
                0x0000000000061528                readprofile_main
 .text.setarch_main
                0x0000000000061e48       0x9c util-linux/lib.a(setarch.o)
                0x0000000000061e48                setarch_main
 .text.swap_enable_disable
                0x0000000000061ee4       0x68 util-linux/lib.a(swaponoff.o)
 .text.swap_on_off_main
                0x0000000000061f4c       0xd0 util-linux/lib.a(swaponoff.o)
                0x0000000000061f4c                swap_on_off_main
 .text.delete_contents
                0x000000000006201c      0x140 util-linux/lib.a(switch_root.o)
 .text.switch_root_main
                0x000000000006215c      0x218 util-linux/lib.a(switch_root.o)
                0x000000000006215c                switch_root_main
 .text.umount_main
                0x0000000000062374      0x364 util-linux/lib.a(umount.o)
                0x0000000000062374                umount_main
 .text.header_verbose_list_ar
                0x00000000000626d8       0x68 archival/lib.a(ar.o)
 .text.ar_main  0x0000000000062740      0x194 archival/lib.a(ar.o)
                0x0000000000062740                ar_main
 .text.open_to_or_warn
                0x00000000000628d4       0x34 archival/lib.a(bbunzip.o)
 .text.bbunpack
                0x0000000000062908      0x1d4 archival/lib.a(bbunzip.o)
                0x0000000000062908                bbunpack
 .text.make_new_name_generic
                0x0000000000062adc       0x4c archival/lib.a(bbunzip.o)
 .text.make_new_name_bunzip2
                0x0000000000062b28       0x18 archival/lib.a(bbunzip.o)
 .text.unpack_bunzip2
                0x0000000000062b40       0x18 archival/lib.a(bbunzip.o)
 .text.bunzip2_main
                0x0000000000062b58       0x68 archival/lib.a(bbunzip.o)
                0x0000000000062b58                bunzip2_main
 .text.make_new_name_gunzip
                0x0000000000062bc0       0xb4 archival/lib.a(bbunzip.o)
 .text.unpack_gunzip
                0x0000000000062c74       0x90 archival/lib.a(bbunzip.o)
 .text.gunzip_main
                0x0000000000062d04       0x68 archival/lib.a(bbunzip.o)
                0x0000000000062d04                gunzip_main
 .text.make_new_name_unlzma
                0x0000000000062d6c       0x18 archival/lib.a(bbunzip.o)
 .text.unpack_unlzma
                0x0000000000062d84       0x18 archival/lib.a(bbunzip.o)
 .text.unlzma_main
                0x0000000000062d9c       0x68 archival/lib.a(bbunzip.o)
                0x0000000000062d9c                unlzma_main
 .text.make_new_name_uncompress
                0x0000000000062e04       0x18 archival/lib.a(bbunzip.o)
 .text.unpack_uncompress
                0x0000000000062e1c       0x60 archival/lib.a(bbunzip.o)
 .text.uncompress_main
                0x0000000000062e7c       0x3c archival/lib.a(bbunzip.o)
                0x0000000000062e7c                uncompress_main
 .text.mvswap   0x0000000000062eb8       0x40 archival/lib.a(bzip2.o)
 .text.fallbackSort
                0x0000000000062ef8      0x844 archival/lib.a(bzip2.o)
 .text.mainGtU  0x000000000006373c      0x354 archival/lib.a(bzip2.o)
 .text.mainSort
                0x0000000000063a90      0xb34 archival/lib.a(bzip2.o)
 .text.BZ2_blockSort
                0x00000000000645c4       0xc8 archival/lib.a(bzip2.o)
 .text.prepare_new_block
                0x000000000006468c       0x3c archival/lib.a(bzip2.o)
 .text.isempty_RL
                0x00000000000646c8       0x2c archival/lib.a(bzip2.o)
 .text.add_pair_to_block
                0x00000000000646f4      0x140 archival/lib.a(bzip2.o)
 .text.bsFinishWrite
                0x0000000000064834       0x54 archival/lib.a(bzip2.o)
 .text.bsW      0x0000000000064888       0x70 archival/lib.a(bzip2.o)
 .text.bsPutU32
                0x00000000000648f8       0x4c archival/lib.a(bzip2.o)
 .text.bsPutU16
                0x0000000000064944       0x28 archival/lib.a(bzip2.o)
 .text.generateMTFValues
                0x000000000006496c      0x23c archival/lib.a(bzip2.o)
 .text.sendMTFValues
                0x0000000000064ba8      0xdcc archival/lib.a(bzip2.o)
 .text.BZ2_compressBlock
                0x0000000000065974      0x13c archival/lib.a(bzip2.o)
 .text.handle_compress
                0x0000000000065ab0      0x270 archival/lib.a(bzip2.o)
 .text.compressStream
                0x0000000000065d20      0x26c archival/lib.a(bzip2.o)
 .text.make_new_name_bzip2
                0x0000000000065f8c       0x1c archival/lib.a(bzip2.o)
 .text.bzip2_main
                0x0000000000065fa8       0xac archival/lib.a(bzip2.o)
                0x0000000000065fa8                bzip2_main
 .text.cpio_main
                0x0000000000066054      0x168 archival/lib.a(cpio.o)
                0x0000000000066054                cpio_main
 .text.flush_outbuf
                0x00000000000661bc       0x30 archival/lib.a(gzip.o)
 .text.put_16bit
                0x00000000000661ec       0x98 archival/lib.a(gzip.o)
 .text.put_32bit
                0x0000000000066284       0x20 archival/lib.a(gzip.o)
 .text.file_read
                0x00000000000662a4       0x98 archival/lib.a(gzip.o)
 .text.send_bits
                0x000000000006633c       0x78 archival/lib.a(gzip.o)
 .text.bi_reverse
                0x00000000000663b4       0x2c archival/lib.a(gzip.o)
 .text.bi_windup
                0x00000000000663e0       0x74 archival/lib.a(gzip.o)
 .text.copy_block
                0x0000000000066454       0x90 archival/lib.a(gzip.o)
 .text.fill_window
                0x00000000000664e4      0x180 archival/lib.a(gzip.o)
 .text.init_block
                0x0000000000066664       0xb0 archival/lib.a(gzip.o)
 .text.pqdownheap
                0x0000000000066714      0x128 archival/lib.a(gzip.o)
 .text.gen_codes
                0x000000000006683c       0xb0 archival/lib.a(gzip.o)
 .text.build_tree
                0x00000000000668ec      0x510 archival/lib.a(gzip.o)
 .text.scan_tree
                0x0000000000066dfc      0x154 archival/lib.a(gzip.o)
 .text.send_tree
                0x0000000000066f50      0x1ac archival/lib.a(gzip.o)
 .text.ct_tally
                0x00000000000670fc      0x260 archival/lib.a(gzip.o)
 .text.compress_block
                0x000000000006735c      0x1a4 archival/lib.a(gzip.o)
 .text.flush_block
                0x0000000000067500      0x2d4 archival/lib.a(gzip.o)
 .text.make_new_name_gzip
                0x00000000000677d4       0x1c archival/lib.a(gzip.o)
 .text.pack_gzip
                0x00000000000677f0      0x9d4 archival/lib.a(gzip.o)
 .text.gzip_main
                0x00000000000681c4      0x194 archival/lib.a(gzip.o)
                0x00000000000681c4                gzip_main
 .text.bsearch_rpmtag
                0x0000000000068358       0x14 archival/lib.a(rpm.o)
 .text.rpm_getint
                0x000000000006836c       0x9c archival/lib.a(rpm.o)
 .text.rpm_getstr
                0x0000000000068408       0xb8 archival/lib.a(rpm.o)
 .text.loop_through_files
                0x00000000000684c0       0x80 archival/lib.a(rpm.o)
 .text.rpm_main
                0x0000000000068540      0x7fc archival/lib.a(rpm.o)
                0x000000000006857c                rpm_main
 .text.fileaction_dobackup
                0x0000000000068d3c       0x94 archival/lib.a(rpm.o)
 .text.fileaction_setowngrp
                0x0000000000068dd0       0x3c archival/lib.a(rpm.o)
 .text.skip_header
                0x0000000000068e0c       0xac archival/lib.a(rpm2cpio.o)
 .text.rpm2cpio_main
                0x0000000000068eb8      0x194 archival/lib.a(rpm2cpio.o)
                0x0000000000068eb8                rpm2cpio_main
 .text.putOctal
                0x000000000006904c       0x54 archival/lib.a(tar.o)
 .text.chksum_and_xwrite
                0x00000000000690a0       0x6c archival/lib.a(tar.o)
 .text.writeLongname
                0x000000000006910c       0xd8 archival/lib.a(tar.o)
 .text.writeFileToTarball
                0x00000000000691e4      0x69c archival/lib.a(tar.o)
 .text.writeTarFile
                0x0000000000069880      0x26c archival/lib.a(tar.o)
 .text.append_file_list_to_list
                0x0000000000069aec       0x90 archival/lib.a(tar.o)
 .text.get_header_tar_Z
                0x0000000000069b7c       0x84 archival/lib.a(tar.o)
 .text.tar_main
                0x0000000000069c00      0x3f8 archival/lib.a(tar.o)
                0x0000000000069c00                tar_main
 .text.unzip_skip
                0x0000000000069ff8       0x1c archival/lib.a(unzip.o)
 .text.unzip_create_leading_dirs
                0x000000000006a014       0x40 archival/lib.a(unzip.o)
 .text.unzip_main
                0x000000000006a054      0xad0 archival/lib.a(unzip.o)
                0x000000000006a054                unzip_main
 .text.data_extract_all
                0x000000000006ab24      0x3c8 archival/libunarchive/lib.a(data_extract_all.o)
                0x000000000006ab24                data_extract_all
 .text.data_extract_to_stdout
                0x000000000006aeec       0x20 archival/libunarchive/lib.a(data_extract_to_stdout.o)
                0x000000000006aeec                data_extract_to_stdout
 .text.data_skip
                0x000000000006af0c       0x24 archival/libunarchive/lib.a(data_skip.o)
                0x000000000006af0c                data_skip
 .text.get_bits
                0x000000000006af30       0xe8 archival/libunarchive/lib.a(decompress_bunzip2.o)
 .text.get_next_block
                0x000000000006b018      0x850 archival/libunarchive/lib.a(decompress_bunzip2.o)
 .text.read_bunzip
                0x000000000006b868      0x180 archival/libunarchive/lib.a(decompress_bunzip2.o)
                0x000000000006b868                read_bunzip
 .text.start_bunzip
                0x000000000006b9e8       0xfc archival/libunarchive/lib.a(decompress_bunzip2.o)
                0x000000000006b9e8                start_bunzip
 .text.dealloc_bunzip
                0x000000000006bae4       0x18 archival/libunarchive/lib.a(decompress_bunzip2.o)
                0x000000000006bae4                dealloc_bunzip
 .text.unpack_bz2_stream
                0x000000000006bafc       0xe0 archival/libunarchive/lib.a(decompress_bunzip2.o)
                0x000000000006bafc                unpack_bz2_stream
 .text.uncompress
                0x000000000006bbdc      0x4c8 archival/libunarchive/lib.a(decompress_uncompress.o)
                0x000000000006bbdc                uncompress
 .text.rc_read  0x000000000006c0a4       0x44 archival/libunarchive/lib.a(decompress_unlzma.o)
 .text.rc_do_normalize
                0x000000000006c0e8       0x54 archival/libunarchive/lib.a(decompress_unlzma.o)
 .text.rc_get_bit
                0x000000000006c13c       0xb0 archival/libunarchive/lib.a(decompress_unlzma.o)
 .text.unpack_lzma_stream
                0x000000000006c1ec      0xd14 archival/libunarchive/lib.a(decompress_unlzma.o)
                0x000000000006c1ec                unpack_lzma_stream
 .text.huft_free
                0x000000000006cf00       0x30 archival/libunarchive/lib.a(decompress_unzip.o)
 .text.huft_free_all
                0x000000000006cf30       0x24 archival/libunarchive/lib.a(decompress_unzip.o)
 .text.abort_unzip
                0x000000000006cf54       0x1c archival/libunarchive/lib.a(decompress_unzip.o)
 .text.fill_bitbuffer
                0x000000000006cf70       0xac archival/libunarchive/lib.a(decompress_unzip.o)
 .text.huft_build
                0x000000000006d01c      0x54c archival/libunarchive/lib.a(decompress_unzip.o)
 .text.inflate_codes_setup
                0x000000000006d568       0x40 archival/libunarchive/lib.a(decompress_unzip.o)
 .text.calculate_gunzip_crc
                0x000000000006d5a8       0x60 archival/libunarchive/lib.a(decompress_unzip.o)
 .text.inflate_unzip_internal
                0x000000000006d608      0xc38 archival/libunarchive/lib.a(decompress_unzip.o)
 .text.inflate_unzip
                0x000000000006e240       0x68 archival/libunarchive/lib.a(decompress_unzip.o)
                0x000000000006e240                inflate_unzip
 .text.top_up   0x000000000006e2a8       0x8c archival/libunarchive/lib.a(decompress_unzip.o)
 .text.buffer_read_le_u32
                0x000000000006e334       0x44 archival/libunarchive/lib.a(decompress_unzip.o)
 .text.unpack_gz_stream
                0x000000000006e378      0x28c archival/libunarchive/lib.a(decompress_unzip.o)
                0x000000000006e378                unpack_gz_stream
 .text.filter_accept_list
                0x000000000006e604       0x24 archival/libunarchive/lib.a(filter_accept_list.o)
                0x000000000006e604                filter_accept_list
 .text.filter_accept_reject_list
                0x000000000006e628       0x58 archival/libunarchive/lib.a(filter_accept_reject_list.o)
                0x000000000006e628                filter_accept_reject_list
 .text.find_list_entry
                0x000000000006e680       0x3c archival/libunarchive/lib.a(find_list_entry.o)
                0x000000000006e680                find_list_entry
 .text.find_list_entry2
                0x000000000006e6bc       0xdc archival/libunarchive/lib.a(find_list_entry.o)
                0x000000000006e6bc                find_list_entry2
 .text.get_header_ar
                0x000000000006e798      0x2cc archival/libunarchive/lib.a(get_header_ar.o)
                0x000000000006e798                get_header_ar
 .text.get_header_cpio
                0x000000000006ea64      0x43c archival/libunarchive/lib.a(get_header_cpio.o)
                0x000000000006ea64                get_header_cpio
 .text.getOctal
                0x000000000006eea0       0x58 archival/libunarchive/lib.a(get_header_tar.o)
 .text.get_header_tar
                0x000000000006eef8      0x62c archival/libunarchive/lib.a(get_header_tar.o)
                0x000000000006eef8                get_header_tar
 .text.get_header_tar_bz2
                0x000000000006f524       0x4c archival/libunarchive/lib.a(get_header_tar_bz2.o)
                0x000000000006f524                get_header_tar_bz2
 .text.get_header_tar_gz
                0x000000000006f570       0x80 archival/libunarchive/lib.a(get_header_tar_gz.o)
                0x000000000006f570                get_header_tar_gz
 .text.get_header_tar_lzma
                0x000000000006f5f0       0x4c archival/libunarchive/lib.a(get_header_tar_lzma.o)
                0x000000000006f5f0                get_header_tar_lzma
 .text.header_list
                0x000000000006f63c       0x14 archival/libunarchive/lib.a(header_list.o)
                0x000000000006f63c                header_list
 .text.header_verbose_list
                0x000000000006f650       0x9c archival/libunarchive/lib.a(header_verbose_list.o)
                0x000000000006f650                header_verbose_list
 .text.init_handle
                0x000000000006f6ec       0x54 archival/libunarchive/lib.a(init_handle.o)
                0x000000000006f6ec                init_handle
 .text.open_transformer
                0x000000000006f740       0x64 archival/libunarchive/lib.a(open_transformer.o)
                0x000000000006f740                open_transformer
 .text.seek_by_jump
                0x000000000006f7a4       0x60 archival/libunarchive/lib.a(seek_by_jump.o)
                0x000000000006f7a4                seek_by_jump
 .text.seek_by_read
                0x000000000006f804       0x34 archival/libunarchive/lib.a(seek_by_read.o)
                0x000000000006f804                seek_by_read
 .text.archive_xread_all_eof
                0x000000000006f838       0x4c archival/libunarchive/lib.a(archive_xread_all_eof.o)
                0x000000000006f838                archive_xread_all_eof
 .text.data_align
                0x000000000006f884       0x68 archival/libunarchive/lib.a(data_align.o)
                0x000000000006f884                data_align
 .text.filter_accept_all
                0x000000000006f8ec       0x14 archival/libunarchive/lib.a(filter_accept_all.o)
                0x000000000006f8ec                filter_accept_all
 .text.header_skip
                0x000000000006f900        0x8 archival/libunarchive/lib.a(header_skip.o)
                0x000000000006f900                header_skip
 .text.chvt_main
                0x000000000006f908       0x70 console-tools/lib.a(chvt.o)
                0x000000000006f908                chvt_main
 .text.clear_main
                0x000000000006f978       0x24 console-tools/lib.a(clear.o)
                0x000000000006f978                clear_main
 .text.deallocvt_main
                0x000000000006f99c       0x64 console-tools/lib.a(deallocvt.o)
                0x000000000006f99c                deallocvt_main
 .text.dumpkmap_main
                0x000000000006fa00      0x12c console-tools/lib.a(dumpkmap.o)
                0x000000000006fa00                dumpkmap_main
 .text.kbd_mode_main
                0x000000000006fb2c      0x12c console-tools/lib.a(kbd_mode.o)
                0x000000000006fb2c                kbd_mode_main
 .text.do_loadfont
                0x000000000006fc58       0x84 console-tools/lib.a(loadfont.o)
 .text.loadfont_main
                0x000000000006fcdc      0x234 console-tools/lib.a(loadfont.o)
                0x000000000006fcdc                loadfont_main
 .text.loadkmap_main
                0x000000000006ff10       0xf0 console-tools/lib.a(loadkmap.o)
                0x000000000006ff10                loadkmap_main
 .text.openvt_main
                0x0000000000070000       0x88 console-tools/lib.a(openvt.o)
                0x0000000000070000                openvt_main
 .text.reset_main
                0x0000000000070088       0x2c console-tools/lib.a(reset.o)
                0x0000000000070088                reset_main
 .text.onintr   0x00000000000700b4       0x24 console-tools/lib.a(resize.o)
 .text.resize_main
                0x00000000000700d8      0x11c console-tools/lib.a(resize.o)
                0x00000000000700d8                resize_main
 .text.setconsole_main
                0x00000000000701f4       0x9c console-tools/lib.a(setconsole.o)
                0x00000000000701f4                setconsole_main
 .text.setkeycodes_main
                0x0000000000070290       0xe0 console-tools/lib.a(setkeycodes.o)
                0x0000000000070290                setkeycodes_main
 .text.setlogcons_main
                0x0000000000070370       0x5c console-tools/lib.a(setlogcons.o)
                0x0000000000070370                setlogcons_main
 .text.basename_main
                0x00000000000703cc       0x98 coreutils/lib.a(basename.o)
                0x00000000000703cc                basename_main
 .text.leap_year
                0x0000000000070464       0x7c coreutils/lib.a(cal.o)
 .text.day_array
                0x00000000000704e0      0x1bc coreutils/lib.a(cal.o)
 .text.blank_string
                0x000000000007069c       0x24 coreutils/lib.a(cal.o)
 .text.build_row
                0x00000000000706c0       0xec coreutils/lib.a(cal.o)
 .text.trim_trailing_spaces_and_print
                0x00000000000707ac       0x5c coreutils/lib.a(cal.o)
 .text.center   0x0000000000070808       0x44 coreutils/lib.a(cal.o)
 .text.cal_main
                0x000000000007084c      0x3e8 coreutils/lib.a(cal.o)
                0x000000000007084c                cal_main
 .text.bb_cat   0x0000000000070c34       0xa8 coreutils/lib.a(cat.o)
                0x0000000000070c34                bb_cat
 .text.cat_main
                0x0000000000070cdc       0x2c coreutils/lib.a(cat.o)
                0x0000000000070cdc                cat_main
 .text.catv_main
                0x0000000000070d08      0x170 coreutils/lib.a(catv.o)
                0x0000000000070d08                catv_main
 .text.chgrp_main
                0x0000000000070e78       0x58 coreutils/lib.a(chgrp.o)
                0x0000000000070e78                chgrp_main
 .text.fileAction
                0x0000000000070ed0       0xac coreutils/lib.a(chmod.o)
 .text.chmod_main
                0x0000000000070f7c      0x108 coreutils/lib.a(chmod.o)
                0x0000000000070f7c                chmod_main
 .text.fileAction
                0x0000000000071084       0x5c coreutils/lib.a(chown.o)
 .text.chown_main
                0x00000000000710e0       0xc4 coreutils/lib.a(chown.o)
                0x00000000000710e0                chown_main
 .text.chroot_main
                0x00000000000711a4       0xa0 coreutils/lib.a(chroot.o)
                0x00000000000711a4                chroot_main
 .text.cksum_main
                0x0000000000071244      0x138 coreutils/lib.a(cksum.o)
                0x0000000000071244                cksum_main
 .text.writeline
                0x000000000007137c       0x80 coreutils/lib.a(comm.o)
 .text.comm_main
                0x00000000000713fc      0x2ac coreutils/lib.a(comm.o)
                0x00000000000713fc                comm_main
 .text.cp_main  0x00000000000716a8      0x128 coreutils/lib.a(cp.o)
                0x00000000000716a8                cp_main
 .text.cmpfunc  0x00000000000717d0       0x10 coreutils/lib.a(cut.o)
 .text.cut_file
                0x00000000000717e0      0x2e4 coreutils/lib.a(cut.o)
 .text.cut_main
                0x0000000000071ac4      0x2bc coreutils/lib.a(cut.o)
                0x0000000000071ac4                cut_main
 .text.maybe_set_utc
                0x0000000000071d80       0x28 coreutils/lib.a(date.o)
 .text.date_main
                0x0000000000071da8      0x510 coreutils/lib.a(date.o)
                0x0000000000071da8                date_main
 .text.dd_output_status
                0x00000000000722b8       0x4c coreutils/lib.a(dd.o)
 .text.full_write_or_warn
                0x0000000000072304       0x3c coreutils/lib.a(dd.o)
 .text.write_and_stats
                0x0000000000072340       0x6c coreutils/lib.a(dd.o)
 .text.dd_main  0x00000000000723ac      0x710 coreutils/lib.a(dd.o)
                0x00000000000723ac                dd_main
 .text.df_main  0x0000000000072abc      0x2e0 coreutils/lib.a(df.o)
                0x0000000000072abc                df_main
 .text.dirname_main
                0x0000000000072d9c       0x3c coreutils/lib.a(dirname.o)
                0x0000000000072d9c                dirname_main
 .text.dos2unix_main
                0x0000000000072dd8      0x1fc coreutils/lib.a(dos2unix.o)
                0x0000000000072dd8                dos2unix_main
 .text.print    0x0000000000072fd4       0x34 coreutils/lib.a(du.o)
 .text.du       0x0000000000073008      0x258 coreutils/lib.a(du.o)
 .text.du_main  0x0000000000073260      0x18c coreutils/lib.a(du.o)
                0x0000000000073260                du_main
 .text.bb_echo  0x00000000000733ec      0x190 coreutils/lib.a(echo.o)
                0x00000000000733ec                bb_echo
 .text.echo_main
                0x000000000007357c       0x14 coreutils/lib.a(echo.o)
                0x000000000007357c                echo_main
 .text.env_main
                0x0000000000073590      0x178 coreutils/lib.a(env.o)
                0x0000000000073590                env_main
 .text.xputchar
                0x0000000000073708       0x2c coreutils/lib.a(expand.o)
 .text.expand_main
                0x0000000000073734      0x3ec coreutils/lib.a(expand.o)
                0x0000000000073734                expand_main
 .text.int_value
                0x0000000000073b20       0x1c coreutils/lib.a(expr.o)
 .text.str_value
                0x0000000000073b3c       0x2c coreutils/lib.a(expr.o)
 .text.freev    0x0000000000073b68       0x28 coreutils/lib.a(expr.o)
 .text.null     0x0000000000073b90       0x68 coreutils/lib.a(expr.o)
 .text.tostring
                0x0000000000073bf8       0x38 coreutils/lib.a(expr.o)
 .text.toarith  0x0000000000073c30       0x68 coreutils/lib.a(expr.o)
 .text.nextarg  0x0000000000073c98       0x3c coreutils/lib.a(expr.o)
 .text.arithmetic_common
                0x0000000000073cd4       0xfc coreutils/lib.a(expr.o)
 .text.docolon  0x0000000000073dd0      0x110 coreutils/lib.a(expr.o)
 .text.eval1    0x0000000000073ee0       0x9c coreutils/lib.a(expr.o)
 .text.eval     0x0000000000073f7c       0x74 coreutils/lib.a(expr.o)
 .text.eval6    0x0000000000073ff0      0x330 coreutils/lib.a(expr.o)
 .text.eval5    0x0000000000074320       0x6c coreutils/lib.a(expr.o)
 .text.eval4    0x000000000007438c       0xb8 coreutils/lib.a(expr.o)
 .text.eval3    0x0000000000074444       0xa0 coreutils/lib.a(expr.o)
 .text.eval2    0x00000000000744e4      0x1c8 coreutils/lib.a(expr.o)
 .text.expr_main
                0x00000000000746ac       0x8c coreutils/lib.a(expr.o)
                0x00000000000746ac                expr_main
 .text.false_main
                0x0000000000074738        0x8 coreutils/lib.a(false.o)
                0x0000000000074738                false_main
 .text.adjust_column
                0x0000000000074740       0x68 coreutils/lib.a(fold.o)
 .text.fold_main
                0x00000000000747a8      0x2f0 coreutils/lib.a(fold.o)
                0x00000000000747a8                fold_main
 .text.head_main
                0x0000000000074a98      0x1e4 coreutils/lib.a(head.o)
                0x0000000000074a98                head_main
 .text.hostid_main
                0x0000000000074c7c       0x44 coreutils/lib.a(hostid.o)
                0x0000000000074c7c                hostid_main
 .text.printf_full
                0x0000000000074cc0       0x40 coreutils/lib.a(id.o)
 .text.id_main  0x0000000000074d00      0x18c coreutils/lib.a(id.o)
                0x0000000000074d00                id_main
 .text.install_main
                0x0000000000074e8c      0x31c coreutils/lib.a(install.o)
                0x0000000000074e8c                install_main
 .text.length_main
                0x00000000000751a8       0x5c coreutils/lib.a(length.o)
                0x00000000000751a8                length_main
 .text.ln_main  0x0000000000075204      0x220 coreutils/lib.a(ln.o)
                0x0000000000075204                ln_main
 .text.logname_main
                0x0000000000075424       0x5c coreutils/lib.a(logname.o)
                0x0000000000075424                logname_main
 .text.my_stat  0x0000000000075480       0x94 coreutils/lib.a(ls.o)
 .text.fgcolor  0x0000000000075514       0x5c coreutils/lib.a(ls.o)
 .text.bgcolor  0x0000000000075570       0x40 coreutils/lib.a(ls.o)
 .text.append_char
                0x00000000000755b0       0x78 coreutils/lib.a(ls.o)
 .text.count_dirs
                0x0000000000075628       0x98 coreutils/lib.a(ls.o)
 .text.dnalloc  0x00000000000756c0       0x24 coreutils/lib.a(ls.o)
 .text.dfree    0x00000000000756e4       0x5c coreutils/lib.a(ls.o)
 .text.splitdnarray
                0x0000000000075740      0x11c coreutils/lib.a(ls.o)
 .text.sortcmp  0x000000000007585c       0xf4 coreutils/lib.a(ls.o)
 .text.dnsort   0x0000000000075950       0x1c coreutils/lib.a(ls.o)
 .text.showfiles
                0x000000000007596c      0x6b0 coreutils/lib.a(ls.o)
 .text.showdirs
                0x000000000007601c      0x294 coreutils/lib.a(ls.o)
 .text.ls_main  0x00000000000762b0      0x4f8 coreutils/lib.a(ls.o)
                0x00000000000762b0                ls_main
 .text.hash_file
                0x00000000000767a8      0x134 coreutils/lib.a(md5_sha1_sum.o)
 .text.md5_sha1_sum_main
                0x00000000000768dc      0x280 coreutils/lib.a(md5_sha1_sum.o)
                0x00000000000768dc                md5_sha1_sum_main
 .text.mkdir_main
                0x0000000000076b5c       0xd8 coreutils/lib.a(mkdir.o)
                0x0000000000076b5c                mkdir_main
 .text.mkfifo_main
                0x0000000000076c34       0x7c coreutils/lib.a(mkfifo.o)
                0x0000000000076c34                mkfifo_main
 .text.mknod_main
                0x0000000000076cb0      0x10c coreutils/lib.a(mknod.o)
                0x0000000000076cb0                mknod_main
 .text.mv_main  0x0000000000076dbc      0x280 coreutils/lib.a(mv.o)
                0x0000000000076dbc                mv_main
 .text.nice_main
                0x000000000007703c      0x108 coreutils/lib.a(nice.o)
                0x000000000007703c                nice_main
 .text.nohup_main
                0x0000000000077144      0x13c coreutils/lib.a(nohup.o)
                0x0000000000077144                nohup_main
 .text.od_main  0x0000000000077280      0x348 coreutils/lib.a(od.o)
                0x0000000000077280                od_main
 .text.printenv_main
                0x00000000000775c8       0x94 coreutils/lib.a(printenv.o)
                0x00000000000775c8                printenv_main
 .text.multiconvert
                0x000000000007765c       0x80 coreutils/lib.a(printf.o)
 .text.conv_strtoul
                0x00000000000776dc       0x20 coreutils/lib.a(printf.o)
 .text.conv_strtol
                0x00000000000776fc       0x20 coreutils/lib.a(printf.o)
 .text.conv_strtod
                0x000000000007771c       0x3c coreutils/lib.a(printf.o)
 .text.my_xstrtoul
                0x0000000000077758       0x24 coreutils/lib.a(printf.o)
 .text.my_xstrtol
                0x000000000007777c       0x24 coreutils/lib.a(printf.o)
 .text.my_xstrtod
                0x00000000000777a0       0x24 coreutils/lib.a(printf.o)
 .text.print_direc
                0x00000000000777c4      0x2a0 coreutils/lib.a(printf.o)
 .text.printf_main
                0x0000000000077a64      0x334 coreutils/lib.a(printf.o)
                0x0000000000077a64                printf_main
 .text.pwd_main
                0x0000000000077d98       0x40 coreutils/lib.a(pwd.o)
                0x0000000000077d98                pwd_main
 .text.readlink_main
                0x0000000000077dd8       0x8c coreutils/lib.a(readlink.o)
                0x0000000000077dd8                readlink_main
 .text.realpath_main
                0x0000000000077e64       0x6c coreutils/lib.a(realpath.o)
                0x0000000000077e64                realpath_main
 .text.rm_main  0x0000000000077ed0      0x110 coreutils/lib.a(rm.o)
                0x0000000000077ed0                rm_main
 .text.rmdir_main
                0x0000000000077fe0       0xdc coreutils/lib.a(rmdir.o)
                0x0000000000077fe0                rmdir_main
 .text.seq_main
                0x00000000000780bc      0x140 coreutils/lib.a(seq.o)
                0x00000000000780bc                seq_main
 .text.sleep_main
                0x00000000000781fc       0x6c coreutils/lib.a(sleep.o)
                0x00000000000781fc                sleep_main
 .text.get_key  0x0000000000078268      0x2f8 coreutils/lib.a(sort.o)
 .text.add_key  0x0000000000078560       0x40 coreutils/lib.a(sort.o)
 .text.compare_keys
                0x00000000000785a0      0x428 coreutils/lib.a(sort.o)
 .text.str2u    0x00000000000789c8       0x4c coreutils/lib.a(sort.o)
 .text.sort_main
                0x0000000000078a14      0x490 coreutils/lib.a(sort.o)
                0x0000000000078a14                sort_main
 .text.split_main
                0x0000000000078ea4      0x2a0 coreutils/lib.a(split.o)
                0x0000000000078ea4                split_main
 .text.human_time
                0x0000000000079144       0x38 coreutils/lib.a(stat.o)
 .text.strcatc  0x000000000007917c       0x20 coreutils/lib.a(stat.o)
 .text.printfs  0x000000000007919c       0x1c coreutils/lib.a(stat.o)
 .text.print_statfs
                0x00000000000791b8      0x228 coreutils/lib.a(stat.o)
 .text.print_stat
                0x00000000000793e0      0x45c coreutils/lib.a(stat.o)
 .text.print_it
                0x000000000007983c      0x104 coreutils/lib.a(stat.o)
 .text.do_statfs
                0x0000000000079940       0x80 coreutils/lib.a(stat.o)
 .text.do_stat  0x00000000000799c0       0xdc coreutils/lib.a(stat.o)
 .text.stat_main
                0x0000000000079a9c       0x90 coreutils/lib.a(stat.o)
                0x0000000000079a9c                stat_main
 .text.mode_type_flag
                0x0000000000079b2c       0x28 coreutils/lib.a(stty.o)
 .text.set_speed_or_die
                0x0000000000079b54       0x54 coreutils/lib.a(stty.o)
 .text.perror_on_device_and_die
                0x0000000000079ba8       0x18 coreutils/lib.a(stty.o)
 .text.perror_on_device
                0x0000000000079bc0       0x18 coreutils/lib.a(stty.o)
 .text.wrapf    0x0000000000079bd8       0xcc coreutils/lib.a(stty.o)
 .text.set_window_size
                0x0000000000079ca4       0x9c coreutils/lib.a(stty.o)
 .text.display_window_size
                0x0000000000079d40       0x84 coreutils/lib.a(stty.o)
 .text.find_mode
                0x0000000000079dc4       0x58 coreutils/lib.a(stty.o)
 .text.find_control
                0x0000000000079e1c       0x58 coreutils/lib.a(stty.o)
 .text.find_param
                0x0000000000079e74       0x3c coreutils/lib.a(stty.o)
 .text.recover_mode
                0x0000000000079eb0       0xc8 coreutils/lib.a(stty.o)
 .text.display_recoverable
                0x0000000000079f78       0x54 coreutils/lib.a(stty.o)
 .text.display_speed
                0x0000000000079fcc       0x78 coreutils/lib.a(stty.o)
 .text.do_display
                0x000000000007a044      0x2a8 coreutils/lib.a(stty.o)
 .text.set_mode
                0x000000000007a2ec      0x46c coreutils/lib.a(stty.o)
 .text.set_control_char_or_die
                0x000000000007a758       0xcc coreutils/lib.a(stty.o)
 .text.stty_main
                0x000000000007a824      0x614 coreutils/lib.a(stty.o)
                0x000000000007a824                stty_main
 .text.sum_file
                0x000000000007ae38      0x1b0 coreutils/lib.a(sum.o)
 .text.sum_main
                0x000000000007afe8       0xd4 coreutils/lib.a(sum.o)
                0x000000000007afe8                sum_main
 .text.sync_main
                0x000000000007b0bc       0x1c coreutils/lib.a(sync.o)
                0x000000000007b0bc                sync_main
 .text.tail_xprint_header
                0x000000000007b0d8       0x34 coreutils/lib.a(tail.o)
 .text.tail_read
                0x000000000007b10c       0xc4 coreutils/lib.a(tail.o)
 .text.eat_num  0x000000000007b1d0       0x40 coreutils/lib.a(tail.o)
 .text.tail_main
                0x000000000007b210      0x504 coreutils/lib.a(tail.o)
                0x000000000007b210                tail_main
 .text.tee_main
                0x000000000007b714      0x184 coreutils/lib.a(tee.o)
                0x000000000007b714                tee_main
 .text.t_lex    0x000000000007b898       0x6c coreutils/lib.a(test.o)
 .text.syntax   0x000000000007b904       0x58 coreutils/lib.a(test.o)
 .text.getn     0x000000000007b95c       0x74 coreutils/lib.a(test.o)
 .text.binop    0x000000000007b9d0      0x2f8 coreutils/lib.a(test.o)
 .text.nexpr    0x000000000007bcc8      0x4c4 coreutils/lib.a(test.o)
 .text.aexpr    0x000000000007c18c       0x9c coreutils/lib.a(test.o)
 .text.oexpr    0x000000000007c228       0xa0 coreutils/lib.a(test.o)
 .text.test_main
                0x000000000007c2c8      0x25c coreutils/lib.a(test.o)
                0x000000000007c2c8                test_main
 .text.touch_main
                0x000000000007c524       0xcc coreutils/lib.a(touch.o)
                0x000000000007c524                touch_main
 .text.expand   0x000000000007c5f0      0x320 coreutils/lib.a(tr.o)
 .text.tr_main  0x000000000007c910      0x360 coreutils/lib.a(tr.o)
                0x000000000007c910                tr_main
 .text.true_main
                0x000000000007cc70        0x8 coreutils/lib.a(true.o)
                0x000000000007cc70                true_main
 .text.tty_main
                0x000000000007cc78       0x74 coreutils/lib.a(tty.o)
                0x000000000007cc78                tty_main
 .text.uname_main
                0x000000000007ccec      0x12c coreutils/lib.a(uname.o)
                0x000000000007ccec                uname_main
 .text.xgetoptfile_uniq_s
                0x000000000007ce18       0x6c coreutils/lib.a(uniq.o)
 .text.uniq_main
                0x000000000007ce84      0x1fc coreutils/lib.a(uniq.o)
                0x000000000007ce84                uniq_main
 .text.usleep_main
                0x000000000007d080       0x44 coreutils/lib.a(usleep.o)
                0x000000000007d080                usleep_main
 .text.read_stduu
                0x000000000007d0c4      0x150 coreutils/lib.a(uudecode.o)
 .text.read_base64
                0x000000000007d214      0x12c coreutils/lib.a(uudecode.o)
 .text.uudecode_main
                0x000000000007d340      0x19c coreutils/lib.a(uudecode.o)
                0x000000000007d340                uudecode_main
 .text.uuencode_main
                0x000000000007d4dc      0x1ac coreutils/lib.a(uuencode.o)
                0x000000000007d4dc                uuencode_main
 .text.wc_main  0x000000000007d688      0x31c coreutils/lib.a(wc.o)
                0x000000000007d688                wc_main
 .text.who_main
                0x000000000007d9a4      0x15c coreutils/lib.a(who.o)
                0x000000000007d9a4                who_main
 .text.whoami_main
                0x000000000007db00       0x4c coreutils/lib.a(whoami.o)
                0x000000000007db00                whoami_main
 .text.yes_main
                0x000000000007db4c       0x74 coreutils/lib.a(yes.o)
                0x000000000007db4c                yes_main
 .text.cp_mv_stat2
                0x000000000007dbc0       0x78 coreutils/libcoreutils/lib.a(cp_mv_stat.o)
                0x000000000007dbc0                cp_mv_stat2
 .text.cp_mv_stat
                0x000000000007dc38       0x18 coreutils/libcoreutils/lib.a(cp_mv_stat.o)
                0x000000000007dc38                cp_mv_stat
 .text.getopt_mk_fifo_nod
                0x000000000007dc50       0x58 coreutils/libcoreutils/lib.a(getopt_mk_fifo_nod.o)
                0x000000000007dc50                getopt_mk_fifo_nod
 .text.mktemp_main
                0x000000000007dca8       0xd0 debianutils/lib.a(mktemp.o)
                0x000000000007dca8                mktemp_main
 .text.pipe_progress_main
                0x000000000007dd78       0xa0 debianutils/lib.a(pipe_progress.o)
                0x000000000007dd78                pipe_progress_main
 .text.bb_alphasort
                0x000000000007de18       0x18 debianutils/lib.a(run_parts.o)
 .text.act      0x000000000007de30      0x10c debianutils/lib.a(run_parts.o)
 .text.run_parts_main
                0x000000000007df3c      0x1ac debianutils/lib.a(run_parts.o)
                0x000000000007df3c                run_parts_main
 .text.check    0x000000000007e0e8      0x184 debianutils/lib.a(start_stop_daemon.o)
 .text.do_procinit
                0x000000000007e26c      0x104 debianutils/lib.a(start_stop_daemon.o)
 .text.start_stop_daemon_main
                0x000000000007e370      0x408 debianutils/lib.a(start_stop_daemon.o)
                0x000000000007e370                start_stop_daemon_main
 .text.which_main
                0x000000000007e778       0xb0 debianutils/lib.a(which.o)
                0x000000000007e778                which_main
 .text.change_attributes
                0x000000000007e828      0x1a0 e2fsprogs/lib.a(chattr.o)
 .text.chattr_dir_proc
                0x000000000007e9c8       0x34 e2fsprogs/lib.a(chattr.o)
 .text.chattr_main
                0x000000000007e9fc      0x1e0 e2fsprogs/lib.a(chattr.o)
                0x000000000007e9fc                chattr_main
 .text.close_silently
                0x000000000007ebdc       0x24 e2fsprogs/lib.a(e2fs_lib.o)
 .text.iterate_on_dir
                0x000000000007ec00       0xbc e2fsprogs/lib.a(e2fs_lib.o)
                0x000000000007ec00                iterate_on_dir
 .text.fgetsetversion
                0x000000000007ecbc       0x60 e2fsprogs/lib.a(e2fs_lib.o)
                0x000000000007ecbc                fgetsetversion
 .text.fgetsetflags
                0x000000000007ed1c       0xb0 e2fsprogs/lib.a(e2fs_lib.o)
                0x000000000007ed1c                fgetsetflags
 .text.print_flags
                0x000000000007edcc       0xdc e2fsprogs/lib.a(e2fs_lib.o)
                0x000000000007edcc                print_flags
 .text.base_device
                0x000000000007eea8      0x144 e2fsprogs/lib.a(fsck.o)
 .text.free_instance
                0x000000000007efec       0x28 e2fsprogs/lib.a(fsck.o)
 .text.create_fs_device
                0x000000000007f014       0x8c e2fsprogs/lib.a(fsck.o)
 .text.parse_word
                0x000000000007f0a0       0x54 e2fsprogs/lib.a(fsck.o)
 .text.parse_escape
                0x000000000007f0f4       0x6c e2fsprogs/lib.a(fsck.o)
 .text.kill_all_if_cancel_requested
                0x000000000007f160       0x64 e2fsprogs/lib.a(fsck.o)
 .text.wait_one
                0x000000000007f1c4      0x1e8 e2fsprogs/lib.a(fsck.o)
 .text.wait_many
                0x000000000007f3ac       0x44 e2fsprogs/lib.a(fsck.o)
 .text.fsck_device
                0x000000000007f3f0      0x2ec e2fsprogs/lib.a(fsck.o)
 .text.opt_in_list
                0x000000000007f6dc       0x94 e2fsprogs/lib.a(fsck.o)
 .text.ignore   0x000000000007f770      0x138 e2fsprogs/lib.a(fsck.o)
 .text.check_all
                0x000000000007f8a8      0x37c e2fsprogs/lib.a(fsck.o)
 .text.signal_cancel
                0x000000000007fc24       0x14 e2fsprogs/lib.a(fsck.o)
 .text.fsck_main
                0x000000000007fc38      0x93c e2fsprogs/lib.a(fsck.o)
                0x000000000007fc38                fsck_main
 .text.list_attributes
                0x0000000000080574       0xd8 e2fsprogs/lib.a(lsattr.o)
 .text.lsattr_dir_proc
                0x000000000008064c      0x104 e2fsprogs/lib.a(lsattr.o)
 .text.lsattr_args
                0x0000000000080750       0x8c e2fsprogs/lib.a(lsattr.o)
 .text.lsattr_main
                0x00000000000807dc       0x64 e2fsprogs/lib.a(lsattr.o)
                0x00000000000807dc                lsattr_main
 .text.zero_out_var
                0x0000000000080840       0x18 editors/lib.a(awk.o)
 .text.syntax_error
                0x0000000000080858       0x28 editors/lib.a(awk.o)
 .text.hashidx  0x0000000000080880       0x38 editors/lib.a(awk.o)
 .text.hash_init
                0x00000000000808b8       0x2c editors/lib.a(awk.o)
 .text.hash_search
                0x00000000000808e4       0x6c editors/lib.a(awk.o)
 .text.hash_find
                0x0000000000080950      0x16c editors/lib.a(awk.o)
 .text.hash_remove
                0x0000000000080abc       0xac editors/lib.a(awk.o)
 .text.skip_spaces
                0x0000000000080b68       0x74 editors/lib.a(awk.o)
 .text.nextword
                0x0000000000080bdc       0x24 editors/lib.a(awk.o)
 .text.nextchar
                0x0000000000080c00       0x68 editors/lib.a(awk.o)
 .text.afopen   0x0000000000080c68       0x34 editors/lib.a(awk.o)
 .text.iamarray
                0x0000000000080c9c       0x4c editors/lib.a(awk.o)
 .text.clear_array
                0x0000000000080ce8       0x70 editors/lib.a(awk.o)
 .text.clrvar   0x0000000000080d58       0x48 editors/lib.a(awk.o)
 .text.getvar_i
                0x0000000000080da0       0xa8 editors/lib.a(awk.o)
 .text.is_numeric
                0x0000000000080e48       0x28 editors/lib.a(awk.o)
 .text.istrue   0x0000000000080e70       0x6c editors/lib.a(awk.o)
 .text.nvalloc  0x0000000000080edc      0x118 editors/lib.a(awk.o)
 .text.nvfree   0x0000000000080ff4      0x108 editors/lib.a(awk.o)
 .text.next_token
                0x00000000000810fc      0x548 editors/lib.a(awk.o)
 .text.rollback_token
                0x0000000000081644       0x14 editors/lib.a(awk.o)
 .text.new_node
                0x0000000000081658       0x28 editors/lib.a(awk.o)
 .text.mk_re_node
                0x0000000000081680       0x44 editors/lib.a(awk.o)
 .text.chain_node
                0x00000000000816c4       0x88 editors/lib.a(awk.o)
 .text.mk_splitter
                0x000000000008174c       0x7c editors/lib.a(awk.o)
 .text.qrealloc
                0x00000000000817c8       0x48 editors/lib.a(awk.o)
 .text.fsrealloc
                0x0000000000081810       0xe0 editors/lib.a(awk.o)
 .text.nextarg  0x00000000000818f0       0x50 editors/lib.a(awk.o)
 .text.fmt_num  0x0000000000081940      0x10c editors/lib.a(awk.o)
 .text.getvar_s
                0x0000000000081a4c       0x78 editors/lib.a(awk.o)
 .text.handle_special
                0x0000000000081ac4      0x1e4 editors/lib.a(awk.o)
 .text.setvar_p
                0x0000000000081ca8       0x20 editors/lib.a(awk.o)
 .text.setvar_s
                0x0000000000081cc8       0x3c editors/lib.a(awk.o)
 .text.setvar_u
                0x0000000000081d04       0x24 editors/lib.a(awk.o)
 .text.setari_u
                0x0000000000081d28       0x40 editors/lib.a(awk.o)
 .text.setvar_i
                0x0000000000081d68       0x34 editors/lib.a(awk.o)
 .text.parse_expr
                0x0000000000081d9c      0x3ac editors/lib.a(awk.o)
 .text.condition
                0x0000000000082148       0x18 editors/lib.a(awk.o)
 .text.chain_expr
                0x0000000000082160       0x4c editors/lib.a(awk.o)
 .text.chain_group
                0x00000000000821ac      0x374 editors/lib.a(awk.o)
 .text.parse_program
                0x0000000000082520      0x1b8 editors/lib.a(awk.o)
 .text.chain_loop
                0x00000000000826d8       0x80 editors/lib.a(awk.o)
 .text.awk_getline
                0x0000000000082758      0x2b8 editors/lib.a(awk.o)
 .text.incvar   0x0000000000082a10       0x28 editors/lib.a(awk.o)
 .text.copyvar  0x0000000000082a38       0x68 editors/lib.a(awk.o)
 .text.awk_split
                0x0000000000082aa0      0x2c8 editors/lib.a(awk.o)
 .text.split_f0
                0x0000000000082d68       0xd0 editors/lib.a(awk.o)
 .text.is_assignment
                0x0000000000082e38       0xc8 editors/lib.a(awk.o)
 .text.next_input_file
                0x0000000000082f00      0x13c editors/lib.a(awk.o)
 .text.evaluate
                0x000000000008303c     0x1a6c editors/lib.a(awk.o)
 .text.as_regex
                0x0000000000084aa8       0xa4 editors/lib.a(awk.o)
 .text.awk_sub  0x0000000000084b4c      0x274 editors/lib.a(awk.o)
 .text.awk_printf
                0x0000000000084dc0      0x23c editors/lib.a(awk.o)
 .text.ptest    0x0000000000084ffc       0x24 editors/lib.a(awk.o)
 .text.awk_exit
                0x0000000000085020       0xc4 editors/lib.a(awk.o)
 .text.awk_main
                0x00000000000850e4      0x530 editors/lib.a(awk.o)
                0x00000000000850e4                awk_main
 .text.cmp_xfopen_input
                0x0000000000085614       0x28 editors/lib.a(cmp.o)
 .text.cmp_main
                0x000000000008563c      0x1b0 editors/lib.a(cmp.o)
                0x000000000008563c                cmp_main
 .text.print_only
                0x00000000000857ec       0x2c editors/lib.a(diff.o)
 .text.print_status
                0x0000000000085818      0x1c0 editors/lib.a(diff.o)
 .text.prepare  0x00000000000859d8      0x168 editors/lib.a(diff.o)
 .text.isqrt    0x0000000000085b40       0x58 editors/lib.a(diff.o)
 .text.newcand  0x0000000000085b98       0xa0 editors/lib.a(diff.o)
 .text.skipline
                0x0000000000085c38       0x30 editors/lib.a(diff.o)
 .text.sort     0x0000000000085c68      0x110 editors/lib.a(diff.o)
 .text.uni_range
                0x0000000000085d78       0x54 editors/lib.a(diff.o)
 .text.fetch    0x0000000000085dcc       0xec editors/lib.a(diff.o)
 .text.asciifile
                0x0000000000085eb8       0x9c editors/lib.a(diff.o)
 .text.dump_unified_vec
                0x0000000000085f54      0x220 editors/lib.a(diff.o)
 .text.change   0x0000000000086174      0x1c4 editors/lib.a(diff.o)
 .text.diffreg  0x0000000000086338      0xf00 editors/lib.a(diff.o)
 .text.do_diff  0x0000000000087238      0x218 editors/lib.a(diff.o)
 .text.dir_strcmp
                0x0000000000087450       0x18 editors/lib.a(diff.o)
 .text.add_to_dirlist
                0x0000000000087468       0x4c editors/lib.a(diff.o)
 .text.get_dir  0x00000000000874b4      0x10c editors/lib.a(diff.o)
 .text.diff_main
                0x00000000000875c0      0x4e0 editors/lib.a(diff.o)
                0x00000000000875c0                diff_main
 .text.bad_nums
                0x0000000000087aa0       0x68 editors/lib.a(ed.o)
 .text.skip_blank
                0x0000000000087b08       0x20 editors/lib.a(ed.o)
 .text.findLine
                0x0000000000087b28       0xf0 editors/lib.a(ed.o)
 .text.setCurNum
                0x0000000000087c18       0x38 editors/lib.a(ed.o)
 .text.deleteLines
                0x0000000000087c50       0xf8 editors/lib.a(ed.o)
 .text.findString
                0x0000000000087d48       0x84 editors/lib.a(ed.o)
 .text.insertLine
                0x0000000000087dcc       0xec editors/lib.a(ed.o)
 .text.addLines
                0x0000000000087eb8       0x80 editors/lib.a(ed.o)
 .text.getNum   0x0000000000087f38      0x2cc editors/lib.a(ed.o)
 .text.readLines
                0x0000000000088204      0x274 editors/lib.a(ed.o)
 .text.printLines
                0x0000000000088478      0x120 editors/lib.a(ed.o)
 .text.ed_main  0x0000000000088598      0xbec editors/lib.a(ed.o)
                0x0000000000088598                ed_main
 .text.copy_lines
                0x0000000000089184       0x88 editors/lib.a(patch.o)
 .text.extract_filename
                0x000000000008920c       0x60 editors/lib.a(patch.o)
 .text.file_doesnt_exist
                0x000000000008926c       0x1c editors/lib.a(patch.o)
 .text.patch_main
                0x0000000000089288      0x514 editors/lib.a(patch.o)
                0x0000000000089288                patch_main
 .text.cleanup_outname
                0x000000000008979c       0x2c editors/lib.a(sed.o)
 .text.parse_escapes
                0x00000000000897c8       0xa8 editors/lib.a(sed.o)
 .text.copy_parsing_escapes
                0x0000000000089870       0x2c editors/lib.a(sed.o)
 .text.index_of_next_unescaped_regexp_delim
                0x000000000008989c       0xf8 editors/lib.a(sed.o)
 .text.parse_regex_delim
                0x0000000000089994       0x78 editors/lib.a(sed.o)
 .text.get_address
                0x0000000000089a0c      0x100 editors/lib.a(sed.o)
 .text.parse_file_cmd
                0x0000000000089b0c       0xa0 editors/lib.a(sed.o)
 .text.add_cmd  0x0000000000089bac      0x68c editors/lib.a(sed.o)
 .text.pipe_putc
                0x000000000008a238       0x54 editors/lib.a(sed.o)
 .text.append   0x000000000008a28c       0x20 editors/lib.a(sed.o)
 .text.flush_append
                0x000000000008a2ac       0x4c editors/lib.a(sed.o)
 .text.add_input_file
                0x000000000008a2f8       0x40 editors/lib.a(sed.o)
 .text.get_next_line
                0x000000000008a338       0xf0 editors/lib.a(sed.o)
 .text.puts_maybe_newline
                0x000000000008a428       0xc8 editors/lib.a(sed.o)
 .text.process_files
                0x000000000008a4f0      0xba8 editors/lib.a(sed.o)
 .text.add_cmd_block
                0x000000000008b098       0xb0 editors/lib.a(sed.o)
 .text.sed_main
                0x000000000008b148      0x350 editors/lib.a(sed.o)
                0x000000000008b148                sed_main
 .text.write1   0x000000000008b498       0x18 editors/lib.a(vi.o)
 .text.file_size
                0x000000000008b4b0       0x48 editors/lib.a(vi.o)
 .text.begin_line
                0x000000000008b4f8       0x50 editors/lib.a(vi.o)
 .text.end_line
                0x000000000008b548       0x54 editors/lib.a(vi.o)
 .text.clear_to_eol
                0x000000000008b59c       0x18 editors/lib.a(vi.o)
 .text.count_lines
                0x000000000008b5b4       0x8c editors/lib.a(vi.o)
 .text.setops   0x000000000008b640       0x74 editors/lib.a(vi.o)
 .text.dot_skip_over_ws
                0x000000000008b6b4       0x5c editors/lib.a(vi.o)
 .text.show_help
                0x000000000008b710       0x18 editors/lib.a(vi.o)
 .text.standout_start
                0x000000000008b728       0x18 editors/lib.a(vi.o)
 .text.standout_end
                0x000000000008b740       0x18 editors/lib.a(vi.o)
 .text.next_line
                0x000000000008b758       0x38 editors/lib.a(vi.o)
 .text.find_line
                0x000000000008b790       0x34 editors/lib.a(vi.o)
 .text.what_reg
                0x000000000008b7c4       0x44 editors/lib.a(vi.o)
 .text.next_tabstop
                0x000000000008b808       0x30 editors/lib.a(vi.o)
 .text.end_screen
                0x000000000008b838       0x4c editors/lib.a(vi.o)
 .text.prev_line
                0x000000000008b884       0x38 editors/lib.a(vi.o)
 .text.dot_left
                0x000000000008b8bc       0x38 editors/lib.a(vi.o)
 .text.dot_right
                0x000000000008b8f4       0x3c editors/lib.a(vi.o)
 .text.dot_begin
                0x000000000008b930       0x20 editors/lib.a(vi.o)
 .text.dot_end  0x000000000008b950       0x20 editors/lib.a(vi.o)
 .text.move_to_col
                0x000000000008b970       0x98 editors/lib.a(vi.o)
 .text.dot_next
                0x000000000008ba08       0x20 editors/lib.a(vi.o)
 .text.dot_prev
                0x000000000008ba28       0x20 editors/lib.a(vi.o)
 .text.dot_scroll
                0x000000000008ba48       0x8c editors/lib.a(vi.o)
 .text.screen_erase
                0x000000000008bad4       0x24 editors/lib.a(vi.o)
 .text.new_screen
                0x000000000008baf8       0x6c editors/lib.a(vi.o)
 .text.mycmp    0x000000000008bb64       0x48 editors/lib.a(vi.o)
 .text.char_search
                0x000000000008bbac       0xd0 editors/lib.a(vi.o)
 .text.get_one_address
                0x000000000008bc7c      0x1a4 editors/lib.a(vi.o)
 .text.end_cmd_q
                0x000000000008be20       0x1c editors/lib.a(vi.o)
 .text.skip_thing
                0x000000000008be3c      0x12c editors/lib.a(vi.o)
 .text.find_pair
                0x000000000008bf68      0x124 editors/lib.a(vi.o)
 .text.text_yank
                0x000000000008c08c       0x70 editors/lib.a(vi.o)
 .text.rawmode  0x000000000008c0fc       0x7c editors/lib.a(vi.o)
 .text.cookmode
                0x000000000008c178       0x2c editors/lib.a(vi.o)
 .text.catch_sig
                0x000000000008c1a4       0x38 editors/lib.a(vi.o)
 .text.mysleep  0x000000000008c1dc       0x3c editors/lib.a(vi.o)
 .text.readit   0x000000000008c218      0x208 editors/lib.a(vi.o)
 .text.place_cursor
                0x000000000008c420      0x148 editors/lib.a(vi.o)
 .text.suspend_sig
                0x000000000008c568       0x5c editors/lib.a(vi.o)
 .text.clear_to_eos
                0x000000000008c5c4       0x18 editors/lib.a(vi.o)
 .text.psbs     0x000000000008c5dc       0x6c editors/lib.a(vi.o)
 .text.text_hole_delete
                0x000000000008c648       0xd0 editors/lib.a(vi.o)
 .text.yank_delete
                0x000000000008c718       0xac editors/lib.a(vi.o)
 .text.text_hole_make
                0x000000000008c7c4       0x9c editors/lib.a(vi.o)
 .text.stupid_insert
                0x000000000008c860       0x38 editors/lib.a(vi.o)
 .text.file_insert
                0x000000000008c898      0x1bc editors/lib.a(vi.o)
 .text.file_write
                0x000000000008ca54       0x78 editors/lib.a(vi.o)
 .text.ni       0x000000000008cacc      0x11c editors/lib.a(vi.o)
 .text.get_one_char
                0x000000000008cbe8       0xcc editors/lib.a(vi.o)
 .text.psb      0x000000000008ccb4       0x40 editors/lib.a(vi.o)
 .text.string_insert
                0x000000000008ccf4       0x8c editors/lib.a(vi.o)
 .text.refresh  0x000000000008cd80      0x638 editors/lib.a(vi.o)
 .text.redraw   0x000000000008d3b8       0x40 editors/lib.a(vi.o)
 .text.Indicate_Error
                0x000000000008d3f8       0x50 editors/lib.a(vi.o)
 .text.char_insert
                0x000000000008d448      0x20c editors/lib.a(vi.o)
 .text.init_text_buffer
                0x000000000008d654       0xec editors/lib.a(vi.o)
 .text.bound_dot
                0x000000000008d740       0x54 editors/lib.a(vi.o)
 .text.Hit_Return
                0x000000000008d794       0x4c editors/lib.a(vi.o)
 .text.colon    0x000000000008d7e0     0x10ac editors/lib.a(vi.o)
 .text.show_status_line
                0x000000000008e88c      0x284 editors/lib.a(vi.o)
 .text.cont_sig
                0x000000000008eb10       0x4c editors/lib.a(vi.o)
 .text.winch_sig
                0x000000000008eb5c       0x44 editors/lib.a(vi.o)
 .text.get_input_line
                0x000000000008eba0      0x140 editors/lib.a(vi.o)
 .text.do_cmd   0x000000000008ece0     0x1bb4 editors/lib.a(vi.o)
 .text.edit_file
                0x0000000000090894      0x348 editors/lib.a(vi.o)
 .text.vi_main  0x0000000000090bdc      0x190 editors/lib.a(vi.o)
                0x0000000000090bdc                vi_main
 .text.find_range
                0x0000000000090d6c      0x260 editors/lib.a(vi.o)
 .text.exec_actions
                0x0000000000090fcc       0x90 findutils/lib.a(find.o)
 .text.func_name
                0x000000000009105c       0x78 findutils/lib.a(find.o)
 .text.func_path
                0x00000000000910d4       0x24 findutils/lib.a(find.o)
 .text.func_regex
                0x00000000000910f8       0x50 findutils/lib.a(find.o)
 .text.func_type
                0x0000000000091148       0x20 findutils/lib.a(find.o)
 .text.func_perm
                0x0000000000091168       0x58 findutils/lib.a(find.o)
 .text.func_mtime
                0x00000000000911c0       0x84 findutils/lib.a(find.o)
 .text.func_mmin
                0x0000000000091244       0x84 findutils/lib.a(find.o)
 .text.func_newer
                0x00000000000912c8       0x20 findutils/lib.a(find.o)
 .text.func_inum
                0x00000000000912e8       0x30 findutils/lib.a(find.o)
 .text.func_exec
                0x0000000000091318      0x140 findutils/lib.a(find.o)
 .text.func_user
                0x0000000000091458       0x18 findutils/lib.a(find.o)
 .text.func_group
                0x0000000000091470       0x18 findutils/lib.a(find.o)
 .text.func_print0
                0x0000000000091488       0x20 findutils/lib.a(find.o)
 .text.func_print
                0x00000000000914a8       0x14 findutils/lib.a(find.o)
 .text.func_paren
                0x00000000000914bc       0x24 findutils/lib.a(find.o)
 .text.func_size
                0x00000000000914e0       0xb8 findutils/lib.a(find.o)
 .text.func_prune
                0x0000000000091598        0x8 findutils/lib.a(find.o)
 .text.func_delete
                0x00000000000915a0       0x58 findutils/lib.a(find.o)
 .text.fileAction
                0x00000000000915f8      0x104 findutils/lib.a(find.o)
 .text.plus_minus_num
                0x00000000000916fc       0x2c findutils/lib.a(find.o)
 .text.alloc_action.0
                0x0000000000091728       0x90 findutils/lib.a(find.o)
 .text.parse_params
                0x00000000000917b8      0x6a0 findutils/lib.a(find.o)
 .text.find_main
                0x0000000000091e58      0x20c findutils/lib.a(find.o)
                0x0000000000091e58                find_main
 .text.print_line
                0x0000000000092064       0xe4 findutils/lib.a(grep.o)
 .text.grep_file
                0x0000000000092148      0x41c findutils/lib.a(grep.o)
 .text.add_grep_list_data
                0x0000000000092564       0x18 findutils/lib.a(grep.o)
 .text.file_action_grep
                0x000000000009257c       0x7c findutils/lib.a(grep.o)
 .text.grep_main
                0x00000000000925f8      0x4ac findutils/lib.a(grep.o)
                0x00000000000925f8                grep_main
 .text.process_stdin
                0x0000000000092aa4      0x288 findutils/lib.a(xargs.o)
 .text.process0_stdin
                0x0000000000092d2c      0x114 findutils/lib.a(xargs.o)
 .text.xargs_main
                0x0000000000092e40      0x418 findutils/lib.a(xargs.o)
                0x0000000000092e40                xargs_main
 .text.halt_main
                0x0000000000093258      0x10c init/lib.a(halt.o)
                0x0000000000093258                halt_main
 .text.loop_forever
                0x0000000000093364       0x10 init/lib.a(init.o)
 .text.message  0x0000000000093374      0x10c init/lib.a(init.o)
 .text.set_sane_term
                0x0000000000093480       0xac init/lib.a(init.o)
 .text.init_reboot
                0x000000000009352c       0x44 init/lib.a(init.o)
 .text.stop_handler
                0x0000000000093570       0x40 init/lib.a(init.o)
 .text.cont_handler
                0x00000000000935b0       0x10 init/lib.a(init.o)
 .text.new_init_action
                0x00000000000935c0       0xc8 init/lib.a(init.o)
 .text.delete_init_action
                0x0000000000093688       0x60 init/lib.a(init.o)
 .text.run_actions
                0x00000000000936e8       0xc4 init/lib.a(init.o)
 .text.ctrlaltdel_signal
                0x00000000000937ac       0x14 init/lib.a(init.o)
 .text.shutdown_system
                0x00000000000937c0      0x12c init/lib.a(init.o)
 .text.shutdown_signal
                0x00000000000938ec       0x80 init/lib.a(init.o)
 .text.open_stdio_to_tty
                0x000000000009396c       0xb8 init/lib.a(init.o)
 .text.run      0x0000000000093a24      0x3e8 init/lib.a(init.o)
 .text.waitfor  0x0000000000093e0c       0x60 init/lib.a(init.o)
 .text.exec_signal
                0x0000000000093e6c      0x13c init/lib.a(init.o)
 .text.parse_inittab
                0x0000000000093fa8      0x300 init/lib.a(init.o)
 .text.reload_signal
                0x00000000000942a8       0x90 init/lib.a(init.o)
 .text.init_main
                0x0000000000094338      0x4ec init/lib.a(init.o)
                0x0000000000094338                init_main
 .text.mesg_main
                0x0000000000094824       0xec init/lib.a(mesg.o)
                0x0000000000094824                mesg_main
 .text.xsetenv_proto
                0x0000000000094910       0x28 ipsvd/lib.a(tcpudp.o)
 .text.sig_term_handler
                0x0000000000094938       0x34 ipsvd/lib.a(tcpudp.o)
 .text.connection_status
                0x000000000009496c       0x44 ipsvd/lib.a(tcpudp.o)
 .text.sig_child_handler
                0x00000000000949b0       0xdc ipsvd/lib.a(tcpudp.o)
 .text.tcpudpsvd_main
                0x0000000000094a8c      0x8c0 ipsvd/lib.a(tcpudp.o)
                0x0000000000094a8c                tcpudpsvd_main
 .text.ipsvd_perhost_init
                0x000000000009534c       0x24 ipsvd/lib.a(ipsvd_perhost.o)
                0x000000000009534c                ipsvd_perhost_init
 .text.ipsvd_perhost_add
                0x0000000000095370       0xa4 ipsvd/lib.a(ipsvd_perhost.o)
                0x0000000000095370                ipsvd_perhost_add
 .text.ipsvd_perhost_remove
                0x0000000000095414       0x6c ipsvd/lib.a(ipsvd_perhost.o)
                0x0000000000095414                ipsvd_perhost_remove
 .text.bb_ask_confirmation
                0x0000000000095480       0x74 libbb/lib.a(ask_confirmation.o)
                0x0000000000095480                bb_ask_confirmation
 .text.askpass_timeout
                0x00000000000954f4        0x8 libbb/lib.a(bb_askpass.o)
 .text.bb_askpass
                0x00000000000954fc      0x1b8 libbb/lib.a(bb_askpass.o)
                0x00000000000954fc                bb_askpass
 .text.bb_do_delay
                0x00000000000956b4       0x6c libbb/lib.a(bb_do_delay.o)
                0x00000000000956b4                bb_do_delay
 .text.bb_getug
                0x0000000000095720       0x80 libbb/lib.a(bb_pwd.o)
 .text.bb_getpwuid
                0x00000000000957a0       0x2c libbb/lib.a(bb_pwd.o)
                0x00000000000957a0                bb_getpwuid
 .text.bb_getgrgid
                0x00000000000957cc       0x2c libbb/lib.a(bb_pwd.o)
                0x00000000000957cc                bb_getgrgid
 .text.xgroup2gid
                0x00000000000957f8       0x30 libbb/lib.a(bb_pwd.o)
                0x00000000000957f8                xgroup2gid
 .text.xuname2uid
                0x0000000000095828       0x30 libbb/lib.a(bb_pwd.o)
                0x0000000000095828                xuname2uid
 .text.get_ug_id
                0x0000000000095858       0x44 libbb/lib.a(bb_pwd.o)
                0x0000000000095858                get_ug_id
 .text.ret_ERANGE
                0x000000000009589c       0x1c libbb/lib.a(bb_strtonum.o)
 .text.handle_errors
                0x00000000000958b8       0x6c libbb/lib.a(bb_strtonum.o)
 .text.bb_strtoull
                0x0000000000095924       0x58 libbb/lib.a(bb_strtonum.o)
                0x0000000000095924                bb_strtoull
 .text.bb_strtoul
                0x000000000009597c       0x58 libbb/lib.a(bb_strtonum.o)
                0x000000000009597c                bb_strtoul
 .text.bb_strtol
                0x00000000000959d4       0x6c libbb/lib.a(bb_strtonum.o)
                0x00000000000959d4                bb_strtol
 .text.change_identity_e2str
                0x0000000000095a40       0x44 libbb/lib.a(change_identity.o)
                0x0000000000095a40                change_identity_e2str
 .text.change_identity
                0x0000000000095a84       0x2c libbb/lib.a(change_identity.o)
                0x0000000000095a84                change_identity
 .text.chomp    0x0000000000095ab0       0x24 libbb/lib.a(chomp.o)
                0x0000000000095ab0                chomp
 .text.index_in_strings
                0x0000000000095ad4       0x5c libbb/lib.a(compare_string_array.o)
                0x0000000000095ad4                index_in_strings
 .text.index_in_substrings
                0x0000000000095b30       0x70 libbb/lib.a(compare_string_array.o)
                0x0000000000095b30                index_in_substrings
 .text.nth_string
                0x0000000000095ba0       0x34 libbb/lib.a(compare_string_array.o)
                0x0000000000095ba0                nth_string
 .text.concat_subpath_file
                0x0000000000095bd4       0x5c libbb/lib.a(concat_subpath_file.o)
                0x0000000000095bd4                concat_subpath_file
 .text.ask_and_unlink
                0x0000000000095c30       0x74 libbb/lib.a(copy_file.o)
 .text.copy_file
                0x0000000000095ca4      0x728 libbb/lib.a(copy_file.o)
                0x0000000000095ca4                copy_file
 .text.correct_password
                0x00000000000963cc       0xf8 libbb/lib.a(correct_password.o)
                0x00000000000963cc                correct_password
 .text.crc32_filltable
                0x00000000000964c4       0xa8 libbb/lib.a(crc32.o)
                0x00000000000964c4                crc32_filltable
 .text.create_icmp6_socket
                0x000000000009656c       0x80 libbb/lib.a(create_icmp6_socket.o)
                0x000000000009656c                create_icmp6_socket
 .text.create_icmp_socket
                0x00000000000965ec       0x80 libbb/lib.a(create_icmp_socket.o)
                0x00000000000965ec                create_icmp_socket
 .text.i64c     0x000000000009666c       0x3c libbb/lib.a(crypt_make_salt.o)
 .text.crypt_make_salt
                0x00000000000966a8       0x6c libbb/lib.a(crypt_make_salt.o)
                0x00000000000966a8                crypt_make_salt
 .text.device_open
                0x0000000000096714       0x60 libbb/lib.a(device_open.o)
                0x0000000000096714                device_open
 .text.bb_dump_size
                0x0000000000096774      0x168 libbb/lib.a(dump.o)
                0x0000000000096774                bb_dump_size
 .text.next     0x00000000000968dc      0x228 libbb/lib.a(dump.o)
 .text.bb_dump_dump
                0x0000000000096b04      0xe1c libbb/lib.a(dump.o)
                0x0000000000096b04                bb_dump_dump
 .text.bb_dump_add
                0x0000000000097920      0x258 libbb/lib.a(dump.o)
                0x0000000000097920                bb_dump_add
 .text.execable_file
                0x0000000000097b78       0x5c libbb/lib.a(execable.o)
                0x0000000000097b78                execable_file
 .text.find_execable
                0x0000000000097bd4       0xb0 libbb/lib.a(execable.o)
                0x0000000000097bd4                find_execable
 .text.fclose_if_not_stdin
                0x0000000000097c84       0x28 libbb/lib.a(fclose_nonstdin.o)
                0x0000000000097c84                fclose_if_not_stdin
 .text.fflush_stdout_and_exit
                0x0000000000097cac       0x34 libbb/lib.a(fflush_stdout_and_exit.o)
                0x0000000000097cac                fflush_stdout_and_exit
 .text.find_mount_point
                0x0000000000097ce0      0x12c libbb/lib.a(find_mount_point.o)
                0x0000000000097ce0                find_mount_point
 .text.find_pid_by_name
                0x0000000000097e0c       0xb8 libbb/lib.a(find_pid_by_name.o)
                0x0000000000097e0c                find_pid_by_name
 .text.pidlist_reverse
                0x0000000000097ec4       0x68 libbb/lib.a(find_pid_by_name.o)
                0x0000000000097ec4                pidlist_reverse
 .text.find_block_device_in_dir
                0x0000000000097f2c      0x158 libbb/lib.a(find_root_device.o)
 .text.find_block_device
                0x0000000000098084       0x68 libbb/lib.a(find_root_device.o)
                0x0000000000098084                find_block_device
 .text.get_console_fd
                0x00000000000980ec       0xfc libbb/lib.a(get_console.o)
                0x00000000000980ec                get_console_fd
 .text.bb_get_chunk_from_file
                0x00000000000981e8       0xac libbb/lib.a(get_line_from_file.o)
                0x00000000000981e8                bb_get_chunk_from_file
 .text.xmalloc_fgets
                0x0000000000098294       0x18 libbb/lib.a(get_line_from_file.o)
                0x0000000000098294                xmalloc_fgets
 .text.xmalloc_getline
                0x00000000000982ac       0x40 libbb/lib.a(get_line_from_file.o)
                0x00000000000982ac                xmalloc_getline
 .text.getopt32
                0x00000000000982ec      0x70c libbb/lib.a(getopt32.o)
                0x00000000000982ec                getopt32
 .text.bb_herror_msg
                0x00000000000989f8       0x40 libbb/lib.a(herror_msg.o)
                0x00000000000989f8                bb_herror_msg
 .text.bb_herror_msg_and_die
                0x0000000000098a38       0x40 libbb/lib.a(herror_msg_and_die.o)
                0x0000000000098a38                bb_herror_msg_and_die
 .text.make_human_readable_str
                0x0000000000098a78      0x128 libbb/lib.a(human_readable.o)
                0x0000000000098a78                make_human_readable_str
 .text.INET_resolve
                0x0000000000098ba0       0xbc libbb/lib.a(inet_common.o)
                0x0000000000098ba0                INET_resolve
 .text.INET_rresolve
                0x0000000000098c5c      0x18c libbb/lib.a(inet_common.o)
                0x0000000000098c5c                INET_rresolve
 .text.INET6_resolve
                0x0000000000098de8       0x84 libbb/lib.a(inet_common.o)
                0x0000000000098de8                INET6_resolve
 .text.INET6_rresolve
                0x0000000000098e6c       0xfc libbb/lib.a(inet_common.o)
                0x0000000000098e6c                INET6_rresolve
 .text.bb_info_msg
                0x0000000000098f68       0x7c libbb/lib.a(info_msg.o)
                0x0000000000098f68                bb_info_msg
 .text.is_in_ino_dev_hashtable
                0x0000000000098fe4       0xac libbb/lib.a(inode_hash.o)
                0x0000000000098fe4                is_in_ino_dev_hashtable
 .text.add_to_ino_dev_hashtable
                0x0000000000099090       0x94 libbb/lib.a(inode_hash.o)
                0x0000000000099090                add_to_ino_dev_hashtable
 .text.is_directory
                0x0000000000099124       0x78 libbb/lib.a(isdirectory.o)
                0x0000000000099124                is_directory
 .text.get_linux_version_code
                0x000000000009919c       0x60 libbb/lib.a(kernel_version.o)
                0x000000000009919c                get_linux_version_code
 .text.cmdedit_set_out_char
                0x00000000000991fc       0x98 libbb/lib.a(lineedit.o)
 .text.input_end
                0x0000000000099294       0x44 libbb/lib.a(lineedit.o)
 .text.goto_new_line
                0x00000000000992d8       0x34 libbb/lib.a(lineedit.o)
 .text.beep     0x000000000009930c       0x14 libbb/lib.a(lineedit.o)
 .text.input_backward
                0x0000000000099320       0xcc libbb/lib.a(lineedit.o)
 .text.put_prompt
                0x00000000000993ec       0x48 libbb/lib.a(lineedit.o)
 .text.redraw   0x0000000000099434       0x50 libbb/lib.a(lineedit.o)
 .text.input_delete
                0x0000000000099484       0x64 libbb/lib.a(lineedit.o)
 .text.input_backspace
                0x00000000000994e8       0x38 libbb/lib.a(lineedit.o)
 .text.add_quote_for_spec_chars
                0x0000000000099520       0x78 libbb/lib.a(lineedit.o)
 .text.match_compare
                0x0000000000099598       0x18 libbb/lib.a(lineedit.o)
 .text.input_tab
                0x00000000000995b0     0x11fc libbb/lib.a(lineedit.o)
 .text.get_previous_history
                0x000000000009a7ac       0x8c libbb/lib.a(lineedit.o)
 .text.get_next_history
                0x000000000009a838       0x5c libbb/lib.a(lineedit.o)
 .text.parse_prompt
                0x000000000009a894      0x49c libbb/lib.a(lineedit.o)
 .text.win_changed
                0x000000000009ad30       0xac libbb/lib.a(lineedit.o)
 .text.read_line_input
                0x000000000009addc      0x778 libbb/lib.a(lineedit.o)
                0x000000000009addc                read_line_input
 .text.new_line_input_t
                0x000000000009b554       0x18 libbb/lib.a(lineedit.o)
                0x000000000009b554                new_line_input_t
 .text.llist_add_to
                0x000000000009b56c       0x24 libbb/lib.a(llist.o)
                0x000000000009b56c                llist_add_to
 .text.llist_add_to_end
                0x000000000009b590       0x4c libbb/lib.a(llist.o)
                0x000000000009b590                llist_add_to_end
 .text.llist_pop
                0x000000000009b5dc       0x2c libbb/lib.a(llist.o)
                0x000000000009b5dc                llist_pop
 .text.llist_unlink
                0x000000000009b608       0x5c libbb/lib.a(llist.o)
                0x000000000009b608                llist_unlink
 .text.llist_free
                0x000000000009b664       0x44 libbb/lib.a(llist.o)
                0x000000000009b664                llist_free
 .text.print_login_issue
                0x000000000009b6a8      0x1f4 libbb/lib.a(login.o)
                0x000000000009b6a8                print_login_issue
 .text.print_login_prompt
                0x000000000009b89c       0x50 libbb/lib.a(login.o)
                0x000000000009b89c                print_login_prompt
 .text.query_loop
                0x000000000009b8ec       0x6c libbb/lib.a(loop.o)
                0x000000000009b8ec                query_loop
 .text.del_loop
                0x000000000009b958       0x48 libbb/lib.a(loop.o)
                0x000000000009b958                del_loop
 .text.set_loop
                0x000000000009b9a0      0x244 libbb/lib.a(loop.o)
                0x000000000009b9a0                set_loop
 .text.bb_make_directory
                0x000000000009bbe4      0x180 libbb/lib.a(make_directory.o)
                0x000000000009bbe4                bb_make_directory
 .text.bb_makedev
                0x000000000009bd64       0x14 libbb/lib.a(makedev.o)
                0x000000000009bd64                bb_makedev
 .text.match_fstype
                0x000000000009bd78       0xd0 libbb/lib.a(match_fstype.o)
                0x000000000009bd78                match_fstype
 .text.md5_begin
                0x000000000009be48       0x44 libbb/lib.a(md5.o)
                0x000000000009be48                md5_begin
 .text.md5_hash_block
                0x000000000009be8c      0x2ac libbb/lib.a(md5.o)
 .text.md5_hash
                0x000000000009c138       0x8c libbb/lib.a(md5.o)
                0x000000000009c138                md5_hash
 .text.md5_end  0x000000000009c1c4      0x164 libbb/lib.a(md5.o)
                0x000000000009c1c4                md5_end
 .text.bb_mode_string
                0x000000000009c328       0xc0 libbb/lib.a(mode_string.o)
                0x000000000009c328                bb_mode_string
 .text.string_checker_helper
                0x000000000009c3e8       0x58 libbb/lib.a(obscure.o)
 .text.string_checker
                0x000000000009c440       0x8c libbb/lib.a(obscure.o)
 .text.obscure  0x000000000009c4cc      0x1f0 libbb/lib.a(obscure.o)
                0x000000000009c4cc                obscure
 .text.bb_parse_mode
                0x000000000009c6bc      0x294 libbb/lib.a(parse_mode.o)
                0x000000000009c6bc                bb_parse_mode
 .text.bb_perror_nomsg
                0x000000000009c950       0x14 libbb/lib.a(perror_nomsg.o)
                0x000000000009c950                bb_perror_nomsg
 .text.bb_perror_nomsg_and_die
                0x000000000009c964       0x14 libbb/lib.a(perror_nomsg_and_die.o)
                0x000000000009c964                bb_perror_nomsg_and_die
 .text.write_pidfile
                0x000000000009c978       0xc4 libbb/lib.a(pidfile.o)
                0x000000000009c978                write_pidfile
 .text.bb_process_escape_sequence
                0x000000000009ca3c       0xe8 libbb/lib.a(process_escape_sequence.o)
                0x000000000009ca3c                bb_process_escape_sequence
 .text.clear_cache
                0x000000000009cb24       0x1c libbb/lib.a(procps.o)
 .text.clear_username_cache
                0x000000000009cb40       0x20 libbb/lib.a(procps.o)
                0x000000000009cb40                clear_username_cache
 .text.get_cached
                0x000000000009cb60       0x8c libbb/lib.a(procps.o)
 .text.get_cached_username
                0x000000000009cbec       0x24 libbb/lib.a(procps.o)
                0x000000000009cbec                get_cached_username
 .text.get_cached_groupname
                0x000000000009cc10       0x24 libbb/lib.a(procps.o)
                0x000000000009cc10                get_cached_groupname
 .text.read_to_buf
                0x000000000009cc34       0x58 libbb/lib.a(procps.o)
 .text.alloc_procps_scan
                0x000000000009cc8c       0x58 libbb/lib.a(procps.o)
                0x000000000009cc8c                alloc_procps_scan
 .text.free_procps_scan
                0x000000000009cce4       0x20 libbb/lib.a(procps.o)
                0x000000000009cce4                free_procps_scan
 .text.fast_strtoul_16
                0x000000000009cd04       0x60 libbb/lib.a(procps.o)
 .text.fast_strtoul_10
                0x000000000009cd64       0x48 libbb/lib.a(procps.o)
 .text.skip_fields
                0x000000000009cdac       0x24 libbb/lib.a(procps.o)
 .text.procps_scan
                0x000000000009cdd0      0x568 libbb/lib.a(procps.o)
                0x000000000009cdd0                procps_scan
 .text.read_cmdline
                0x000000000009d338       0x88 libbb/lib.a(procps.o)
                0x000000000009d338                read_cmdline
 .text.pw_encrypt
                0x000000000009d3c0       0x30 libbb/lib.a(pw_encrypt.o)
                0x000000000009d3c0                pw_encrypt
 .text.true_action
                0x000000000009d3f0        0x8 libbb/lib.a(recursive_action.o)
 .text.recursive_action
                0x000000000009d3f8      0x1ac libbb/lib.a(recursive_action.o)
                0x000000000009d3f8                recursive_action
 .text.remove_file
                0x000000000009d5a4      0x29c libbb/lib.a(remove_file.o)
                0x000000000009d5a4                remove_file
 .text.restricted_shell
                0x000000000009d840       0x64 libbb/lib.a(restricted_shell.o)
                0x000000000009d840                restricted_shell
 .text.run_shell
                0x000000000009d8a4       0xe4 libbb/lib.a(run_shell.o)
                0x000000000009d8a4                run_shell
 .text.safe_poll
                0x000000000009d988       0x6c libbb/lib.a(safe_poll.o)
                0x000000000009d988                safe_poll
 .text.safe_strncpy
                0x000000000009d9f4       0x28 libbb/lib.a(safe_strncpy.o)
                0x000000000009d9f4                safe_strncpy
 .text.setup_environment
                0x000000000009da1c       0xf8 libbb/lib.a(setup_environment.o)
                0x000000000009da1c                setup_environment
 .text.sha1_compile
                0x000000000009db14      0x254 libbb/lib.a(sha1.o)
 .text.sha1_begin
                0x000000000009dd68       0x48 libbb/lib.a(sha1.o)
                0x000000000009dd68                sha1_begin
 .text.sha1_hash
                0x000000000009ddb0       0x88 libbb/lib.a(sha1.o)
                0x000000000009ddb0                sha1_hash
 .text.sha1_end
                0x000000000009de38      0x100 libbb/lib.a(sha1.o)
                0x000000000009de38                sha1_end
 .text.bb_simplify_path
                0x000000000009df38      0x138 libbb/lib.a(simplify_path.o)
                0x000000000009df38                bb_simplify_path
 .text.skip_whitespace
                0x000000000009e070       0x20 libbb/lib.a(skip_whitespace.o)
                0x000000000009e070                skip_whitespace
 .text.skip_non_whitespace
                0x000000000009e090       0x38 libbb/lib.a(skip_whitespace.o)
                0x000000000009e090                skip_non_whitespace
 .text.tty_baud_to_value
                0x000000000009e0c8       0x64 libbb/lib.a(speed_table.o)
                0x000000000009e0c8                tty_baud_to_value
 .text.tty_value_to_baud
                0x000000000009e12c       0x50 libbb/lib.a(speed_table.o)
                0x000000000009e12c                tty_value_to_baud
 .text.str_tolower
                0x000000000009e17c       0x4c libbb/lib.a(str_tolower.o)
                0x000000000009e17c                str_tolower
 .text.monotonic_us
                0x000000000009e1c8       0x40 libbb/lib.a(time.o)
                0x000000000009e1c8                monotonic_us
 .text.monotonic_sec
                0x000000000009e208       0x14 libbb/lib.a(time.o)
                0x000000000009e208                monotonic_sec
 .text.trim     0x000000000009e21c       0x68 libbb/lib.a(trim.o)
                0x000000000009e21c                trim
 .text.get_signum
                0x000000000009e284       0x9c libbb/lib.a(u_signal_names.o)
                0x000000000009e284                get_signum
 .text.get_signame
                0x000000000009e320       0x3c libbb/lib.a(u_signal_names.o)
                0x000000000009e320                get_signame
 .text.print_signames
                0x000000000009e35c       0x44 libbb/lib.a(u_signal_names.o)
                0x000000000009e35c                print_signames
 .text.socket_want_pktinfo
                0x000000000009e3a0       0x38 libbb/lib.a(udp_io.o)
                0x000000000009e3a0                socket_want_pktinfo
 .text.recv_from_to
                0x000000000009e3d8      0x100 libbb/lib.a(udp_io.o)
                0x000000000009e3d8                recv_from_to
 .text.update_passwd
                0x000000000009e4d8      0x2e8 libbb/lib.a(update_passwd.o)
                0x000000000009e4d8                update_passwd
 .text.bb_uuencode
                0x000000000009e7c0       0xb8 libbb/lib.a(uuencode.o)
                0x000000000009e7c0                bb_uuencode
 .text.spawn    0x000000000009e878       0x74 libbb/lib.a(vfork_daemon_rexec.o)
                0x000000000009e878                spawn
 .text.xspawn   0x000000000009e8ec       0x28 libbb/lib.a(vfork_daemon_rexec.o)
                0x000000000009e8ec                xspawn
 .text.wait4pid
                0x000000000009e914       0x60 libbb/lib.a(vfork_daemon_rexec.o)
                0x000000000009e914                wait4pid
 .text.wait_nohang
                0x000000000009e974       0x1c libbb/lib.a(vfork_daemon_rexec.o)
                0x000000000009e974                wait_nohang
 .text.wait_pid
                0x000000000009e990       0x3c libbb/lib.a(vfork_daemon_rexec.o)
                0x000000000009e990                wait_pid
 .text.spawn_and_wait
                0x000000000009e9cc       0x18 libbb/lib.a(vfork_daemon_rexec.o)
                0x000000000009e9cc                spawn_and_wait
 .text.forkexit_or_rexec
                0x000000000009e9e4       0x3c libbb/lib.a(vfork_daemon_rexec.o)
                0x000000000009e9e4                forkexit_or_rexec
 .text.bb_daemonize_or_rexec
                0x000000000009ea20       0xdc libbb/lib.a(vfork_daemon_rexec.o)
                0x000000000009ea20                bb_daemonize_or_rexec
 .text.bb_sanitize_stdio
                0x000000000009eafc       0x14 libbb/lib.a(vfork_daemon_rexec.o)
                0x000000000009eafc                bb_sanitize_stdio
 .text.bb_warn_ignoring_args
                0x000000000009eb10       0x28 libbb/lib.a(warn_ignoring_args.o)
                0x000000000009eb10                bb_warn_ignoring_args
 .text.fopen_or_warn
                0x000000000009eb38       0x3c libbb/lib.a(wfopen.o)
                0x000000000009eb38                fopen_or_warn
 .text.fopen_or_warn_stdin
                0x000000000009eb74       0x60 libbb/lib.a(wfopen_input.o)
                0x000000000009eb74                fopen_or_warn_stdin
 .text.xstrtoull_range_sfx
                0x000000000009ebd4      0x1b4 libbb/lib.a(xatonum.o)
                0x000000000009ebd4                xstrtoull_range_sfx
 .text.xatoull_sfx
                0x000000000009ed88       0x30 libbb/lib.a(xatonum.o)
                0x000000000009ed88                xatoull_sfx
 .text.xatoull  0x000000000009edb8       0x14 libbb/lib.a(xatonum.o)
                0x000000000009edb8                xatoull
 .text.xstrtoul_range_sfx
                0x000000000009edcc      0x13c libbb/lib.a(xatonum.o)
                0x000000000009edcc                xstrtoul_range_sfx
 .text.xstrtol_range_sfx
                0x000000000009ef08       0x98 libbb/lib.a(xatonum.o)
                0x000000000009ef08                xstrtol_range_sfx
 .text.xatol    0x000000000009efa0       0x24 libbb/lib.a(xatonum.o)
                0x000000000009efa0                xatol
 .text.xatol_range
                0x000000000009efc4       0x20 libbb/lib.a(xatonum.o)
                0x000000000009efc4                xatol_range
 .text.xstrtol_range
                0x000000000009efe4       0x14 libbb/lib.a(xatonum.o)
                0x000000000009efe4                xstrtol_range
 .text.xatoul_sfx
                0x000000000009eff8       0x20 libbb/lib.a(xatonum.o)
                0x000000000009eff8                xatoul_sfx
 .text.xatoul   0x000000000009f018       0x14 libbb/lib.a(xatonum.o)
                0x000000000009f018                xatoul
 .text.xatoul_range
                0x000000000009f02c       0x20 libbb/lib.a(xatonum.o)
                0x000000000009f02c                xatoul_range
 .text.xatoul_range_sfx
                0x000000000009f04c       0x24 libbb/lib.a(xatonum.o)
                0x000000000009f04c                xatoul_range_sfx
 .text.xstrtoul
                0x000000000009f070       0x1c libbb/lib.a(xatonum.o)
                0x000000000009f070                xstrtoul
 .text.xstrtoul_range
                0x000000000009f08c       0x14 libbb/lib.a(xatonum.o)
                0x000000000009f08c                xstrtoul_range
 .text.xatoi_u  0x000000000009f0a0       0x1c libbb/lib.a(xatonum.o)
                0x000000000009f0a0                xatoi_u
 .text.xatou16  0x000000000009f0bc       0x28 libbb/lib.a(xatonum.o)
                0x000000000009f0bc                xatou16
 .text.setsockopt_reuseaddr
                0x000000000009f0e4       0x28 libbb/lib.a(xconnect.o)
                0x000000000009f0e4                setsockopt_reuseaddr
 .text.setsockopt_broadcast
                0x000000000009f10c       0x28 libbb/lib.a(xconnect.o)
                0x000000000009f10c                setsockopt_broadcast
 .text.xconnect
                0x000000000009f134       0x68 libbb/lib.a(xconnect.o)
                0x000000000009f134                xconnect
 .text.bb_lookup_port
                0x000000000009f19c       0x88 libbb/lib.a(xconnect.o)
                0x000000000009f19c                bb_lookup_port
 .text.get_nport
                0x000000000009f224       0x2c libbb/lib.a(xconnect.o)
                0x000000000009f224                get_nport
 .text.set_nport
                0x000000000009f250       0x24 libbb/lib.a(xconnect.o)
                0x000000000009f250                set_nport
 .text.str2sockaddr
                0x000000000009f274      0x194 libbb/lib.a(xconnect.o)
 .text.host_and_af2sockaddr
                0x000000000009f408       0x1c libbb/lib.a(xconnect.o)
                0x000000000009f408                host_and_af2sockaddr
 .text.xhost_and_af2sockaddr
                0x000000000009f424       0x1c libbb/lib.a(xconnect.o)
                0x000000000009f424                xhost_and_af2sockaddr
 .text.host2sockaddr
                0x000000000009f440       0x18 libbb/lib.a(xconnect.o)
                0x000000000009f440                host2sockaddr
 .text.xhost2sockaddr
                0x000000000009f458       0x18 libbb/lib.a(xconnect.o)
                0x000000000009f458                xhost2sockaddr
 .text.xdotted2sockaddr
                0x000000000009f470       0x18 libbb/lib.a(xconnect.o)
                0x000000000009f470                xdotted2sockaddr
 .text.xsocket_type
                0x000000000009f488       0x74 libbb/lib.a(xconnect.o)
                0x000000000009f488                xsocket_type
 .text.xsocket_stream
                0x000000000009f4fc       0x18 libbb/lib.a(xconnect.o)
                0x000000000009f4fc                xsocket_stream
 .text.create_and_bind_or_die
                0x000000000009f514       0x94 libbb/lib.a(xconnect.o)
 .text.create_and_bind_stream_or_die
                0x000000000009f5a8       0x14 libbb/lib.a(xconnect.o)
                0x000000000009f5a8                create_and_bind_stream_or_die
 .text.create_and_connect_stream_or_die
                0x000000000009f5bc       0x4c libbb/lib.a(xconnect.o)
                0x000000000009f5bc                create_and_connect_stream_or_die
 .text.xconnect_stream
                0x000000000009f608       0x2c libbb/lib.a(xconnect.o)
                0x000000000009f608                xconnect_stream
 .text.sockaddr2str
                0x000000000009f634       0xb4 libbb/lib.a(xconnect.o)
 .text.xmalloc_sockaddr2host_noport
                0x000000000009f6e8       0x14 libbb/lib.a(xconnect.o)
                0x000000000009f6e8                xmalloc_sockaddr2host_noport
 .text.xmalloc_sockaddr2hostonly_noport
                0x000000000009f6fc       0x14 libbb/lib.a(xconnect.o)
                0x000000000009f6fc                xmalloc_sockaddr2hostonly_noport
 .text.xmalloc_sockaddr2dotted
                0x000000000009f710       0x14 libbb/lib.a(xconnect.o)
                0x000000000009f710                xmalloc_sockaddr2dotted
 .text.xmalloc_sockaddr2dotted_noport
                0x000000000009f724       0x14 libbb/lib.a(xconnect.o)
                0x000000000009f724                xmalloc_sockaddr2dotted_noport
 .text.xrealloc_getcwd_or_warn
                0x000000000009f738       0x74 libbb/lib.a(xgetcwd.o)
                0x000000000009f738                xrealloc_getcwd_or_warn
 .text.xgethostbyname
                0x000000000009f7ac       0x30 libbb/lib.a(xgethostbyname.o)
                0x000000000009f7ac                xgethostbyname
 .text.regcomp_or_errmsg
                0x000000000009f7dc       0x60 libbb/lib.a(xregcomp.o)
                0x000000000009f7dc                regcomp_or_errmsg
 .text.xregcomp
                0x000000000009f83c       0x34 libbb/lib.a(xregcomp.o)
                0x000000000009f83c                xregcomp
 .text.get_S    0x000000000009f870       0x30 libpwdgrp/lib.a(pwd_grp.o)
 .text.bb_internal_setpwent
                0x000000000009f8a0       0x2c libpwdgrp/lib.a(pwd_grp.o)
                0x000000000009f8a0                bb_internal_setpwent
 .text.bb_internal_setgrent
                0x000000000009f8cc       0x2c libpwdgrp/lib.a(pwd_grp.o)
                0x000000000009f8cc                bb_internal_setgrent
 .text.bb_internal_endgrent
                0x000000000009f8f8       0x2c libpwdgrp/lib.a(pwd_grp.o)
                0x000000000009f8f8                bb_internal_endgrent
 .text.bb_internal_putpwent
                0x000000000009f924       0x78 libpwdgrp/lib.a(pwd_grp.o)
                0x000000000009f924                bb_internal_putpwent
 .text.bb__parsespent
                0x000000000009f99c       0xac libpwdgrp/lib.a(pwd_grp.o)
 .text.bb__parsepwent
                0x000000000009fa48       0xa8 libpwdgrp/lib.a(pwd_grp.o)
 .text.bb__parsegrent
                0x000000000009faf0      0x15c libpwdgrp/lib.a(pwd_grp.o)
 .text.bb__pgsreader
                0x000000000009fc4c      0x118 libpwdgrp/lib.a(pwd_grp.o)
 .text.bb_internal_initgroups
                0x000000000009fd64      0x124 libpwdgrp/lib.a(pwd_grp.o)
                0x000000000009fd64                bb_internal_initgroups
 .text.bb_internal_getgrgid_r
                0x000000000009fe88       0x9c libpwdgrp/lib.a(pwd_grp.o)
                0x000000000009fe88                bb_internal_getgrgid_r
 .text.bb_internal_getgrgid
                0x000000000009ff24       0x34 libpwdgrp/lib.a(pwd_grp.o)
                0x000000000009ff24                bb_internal_getgrgid
 .text.bb_internal_getpwuid_r
                0x000000000009ff58       0x9c libpwdgrp/lib.a(pwd_grp.o)
                0x000000000009ff58                bb_internal_getpwuid_r
 .text.bb_internal_getpwuid
                0x000000000009fff4       0x30 libpwdgrp/lib.a(pwd_grp.o)
                0x000000000009fff4                bb_internal_getpwuid
 .text.bb_internal_getspnam_r
                0x00000000000a0024       0xa8 libpwdgrp/lib.a(pwd_grp.o)
                0x00000000000a0024                bb_internal_getspnam_r
 .text.bb_internal_getgrnam_r
                0x00000000000a00cc       0xa8 libpwdgrp/lib.a(pwd_grp.o)
                0x00000000000a00cc                bb_internal_getgrnam_r
 .text.bb_internal_getgrnam
                0x00000000000a0174       0x34 libpwdgrp/lib.a(pwd_grp.o)
                0x00000000000a0174                bb_internal_getgrnam
 .text.bb_internal_getpwnam_r
                0x00000000000a01a8       0xa8 libpwdgrp/lib.a(pwd_grp.o)
                0x00000000000a01a8                bb_internal_getpwnam_r
 .text.bb_internal_getpwnam
                0x00000000000a0250       0x34 libpwdgrp/lib.a(pwd_grp.o)
                0x00000000000a0250                bb_internal_getpwnam
 .text.get_uidgid
                0x00000000000a0284      0x120 libpwdgrp/lib.a(uidgid_get.o)
                0x00000000000a0284                get_uidgid
 .text.parse_chown_usergroup_or_die
                0x00000000000a03a4       0xc4 libpwdgrp/lib.a(uidgid_get.o)
                0x00000000000a03a4                parse_chown_usergroup_or_die
 .text          0x00000000000a0468       0x58 /opt/sparc-linux-3.4.4/lib/gcc/sparc-linux/3.4.4/soft/v8/libgcc.a(_lshrdi3.oS)
                0x00000000000a0468                __lshrdi3
 .text          0x00000000000a04c0       0x38 /opt/sparc-linux-3.4.4/lib/gcc/sparc-linux/3.4.4/soft/v8/libgcc.a(_cmpdi2.oS)
                0x00000000000a04c0                __cmpdi2
 .text          0x00000000000a04f8       0xa0 /opt/sparc-linux-3.4.4/lib/gcc/sparc-linux/3.4.4/soft/v8/libgcc.a(_floatdidf.oS)
                0x00000000000a0500                __floatdidf
 .text          0x00000000000a0598       0x7c /opt/sparc-linux-3.4.4/lib/gcc/sparc-linux/3.4.4/soft/v8/libgcc.a(_fixunsdfsi.oS)
                0x00000000000a05a0                __fixunsdfsi
 .text          0x00000000000a0614      0x23c /opt/sparc-linux-3.4.4/lib/gcc/sparc-linux/3.4.4/soft/v8/libgcc.a(_divdi3.oS)
                0x00000000000a061c                __divdi3
 .text          0x00000000000a0850      0x280 /opt/sparc-linux-3.4.4/lib/gcc/sparc-linux/3.4.4/soft/v8/libgcc.a(_moddi3.oS)
                0x00000000000a0858                __moddi3
 .text          0x00000000000a0ad0      0x1ec /opt/sparc-linux-3.4.4/lib/gcc/sparc-linux/3.4.4/soft/v8/libgcc.a(_udivdi3.oS)
                0x00000000000a0ad8                __udivdi3
 .text          0x00000000000a0cbc      0x238 /opt/sparc-linux-3.4.4/lib/gcc/sparc-linux/3.4.4/soft/v8/libgcc.a(_umoddi3.oS)
                0x00000000000a0cc4                __umoddi3
 .text          0x00000000000a0ef4      0x2dc /opt/sparc-linux-3.4.4/lib/gcc/sparc-linux/3.4.4/soft/v8/libgcc.a(_addsub_sf.oS)
                0x00000000000a1178                __subsf3
                0x00000000000a112c                __addsf3
 .text          0x00000000000a11d0      0x1f0 /opt/sparc-linux-3.4.4/lib/gcc/sparc-linux/3.4.4/soft/v8/libgcc.a(_mul_sf.oS)
                0x00000000000a11d8                __mulsf3
 .text          0x00000000000a13c0       0xcc /opt/sparc-linux-3.4.4/lib/gcc/sparc-linux/3.4.4/soft/v8/libgcc.a(_si_to_sf.oS)
                0x00000000000a13c8                __floatsisf
 .text          0x00000000000a148c       0x50 /opt/sparc-linux-3.4.4/lib/gcc/sparc-linux/3.4.4/soft/v8/libgcc.a(_sf_to_df.oS)
                0x00000000000a148c                __extendsfdf2
 .text          0x00000000000a14dc      0x388 /opt/sparc-linux-3.4.4/lib/gcc/sparc-linux/3.4.4/soft/v8/libgcc.a(_addsub_df.oS)
                0x00000000000a17b8                __adddf3
                0x00000000000a1808                __subdf3
 .text          0x00000000000a1864      0x308 /opt/sparc-linux-3.4.4/lib/gcc/sparc-linux/3.4.4/soft/v8/libgcc.a(_mul_df.oS)
                0x00000000000a186c                __muldf3
 .text          0x00000000000a1b6c      0x218 /opt/sparc-linux-3.4.4/lib/gcc/sparc-linux/3.4.4/soft/v8/libgcc.a(_div_df.oS)
                0x00000000000a1b74                __divdf3
 .text          0x00000000000a1d84       0x64 /opt/sparc-linux-3.4.4/lib/gcc/sparc-linux/3.4.4/soft/v8/libgcc.a(_eq_df.oS)
                0x00000000000a1d84                __eqdf2
 .text          0x00000000000a1de8       0x64 /opt/sparc-linux-3.4.4/lib/gcc/sparc-linux/3.4.4/soft/v8/libgcc.a(_ne_df.oS)
                0x00000000000a1de8                __nedf2
 .text          0x00000000000a1e4c       0x64 /opt/sparc-linux-3.4.4/lib/gcc/sparc-linux/3.4.4/soft/v8/libgcc.a(_gt_df.oS)
                0x00000000000a1e4c                __gtdf2
 .text          0x00000000000a1eb0       0x64 /opt/sparc-linux-3.4.4/lib/gcc/sparc-linux/3.4.4/soft/v8/libgcc.a(_ge_df.oS)
                0x00000000000a1eb0                __gedf2
 .text          0x00000000000a1f14       0x64 /opt/sparc-linux-3.4.4/lib/gcc/sparc-linux/3.4.4/soft/v8/libgcc.a(_lt_df.oS)
                0x00000000000a1f14                __ltdf2
 .text          0x00000000000a1f78       0x64 /opt/sparc-linux-3.4.4/lib/gcc/sparc-linux/3.4.4/soft/v8/libgcc.a(_le_df.oS)
                0x00000000000a1f78                __ledf2
 .text          0x00000000000a1fdc      0x120 /opt/sparc-linux-3.4.4/lib/gcc/sparc-linux/3.4.4/soft/v8/libgcc.a(_si_to_df.oS)
                0x00000000000a1fe4                __floatsidf
 .text          0x00000000000a20fc       0x9c /opt/sparc-linux-3.4.4/lib/gcc/sparc-linux/3.4.4/soft/v8/libgcc.a(_df_to_si.oS)
                0x00000000000a20fc                __fixdfsi
 .text          0x00000000000a2198       0x2c /opt/sparc-linux-3.4.4/lib/gcc/sparc-linux/3.4.4/soft/v8/libgcc.a(_make_df.oS)
                0x00000000000a2198                __make_dp
 .text          0x00000000000a21c4      0x148 /opt/sparc-linux-3.4.4/lib/gcc/sparc-linux/3.4.4/soft/v8/libgcc.a(_pack_sf.oS)
                0x00000000000a21c4                __pack_f
 .text          0x00000000000a230c       0xd8 /opt/sparc-linux-3.4.4/lib/gcc/sparc-linux/3.4.4/soft/v8/libgcc.a(_unpack_sf.oS)
                0x00000000000a230c                __unpack_f
 .text          0x00000000000a23e4      0x200 /opt/sparc-linux-3.4.4/lib/gcc/sparc-linux/3.4.4/soft/v8/libgcc.a(_pack_df.oS)
                0x00000000000a23e4                __pack_d
 .text          0x00000000000a25e4      0x12c /opt/sparc-linux-3.4.4/lib/gcc/sparc-linux/3.4.4/soft/v8/libgcc.a(_unpack_df.oS)
                0x00000000000a25e4                __unpack_d
 .text          0x00000000000a2710      0x174 /opt/sparc-linux-3.4.4/lib/gcc/sparc-linux/3.4.4/soft/v8/libgcc.a(_fpcmp_parts_df.oS)
                0x00000000000a2710                __fpcmp_parts_d
 .text          0x00000000000a2884       0x58 /opt/sparc-linux-3.4.4/lib/gcc/sparc-linux/3.4.4/soft/v8/libgcc.a(_ashldi3.oS)
                0x00000000000a2884                __ashldi3
 .text          0x00000000000a28dc       0x88 /opt/sparc-linux-3.4.4/sparc-linux/lib/soft/v8/libc_nonshared.a(elf-init.oS)
                0x00000000000a295c                __libc_csu_fini
                0x00000000000a28e4                __libc_csu_init
 .text          0x00000000000a2964       0x44 /opt/sparc-linux-3.4.4/sparc-linux/lib/soft/v8/libc_nonshared.a(atexit.oS)
                0x00000000000a296c                atexit
 .text          0x00000000000a29a8       0x1c /opt/sparc-linux-3.4.4/sparc-linux/lib/soft/v8/libc_nonshared.a(stat64.oS)
                0x00000000000a29a8                stat64
 .text          0x00000000000a29c4       0x1c /opt/sparc-linux-3.4.4/sparc-linux/lib/soft/v8/libc_nonshared.a(lstat64.oS)
                0x00000000000a29c4                lstat64
 .text          0x00000000000a29e0       0x4c /opt/sparc-linux-3.4.4/lib/gcc/sparc-linux/3.4.4/soft/v8/crtend.o
 *(SORT(.text.*personality*))
 *(SORT(.gnu.warning))

.fini           0x00000000000a2a2c       0x14
 *(SORT(.fini))
 .fini          0x00000000000a2a2c        0x4 /opt/sparc-linux-3.4.4/lib/gcc/sparc-linux/3.4.4/soft/v8/crti.o
                0x00000000000a2a2c                _fini
 .fini          0x00000000000a2a30        0x8 /opt/sparc-linux-3.4.4/lib/gcc/sparc-linux/3.4.4/soft/v8/crtn.o
 .fini          0x00000000000a2a38        0x8 /opt/sparc-linux-3.4.4/lib/gcc/sparc-linux/3.4.4/soft/v8/crtbegin.o
                0x00000000000a2a40                PROVIDE (__etext, .)
                0x00000000000a2a40                PROVIDE (_etext, .)
                0x00000000000a2a40                PROVIDE (etext, .)

.rodata         0x00000000000a2a40    0x1e884
 *(SORT(.rodata) .rodata.* .gnu.linkonce.r.*)
 .rodata        0x00000000000a2a40       0x40 miscutils/lib.a(chrt.o)
 .rodata        0x00000000000a2a80       0x20 networking/lib.a(inetd.o)
 .rodata        0x00000000000a2aa0        0x8 util-linux/lib.a(fdisk.o)
 .rodata        0x00000000000a2aa8        0x8 archival/libunarchive/lib.a(get_header_tar.o)
 .rodata        0x00000000000a2ab0       0x48 coreutils/lib.a(ls.o)
 .rodata        0x00000000000a2af8       0x80 coreutils/lib.a(stty.o)
 .rodata        0x00000000000a2b78        0x8 coreutils/lib.a(tee.o)
 .rodata        0x00000000000a2b80       0x10 coreutils/lib.a(uniq.o)
 .rodata        0x00000000000a2b90       0x18 /opt/sparc-linux-3.4.4/lib/gcc/sparc-linux/3.4.4/soft/v8/libgcc.a(_thenan_df.oS)
                0x00000000000a2b90                __thenan_df
 .rodata        0x00000000000a2ba8      0x100 /opt/sparc-linux-3.4.4/lib/gcc/sparc-linux/3.4.4/soft/v8/libgcc.a(_clz.oS)
                0x00000000000a2ba8                __clz_tab
 .rodata.cst4   0x00000000000a2ca8        0x4 /opt/sparc-linux-3.4.4/lib/gcc/sparc-linux/3.4.4/../../../../sparc-linux/lib/soft/v8/crt1.o
                0x00000000000a2ca8                _IO_stdin_used
 *fill*         0x00000000000a2cac        0x4 00
 .rodata.str1.8
                0x00000000000a2cb0      0xc61 libbb/lib.a(appletlib.o)
                                        0xcc8 (size before relaxing)
 *fill*         0x00000000000a3911        0x3 00
 .rodata.applets
                0x00000000000a3914      0xc84 libbb/lib.a(appletlib.o)
                0x00000000000a3914                applets
 .rodata        0x00000000000a4598       0x44 loginutils/lib.a(getty.o)
 .rodata        0x00000000000a45dc       0x28 networking/lib.a(ifupdown.o)
 .rodata        0x00000000000a4604        0xc shell/lib.a(hush.o)
 .rodata        0x00000000000a4610       0x10 /opt/sparc-linux-3.4.4/lib/gcc/sparc-linux/3.4.4/soft/v8/libgcc.a(_thenan_sf.oS)
                0x00000000000a4610                __thenan_sf
 .rodata.packed_usage
                0x00000000000a4620     0x5a33 libbb/lib.a(appletlib.o)
 .rodata.usr_bin.0
                0x00000000000aa053        0x9 libbb/lib.a(appletlib.o)
 .rodata.usr_sbin.1
                0x00000000000aa05c        0xa libbb/lib.a(appletlib.o)
 *fill*         0x00000000000aa066        0x2 00
 .rodata.install_dir.2
                0x00000000000aa068       0x14 libbb/lib.a(appletlib.o)
 *fill*         0x00000000000aa07c        0x4 00
 .rodata.str1.8
                0x00000000000aa080        0xf libbb/lib.a(concat_path_file.o)
                                         0x18 (size before relaxing)
 .rodata.bb_path_wtmp_file
                0x00000000000aa08f        0xe libbb/lib.a(messages.o)
                0x00000000000aa08f                bb_path_wtmp_file
 *fill*         0x00000000000aa09d        0x3 00
 .rodata.const_int_0
                0x00000000000aa0a0        0x4 libbb/lib.a(messages.o)
                0x00000000000aa0a0                const_int_0
 .rodata.const_int_1
                0x00000000000aa0a4        0x4 libbb/lib.a(messages.o)
                0x00000000000aa0a4                const_int_1
 .rodata.bb_PATH_root_path
                0x00000000000aa0a8       0x23 libbb/lib.a(messages.o)
                0x00000000000aa0a8                bb_PATH_root_path
 .rodata.bb_default_login_shell
                0x00000000000aa0cb        0x9 libbb/lib.a(messages.o)
                0x00000000000aa0cb                bb_default_login_shell
 .rodata.bb_busybox_exec_path
                0x00000000000aa0d4        0xf libbb/lib.a(messages.o)
                0x00000000000aa0d4                bb_busybox_exec_path
 .rodata.bb_dev_null
                0x00000000000aa0e3        0xa libbb/lib.a(messages.o)
                0x00000000000aa0e3                bb_dev_null
 .rodata.bb_path_motd_file
                0x00000000000aa0ed        0xa libbb/lib.a(messages.o)
                0x00000000000aa0ed                bb_path_motd_file
 .rodata.bb_path_gshadow_file
                0x00000000000aa0f7        0xd libbb/lib.a(messages.o)
                0x00000000000aa0f7                bb_path_gshadow_file
 .rodata.bb_path_group_file
                0x00000000000aa104        0xb libbb/lib.a(messages.o)
                0x00000000000aa104                bb_path_group_file
 .rodata.bb_path_shadow_file
                0x00000000000aa10f        0xc libbb/lib.a(messages.o)
                0x00000000000aa10f                bb_path_shadow_file
 .rodata.bb_path_passwd_file
                0x00000000000aa11b        0xc libbb/lib.a(messages.o)
                0x00000000000aa11b                bb_path_passwd_file
 .rodata.bb_hexdigits_upcase
                0x00000000000aa127       0x11 libbb/lib.a(messages.o)
                0x00000000000aa127                bb_hexdigits_upcase
 .rodata.bb_str_default
                0x00000000000aa138        0x8 libbb/lib.a(messages.o)
                0x00000000000aa138                bb_str_default
 .rodata.bb_msg_standard_output
                0x00000000000aa140       0x10 libbb/lib.a(messages.o)
                0x00000000000aa140                bb_msg_standard_output
 .rodata.bb_msg_standard_input
                0x00000000000aa150        0xf libbb/lib.a(messages.o)
                0x00000000000aa150                bb_msg_standard_input
 .rodata.bb_msg_invalid_arg
                0x00000000000aa15f       0x1e libbb/lib.a(messages.o)
                0x00000000000aa15f                bb_msg_invalid_arg
 .rodata.bb_msg_requires_arg
                0x00000000000aa17d       0x18 libbb/lib.a(messages.o)
                0x00000000000aa17d                bb_msg_requires_arg
 .rodata.bb_msg_perm_denied_are_you_root
                0x00000000000aa195       0x23 libbb/lib.a(messages.o)
                0x00000000000aa195                bb_msg_perm_denied_are_you_root
 .rodata.bb_msg_can_not_create_raw_socket
                0x00000000000aa1b8       0x18 libbb/lib.a(messages.o)
                0x00000000000aa1b8                bb_msg_can_not_create_raw_socket
 .rodata.bb_msg_unknown
                0x00000000000aa1d0        0xa libbb/lib.a(messages.o)
                0x00000000000aa1d0                bb_msg_unknown
 .rodata.bb_msg_read_error
                0x00000000000aa1da        0xb libbb/lib.a(messages.o)
                0x00000000000aa1da                bb_msg_read_error
 .rodata.bb_msg_write_error
                0x00000000000aa1e5        0xc libbb/lib.a(messages.o)
                0x00000000000aa1e5                bb_msg_write_error
 .rodata.bb_msg_invalid_date
                0x00000000000aa1f1       0x12 libbb/lib.a(messages.o)
                0x00000000000aa1f1                bb_msg_invalid_date
 .rodata.bb_msg_memory_exhausted
                0x00000000000aa203       0x11 libbb/lib.a(messages.o)
                0x00000000000aa203                bb_msg_memory_exhausted
 .rodata.bb_banner
                0x00000000000aa214       0x29 libbb/lib.a(messages.o)
                0x00000000000aa214                bb_banner
 .rodata.str1.8
                0x00000000000aa23d        0x0 libbb/lib.a(perror_msg.o)
                                          0x8 (size before relaxing)
 .rodata.str1.8
                0x00000000000aa23d        0x0 libbb/lib.a(verror_msg.o)
                                         0x18 (size before relaxing)
 *fill*         0x00000000000aa23d        0x3 00
 .rodata.str1.8
                0x00000000000aa240      0x148 libbb/lib.a(xfuncs.o)
 .rodata.str1.8
                0x00000000000aa388       0x26 libbb/lib.a(xreadlink.o)
                                         0x28 (size before relaxing)
 *fill*         0x00000000000aa3ae        0x2 00
 .rodata.str1.8
                0x00000000000aa3b0        0xb libbb/lib.a(copyfd.o)
                                         0x10 (size before relaxing)
 .rodata.str1.8
                0x00000000000aa3bb        0x0 libbb/lib.a(perror_msg_and_die.o)
                                          0x8 (size before relaxing)
 .rodata.str1.8
                0x00000000000aa3bb        0x0 libbb/lib.a(read.o)
                                         0x18 (size before relaxing)
 *fill*         0x00000000000aa3bb        0x5 00
 .rodata.str1.8
                0x00000000000aa3c0       0x50 loginutils/lib.a(addgroup.o)
                                         0x88 (size before relaxing)
 .rodata.prog.0
                0x00000000000aa410        0x7 loginutils/lib.a(adduser.o)
 *fill*         0x00000000000aa417        0x1 00
 .rodata.str1.8
                0x00000000000aa418       0xea loginutils/lib.a(adduser.o)
                                        0x100 (size before relaxing)
 .rodata.chpasswd_longopts
                0x00000000000aa502       0x13 loginutils/lib.a(chpasswd.o)
 *fill*         0x00000000000aa515        0x3 00
 .rodata.str1.8
                0x00000000000aa518       0x72 loginutils/lib.a(chpasswd.o)
                                         0x80 (size before relaxing)
 *fill*         0x00000000000aa58a        0x6 00
 .rodata.str1.8
                0x00000000000aa590        0x3 loginutils/lib.a(cryptpw.o)
                                          0x8 (size before relaxing)
 *fill*         0x00000000000aa593        0x5 00
 .rodata.str1.8
                0x00000000000aa598       0x1e loginutils/lib.a(deluser.o)
                                         0x50 (size before relaxing)
 .rodata.init_chardata
                0x00000000000aa5b6        0x4 loginutils/lib.a(getty.o)
 .rodata.opt_string
                0x00000000000aa5ba       0x11 loginutils/lib.a(getty.o)
 *fill*         0x00000000000aa5cb        0x5 00
 .rodata.str1.8
                0x00000000000aa5d0      0x11a loginutils/lib.a(getty.o)
                                        0x150 (size before relaxing)
 .rodata.erase.0
                0x00000000000aa6ea        0xc loginutils/lib.a(getty.o)
 *fill*         0x00000000000aa6f6        0x2 00
 .rodata.str1.8
                0x00000000000aa6f8      0x1c4 loginutils/lib.a(login.o)
                                        0x1d0 (size before relaxing)
 *fill*         0x00000000000aa8bc        0x4 00
 .rodata.str1.8
                0x00000000000aa8c0      0x1b4 loginutils/lib.a(passwd.o)
                                        0x1d0 (size before relaxing)
 *fill*         0x00000000000aaa74        0x4 00
 .rodata.str1.8
                0x00000000000aaa78       0x70 loginutils/lib.a(su.o)
                                         0x78 (size before relaxing)
 .rodata.forbid
                0x00000000000aaae8       0x9b loginutils/lib.a(sulogin.o)
 *fill*         0x00000000000aab83        0x5 00
 .rodata.str1.8
                0x00000000000aab88       0xe0 loginutils/lib.a(sulogin.o)
 .rodata.str1.8
                0x00000000000aac68       0x69 loginutils/lib.a(vlock.o)
                                         0x88 (size before relaxing)
 *fill*         0x00000000000aacd1        0x7 00
 .rodata.ret_code_descript
                0x00000000000aacd8       0x88 miscutils/lib.a(adjtimex.o)
 .rodata.statlist_bit
                0x00000000000aad60       0x1c miscutils/lib.a(adjtimex.o)
 *fill*         0x00000000000aad7c        0x4 00
 .rodata.statlist_name
                0x00000000000aad80       0x60 miscutils/lib.a(adjtimex.o)
 .rodata.str1.8
                0x00000000000aade0      0x141 miscutils/lib.a(adjtimex.o)
                                        0x150 (size before relaxing)
 *fill*         0x00000000000aaf21        0x3 00
 .rodata.policies
                0x00000000000aaf24       0x30 miscutils/lib.a(chrt.o)
 *fill*         0x00000000000aaf54        0x4 00
 .rodata.str1.8
                0x00000000000aaf58       0xb2 miscutils/lib.a(chrt.o)
                                         0xb8 (size before relaxing)
 *fill*         0x00000000000ab00a        0x6 00
 .rodata.str1.8
                0x00000000000ab010      0x30c miscutils/lib.a(crond.o)
                                        0x328 (size before relaxing)
 .rodata.DowAry
                0x00000000000ab31c       0x16 miscutils/lib.a(crond.o)
 .rodata.MonAry
                0x00000000000ab332       0x25 miscutils/lib.a(crond.o)
 *fill*         0x00000000000ab357        0x1 00
 .rodata.str1.8
                0x00000000000ab358      0x157 miscutils/lib.a(crontab.o)
                                        0x1d8 (size before relaxing)
 *fill*         0x00000000000ab4af        0x1 00
 .rodata.operators
                0x00000000000ab4b0       0xb0 miscutils/lib.a(dc.o)
 .rodata.str1.8
                0x00000000000ab560       0x61 miscutils/lib.a(dc.o)
                                         0x68 (size before relaxing)
 *fill*         0x00000000000ab5c1        0x7 00
 .rodata.cst8   0x00000000000ab5c8        0x8 miscutils/lib.a(dc.o)
                                         0x28 (size before relaxing)
 .rodata.str1.8
                0x00000000000ab5d0       0x23 miscutils/lib.a(eject.o)
                                         0x30 (size before relaxing)
 .rodata.hdparm_options
                0x00000000000ab5f3       0x44 miscutils/lib.a(hdparm.o)
 .rodata.xfermode_val
                0x00000000000ab637       0x20 miscutils/lib.a(hdparm.o)
 .rodata.xfermode_name
                0x00000000000ab657       0xa0 miscutils/lib.a(hdparm.o)
 .rodata.secu_str
                0x00000000000ab6f7       0x52 miscutils/lib.a(hdparm.o)
 .rodata.cmd_feat_str
                0x00000000000ab749      0x34c miscutils/lib.a(hdparm.o)
 .rodata.ata1_cfg_str
                0x00000000000aba95      0x13e miscutils/lib.a(hdparm.o)
 .rodata.minor_str
                0x00000000000abbd3      0x3f8 miscutils/lib.a(hdparm.o)
 .rodata.actual_ver
                0x00000000000abfcb       0x24 miscutils/lib.a(hdparm.o)
 .rodata.pkt_str
                0x00000000000abfef      0x110 miscutils/lib.a(hdparm.o)
 .rodata.BuffType
                0x00000000000ac0ff       0x25 miscutils/lib.a(hdparm.o)
 .rodata.cfg_str
                0x00000000000ac124       0x92 miscutils/lib.a(hdparm.o)
 *fill*         0x00000000000ac1b6        0x2 00
 .rodata.str1.8
                0x00000000000ac1b8     0x1576 miscutils/lib.a(hdparm.o)
                                       0x15e0 (size before relaxing)
 *fill*         0x00000000000ad72e        0x2 00
 .rodata.cst4   0x00000000000ad730        0x8 miscutils/lib.a(hdparm.o)
 .rodata.str1.8
                0x00000000000ad738       0x5c miscutils/lib.a(last.o)
                                         0xa8 (size before relaxing)
 .rodata.controls
                0x00000000000ad794       0x21 miscutils/lib.a(less.o)
 .rodata.ctrlconv
                0x00000000000ad7b5       0x21 miscutils/lib.a(less.o)
 *fill*         0x00000000000ad7d6        0x2 00
 .rodata.str1.8
                0x00000000000ad7d8      0x294 miscutils/lib.a(less.o)
                                        0x2c8 (size before relaxing)
 *fill*         0x00000000000ada6c        0x4 00
 .rodata.str1.8
                0x00000000000ada70      0x155 miscutils/lib.a(makedevs.o)
                                        0x160 (size before relaxing)
 *fill*         0x00000000000adbc5        0x3 00
 .rodata.str1.8
                0x00000000000adbc8       0xaa miscutils/lib.a(microcom.o)
                                         0xc0 (size before relaxing)
 *fill*         0x00000000000adc72        0x6 00
 .rodata.str1.8
                0x00000000000adc78       0x66 miscutils/lib.a(mountpoint.o)
                                         0x70 (size before relaxing)
 .rodata.opcode_value
                0x00000000000adcde       0x44 miscutils/lib.a(mt.o)
 .rodata.opcode_name
                0x00000000000add22       0xd5 miscutils/lib.a(mt.o)
 *fill*         0x00000000000addf7        0x1 00
 .rodata.str1.8
                0x00000000000addf8       0x35 miscutils/lib.a(mt.o)
                                         0x48 (size before relaxing)
 *fill*         0x00000000000ade2d        0x3 00
 .rodata.str1.8
                0x00000000000ade30        0xd miscutils/lib.a(raidautorun.o)
                                         0x10 (size before relaxing)
 .rodata.str1.8
                0x00000000000ade3d        0x0 miscutils/lib.a(readahead.o)
                                          0x8 (size before relaxing)
 *fill*         0x00000000000ade3d        0x3 00
 .rodata.str1.8
                0x00000000000ade40        0x7 miscutils/lib.a(runlevel.o)
                                         0x10 (size before relaxing)
 *fill*         0x00000000000ade47        0x1 00
 .rodata.str1.8
                0x00000000000ade48      0x126 miscutils/lib.a(rx.o)
                                        0x138 (size before relaxing)
 *fill*         0x00000000000adf6e        0x2 00
 .rodata.str1.8
                0x00000000000adf70       0x1f miscutils/lib.a(strings.o)
                                         0x30 (size before relaxing)
 .rodata.posix_format
                0x00000000000adf8f       0x17 miscutils/lib.a(time.o)
 .rodata.long_format
                0x00000000000adfa6      0x2cb miscutils/lib.a(time.o)
 .rodata.default_format
                0x00000000000ae271       0x17 miscutils/lib.a(time.o)
 .rodata.str1.8
                0x00000000000ae288       0xf5 miscutils/lib.a(time.o)
                                        0x110 (size before relaxing)
 *fill*         0x00000000000ae37d        0x3 00
 .rodata.str1.8
                0x00000000000ae380        0x6 miscutils/lib.a(ttysize.o)
                                          0x8 (size before relaxing)
 .rodata.V.1    0x00000000000ae386        0x1 miscutils/lib.a(watchdog.o)
 *fill*         0x00000000000ae387        0x1 00
 .rodata.suffixes.0
                0x00000000000ae388       0x18 miscutils/lib.a(watchdog.o)
 .rodata.str1.8
                0x00000000000ae3a0        0x4 miscutils/lib.a(watchdog.o)
                                         0x18 (size before relaxing)
 *fill*         0x00000000000ae3a4        0x4 00
 .rodata.str1.8
                0x00000000000ae3a8       0xad modutils/lib.a(lsmod.o)
                                         0xd8 (size before relaxing)
 *fill*         0x00000000000ae455        0x3 00
 .rodata.str1.8
                0x00000000000ae458      0x261 modutils/lib.a(modprobe.o)
                                        0x298 (size before relaxing)
 *fill*         0x00000000000ae6b9        0x3 00
 .rodata.rm_a_dummy.0
                0x00000000000ae6bc       0x14 modutils/lib.a(modprobe.o)
 .rodata.str1.8
                0x00000000000ae6d0      0x286 networking/lib.a(arp.o)
                                        0x2a8 (size before relaxing)
 .rodata.options
                0x00000000000ae956       0x2e networking/lib.a(arp.o)
 *fill*         0x00000000000ae984        0x4 00
 .rodata.str1.8
                0x00000000000ae988      0x286 networking/lib.a(arping.o)
                                        0x298 (size before relaxing)
 *fill*         0x00000000000aec0e        0x2 00
 .rodata.str1.8
                0x00000000000aec10      0x119 networking/lib.a(dnsd.o)
                                        0x130 (size before relaxing)
 *fill*         0x00000000000aed29        0x7 00
 .rodata.str1.8
                0x00000000000aed30       0x8d networking/lib.a(ether-wake.o)
                                         0xa0 (size before relaxing)
 .rodata.ftpgetput_longopts
                0x00000000000aedbd       0x33 networking/lib.a(ftpgetput.o)
 .rodata.str1.8
                0x00000000000aedf0      0x127 networking/lib.a(ftpgetput.o)
                                        0x148 (size before relaxing)
 *fill*         0x00000000000aef17        0x1 00
 .rodata.str1.8
                0x00000000000aef18       0x17 networking/lib.a(hostname.o)
                                         0x28 (size before relaxing)
 .rodata.default_path_httpd_conf
                0x00000000000aef2f        0x5 networking/lib.a(httpd.o)
 .rodata.http_response_type
                0x00000000000aef34       0x14 networking/lib.a(httpd.o)
 .rodata.httpd_conf
                0x00000000000aef48        0xb networking/lib.a(httpd.o)
 .rodata.HTTP_200
                0x00000000000aef53       0x12 networking/lib.a(httpd.o)
 *fill*         0x00000000000aef65        0x3 00
 .rodata.str1.8
                0x00000000000aef68      0x6bc networking/lib.a(httpd.o)
                                        0x708 (size before relaxing)
 .rodata.http_response
                0x00000000000af624       0x50 networking/lib.a(httpd.o)
 .rodata.suffixTable.2
                0x00000000000af674       0x64 networking/lib.a(httpd.o)
 .rodata.RFC1123FMT.1
                0x00000000000af6d8       0x1a networking/lib.a(httpd.o)
 .rodata.request_GET.0
                0x00000000000af6f2        0x4 networking/lib.a(httpd.o)
 *fill*         0x00000000000af6f6        0x2 00
 .rodata.str1.8
                0x00000000000af6f8      0x1dd networking/lib.a(ifconfig.o)
                                        0x218 (size before relaxing)
 *fill*         0x00000000000af8d5        0x3 00
 .rodata.Arg1Opt
                0x00000000000af8d8       0x80 networking/lib.a(ifconfig.o)
 .rodata.OptArray
                0x00000000000af958       0xc0 networking/lib.a(ifconfig.o)
 .rodata.str1.8
                0x00000000000afa18      0x7ae networking/lib.a(ifupdown.o)
                                        0x838 (size before relaxing)
 *fill*         0x00000000000b01c6        0x2 00
 .rodata.addr_inet6
                0x00000000000b01c8        0xc networking/lib.a(ifupdown.o)
 .rodata.methods6
                0x00000000000b01d4       0x24 networking/lib.a(ifupdown.o)
 .rodata.addr_inet
                0x00000000000b01f8        0xc networking/lib.a(ifupdown.o)
 .rodata.methods
                0x00000000000b0204       0x54 networking/lib.a(ifupdown.o)
 .rodata.addr_fams.0
                0x00000000000b0258        0xc networking/lib.a(ifupdown.o)
 *fill*         0x00000000000b0264        0x4 00
 .rodata.str1.8
                0x00000000000b0268      0x2e8 networking/lib.a(inetd.o)
                                        0x320 (size before relaxing)
 .rodata.builtins
                0x00000000000b0550       0x84 networking/lib.a(inetd.o)
 *fill*         0x00000000000b05d4        0x4 00
 .rodata.str1.8
                0x00000000000b05d8      0x525 networking/lib.a(interface.o)
                                        0x578 (size before relaxing)
 *fill*         0x00000000000b0afd        0x3 00
 .rodata.ss_fmt
                0x00000000000b0b00        0xc networking/lib.a(interface.o)
 .rodata.if_port_text
                0x00000000000b0b0c       0x20 networking/lib.a(interface.o)
 .rodata.aftypes
                0x00000000000b0b2c       0x10 networking/lib.a(interface.o)
 .rodata.unspec_aftype
                0x00000000000b0b3c       0x2c networking/lib.a(interface.o)
 .rodata.inet6_aftype
                0x00000000000b0b68       0x2c networking/lib.a(interface.o)
 .rodata.inet_aftype
                0x00000000000b0b94       0x2c networking/lib.a(interface.o)
 .rodata.TRext  0x00000000000b0bc0        0xf networking/lib.a(interface.o)
 *fill*         0x00000000000b0bcf        0x1 00
 .rodata.hwtypes
                0x00000000000b0bd0       0x18 networking/lib.a(interface.o)
 .rodata.sit_hwtype
                0x00000000000b0be8       0x20 networking/lib.a(interface.o)
 .rodata.unspec_hwtype
                0x00000000000b0c08       0x20 networking/lib.a(interface.o)
 .rodata.ppp_hwtype
                0x00000000000b0c28       0x20 networking/lib.a(interface.o)
 .rodata.ether_hwtype
                0x00000000000b0c48       0x20 networking/lib.a(interface.o)
 .rodata.loop_hwtype
                0x00000000000b0c68       0x20 networking/lib.a(interface.o)
 .rodata.ife_print_flags_strs.1
                0x00000000000b0c88       0x6a networking/lib.a(interface.o)
 .rodata.ife_print_flags_mask.2
                0x00000000000b0cf2       0x1a networking/lib.a(interface.o)
 .rodata.keywords.0
                0x00000000000b0d0c       0x25 networking/lib.a(ip.o)
 .rodata.ipcalc_longopts
                0x00000000000b0d31       0x3e networking/lib.a(ipcalc.o)
 *fill*         0x00000000000b0d6f        0x1 00
 .rodata.str1.8
                0x00000000000b0d70       0xbd networking/lib.a(ipcalc.o)
                                         0xc0 (size before relaxing)
 *fill*         0x00000000000b0e2d        0x3 00
 .rodata.str1.8
                0x00000000000b0e30       0x37 networking/lib.a(isrv_identd.o)
                                         0x48 (size before relaxing)
 *fill*         0x00000000000b0e67        0x1 00
 .rodata.str1.8
                0x00000000000b0e68       0x86 networking/lib.a(nameif.o)
                                         0x98 (size before relaxing)
 *fill*         0x00000000000b0eee        0x2 00
 .rodata.str1.8
                0x00000000000b0ef0       0x27 networking/lib.a(nc.o)
                                         0x40 (size before relaxing)
 *fill*         0x00000000000b0f17        0x1 00
 .rodata.str1.8
                0x00000000000b0f18      0x520 networking/lib.a(netstat.o)
                                        0x560 (size before relaxing)
 .rodata.tcp_state
                0x00000000000b1438       0x30 networking/lib.a(netstat.o)
 .rodata.str1.8
                0x00000000000b1468       0x4e networking/lib.a(nslookup.o)
                                         0x50 (size before relaxing)
 *fill*         0x00000000000b14b6        0x2 00
 .rodata.str1.8
                0x00000000000b14b8      0x333 networking/lib.a(ping.o)
                                        0x348 (size before relaxing)
 *fill*         0x00000000000b17eb        0x5 00
 .rodata.str1.8
                0x00000000000b17f0       0x98 networking/lib.a(pscan.o)
                                         0xc0 (size before relaxing)
 .rodata.tbl_verb
                0x00000000000b1888       0x15 networking/lib.a(route.o)
 *fill*         0x00000000000b189d        0x3 00
 .rodata.flagvals
                0x00000000000b18a0       0x20 networking/lib.a(route.o)
 .rodata.flagchars
                0x00000000000b18c0        0x9 networking/lib.a(route.o)
 *fill*         0x00000000000b18c9        0x3 00
 .rodata.flags_ipvx
                0x00000000000b18cc       0x10 networking/lib.a(route.o)
 .rodata.tbl_ipvx
                0x00000000000b18dc       0x68 networking/lib.a(route.o)
 .rodata.tbl_hash_net_host
                0x00000000000b1944        0xf networking/lib.a(route.o)
 *fill*         0x00000000000b1953        0x5 00
 .rodata.str1.8
                0x00000000000b1958      0x2b2 networking/lib.a(route.o)
                                        0x2e0 (size before relaxing)
 *fill*         0x00000000000b1c0a        0x6 00
 .rodata.str1.8
                0x00000000000b1c10       0x85 networking/lib.a(slattach.o)
                                         0x90 (size before relaxing)
 .rodata.proto_names.0
                0x00000000000b1c95       0x22 networking/lib.a(slattach.o)
 .rodata.escapecharis
                0x00000000000b1cb7       0x17 networking/lib.a(telnet.o)
 *fill*         0x00000000000b1cce        0x2 00
 .rodata.str1.8
                0x00000000000b1cd0       0xfc networking/lib.a(telnet.o)
                                        0x128 (size before relaxing)
 *fill*         0x00000000000b1dcc        0x4 00
 .rodata.str1.8
                0x00000000000b1dd0       0x74 networking/lib.a(telnetd.o)
                                         0x88 (size before relaxing)
 .rodata.iacs_to_send.0
                0x00000000000b1e44        0xf networking/lib.a(telnetd.o)
 *fill*         0x00000000000b1e53        0x5 00
 .rodata.str1.8
                0x00000000000b1e58      0x179 networking/lib.a(tftp.o)
                                        0x1a8 (size before relaxing)
 *fill*         0x00000000000b1fd1        0x3 00
 .rodata.errcode_str.0
                0x00000000000b1fd4       0x24 networking/lib.a(tftp.o)
 .rodata.error_8.1
                0x00000000000b1ff8        0x8 networking/lib.a(tftp.o)
 .rodata.str1.8
                0x00000000000b2000      0x2fb networking/lib.a(traceroute.o)
                                        0x340 (size before relaxing)
 .rodata.name_types
                0x00000000000b22fb       0x4c networking/lib.a(vconfig.o)
 .rodata.cmds   0x00000000000b2347       0x50 networking/lib.a(vconfig.o)
 .rodata.conf_file_name
                0x00000000000b2397       0x16 networking/lib.a(vconfig.o)
 *fill*         0x00000000000b23ad        0x3 00
 .rodata.str1.8
                0x00000000000b23b0       0x2b networking/lib.a(vconfig.o)
                                         0x30 (size before relaxing)
 *fill*         0x00000000000b23db        0x5 00
 .rodata.str1.8
                0x00000000000b23e0      0x2ee networking/lib.a(wget.o)
                                        0x3a0 (size before relaxing)
 .rodata.keywords.0
                0x00000000000b26ce       0x33 networking/lib.a(wget.o)
 .rodata.wget_longopts.1
                0x00000000000b2701       0x6e networking/lib.a(wget.o)
 *fill*         0x00000000000b276f        0x1 00
 .rodata.str1.8
                0x00000000000b2770       0xd5 networking/lib.a(zcip.o)
                                         0xf0 (size before relaxing)
 .rodata.str1.8
                0x00000000000b2845        0x0 networking/lib.a(isrv.o)
                                         0x10 (size before relaxing)
 .rodata.ip_common_commands.0
                0x00000000000b2845       0x2b networking/libiproute/lib.a(ip_parse_common_args.o)
 .rodata.str1.8
                0x00000000000b2870       0x10 networking/libiproute/lib.a(ip_parse_common_args.o)
                                         0x18 (size before relaxing)
 .rodata.str1.8
                0x00000000000b2880      0x32b networking/libiproute/lib.a(ipaddress.o)
                                        0x360 (size before relaxing)
 .rodata.option.2
                0x00000000000b2bab       0x17 networking/libiproute/lib.a(ipaddress.o)
 .rodata.option.1
                0x00000000000b2bc2       0x39 networking/libiproute/lib.a(ipaddress.o)
 .rodata.commands.0
                0x00000000000b2bfb       0x20 networking/libiproute/lib.a(ipaddress.o)
 *fill*         0x00000000000b2c1b        0x5 00
 .rodata.str1.8
                0x00000000000b2c20       0xa3 networking/libiproute/lib.a(iplink.o)
                                        0x118 (size before relaxing)
 .rodata.keywords.0
                0x00000000000b2cc3       0x13 networking/libiproute/lib.a(iplink.o)
 .rodata.keywords.1
                0x00000000000b2cd6       0x30 networking/libiproute/lib.a(iplink.o)
 *fill*         0x00000000000b2d06        0x2 00
 .rodata.str1.8
                0x00000000000b2d08      0x1cb networking/libiproute/lib.a(iproute.o)
                                        0x270 (size before relaxing)
 .rodata.keywords.3
                0x00000000000b2ed3       0x43 networking/libiproute/lib.a(iproute.o)
 .rodata.fn.4   0x00000000000b2f16       0x1f networking/libiproute/lib.a(iproute.o)
 .rodata.ip_route_commands.0
                0x00000000000b2f35       0x47 networking/libiproute/lib.a(iproute.o)
 .rodata.options.1
                0x00000000000b2f7c       0x26 networking/libiproute/lib.a(iproute.o)
 .rodata.keywords.5
                0x00000000000b2fa2       0x2c networking/libiproute/lib.a(iproute.o)
 *fill*         0x00000000000b2fce        0x2 00
 .rodata.str1.8
                0x00000000000b2fd0       0xed networking/libiproute/lib.a(iprule.o)
                                        0x118 (size before relaxing)
 .rodata.ip_rule_commands.0
                0x00000000000b30bd       0x16 networking/libiproute/lib.a(iprule.o)
 .rodata.keywords.1
                0x00000000000b30d3       0x5f networking/libiproute/lib.a(iprule.o)
 *fill*         0x00000000000b3132        0x6 00
 .rodata.str1.8
                0x00000000000b3138      0x3a8 networking/libiproute/lib.a(iptunnel.o)
                                        0x410 (size before relaxing)
 .rodata.keywords.1
                0x00000000000b34e0       0x9b networking/libiproute/lib.a(iptunnel.o)
 .rodata.keywords.0
                0x00000000000b357b       0x21 networking/libiproute/lib.a(iptunnel.o)
 *fill*         0x00000000000b359c        0x4 00
 .rodata.str1.8
                0x00000000000b35a0      0x170 networking/libiproute/lib.a(libnetlink.o)
 .rodata.str1.8
                0x00000000000b3710       0x1f networking/libiproute/lib.a(ll_addr.o)
                                         0x28 (size before relaxing)
 *fill*         0x00000000000b372f        0x1 00
 .rodata.str1.8
                0x00000000000b3730       0x20 networking/libiproute/lib.a(ll_map.o)
                                         0x28 (size before relaxing)
 .rodata.arphrd_name.0
                0x00000000000b3750      0x178 networking/libiproute/lib.a(ll_types.o)
 .rodata.arphrd_type.1
                0x00000000000b38c8       0x7c networking/libiproute/lib.a(ll_types.o)
 *fill*         0x00000000000b3944        0x4 00
 .rodata.str1.8
                0x00000000000b3948        0x5 networking/libiproute/lib.a(ll_types.o)
                                          0x8 (size before relaxing)
 *fill*         0x00000000000b394d        0x3 00
 .rodata.str1.8
                0x00000000000b3950      0x150 networking/libiproute/lib.a(rt_names.o)
                                        0x198 (size before relaxing)
 .rodata.init_tab.10
                0x00000000000b3aa0       0x34 networking/libiproute/lib.a(rt_names.o)
 *fill*         0x00000000000b3ad4        0x4 00
 .rodata.str1.8
                0x00000000000b3ad8       0x51 networking/libiproute/lib.a(rtm_map.o)
                                         0x98 (size before relaxing)
 .rodata.keywords.0
                0x00000000000b3b29       0x61 networking/libiproute/lib.a(rtm_map.o)
 *fill*         0x00000000000b3b8a        0x6 00
 .rodata.str1.8
                0x00000000000b3b90      0x134 networking/libiproute/lib.a(utils.o)
                                        0x148 (size before relaxing)
 *fill*         0x00000000000b3cc4        0x4 00
 .rodata.str1.8
                0x00000000000b3cc8      0x234 networking/udhcp/lib.a(dhcpc.o)
                                        0x260 (size before relaxing)
 .rodata.udhcpc_longopts.0
                0x00000000000b3efc       0xc8 networking/udhcp/lib.a(dhcpc.o)
 *fill*         0x00000000000b3fc4        0x4 00
 .rodata.str1.8
                0x00000000000b3fc8       0xfb networking/udhcp/lib.a(dhcpd.o)
                                        0x118 (size before relaxing)
 *fill*         0x00000000000b40c3        0x5 00
 .rodata.str1.8
                0x00000000000b40c8       0x30 networking/udhcp/lib.a(dhcprelay.o)
 .rodata.dumpleases_longopts.0
                0x00000000000b40f8       0x1f networking/udhcp/lib.a(dumpleases.o)
 *fill*         0x00000000000b4117        0x1 00
 .rodata.str1.8
                0x00000000000b4118       0x98 networking/udhcp/lib.a(dumpleases.o)
                                         0xb0 (size before relaxing)
 .rodata.str1.8
                0x00000000000b41b0      0x191 networking/udhcp/lib.a(files.o)
                                        0x210 (size before relaxing)
 *fill*         0x00000000000b4341        0x3 00
 .rodata.keywords
                0x00000000000b4344      0x130 networking/udhcp/lib.a(files.o)
 *fill*         0x00000000000b4474        0x4 00
 .rodata.str1.8
                0x00000000000b4478       0x33 networking/udhcp/lib.a(leases.o)
                                         0x38 (size before relaxing)
 .rodata.udhcp_option_lengths
                0x00000000000b44ab        0xb networking/udhcp/lib.a(options.o)
                0x00000000000b44ab                udhcp_option_lengths
 .rodata.dhcp_options
                0x00000000000b44b6      0x1dc networking/udhcp/lib.a(options.o)
                0x00000000000b44b6                dhcp_options
 *fill*         0x00000000000b4692        0x6 00
 .rodata.str1.8
                0x00000000000b4698       0x71 networking/udhcp/lib.a(options.o)
                                         0x78 (size before relaxing)
 *fill*         0x00000000000b4709        0x7 00
 .rodata.str1.8
                0x00000000000b4710       0x30 networking/udhcp/lib.a(packet.o)
                                         0x48 (size before relaxing)
 .rodata.max_option_length
                0x00000000000b4740       0x10 networking/udhcp/lib.a(script.o)
 .rodata.str1.8
                0x00000000000b4750       0x8c networking/udhcp/lib.a(script.o)
                                         0xd0 (size before relaxing)
 *fill*         0x00000000000b47dc        0x4 00
 .rodata.str1.8
                0x00000000000b47e0       0x82 networking/udhcp/lib.a(serverpacket.o)
                                         0x88 (size before relaxing)
 *fill*         0x00000000000b4862        0x6 00
 .rodata.str1.8
                0x00000000000b4868       0x13 networking/udhcp/lib.a(signalpipe.o)
                                         0x18 (size before relaxing)
 *fill*         0x00000000000b487b        0x5 00
 .rodata.str1.8
                0x00000000000b4880       0x38 networking/udhcp/lib.a(socket.o)
                                         0x68 (size before relaxing)
 .rodata.str1.8
                0x00000000000b48b8       0x22 networking/udhcp/lib.a(arpping.o)
                                         0x28 (size before relaxing)
 *fill*         0x00000000000b48da        0x6 00
 .rodata.str1.8
                0x00000000000b48e0       0xc6 networking/udhcp/lib.a(clientpacket.o)
                                         0xc8 (size before relaxing)
 .rodata.MAC_BCAST_ADDR
                0x00000000000b49a6        0x6 networking/udhcp/lib.a(common.o)
                0x00000000000b49a6                MAC_BCAST_ADDR
 *fill*         0x00000000000b49ac        0x4 00
 .rodata.str1.8
                0x00000000000b49b0       0x90 procps/lib.a(free.o)
                                         0xa0 (size before relaxing)
 .rodata.str1.8
                0x00000000000b4a40       0xee procps/lib.a(fuser.o)
                                        0x110 (size before relaxing)
 *fill*         0x00000000000b4b2e        0x2 00
 .rodata.str1.8
                0x00000000000b4b30       0xab procps/lib.a(kill.o)
                                         0xb8 (size before relaxing)
 *fill*         0x00000000000b4bdb        0x1 00
 .rodata.init_functions
                0x00000000000b4bdc       0x30 procps/lib.a(nmeter.o)
 .rodata.options
                0x00000000000b4c0c        0xd procps/lib.a(nmeter.o)
 *fill*         0x00000000000b4c19        0x7 00
 .rodata.str1.8
                0x00000000000b4c20       0xee procps/lib.a(nmeter.o)
                                        0x120 (size before relaxing)
 *fill*         0x00000000000b4d0e        0x2 00
 .rodata.proc_name
                0x00000000000b4d10       0x18 procps/lib.a(nmeter.o)
 .rodata.str1.8
                0x00000000000b4d28        0x7 procps/lib.a(pgrep.o)
                                         0x30 (size before relaxing)
 *fill*         0x00000000000b4d2f        0x1 00
 .rodata.str1.8
                0x00000000000b4d30       0x16 procps/lib.a(pidof.o)
                                         0x28 (size before relaxing)
 *fill*         0x00000000000b4d46        0x2 00
 .rodata.str1.8
                0x00000000000b4d48       0x5a procps/lib.a(ps.o)
                                         0x68 (size before relaxing)
 .rodata.Xetpriority_msg.0
                0x00000000000b4da2        0xd procps/lib.a(renice.o)
 .rodata.opts.1
                0x00000000000b4daf        0x7 procps/lib.a(renice.o)
 *fill*         0x00000000000b4db6        0x2 00
 .rodata.str1.8
                0x00000000000b4db8       0x26 procps/lib.a(renice.o)
                                         0x28 (size before relaxing)
 .rodata.ERR_UNKNOWN_PARAMETER
                0x00000000000b4dde       0x1e procps/lib.a(sysctl.o)
 .rodata.PROC_SYS
                0x00000000000b4dfc        0xb procps/lib.a(sysctl.o)
 .rodata.ETC_SYSCTL_CONF
                0x00000000000b4e07       0x11 procps/lib.a(sysctl.o)
 .rodata.WARN_BAD_LINE
                0x00000000000b4e18       0x2c procps/lib.a(sysctl.o)
 .rodata.ERR_PRELOAD_FILE
                0x00000000000b4e44       0x25 procps/lib.a(sysctl.o)
 .rodata.ERR_UNKNOWN_WRITING
                0x00000000000b4e69       0x17 procps/lib.a(sysctl.o)
 .rodata.ERR_PERMISSION_DENIED
                0x00000000000b4e80       0x25 procps/lib.a(sysctl.o)
 .rodata.ERR_INVALID_KEY
                0x00000000000b4ea5       0x1e procps/lib.a(sysctl.o)
 .rodata.ERR_MALFORMED_SETTING
                0x00000000000b4ec3       0x1e procps/lib.a(sysctl.o)
 .rodata.ERR_NO_EQUALS
                0x00000000000b4ee1       0x2b procps/lib.a(sysctl.o)
 .rodata.ERR_UNKNOWN_READING
                0x00000000000b4f0c       0x17 procps/lib.a(sysctl.o)
 *fill*         0x00000000000b4f23        0x5 00
 .rodata.str1.8
                0x00000000000b4f28       0x13 procps/lib.a(sysctl.o)
                                         0x38 (size before relaxing)
 *fill*         0x00000000000b4f3b        0x5 00
 .rodata.str1.8
                0x00000000000b4f40      0x311 procps/lib.a(top.o)
                                        0x3f8 (size before relaxing)
 *fill*         0x00000000000b5251        0x7 00
 .rodata.str1.8
                0x00000000000b5258       0x73 procps/lib.a(uptime.o)
                                         0x88 (size before relaxing)
 *fill*         0x00000000000b52cb        0x5 00
 .rodata.str1.8
                0x00000000000b52d0       0x20 procps/lib.a(watch.o)
                                         0x30 (size before relaxing)
 .rodata.str1.8
                0x00000000000b52f0       0xe1 runit/lib.a(chpst.o)
                                        0x120 (size before relaxing)
 *fill*         0x00000000000b53d1        0x7 00
 .rodata.str1.8
                0x00000000000b53d8      0x381 runit/lib.a(runsv.o)
                                        0x3b0 (size before relaxing)
 *fill*         0x00000000000b5759        0x7 00
 .rodata.str1.8
                0x00000000000b5760      0x15d runit/lib.a(runsvdir.o)
                                        0x198 (size before relaxing)
 *fill*         0x00000000000b58bd        0x3 00
 .rodata.str1.8
                0x00000000000b58c0      0x375 runit/lib.a(sv.o)
                                        0x458 (size before relaxing)
 *fill*         0x00000000000b5c35        0x3 00
 .rodata.str1.8
                0x00000000000b5c38      0x5be runit/lib.a(svlogd.o)
                                        0x610 (size before relaxing)
 *fill*         0x00000000000b61f6        0x2 00
 .rodata.km_suffixes.0
                0x00000000000b61f8       0x18 runit/lib.a(svlogd.o)
 .rodata.mh_suffixes.1
                0x00000000000b6210       0x18 runit/lib.a(svlogd.o)
 .rodata.redir_table
                0x00000000000b6228       0x30 shell/lib.a(hush.o)
 .rodata.str1.8
                0x00000000000b6258      0x236 shell/lib.a(hush.o)
                                        0x2c0 (size before relaxing)
 *fill*         0x00000000000b648e        0x2 00
 .rodata.bltins
                0x00000000000b6490       0x68 shell/lib.a(hush.o)
 .rodata.reserved_list.2
                0x00000000000b64f8       0x84 shell/lib.a(hush.o)
 .rodata.version_str.0
                0x00000000000b657c       0x12 shell/lib.a(hush.o)
 *fill*         0x00000000000b658e        0x2 00
 .rodata.const_shell_ver.1
                0x00000000000b6590       0x14 shell/lib.a(hush.o)
 *fill*         0x00000000000b65a4        0x4 00
 .rodata.str1.8
                0x00000000000b65a8       0x66 sysklogd/lib.a(klogd.o)
                                         0x78 (size before relaxing)
 *fill*         0x00000000000b660e        0x2 00
 .rodata.str1.8
                0x00000000000b6610       0x39 sysklogd/lib.a(logger.o)
                                         0x50 (size before relaxing)
 *fill*         0x00000000000b6649        0x7 00
 .rodata.str1.8
                0x00000000000b6650       0x95 sysklogd/lib.a(logread.o)
                                         0xa0 (size before relaxing)
 *fill*         0x00000000000b66e5        0x3 00
 .rodata.str1.8
                0x00000000000b66e8      0x210 sysklogd/lib.a(syslogd.o)
                                        0x250 (size before relaxing)
 .rodata.init_data
                0x00000000000b68f8       0x48 sysklogd/lib.a(syslogd.o)
 .rodata.str1.8
                0x00000000000b6940       0x10 util-linux/lib.a(dmesg.o)
 .rodata.g_cmdoptions
                0x00000000000b6950      0x1b0 util-linux/lib.a(fbset.o)
 .rodata.str1.8
                0x00000000000b6b00      0x1aa util-linux/lib.a(fbset.o)
                                        0x1c8 (size before relaxing)
 *fill*         0x00000000000b6caa        0x6 00
 .rodata.cst8   0x00000000000b6cb0       0x28 util-linux/lib.a(fbset.o)
                                         0x30 (size before relaxing)
 .rodata.str1.8
                0x00000000000b6cd8      0x11a util-linux/lib.a(fdformat.o)
                                        0x140 (size before relaxing)
 .rodata.unable_to_read
                0x00000000000b6df2       0x14 util-linux/lib.a(fdisk.o)
 .rodata.unable_to_open
                0x00000000000b6e06        0xf util-linux/lib.a(fdisk.o)
 .rodata.unable_to_seek
                0x00000000000b6e15       0x12 util-linux/lib.a(fdisk.o)
 *fill*         0x00000000000b6e27        0x1 00
 .rodata.str1.8
                0x00000000000b6e28     0x1711 util-linux/lib.a(fdisk.o)
                                       0x1738 (size before relaxing)
 *fill*         0x00000000000b8539        0x3 00
 .rodata.i386_sys_types
                0x00000000000b853c       0xc4 util-linux/lib.a(fdisk.o)
 .rodata.msg_part_already_defined
                0x00000000000b8600       0x3d util-linux/lib.a(fdisk.o)
 .rodata.msg_building_new_label
                0x00000000000b863d       0x8f util-linux/lib.a(fdisk.o)
 .rodata.unable_to_write
                0x00000000000b86cc       0x13 util-linux/lib.a(fdisk.o)
 .rodata.str1.8
                0x00000000000b86df        0x0 util-linux/lib.a(freeramdisk.o)
                                          0x8 (size before relaxing)
 *fill*         0x00000000000b86df        0x1 00
 .rodata.str1.8
                0x00000000000b86e0      0x844 util-linux/lib.a(fsck_minix.o)
                                        0x8a8 (size before relaxing)
 .rodata.getopt_longopts
                0x00000000000b8f24       0x5f util-linux/lib.a(getopt.o)
 *fill*         0x00000000000b8f83        0x5 00
 .rodata.str1.8
                0x00000000000b8f88       0xd3 util-linux/lib.a(getopt.o)
                                         0xf0 (size before relaxing)
 *fill*         0x00000000000b905b        0x1 00
 .rodata.suffixes
                0x00000000000b905c       0x20 util-linux/lib.a(hexdump.o)
 *fill*         0x00000000000b907c        0x4 00
 .rodata.str1.8
                0x00000000000b9080      0x115 util-linux/lib.a(hexdump.o)
                                        0x120 (size before relaxing)
 *fill*         0x00000000000b9195        0x3 00
 .rodata.add_strings
                0x00000000000b9198       0x14 util-linux/lib.a(hexdump.o)
 .rodata.add_first
                0x00000000000b91ac        0xc util-linux/lib.a(hexdump.o)
 .rodata.hexdump_opts
                0x00000000000b91b8       0x10 util-linux/lib.a(hexdump.o)
 .rodata.str1.8
                0x00000000000b91c8       0xde util-linux/lib.a(hwclock.o)
                                         0xe8 (size before relaxing)
 .rodata.hwclock_longopts.0
                0x00000000000b92a6       0x35 util-linux/lib.a(hwclock.o)
 *fill*         0x00000000000b92db        0x5 00
 .rodata.str1.8
                0x00000000000b92e0       0xc4 util-linux/lib.a(ipcrm.o)
                                         0xd0 (size before relaxing)
 *fill*         0x00000000000b93a4        0x4 00
 .rodata.str1.8
                0x00000000000b93a8      0xa0e util-linux/lib.a(ipcs.o)
                                        0xa48 (size before relaxing)
 *fill*         0x00000000000b9db6        0x2 00
 .rodata.str1.8
                0x00000000000b9db8       0x2d util-linux/lib.a(losetup.o)
                                         0x38 (size before relaxing)
 *fill*         0x00000000000b9de5        0x3 00
 .rodata.str1.8
                0x00000000000b9de8       0xb5 util-linux/lib.a(mdev.o)
                                        0x108 (size before relaxing)
 *fill*         0x00000000000b9e9d        0x3 00
 .rodata.str1.8
                0x00000000000b9ea0      0x270 util-linux/lib.a(mkfs_minix.o)
                                        0x2d8 (size before relaxing)
 .rodata.str1.8
                0x00000000000ba110       0x43 util-linux/lib.a(mkswap.o)
                                         0x48 (size before relaxing)
 *fill*         0x00000000000ba153        0x5 00
 .rodata.str1.8
                0x00000000000ba158       0x6d util-linux/lib.a(more.o)
                                         0x90 (size before relaxing)
 *fill*         0x00000000000ba1c5        0x3 00
 .rodata.mount_options
                0x00000000000ba1c8       0x7c util-linux/lib.a(mount.o)
 *fill*         0x00000000000ba244        0x4 00
 .rodata.mount_option_str
                0x00000000000ba248       0xd0 util-linux/lib.a(mount.o)
 .rodata.nfs_errtbl
                0x00000000000ba318       0x50 util-linux/lib.a(mount.o)
 .rodata.str1.8
                0x00000000000ba368      0x2ff util-linux/lib.a(mount.o)
                                        0x368 (size before relaxing)
 .rodata.options.0
                0x00000000000ba667       0xa1 util-linux/lib.a(mount.o)
 .rodata.options.1
                0x00000000000ba708       0x30 util-linux/lib.a(mount.o)
 .rodata.filesystems.2
                0x00000000000ba738       0x24 util-linux/lib.a(mount.o)
 *fill*         0x00000000000ba75c        0x4 00
 .rodata.str1.8
                0x00000000000ba760       0x97 util-linux/lib.a(rdate.o)
                                         0xb8 (size before relaxing)
 .rodata.defaultmap
                0x00000000000ba7f7       0x11 util-linux/lib.a(readprofile.o)
 .rodata.defaultpro
                0x00000000000ba808        0xe util-linux/lib.a(readprofile.o)
 *fill*         0x00000000000ba816        0x2 00
 .rodata.str1.8
                0x00000000000ba818      0x1bf util-linux/lib.a(readprofile.o)
                                        0x1d0 (size before relaxing)
 .rodata.cst8   0x00000000000ba9d7        0x0 util-linux/lib.a(readprofile.o)
                                          0x8 (size before relaxing)
 *fill*         0x00000000000ba9d7        0x1 00
 .rodata.str1.8
                0x00000000000ba9d8        0x5 util-linux/lib.a(swaponoff.o)
                                         0x28 (size before relaxing)
 *fill*         0x00000000000ba9dd        0x3 00
 .rodata.str1.8
                0x00000000000ba9e0       0x5c util-linux/lib.a(switch_root.o)
                                         0x78 (size before relaxing)
 *fill*         0x00000000000baa3c        0x4 00
 .rodata.str1.8
                0x00000000000baa40       0x91 util-linux/lib.a(umount.o)
                                         0xa0 (size before relaxing)
 *fill*         0x00000000000baad1        0x7 00
 .rodata.str1.8
                0x00000000000baad8       0x79 archival/lib.a(ar.o)
                                         0x80 (size before relaxing)
 .rodata.msg_unsupported_err.0
                0x00000000000bab51       0x1c archival/lib.a(ar.o)
 *fill*         0x00000000000bab6d        0x3 00
 .rodata.str1.8
                0x00000000000bab70       0xa3 archival/lib.a(bbunzip.o)
                                         0xb0 (size before relaxing)
 *fill*         0x00000000000bac13        0x1 00
 .rodata.incs   0x00000000000bac14       0x38 archival/lib.a(bzip2.o)
 *fill*         0x00000000000bac4c        0x4 00
 .rodata.str1.8
                0x00000000000bac50       0x49 archival/lib.a(bzip2.o)
                                         0x70 (size before relaxing)
 *fill*         0x00000000000bac99        0x7 00
 .rodata.str1.8
                0x00000000000baca0        0x9 archival/lib.a(cpio.o)
                                         0x10 (size before relaxing)
 .rodata.extra_blbits
                0x00000000000baca9       0x13 archival/lib.a(gzip.o)
 .rodata.extra_dbits
                0x00000000000bacbc       0x1e archival/lib.a(gzip.o)
 .rodata.extra_lbits
                0x00000000000bacda       0x1d archival/lib.a(gzip.o)
 .rodata.bl_order
                0x00000000000bacf7       0x13 archival/lib.a(gzip.o)
 *fill*         0x00000000000bad0a        0x6 00
 .rodata.str1.8
                0x00000000000bad10       0x17 archival/lib.a(gzip.o)
                                         0x18 (size before relaxing)
 *fill*         0x00000000000bad27        0x1 00
 .rodata.str1.8
                0x00000000000bad28      0x1d3 archival/lib.a(rpm.o)
                                        0x1f0 (size before relaxing)
 *fill*         0x00000000000baefb        0x5 00
 .rodata.str1.8
                0x00000000000baf00       0x73 archival/lib.a(rpm2cpio.o)
                                         0x90 (size before relaxing)
 .rodata.tar_longopts
                0x00000000000baf73       0xdd archival/lib.a(tar.o)
 .rodata.str1.8
                0x00000000000bb050      0x1a1 archival/lib.a(tar.o)
                                        0x200 (size before relaxing)
 .rodata.prefilled.1
                0x00000000000bb1f1       0x30 archival/lib.a(tar.o)
 *fill*         0x00000000000bb221        0x7 00
 .rodata.str1.8
                0x00000000000bb228      0x26c archival/lib.a(unzip.o)
                                        0x278 (size before relaxing)
 .rodata.extn.0
                0x00000000000bb494        0xf archival/lib.a(unzip.o)
 *fill*         0x00000000000bb4a3        0x5 00
 .rodata.str1.8
                0x00000000000bb4a8       0xe6 archival/libunarchive/lib.a(data_extract_all.o)
                                         0xe8 (size before relaxing)
 *fill*         0x00000000000bb58e        0x2 00
 .rodata.str1.8
                0x00000000000bb590       0x20 archival/libunarchive/lib.a(decompress_bunzip2.o)
                                         0x30 (size before relaxing)
 .rodata.str1.8
                0x00000000000bb5b0       0x92 archival/libunarchive/lib.a(decompress_uncompress.o)
                                         0xa8 (size before relaxing)
 *fill*         0x00000000000bb642        0x6 00
 .rodata.str1.8
                0x00000000000bb648       0x1b archival/libunarchive/lib.a(decompress_unlzma.o)
                                         0x20 (size before relaxing)
 *fill*         0x00000000000bb663        0x1 00
 .rodata.mask_bits
                0x00000000000bb664       0x22 archival/libunarchive/lib.a(decompress_unzip.o)
 .rodata.border
                0x00000000000bb686       0x13 archival/libunarchive/lib.a(decompress_unzip.o)
 .rodata.cpdext
                0x00000000000bb699       0x1e archival/libunarchive/lib.a(decompress_unzip.o)
 *fill*         0x00000000000bb6b7        0x1 00
 .rodata.cpdist
                0x00000000000bb6b8       0x3c archival/libunarchive/lib.a(decompress_unzip.o)
 .rodata.cplext
                0x00000000000bb6f4       0x1f archival/libunarchive/lib.a(decompress_unzip.o)
 *fill*         0x00000000000bb713        0x1 00
 .rodata.cplens
                0x00000000000bb714       0x3e archival/libunarchive/lib.a(decompress_unzip.o)
 *fill*         0x00000000000bb752        0x6 00
 .rodata.str1.8
                0x00000000000bb758       0x39 archival/libunarchive/lib.a(decompress_unzip.o)
                                         0x68 (size before relaxing)
 *fill*         0x00000000000bb791        0x7 00
 .rodata.str1.8
                0x00000000000bb798       0x3b archival/libunarchive/lib.a(get_header_ar.o)
                                         0x40 (size before relaxing)
 *fill*         0x00000000000bb7d3        0x5 00
 .rodata.str1.8
                0x00000000000bb7d8       0xf0 archival/libunarchive/lib.a(get_header_cpio.o)
 .rodata.str1.8
                0x00000000000bb8c8       0xc9 archival/libunarchive/lib.a(get_header_tar.o)
                                         0xd0 (size before relaxing)
 .rodata.str1.8
                0x00000000000bb991        0x0 archival/libunarchive/lib.a(get_header_tar_gz.o)
                                         0x18 (size before relaxing)
 *fill*         0x00000000000bb991        0x7 00
 .rodata.str1.8
                0x00000000000bb998       0x37 archival/libunarchive/lib.a(header_verbose_list.o)
                                         0x38 (size before relaxing)
 *fill*         0x00000000000bb9cf        0x1 00
 .rodata.str1.8
                0x00000000000bb9d0        0xc archival/libunarchive/lib.a(open_transformer.o)
                                         0x10 (size before relaxing)
 *fill*         0x00000000000bb9dc        0x4 00
 .rodata.str1.8
                0x00000000000bb9e0        0xd archival/libunarchive/lib.a(seek_by_jump.o)
                                         0x10 (size before relaxing)
 *fill*         0x00000000000bb9ed        0x3 00
 .rodata.str1.8
                0x00000000000bb9f0       0x15 archival/libunarchive/lib.a(archive_xread_all_eof.o)
                                         0x18 (size before relaxing)
 *fill*         0x00000000000bba05        0x3 00
 .rodata.str1.8
                0x00000000000bba08       0x1e console-tools/lib.a(chvt.o)
                                         0x20 (size before relaxing)
 .rodata.str1.8
                0x00000000000bba26        0x0 console-tools/lib.a(clear.o)
                                          0x8 (size before relaxing)
 *fill*         0x00000000000bba26        0x2 00
 .rodata.str1.8
                0x00000000000bba28        0xf console-tools/lib.a(deallocvt.o)
                                         0x10 (size before relaxing)
 *fill*         0x00000000000bba37        0x1 00
 .rodata.str1.8
                0x00000000000bba38       0x35 console-tools/lib.a(dumpkmap.o)
                                         0x38 (size before relaxing)
 *fill*         0x00000000000bba6d        0x3 00
 .rodata.opts.0
                0x00000000000bba70        0x8 console-tools/lib.a(kbd_mode.o)
 .rodata.str1.8
                0x00000000000bba78       0x64 console-tools/lib.a(kbd_mode.o)
                                         0x70 (size before relaxing)
 *fill*         0x00000000000bbadc        0x4 00
 .rodata.str1.8
                0x00000000000bbae0       0xc4 console-tools/lib.a(loadfont.o)
                                         0xd8 (size before relaxing)
 *fill*         0x00000000000bbba4        0x4 00
 .rodata.str1.8
                0x00000000000bbba8       0x22 console-tools/lib.a(loadkmap.o)
                                         0x40 (size before relaxing)
 *fill*         0x00000000000bbbca        0x6 00
 .rodata.str1.8
                0x00000000000bbbd0        0xb console-tools/lib.a(openvt.o)
                                         0x10 (size before relaxing)
 *fill*         0x00000000000bbbdb        0x5 00
 .rodata.str1.8
                0x00000000000bbbe0       0x13 console-tools/lib.a(reset.o)
                                         0x18 (size before relaxing)
 *fill*         0x00000000000bbbf3        0x5 00
 .rodata.str1.8
                0x00000000000bbbf8       0x5b console-tools/lib.a(resize.o)
                                         0x60 (size before relaxing)
 .rodata.setconsole_longopts
                0x00000000000bbc53        0x9 console-tools/lib.a(setconsole.o)
 *fill*         0x00000000000bbc5c        0x4 00
 .rodata.str1.8
                0x00000000000bbc60        0x9 console-tools/lib.a(setconsole.o)
                                         0x38 (size before relaxing)
 *fill*         0x00000000000bbc69        0x7 00
 .rodata.str1.8
                0x00000000000bbc70       0x28 console-tools/lib.a(setkeycodes.o)
 .rodata.str1.8
                0x00000000000bbc98       0x1a console-tools/lib.a(setlogcons.o)
                                         0x20 (size before relaxing)
 .rodata.days_in_month
                0x00000000000bbcb2        0xd coreutils/lib.a(cal.o)
 .rodata.sep1752
                0x00000000000bbcbf       0x13 coreutils/lib.a(cal.o)
 *fill*         0x00000000000bbcd2        0x6 00
 .rodata.str1.8
                0x00000000000bbcd8       0x4e coreutils/lib.a(cal.o)
                                         0x68 (size before relaxing)
 .rodata.str1.8
                0x00000000000bbd26        0x0 coreutils/lib.a(cat.o)
                                         0x10 (size before relaxing)
 *fill*         0x00000000000bbd26        0x2 00
 .rodata.argv_dash.0
                0x00000000000bbd28        0x8 coreutils/lib.a(cat.o)
 .rodata.str1.8
                0x00000000000bbd30       0x1c coreutils/lib.a(catv.o)
                                         0x20 (size before relaxing)
 .rodata.str1.8
                0x00000000000bbd4c        0x0 coreutils/lib.a(chgrp.o)
                                          0x8 (size before relaxing)
 *fill*         0x00000000000bbd4c        0x4 00
 .rodata.str1.8
                0x00000000000bbd50       0x1b coreutils/lib.a(chmod.o)
                                         0x28 (size before relaxing)
 *fill*         0x00000000000bbd6b        0x5 00
 .rodata.str1.8
                0x00000000000bbd70        0x3 coreutils/lib.a(chown.o)
                                         0x10 (size before relaxing)
 *fill*         0x00000000000bbd73        0x5 00
 .rodata.str1.8
                0x00000000000bbd78       0x42 coreutils/lib.a(chroot.o)
                                         0x58 (size before relaxing)
 *fill*         0x00000000000bbdba        0x6 00
 .rodata.str1.8
                0x00000000000bbdc0       0x18 coreutils/lib.a(cksum.o)
 .rodata.str1.8
                0x00000000000bbdd8        0xc coreutils/lib.a(comm.o)
                                         0x18 (size before relaxing)
 *fill*         0x00000000000bbde4        0x4 00
 .rodata.str1.8
                0x00000000000bbde8       0x2d coreutils/lib.a(cp.o)
                                         0x30 (size before relaxing)
 .rodata._op_on_field
                0x00000000000bbe15       0x1f coreutils/lib.a(cut.o)
 .rodata.optstring
                0x00000000000bbe34        0xb coreutils/lib.a(cut.o)
 *fill*         0x00000000000bbe3f        0x1 00
 .rodata.str1.8
                0x00000000000bbe40      0x132 coreutils/lib.a(cut.o)
                                        0x150 (size before relaxing)
 *fill*         0x00000000000bbf72        0x6 00
 .rodata.str1.8
                0x00000000000bbf78      0x112 coreutils/lib.a(date.o)
                                        0x140 (size before relaxing)
 *fill*         0x00000000000bc08a        0x2 00
 .rodata.isoformats.0
                0x00000000000bc08c       0x10 coreutils/lib.a(date.o)
 .rodata.dd_suffixes
                0x00000000000bc09c       0x58 coreutils/lib.a(dd.o)
 *fill*         0x00000000000bc0f4        0x4 00
 .rodata.str1.8
                0x00000000000bc0f8       0x45 coreutils/lib.a(dd.o)
                                         0x48 (size before relaxing)
 .rodata.keywords.0
                0x00000000000bc13d       0x45 coreutils/lib.a(dd.o)
 *fill*         0x00000000000bc182        0x6 00
 .rodata.str1.8
                0x00000000000bc188       0xd2 coreutils/lib.a(df.o)
                                         0xf0 (size before relaxing)
 *fill*         0x00000000000bc25a        0x6 00
 .rodata.str1.8
                0x00000000000bc260       0x43 coreutils/lib.a(dos2unix.o)
                                         0x58 (size before relaxing)
 *fill*         0x00000000000bc2a3        0x5 00
 .rodata.str1.8
                0x00000000000bc2a8       0x45 coreutils/lib.a(du.o)
                                         0x58 (size before relaxing)
 *fill*         0x00000000000bc2ed        0x3 00
 .rodata.str1.8
                0x00000000000bc2f0        0x4 coreutils/lib.a(echo.o)
                                          0x8 (size before relaxing)
 .rodata.env_longopts
                0x00000000000bc2f4       0x1e coreutils/lib.a(env.o)
 *fill*         0x00000000000bc312        0x6 00
 .rodata.str1.8
                0x00000000000bc318       0x17 coreutils/lib.a(env.o)
                                         0x18 (size before relaxing)
 .rodata.expand_longopts.0
                0x00000000000bc32f       0x12 coreutils/lib.a(expand.o)
 .rodata.unexpand_longopts.1
                0x00000000000bc341       0x1b coreutils/lib.a(expand.o)
 *fill*         0x00000000000bc35c        0x4 00
 .rodata.str1.8
                0x00000000000bc360       0x1d coreutils/lib.a(expand.o)
                                         0x28 (size before relaxing)
 *fill*         0x00000000000bc37d        0x3 00
 .rodata.str1.8
                0x00000000000bc380      0x126 coreutils/lib.a(expr.o)
                                        0x180 (size before relaxing)
 .rodata.keywords.0
                0x00000000000bc4a6       0x21 coreutils/lib.a(expr.o)
 *fill*         0x00000000000bc4c7        0x1 00
 .rodata.str1.8
                0x00000000000bc4c8        0xd coreutils/lib.a(fold.o)
                                         0x18 (size before relaxing)
 .rodata.header_fmt_str
                0x00000000000bc4d5        0xd coreutils/lib.a(head.o)
 *fill*         0x00000000000bc4e2        0x2 00
 .rodata.head_suffixes
                0x00000000000bc4e4       0x20 coreutils/lib.a(head.o)
 .rodata.head_opts
                0x00000000000bc504        0x7 coreutils/lib.a(head.o)
 .rodata.str1.8
                0x00000000000bc50b        0x0 coreutils/lib.a(head.o)
                                          0x8 (size before relaxing)
 *fill*         0x00000000000bc50b        0x5 00
 .rodata.str1.8
                0x00000000000bc510        0x5 coreutils/lib.a(hostid.o)
                                          0x8 (size before relaxing)
 *fill*         0x00000000000bc515        0x3 00
 .rodata.str1.8
                0x00000000000bc518       0x35 coreutils/lib.a(id.o)
                                         0x40 (size before relaxing)
 .rodata.install_longopts
                0x00000000000bc54d       0x42 coreutils/lib.a(install.o)
 *fill*         0x00000000000bc58f        0x1 00
 .rodata.str1.8
                0x00000000000bc590       0x7e coreutils/lib.a(install.o)
                                         0x80 (size before relaxing)
 .rodata.str1.8
                0x00000000000bc60e        0x0 coreutils/lib.a(length.o)
                                          0x8 (size before relaxing)
 *fill*         0x00000000000bc60e        0x2 00
 .rodata.str1.8
                0x00000000000bc610        0x7 coreutils/lib.a(ln.o)
                                         0x18 (size before relaxing)
 *fill*         0x00000000000bc617        0x1 00
 .rodata.str1.8
                0x00000000000bc618        0x9 coreutils/lib.a(logname.o)
                                         0x10 (size before relaxing)
 *fill*         0x00000000000bc621        0x3 00
 .rodata.opt_flags
                0x00000000000bc624       0x70 coreutils/lib.a(ls.o)
 .rodata.ls_options
                0x00000000000bc694       0x1e coreutils/lib.a(ls.o)
 .rodata.ls_color_opt
                0x00000000000bc6b2        0x9 coreutils/lib.a(ls.o)
 *fill*         0x00000000000bc6bb        0x5 00
 .rodata.str1.8
                0x00000000000bc6c0       0xc6 coreutils/lib.a(ls.o)
                                        0x100 (size before relaxing)
 *fill*         0x00000000000bc786        0x2 00
 .rodata.dotdir.0
                0x00000000000bc788        0x4 coreutils/lib.a(ls.o)
 *fill*         0x00000000000bc78c        0x4 00
 .rodata.str1.8
                0x00000000000bc790       0xf0 coreutils/lib.a(md5_sha1_sum.o)
                                        0x110 (size before relaxing)
 .rodata.mkdir_longopts
                0x00000000000bc880       0x12 coreutils/lib.a(mkdir.o)
 *fill*         0x00000000000bc892        0x6 00
 .rodata.str1.8
                0x00000000000bc898       0x1a coreutils/lib.a(mkdir.o)
                                         0x20 (size before relaxing)
 *fill*         0x00000000000bc8b2        0x2 00
 .rodata.modes_cubp
                0x00000000000bc8b4        0xc coreutils/lib.a(mknod.o)
 .rodata.modes_chars
                0x00000000000bc8c0        0x8 coreutils/lib.a(mknod.o)
 .rodata.fmt    0x00000000000bc8c8       0x2e coreutils/lib.a(mv.o)
 .rodata.mv_longopts
                0x00000000000bc8f6       0x17 coreutils/lib.a(mv.o)
 *fill*         0x00000000000bc90d        0x3 00
 .rodata.str1.8
                0x00000000000bc910       0x5b coreutils/lib.a(mv.o)
                                         0x70 (size before relaxing)
 *fill*         0x00000000000bc96b        0x5 00
 .rodata.str1.8
                0x00000000000bc970       0x10 coreutils/lib.a(nice.o)
                                         0x18 (size before relaxing)
 .rodata.str1.8
                0x00000000000bc980       0x20 coreutils/lib.a(nohup.o)
                                         0x28 (size before relaxing)
 .rodata.od_o2si
                0x00000000000bc9a0       0x13 coreutils/lib.a(od.o)
 *fill*         0x00000000000bc9b3        0x5 00
 .rodata.str1.8
                0x00000000000bc9b8      0x18e coreutils/lib.a(od.o)
                                        0x190 (size before relaxing)
 *fill*         0x00000000000bcb46        0x2 00
 .rodata.add_strings
                0x00000000000bcb48       0x34 coreutils/lib.a(od.o)
 .rodata.od_opts
                0x00000000000bcb7c       0x15 coreutils/lib.a(od.o)
 *fill*         0x00000000000bcb91        0x7 00
 .rodata.str1.8
                0x00000000000bcb98        0x5 coreutils/lib.a(printf.o)
                                         0x18 (size before relaxing)
 .rodata.str1.8
                0x00000000000bcb9d        0x0 coreutils/lib.a(readlink.o)
                                         0x10 (size before relaxing)
 *fill*         0x00000000000bcb9d        0x3 00
 .rodata.str1.8
                0x00000000000bcba0       0x2a coreutils/lib.a(rm.o)
                                         0x30 (size before relaxing)
 .rodata.str1.8
                0x00000000000bcbca        0x0 coreutils/lib.a(rmdir.o)
                                         0x10 (size before relaxing)
 .rodata.str1.8
                0x00000000000bcbca        0x0 coreutils/lib.a(seq.o)
                                          0x8 (size before relaxing)
 *fill*         0x00000000000bcbca        0x6 00
 .rodata.cst8   0x00000000000bcbd0        0x8 coreutils/lib.a(seq.o)
                                         0x10 (size before relaxing)
 .rodata.sfx    0x00000000000bcbd8       0x28 coreutils/lib.a(sleep.o)
 .rodata.OPT_STR
                0x00000000000bcc00       0x18 coreutils/lib.a(sort.o)
 .rodata.str1.8
                0x00000000000bcc18       0x87 coreutils/lib.a(sort.o)
                                         0xa0 (size before relaxing)
 .rodata.cst8   0x00000000000bcc9f        0x0 coreutils/lib.a(sort.o)
                                         0x10 (size before relaxing)
 *fill*         0x00000000000bcc9f        0x1 00
 .rodata.split_suffices
                0x00000000000bcca0       0x28 coreutils/lib.a(split.o)
 .rodata.str1.8
                0x00000000000bccc8       0x33 coreutils/lib.a(split.o)
                                         0x48 (size before relaxing)
 *fill*         0x00000000000bccfb        0x5 00
 .rodata.str1.8
                0x00000000000bcd00      0x4ce coreutils/lib.a(stat.o)
                                        0x528 (size before relaxing)
 *fill*         0x00000000000bd1ce        0x2 00
 .rodata.humantypes.0
                0x00000000000bd1d0      0x120 coreutils/lib.a(stat.o)
 .rodata.stty_suffixes
                0x00000000000bd2f0       0x20 coreutils/lib.a(stty.o)
 .rodata.mode_info
                0x00000000000bd310      0x6a4 coreutils/lib.a(stty.o)
 .rodata.control_info
                0x00000000000bd9b4       0xa2 coreutils/lib.a(stty.o)
 .rodata.tcflag_offsets.0
                0x00000000000bda56        0x4 coreutils/lib.a(stty.o)
 *fill*         0x00000000000bda5a        0x6 00
 .rodata.str1.8
                0x00000000000bda60      0x1ac coreutils/lib.a(stty.o)
                                        0x1c8 (size before relaxing)
 .rodata.params.1
                0x00000000000bdc0c       0x31 coreutils/lib.a(stty.o)
 *fill*         0x00000000000bdc3d        0x3 00
 .rodata.str1.8
                0x00000000000bdc40       0x23 coreutils/lib.a(sum.o)
                                         0x38 (size before relaxing)
 .rodata.header_fmt
                0x00000000000bdc63        0xd coreutils/lib.a(tail.o)
 .rodata.tail_suffixes
                0x00000000000bdc70       0x20 coreutils/lib.a(tail.o)
 .rodata.str1.8
                0x00000000000bdc90       0x21 coreutils/lib.a(tail.o)
                                         0x28 (size before relaxing)
 .rodata.str1.8
                0x00000000000bdcb1        0x0 coreutils/lib.a(tee.o)
                                          0x8 (size before relaxing)
 .rodata.ops    0x00000000000bdcb1       0xf0 coreutils/lib.a(test.o)
 *fill*         0x00000000000bdda1        0x7 00
 .rodata.str1.8
                0x00000000000bdda8       0x84 coreutils/lib.a(test.o)
                                         0x98 (size before relaxing)
 .rodata.str1.8
                0x00000000000bde2c        0x0 coreutils/lib.a(touch.o)
                                          0x8 (size before relaxing)
 .rodata.classes.0
                0x00000000000bde2c       0x49 coreutils/lib.a(tr.o)
 *fill*         0x00000000000bde75        0x3 00
 .rodata.str1.8
                0x00000000000bde78       0x18 coreutils/lib.a(tr.o)
 .rodata.str1.8
                0x00000000000bde90        0x0 coreutils/lib.a(tty.o)
                                         0x18 (size before relaxing)
 .rodata.utsname_offset
                0x00000000000bde90        0xc coreutils/lib.a(uname.o)
 .rodata.options
                0x00000000000bde9c        0x8 coreutils/lib.a(uname.o)
 *fill*         0x00000000000bdea4        0x4 00
 .rodata.str1.8
                0x00000000000bdea8       0x27 coreutils/lib.a(uname.o)
                                         0x30 (size before relaxing)
 *fill*         0x00000000000bdecf        0x1 00
 .rodata.str1.8
                0x00000000000bded0        0x8 coreutils/lib.a(uniq.o)
                                         0x10 (size before relaxing)
 .rodata.str1.8
                0x00000000000bded8       0x58 coreutils/lib.a(uudecode.o)
                                         0x70 (size before relaxing)
 .rodata.str1.8
                0x00000000000bdf30       0x27 coreutils/lib.a(uuencode.o)
                                         0x40 (size before relaxing)
 *fill*         0x00000000000bdf57        0x1 00
 .rodata.str1.8
                0x00000000000bdf58       0x1f coreutils/lib.a(wc.o)
                                         0x38 (size before relaxing)
 *fill*         0x00000000000bdf77        0x1 00
 .rodata.str1.8
                0x00000000000bdf78       0x6d coreutils/lib.a(who.o)
                                         0x78 (size before relaxing)
 .rodata.str1.8
                0x00000000000bdfe5        0x0 coreutils/lib.a(yes.o)
                                          0x8 (size before relaxing)
 .rodata.str1.8
                0x00000000000bdfe5        0x0 coreutils/libcoreutils/lib.a(cp_mv_stat.o)
                                         0x18 (size before relaxing)
 *fill*         0x00000000000bdfe5        0x3 00
 .rodata.str1.8
                0x00000000000bdfe8        0x3 coreutils/libcoreutils/lib.a(getopt_mk_fifo_nod.o)
                                          0x8 (size before relaxing)
 *fill*         0x00000000000bdfeb        0x5 00
 .rodata.str1.8
                0x00000000000bdff0       0x16 debianutils/lib.a(mktemp.o)
                                         0x18 (size before relaxing)
 .rodata.runparts_longopts
                0x00000000000be006       0x1d debianutils/lib.a(run_parts.o)
 *fill*         0x00000000000be023        0x5 00
 .rodata.str1.8
                0x00000000000be028       0x4e debianutils/lib.a(run_parts.o)
                                         0x50 (size before relaxing)
 .rodata.start_stop_daemon_longopts
                0x00000000000be076       0x95 debianutils/lib.a(start_stop_daemon.o)
 *fill*         0x00000000000be10b        0x5 00
 .rodata.str1.8
                0x00000000000be110      0x168 debianutils/lib.a(start_stop_daemon.o)
                                        0x1a0 (size before relaxing)
 .rodata.str1.8
                0x00000000000be278       0xa9 e2fsprogs/lib.a(chattr.o)
                                         0xb0 (size before relaxing)
 *fill*         0x00000000000be321        0x7 00
 .rodata.e2attr_flags_sname
                0x00000000000be328       0x10 e2fsprogs/lib.a(e2fs_lib.o)
                0x00000000000be328                e2attr_flags_sname
 .rodata.e2attr_flags_value
                0x00000000000be338       0x34 e2fsprogs/lib.a(e2fs_lib.o)
                0x00000000000be338                e2attr_flags_value
 *fill*         0x00000000000be36c        0x4 00
 .rodata.e2attr_flags_lname
                0x00000000000be370       0xd8 e2fsprogs/lib.a(e2fs_lib.o)
 .rodata.str1.8
                0x00000000000be448        0x4 e2fsprogs/lib.a(e2fs_lib.o)
                                         0x10 (size before relaxing)
 .rodata.ignored_types
                0x00000000000be44c       0x2e e2fsprogs/lib.a(fsck.o)
 *fill*         0x00000000000be47a        0x6 00
 .rodata.str1.8
                0x00000000000be480      0x30d e2fsprogs/lib.a(fsck.o)
                                        0x358 (size before relaxing)
 *fill*         0x00000000000be78d        0x3 00
 .rodata.str1.8
                0x00000000000be790       0x26 e2fsprogs/lib.a(lsattr.o)
                                         0x48 (size before relaxing)
 .rodata.vValues
                0x00000000000be7b6       0x18 editors/lib.a(awk.o)
 .rodata.vNames
                0x00000000000be7ce       0x6b editors/lib.a(awk.o)
 .rodata.EMSG_INV_FMT
                0x00000000000be839       0x19 editors/lib.a(awk.o)
 .rodata.PRIMES
                0x00000000000be852        0xa editors/lib.a(awk.o)
 .rodata.tokeninfo
                0x00000000000be85c      0x18c editors/lib.a(awk.o)
 .rodata.tokenlist
                0x00000000000be9e8      0x1b9 editors/lib.a(awk.o)
 .rodata.EMSG_UNEXP_TOKEN
                0x00000000000beba1       0x11 editors/lib.a(awk.o)
 .rodata.EMSG_UNEXP_EOS
                0x00000000000bebb2       0x19 editors/lib.a(awk.o)
 .rodata.EMSG_DIV_BY_ZERO
                0x00000000000bebcb       0x11 editors/lib.a(awk.o)
 .rodata.EMSG_UNDEF_FUNC
                0x00000000000bebdc       0x1b editors/lib.a(awk.o)
 .rodata.EMSG_POSSIBLE_ERROR
                0x00000000000bebf7       0x16 editors/lib.a(awk.o)
 .rodata.EMSG_NOT_ARRAY
                0x00000000000bec0d        0xd editors/lib.a(awk.o)
 .rodata.EMSG_TOO_FEW_ARGS
                0x00000000000bec1a       0x1e editors/lib.a(awk.o)
 .rodata.EMSG_INTERNAL_ERROR
                0x00000000000bec38        0xf editors/lib.a(awk.o)
 *fill*         0x00000000000bec47        0x1 00
 .rodata.str1.8
                0x00000000000bec48       0xf5 editors/lib.a(awk.o)
                                        0x140 (size before relaxing)
 *fill*         0x00000000000bed3d        0x3 00
 .rodata.cst8   0x00000000000bed40       0x10 editors/lib.a(awk.o)
                                         0x50 (size before relaxing)
 .rodata.fmt_eof
                0x00000000000bed50       0x10 editors/lib.a(cmp.o)
 .rodata.fmt_differ
                0x00000000000bed60       0x22 editors/lib.a(cmp.o)
 .rodata.fmt_l_opt
                0x00000000000bed82       0x16 editors/lib.a(cmp.o)
 .rodata.opt_chars
                0x00000000000bed98        0x3 editors/lib.a(cmp.o)
 *fill*         0x00000000000bed9b        0x5 00
 .rodata.str1.8
                0x00000000000beda0       0x10 editors/lib.a(cmp.o)
                                         0x18 (size before relaxing)
 .rodata.str1.8
                0x00000000000bedb0      0x1df editors/lib.a(diff.o)
                                        0x220 (size before relaxing)
 *fill*         0x00000000000bef8f        0x1 00
 .rodata.str1.8
                0x00000000000bef90      0x30d editors/lib.a(ed.o)
                                        0x338 (size before relaxing)
 *fill*         0x00000000000bf29d        0x3 00
 .rodata.str1.8
                0x00000000000bf2a0      0x109 editors/lib.a(patch.o)
                                        0x128 (size before relaxing)
 .rodata.semicolon_whitespace
                0x00000000000bf3a9        0x7 editors/lib.a(sed.o)
 .rodata.str1.8
                0x00000000000bf3b0      0x1f3 editors/lib.a(sed.o)
                                        0x250 (size before relaxing)
 .rodata.SOn    0x00000000000bf5a3        0x5 editors/lib.a(vi.o)
 .rodata.SOs    0x00000000000bf5a8        0x5 editors/lib.a(vi.o)
 .rodata.bell   0x00000000000bf5ad        0x2 editors/lib.a(vi.o)
 .rodata.Ceos   0x00000000000bf5af        0x5 editors/lib.a(vi.o)
 .rodata.CMdown
                0x00000000000bf5b4        0x2 editors/lib.a(vi.o)
 .rodata.CMup   0x00000000000bf5b6        0x4 editors/lib.a(vi.o)
 .rodata.CMrc   0x00000000000bf5ba        0x9 editors/lib.a(vi.o)
 .rodata.Ceol   0x00000000000bf5c3        0x5 editors/lib.a(vi.o)
 .rodata.str1.8
                0x00000000000bf5c8      0x747 editors/lib.a(vi.o)
                                        0x7f0 (size before relaxing)
 .rodata.esccmds.2
                0x00000000000bfd0f       0xa5 editors/lib.a(vi.o)
 .rodata.cmd_mode_indicator.6
                0x00000000000bfdb4        0x5 editors/lib.a(vi.o)
 *fill*         0x00000000000bfdb9        0x7 00
 .rodata.str1.8
                0x00000000000bfdc0       0x59 findutils/lib.a(find.o)
                                         0x90 (size before relaxing)
 .rodata.params.2
                0x00000000000bfe19       0x82 findutils/lib.a(find.o)
 *fill*         0x00000000000bfe9b        0x1 00
 .rodata.find_suffixes.3
                0x00000000000bfe9c       0x30 findutils/lib.a(find.o)
 .rodata.options.1
                0x00000000000bfecc       0x19 findutils/lib.a(find.o)
 *fill*         0x00000000000bfee5        0x3 00
 .rodata.str1.8
                0x00000000000bfee8       0x51 findutils/lib.a(grep.o)
                                         0x78 (size before relaxing)
 *fill*         0x00000000000bff39        0x7 00
 .rodata.str1.8
                0x00000000000bff40       0xfc findutils/lib.a(xargs.o)
                                        0x120 (size before relaxing)
 .rodata.magic.0
                0x00000000000c003c        0xc init/lib.a(halt.o)
 .rodata.signals.1
                0x00000000000c0048        0xc init/lib.a(halt.o)
 *fill*         0x00000000000c0054        0x4 00
 .rodata.str1.8
                0x00000000000c0058        0xd init/lib.a(halt.o)
                                         0x20 (size before relaxing)
 *fill*         0x00000000000c0065        0x3 00
 .rodata.str1.8
                0x00000000000c0068      0x301 init/lib.a(init.o)
                                        0x3a0 (size before relaxing)
 *fill*         0x00000000000c0369        0x3 00
 .rodata.environment
                0x00000000000c036c       0x14 init/lib.a(init.o)
 .rodata.actions
                0x00000000000c0380       0x48 init/lib.a(init.o)
 .rodata.press_enter.0
                0x00000000000c03c8       0x2f init/lib.a(init.o)
 *fill*         0x00000000000c03f7        0x1 00
 .rodata.str1.8
                0x00000000000c03f8       0x15 init/lib.a(mesg.o)
                                         0x18 (size before relaxing)
 *fill*         0x00000000000c040d        0x3 00
 .rodata.str1.8
                0x00000000000c0410      0x20e ipsvd/lib.a(tcpudp.o)
                                        0x260 (size before relaxing)
 *fill*         0x00000000000c061e        0x2 00
 .rodata.str1.8
                0x00000000000c0620       0x46 libbb/lib.a(bb_pwd.o)
                                         0x50 (size before relaxing)
 *fill*         0x00000000000c0666        0x2 00
 .rodata.str1.8
                0x00000000000c0668       0x12 libbb/lib.a(change_identity.o)
                                         0x18 (size before relaxing)
 *fill*         0x00000000000c067a        0x6 00
 .rodata.str1.8
                0x00000000000c0680      0x196 libbb/lib.a(copy_file.o)
                                        0x1c8 (size before relaxing)
 *fill*         0x00000000000c0816        0x2 00
 .rodata.str1.8
                0x00000000000c0818       0x13 libbb/lib.a(correct_password.o)
                                         0x18 (size before relaxing)
 *fill*         0x00000000000c082b        0x5 00
 .rodata.str1.8
                0x00000000000c0830        0xa libbb/lib.a(create_icmp6_socket.o)
                                         0x10 (size before relaxing)
 *fill*         0x00000000000c083a        0x6 00
 .rodata.str1.8
                0x00000000000c0840        0x5 libbb/lib.a(create_icmp_socket.o)
                                          0x8 (size before relaxing)
 .rodata.conv_str
                0x00000000000c0845       0x21 libbb/lib.a(dump.o)
 .rodata.lcc    0x00000000000c0866        0x7 libbb/lib.a(dump.o)
 .rodata.index_str
                0x00000000000c086d       0x10 libbb/lib.a(dump.o)
 .rodata.size_conv_str
                0x00000000000c087d       0x19 libbb/lib.a(dump.o)
 *fill*         0x00000000000c0896        0x2 00
 .rodata.str1.8
                0x00000000000c0898       0xe8 libbb/lib.a(dump.o)
                                        0x118 (size before relaxing)
 .rodata.list.5
                0x00000000000c0980       0x7f libbb/lib.a(dump.o)
 .rodata.str1.8
                0x00000000000c09ff        0x0 libbb/lib.a(execable.o)
                                          0x8 (size before relaxing)
 .rodata.str1.8
                0x00000000000c09ff        0x0 libbb/lib.a(find_mount_point.o)
                                          0x8 (size before relaxing)
 *fill*         0x00000000000c09ff        0x1 00
 .rodata.str1.8
                0x00000000000c0a00       0x13 libbb/lib.a(get_console.o)
                                         0x48 (size before relaxing)
 *fill*         0x00000000000c0a13        0x1 00
 .rodata.console_names.0
                0x00000000000c0a14        0xc libbb/lib.a(get_console.o)
 .rodata.bb_null_long_options
                0x00000000000c0a20       0x10 libbb/lib.a(getopt32.o)
 .rodata.str1.8
                0x00000000000c0a30        0x0 libbb/lib.a(getopt32.o)
                                          0x8 (size before relaxing)
 .rodata.zero_and_units.0
                0x00000000000c0a30        0x6 libbb/lib.a(human_readable.o)
 .rodata.fmt.1  0x00000000000c0a36        0x5 libbb/lib.a(human_readable.o)
 .rodata.fmt_tenths.2
                0x00000000000c0a3b        0xa libbb/lib.a(human_readable.o)
 *fill*         0x00000000000c0a45        0x3 00
 .rodata.str1.8
                0x00000000000c0a48       0x2b libbb/lib.a(inet_common.o)
                                         0x38 (size before relaxing)
 .rodata.str1.8
                0x00000000000c0a73        0x0 libbb/lib.a(inode_hash.o)
                                          0x8 (size before relaxing)
 *fill*         0x00000000000c0a73        0x5 00
 .rodata.str1.8
                0x00000000000c0a78       0x1e libbb/lib.a(kernel_version.o)
                                         0x28 (size before relaxing)
 *fill*         0x00000000000c0a96        0x2 00
 .rodata.null_str
                0x00000000000c0a98        0x8 libbb/lib.a(lineedit.o)
 .rodata.str1.8
                0x00000000000c0aa0       0x51 libbb/lib.a(lineedit.o)
                                         0x78 (size before relaxing)
 .rodata.fmtstr_t
                0x00000000000c0af1        0x9 libbb/lib.a(login.o)
 .rodata.fmtstr_d
                0x00000000000c0afa        0xd libbb/lib.a(login.o)
 *fill*         0x00000000000c0b07        0x1 00
 .rodata.str1.8
                0x00000000000c0b08        0x9 libbb/lib.a(login.o)
                                         0x20 (size before relaxing)
 *fill*         0x00000000000c0b11        0x7 00
 .rodata.str1.8
                0x00000000000c0b18       0x14 libbb/lib.a(loop.o)
                                         0x18 (size before relaxing)
 *fill*         0x00000000000c0b2c        0x4 00
 .rodata.str1.8
                0x00000000000c0b30       0x39 libbb/lib.a(make_directory.o)
                                         0x40 (size before relaxing)
 *fill*         0x00000000000c0b69        0x3 00
 .rodata.C_array.0
                0x00000000000c0b6c      0x100 libbb/lib.a(md5.o)
 .rodata.P_array.1
                0x00000000000c0c6c       0x40 libbb/lib.a(md5.o)
 .rodata.S_array.2
                0x00000000000c0cac       0x10 libbb/lib.a(md5.o)
 *fill*         0x00000000000c0cbc        0x4 00
 .rodata.mode_chars
                0x00000000000c0cc0        0x8 libbb/lib.a(mode_string.o)
 .rodata.type_chars
                0x00000000000c0cc8       0x10 libbb/lib.a(mode_string.o)
 .rodata.bb_path_mtab_file
                0x00000000000c0cd8        0xd libbb/lib.a(mtab_file.o)
                0x00000000000c0cd8                bb_path_mtab_file
 *fill*         0x00000000000c0ce5        0x3 00
 .rodata.str1.8
                0x00000000000c0ce8       0xb2 libbb/lib.a(obscure.o)
                                         0xb8 (size before relaxing)
 *fill*         0x00000000000c0d9a        0x2 00
 .rodata.who_mask.0
                0x00000000000c0d9c       0x10 libbb/lib.a(parse_mode.o)
 .rodata.perm_mask.1
                0x00000000000c0dac       0x18 libbb/lib.a(parse_mode.o)
 .rodata.who_chars.2
                0x00000000000c0dc4        0x5 libbb/lib.a(parse_mode.o)
 .rodata.perm_chars.3
                0x00000000000c0dc9        0x7 libbb/lib.a(parse_mode.o)
 .rodata.charmap.0
                0x00000000000c0dd0       0x12 libbb/lib.a(process_escape_sequence.o)
 *fill*         0x00000000000c0de2        0x6 00
 .rodata.str1.8
                0x00000000000c0de8       0x89 libbb/lib.a(procps.o)
                                         0xc8 (size before relaxing)
 *fill*         0x00000000000c0e71        0x7 00
 .rodata.str1.8
                0x00000000000c0e78       0x72 libbb/lib.a(remove_file.o)
                                         0xc0 (size before relaxing)
 .rodata.str1.8
                0x00000000000c0eea        0x0 libbb/lib.a(run_shell.o)
                                         0x20 (size before relaxing)
 *fill*         0x00000000000c0eea        0x6 00
 .rodata.str1.8
                0x00000000000c0ef0        0x5 libbb/lib.a(safe_poll.o)
                                          0x8 (size before relaxing)
 *fill*         0x00000000000c0ef5        0x3 00
 .rodata.str1.8
                0x00000000000c0ef8       0x38 libbb/lib.a(setup_environment.o)
                                         0x68 (size before relaxing)
 .rodata.speeds
                0x00000000000c0f30       0x50 libbb/lib.a(speed_table.o)
 .rodata.str1.8
                0x00000000000c0f80        0x6 libbb/lib.a(trim.o)
                                          0x8 (size before relaxing)
 .rodata.signals
                0x00000000000c0f86       0xe0 libbb/lib.a(u_signal_names.o)
 *fill*         0x00000000000c1066        0x2 00
 .rodata.str1.8
                0x00000000000c1068        0x4 libbb/lib.a(u_signal_names.o)
                                          0x8 (size before relaxing)
 *fill*         0x00000000000c106c        0x4 00
 .rodata.str1.8
                0x00000000000c1070       0x4a libbb/lib.a(update_passwd.o)
                                         0x88 (size before relaxing)
 .rodata.bb_uuenc_tbl_std
                0x00000000000c10ba       0x41 libbb/lib.a(uuencode.o)
                0x00000000000c10ba                bb_uuenc_tbl_std
 .rodata.bb_uuenc_tbl_base64
                0x00000000000c10fb       0x43 libbb/lib.a(uuencode.o)
                0x00000000000c10fb                bb_uuenc_tbl_base64
 .rodata.str1.8
                0x00000000000c113e        0x0 libbb/lib.a(vfork_daemon_rexec.o)
                                         0x10 (size before relaxing)
 *fill*         0x00000000000c113e        0x2 00
 .rodata.str1.8
                0x00000000000c1140       0x17 libbb/lib.a(warn_ignoring_args.o)
                                         0x18 (size before relaxing)
 .rodata.str1.8
                0x00000000000c1157        0x0 libbb/lib.a(wfopen_input.o)
                                          0x8 (size before relaxing)
 *fill*         0x00000000000c1157        0x1 00
 .rodata.str1.8
                0x00000000000c1158       0x65 libbb/lib.a(xatonum.o)
                                         0x68 (size before relaxing)
 *fill*         0x00000000000c11bd        0x3 00
 .rodata.str1.8
                0x00000000000c11c0       0x48 libbb/lib.a(xconnect.o)
                                         0x50 (size before relaxing)
 .rodata.str1.8
                0x00000000000c1208        0x7 libbb/lib.a(xgetcwd.o)
                                          0x8 (size before relaxing)
 .rodata.str1.8
                0x00000000000c120f        0x0 libbb/lib.a(xgethostbyname.o)
                                          0x8 (size before relaxing)
 *fill*         0x00000000000c120f        0x1 00
 .rodata.str1.8
                0x00000000000c1210        0xd libbb/lib.a(xregcomp.o)
                                         0x10 (size before relaxing)
 .rodata.gr_off
                0x00000000000c121d        0x3 libpwdgrp/lib.a(pwd_grp.o)
 .rodata.sp_off
                0x00000000000c1220        0x9 libpwdgrp/lib.a(pwd_grp.o)
 .rodata.pw_off
                0x00000000000c1229        0x7 libpwdgrp/lib.a(pwd_grp.o)
 .rodata.str1.8
                0x00000000000c1230       0x5c libpwdgrp/lib.a(pwd_grp.o)
                                         0x78 (size before relaxing)
 *fill*         0x00000000000c128c        0x4 00
 .rodata.str1.8
                0x00000000000c1290       0x16 libpwdgrp/lib.a(uidgid_get.o)
                                         0x18 (size before relaxing)
 *fill*         0x00000000000c12a6        0x2 00
 .rodata.cst8   0x00000000000c12a8        0x8 /opt/sparc-linux-3.4.4/lib/gcc/sparc-linux/3.4.4/soft/v8/libgcc.a(_floatdidf.oS)
                                         0x10 (size before relaxing)
 .rodata.cst8   0x00000000000c12b0       0x10 /opt/sparc-linux-3.4.4/lib/gcc/sparc-linux/3.4.4/soft/v8/libgcc.a(_fixunsdfsi.oS)
 .rodata.cst4   0x00000000000c12c0        0x4 /opt/sparc-linux-3.4.4/lib/gcc/sparc-linux/3.4.4/soft/v8/libgcc.a(_si_to_sf.oS)
 .rodata.cst8   0x00000000000c12c4        0x0 /opt/sparc-linux-3.4.4/lib/gcc/sparc-linux/3.4.4/soft/v8/libgcc.a(_si_to_df.oS)
                                          0x8 (size before relaxing)

.rodata1
 *(SORT(.rodata1))

.eh_frame_hdr   0x00000000000c12c4       0x34
 *(SORT(.eh_frame_hdr))
 .eh_frame_hdr  0x00000000000c12c4       0x34 /opt/sparc-linux-3.4.4/lib/gcc/sparc-linux/3.4.4/../../../../sparc-linux/lib/soft/v8/crt1.o

.eh_frame
 *(SORT(.eh_frame))

.gcc_except_table
 *(SORT(.gcc_except_table))
 *(SORT(.gcc_except_table.*))
                0x00000000000c12f8                . = (ALIGN (0x10000) - ((0x10000 - .) & 0xffff))
                0x00000000000d2000                . = (0x10000 DATA_SEGMENT_ALIGN 0x2000)

.eh_frame       0x00000000000d2000       0x9c
 *(SORT(.eh_frame))
 .eh_frame      0x00000000000d2000       0x28 /opt/sparc-linux-3.4.4/lib/gcc/sparc-linux/3.4.4/../../../../sparc-linux/lib/soft/v8/crt1.o
 .eh_frame      0x00000000000d2028       0x28 /opt/sparc-linux-3.4.4/lib/gcc/sparc-linux/3.4.4/soft/v8/libgcc.a(_divdi3.oS)
 .eh_frame      0x00000000000d2050       0x18 /opt/sparc-linux-3.4.4/lib/gcc/sparc-linux/3.4.4/soft/v8/libgcc.a(_moddi3.oS)
                                         0x28 (size before relaxing)
 .eh_frame      0x00000000000d2068       0x18 /opt/sparc-linux-3.4.4/lib/gcc/sparc-linux/3.4.4/soft/v8/libgcc.a(_udivdi3.oS)
                                         0x28 (size before relaxing)
 .eh_frame      0x00000000000d2080       0x18 /opt/sparc-linux-3.4.4/lib/gcc/sparc-linux/3.4.4/soft/v8/libgcc.a(_umoddi3.oS)
                                         0x28 (size before relaxing)
 .eh_frame      0x00000000000d2098        0x4 /opt/sparc-linux-3.4.4/lib/gcc/sparc-linux/3.4.4/soft/v8/crtend.o

.gcc_except_table
 *(SORT(.gcc_except_table))
 *(SORT(.gcc_except_table.*))

.tdata
 *(SORT(.tdata) .tdata.* .gnu.linkonce.td.*)

.tbss
 *(SORT(.tbss) .tbss.* .gnu.linkonce.tb.*)
 *(SORT(.tcommon))
                0x00000000000d20a0                . = ALIGN (0x8)
                0x00000000000d20a0                PROVIDE (__preinit_array_start, .)

.preinit_array
 *(SORT(.preinit_array))
                0x00000000000d20a0                PROVIDE (__preinit_array_end, .)
                0x00000000000d20a0                PROVIDE (__init_array_start, .)

.init_array
 *(SORT(.init_array))
                0x00000000000d20a0                PROVIDE (__init_array_end, .)
                0x00000000000d20a0                PROVIDE (__fini_array_start, .)

.fini_array
 *(SORT(.fini_array))
                0x00000000000d20a0                PROVIDE (__fini_array_end, .)

.ctors          0x00000000000d20a0        0x8
 *crtbegin*.o(SORT(.ctors))
 *(SORT(EXCLUDE_FILE(*crtend*.o) .ctors))
 .ctors         0x00000000000d20a0        0x4 /opt/sparc-linux-3.4.4/lib/gcc/sparc-linux/3.4.4/soft/v8/crtbegin.o
 *(SORT(.ctors.*))
 *(SORT(.ctors))
 .ctors         0x00000000000d20a4        0x4 /opt/sparc-linux-3.4.4/lib/gcc/sparc-linux/3.4.4/soft/v8/crtend.o

.dtors          0x00000000000d20a8        0x8
 *crtbegin*.o(SORT(.dtors))
 *(SORT(EXCLUDE_FILE(*crtend*.o) .dtors))
 .dtors         0x00000000000d20a8        0x4 /opt/sparc-linux-3.4.4/lib/gcc/sparc-linux/3.4.4/soft/v8/crtbegin.o
 *(SORT(.dtors.*))
 *(SORT(.dtors))
 .dtors         0x00000000000d20ac        0x4 /opt/sparc-linux-3.4.4/lib/gcc/sparc-linux/3.4.4/soft/v8/crtend.o

.jcr            0x00000000000d20b0        0x4
 *(SORT(.jcr))
 .jcr           0x00000000000d20b0        0x4 /opt/sparc-linux-3.4.4/lib/gcc/sparc-linux/3.4.4/soft/v8/crtend.o

.data.rel.ro
 *(SORT(.data.rel.ro.local))
 *(SORT(.data.rel.ro*))

.dynamic        0x00000000000d20b4       0xe0
 *(SORT(.dynamic))
 .dynamic       0x00000000000d20b4       0xe0 /opt/sparc-linux-3.4.4/lib/gcc/sparc-linux/3.4.4/../../../../sparc-linux/lib/soft/v8/crt1.o
                0x00000000000d20b4                _DYNAMIC
                0x00000000000d2194                . = (. DATA_SEGMENT_RELRO_END 0x0)

.got            0x00000000000d2194       0x34
 *(SORT(.got.plt))
 *(SORT(.got))
 .got           0x00000000000d2194       0x34 /opt/sparc-linux-3.4.4/lib/gcc/sparc-linux/3.4.4/../../../../sparc-linux/lib/soft/v8/crt1.o
                0x00000000000d2194                _GLOBAL_OFFSET_TABLE_

.plt            0x00000000000d21c8     0x1168
 *(SORT(.plt))
 .plt           0x00000000000d21c8     0x1168 /opt/sparc-linux-3.4.4/lib/gcc/sparc-linux/3.4.4/../../../../sparc-linux/lib/soft/v8/crt1.o
                0x00000000000d21f8                wait4@@GLIBC_2.0
                0x00000000000d2204                freeaddrinfo@@GLIBC_2.0
                0x00000000000d2210                getchar@@GLIBC_2.0
                0x00000000000d221c                readlink@@GLIBC_2.0
                0x00000000000d2228                ptsname@@GLIBC_2.1
                0x00000000000d2234                regexec@@GLIBC_2.3.4
                0x00000000000d2240                vsnprintf@@GLIBC_2.4
                0x00000000000d224c                usleep@@GLIBC_2.0
                0x00000000000d2258                mkdir@@GLIBC_2.0
                0x00000000000d2264                ttyname@@GLIBC_2.0
                0x00000000000d2270                cos@@GLIBC_2.0
                0x00000000000d227c                getusershell@@GLIBC_2.0
                0x00000000000d2288                fgetc@@GLIBC_2.0
                0x00000000000d2294                clnttcp_create@@GLIBC_2.0
                0x00000000000d22a0                fscanf@@GLIBC_2.4
                0x00000000000d22ac                memrchr@@GLIBC_2.2
                0x00000000000d22b8                rename@@GLIBC_2.0
                0x00000000000d22c4                ferror@@GLIBC_2.0
                0x00000000000d22d0                sigaction@@GLIBC_2.0
                0x00000000000d22dc                readdir64@@GLIBC_2.2
                0x00000000000d22e8                execl@@GLIBC_2.0
                0x00000000000d22f4                strncat@@GLIBC_2.0
                0x00000000000d2300                strchr@@GLIBC_2.0
                0x00000000000d230c                getmntent@@GLIBC_2.0
                0x00000000000d2318                fdopen@@GLIBC_2.1
                0x00000000000d2324                msgctl@@GLIBC_2.2
                0x00000000000d2330                feof@@GLIBC_2.0
                0x00000000000d233c                xdr_opaque@@GLIBC_2.0
                0x00000000000d2348                if_nametoindex@@GLIBC_2.1
                0x00000000000d2354                getopt_long_only@@GLIBC_2.0
                0x00000000000d2360                ungetc@@GLIBC_2.0
                0x00000000000d236c                grantpt@@GLIBC_2.1
                0x00000000000d2378                getpid@@GLIBC_2.0
                0x00000000000d2384                strdup@@GLIBC_2.0
                0x00000000000d2390                __ctype_tolower_loc@@GLIBC_2.3
                0x00000000000d239c                sched_get_priority_min@@GLIBC_2.0
                0x00000000000d23a8                getrlimit64@@GLIBC_2.1
                0x00000000000d23b4                mlock@@GLIBC_2.0
                0x00000000000d23c0                getaddrinfo@@GLIBC_2.0
                0x00000000000d23cc                getpgrp@@GLIBC_2.0
                0x00000000000d23d8                settimeofday@@GLIBC_2.0
                0x00000000000d23e4                setrlimit64@@GLIBC_2.1
                0x00000000000d23f0                isprint@@GLIBC_2.0
                0x00000000000d23fc                write@@GLIBC_2.0
                0x00000000000d2408                poll@@GLIBC_2.0
                0x00000000000d2414                localtime@@GLIBC_2.0
                0x00000000000d2420                recvfrom@@GLIBC_2.0
                0x00000000000d242c                fileno@@GLIBC_2.0
                0x00000000000d2438                getservbyport@@GLIBC_2.0
                0x00000000000d2444                strcmp@@GLIBC_2.0
                0x00000000000d2450                updwtmp@@GLIBC_2.0
                0x00000000000d245c                isspace@@GLIBC_2.0
                0x00000000000d2468                pututline@@GLIBC_2.0
                0x00000000000d2474                close@@GLIBC_2.0
                0x00000000000d2480                inet_pton@@GLIBC_2.0
                0x00000000000d248c                vfork@@GLIBC_2.0
                0x00000000000d2498                perror@@GLIBC_2.0
                0x00000000000d24a4                fork@@GLIBC_2.0
                0x00000000000d24b0                getenv@@GLIBC_2.0
                0x00000000000d24bc                umask@@GLIBC_2.0
                0x00000000000d24c8                signal@@GLIBC_2.0
                0x00000000000d24d4                fflush@@GLIBC_2.0
                0x00000000000d24e0                regfree@@GLIBC_2.0
                0x00000000000d24ec                pclose@@GLIBC_2.1
                0x00000000000d24f8                getservbyname@@GLIBC_2.0
                0x00000000000d2504                sched_get_priority_max@@GLIBC_2.0
                0x00000000000d2510                isgraph@@GLIBC_2.0
                0x00000000000d251c                unlink@@GLIBC_2.0
                0x00000000000d2528                setpriority@@GLIBC_2.0
                0x00000000000d2534                cfsetospeed@@GLIBC_2.0
                0x00000000000d2540                cfgetispeed@@GLIBC_2.0
                0x00000000000d254c                mmap64@@GLIBC_2.1
                0x00000000000d2558                setgroups@@GLIBC_2.0
                0x00000000000d2564                isascii@@GLIBC_2.0
                0x00000000000d2570                unsetenv@@GLIBC_2.0
                0x00000000000d257c                select@@GLIBC_2.0
                0x00000000000d2588                sethostname@@GLIBC_2.0
                0x00000000000d2594                utmpname@@GLIBC_2.0
                0x00000000000d25a0                setenv@@GLIBC_2.0
                0x00000000000d25ac                getnameinfo@@GLIBC_2.1
                0x00000000000d25b8                strerror@@GLIBC_2.0
                0x00000000000d25c4                dirname@@GLIBC_2.0
                0x00000000000d25d0                tcsetattr@@GLIBC_2.0
                0x00000000000d25dc                getgroups@@GLIBC_2.0
                0x00000000000d25e8                isalnum@@GLIBC_2.0
                0x00000000000d25f4                putchar@@GLIBC_2.0
                0x00000000000d2600                setlocale@@GLIBC_2.0
                0x00000000000d260c                __cxa_atexit@@GLIBC_2.1.3
                0x00000000000d2618                syslog@@GLIBC_2.4
                0x00000000000d2624                execve@@GLIBC_2.0
                0x00000000000d2630                putenv@@GLIBC_2.0
                0x00000000000d263c                __cmsg_nxthdr@@GLIBC_2.0
                0x00000000000d2648                readahead@@GLIBC_2.3
                0x00000000000d2654                __errno_location@@GLIBC_2.0
                0x00000000000d2660                pow@@GLIBC_2.0
                0x00000000000d266c                rewind@@GLIBC_2.0
                0x00000000000d2678                reboot@@GLIBC_2.0
                0x00000000000d2684                setgid@@GLIBC_2.0
                0x00000000000d2690                vsyslog@@GLIBC_2.4
                0x00000000000d269c                memchr@@GLIBC_2.0
                0x00000000000d26a8                ftell@@GLIBC_2.0
                0x00000000000d26b4                xdr_u_int@@GLIBC_2.0
                0x00000000000d26c0                dprintf@@GLIBC_2.4
                0x00000000000d21c8                _PROCEDURE_LINKAGE_TABLE_
                0x00000000000d26cc                accept@@GLIBC_2.0
                0x00000000000d26d8                gethostbyaddr@@GLIBC_2.0
                0x00000000000d26e4                ispunct@@GLIBC_2.0
                0x00000000000d26f0                system@@GLIBC_2.0
                0x00000000000d26fc                tcgetpgrp@@GLIBC_2.0
                0x00000000000d2708                chmod@@GLIBC_2.0
                0x00000000000d2714                tolower@@GLIBC_2.0
                0x00000000000d2720                access@@GLIBC_2.0
                0x00000000000d272c                setvbuf@@GLIBC_2.0
                0x00000000000d2738                inet_ntoa@@GLIBC_2.0
                0x00000000000d2744                shutdown@@GLIBC_2.0
                0x00000000000d2750                puts@@GLIBC_2.0
                0x00000000000d275c                popen@@GLIBC_2.1
                0x00000000000d2768                mkfifo@@GLIBC_2.0
                0x00000000000d2774                listen@@GLIBC_2.0
                0x00000000000d2780                cfgetospeed@@GLIBC_2.0
                0x00000000000d278c                difftime@@GLIBC_2.0
                0x00000000000d2798                snprintf@@GLIBC_2.4
                0x00000000000d27a4                isxdigit@@GLIBC_2.0
                0x00000000000d27b0                malloc@@GLIBC_2.0
                0x00000000000d27bc                sched_yield@@GLIBC_2.0
                0x00000000000d27c8                setsid@@GLIBC_2.0
                0x00000000000d27d4                munlock@@GLIBC_2.0
                0x00000000000d27e0                swab@@GLIBC_2.0
                0x00000000000d27ec                strftime@@GLIBC_2.0
                0x00000000000d27f8                munmap@@GLIBC_2.0
                0x00000000000d2804                getppid@@GLIBC_2.0
                0x00000000000d2810                hstrerror@@GLIBC_2.0
                0x00000000000d281c                pipe@@GLIBC_2.0
                0x00000000000d2828                fread@@GLIBC_2.0
                0x00000000000d2834                memmove@@GLIBC_2.0
                0x00000000000d2840                sendto@@GLIBC_2.0
                0x00000000000d284c                clearerr@@GLIBC_2.0
                0x00000000000d2858                remove@@GLIBC_2.0
                0x00000000000d2864                regerror@@GLIBC_2.0
                0x00000000000d2870                link@@GLIBC_2.0
                0x00000000000d287c                freopen64@@GLIBC_2.1
                0x00000000000d2888                strpbrk@@GLIBC_2.0
                0x00000000000d2894                strtoull@@GLIBC_2.0
                0x00000000000d28a0                shmget@@GLIBC_2.0
                0x00000000000d28ac                vsprintf@@GLIBC_2.4
                0x00000000000d28b8                stime@@GLIBC_2.0
                0x00000000000d28c4                __h_errno_location@@GLIBC_2.0
                0x00000000000d28d0                xdr_bytes@@GLIBC_2.0
                0x00000000000d28dc                getsockopt@@GLIBC_2.0
                0x00000000000d28e8                strtoll@@GLIBC_2.0
                0x00000000000d28f4                setsockopt@@GLIBC_2.0
                0x00000000000d2900                getpagesize@@GLIBC_2.0
                0x00000000000d290c                sysconf@@GLIBC_2.0
                0x00000000000d2918                execv@@GLIBC_2.0
                0x00000000000d2924                vasprintf@@GLIBC_2.4
                0x00000000000d2930                getpeername@@GLIBC_2.0
                0x00000000000d293c                inet_aton@@GLIBC_2.0
                0x00000000000d2948                getprotobyname@@GLIBC_2.0
                0x00000000000d2954                fchmod@@GLIBC_2.0
                0x00000000000d2960                umount@@GLIBC_2.0
                0x00000000000d296c                fseek@@GLIBC_2.0
                0x00000000000d2978                waitpid@@GLIBC_2.0
                0x00000000000d2984                setbuf@@GLIBC_2.0
                0x00000000000d2990                fnmatch@@GLIBC_2.2.3
                0x00000000000d299c                strsep@@GLIBC_2.0
                0x00000000000d29a8                msgget@@GLIBC_2.0
                0x00000000000d29b4                setmntent@@GLIBC_2.0
                0x00000000000d29c0                time@@GLIBC_2.0
                0x00000000000d29cc                clnt_sperror@@GLIBC_2.0
                0x00000000000d29d8                execle@@GLIBC_2.0
                0x00000000000d29e4                mktime@@GLIBC_2.0
                0x00000000000d29f0                sched_getparam@@GLIBC_2.0
                0x00000000000d29fc                getopt@@GLIBC_2.0
                0x00000000000d2a08                creat64@@GLIBC_2.1
                0x00000000000d2a14                getdomainname@@GLIBC_2.0
                0x00000000000d2a20                __res_state@@GLIBC_2.2
                0x00000000000d2a2c                fgets@@GLIBC_2.0
                0x00000000000d2a38                sysinfo@@GLIBC_2.0
                0x00000000000d2a44                execlp@@GLIBC_2.0
                0x00000000000d2a50                clnt_spcreateerror@@GLIBC_2.0
                0x00000000000d2a5c                recvmsg@@GLIBC_2.0
                0x00000000000d2a68                chdir@@GLIBC_2.0
                0x00000000000d2a74                fputs@@GLIBC_2.0
                0x00000000000d2a80                strstr@@GLIBC_2.0
                0x00000000000d2a8c                strlen@@GLIBC_2.0
                0x00000000000d2a98                longjmp@@GLIBC_2.0
                0x00000000000d2aa4                sleep@@GLIBC_2.0
                0x00000000000d2ab0                mkdtemp@@GLIBC_2.2
                0x00000000000d2abc                ftruncate64@@GLIBC_2.1
                0x00000000000d2ac8                sigaddset@@GLIBC_2.0
                0x00000000000d2ad4                nice@@GLIBC_2.0
                0x00000000000d2ae0                personality@@GLIBC_2.0
                0x00000000000d2aec                vprintf@@GLIBC_2.4
                0x00000000000d2af8                strcspn@@GLIBC_2.0
                0x00000000000d2b04                setusershell@@GLIBC_2.0
                0x00000000000d2b10                strptime@@GLIBC_2.0
                0x00000000000d2b1c                uname@@GLIBC_2.0
                0x00000000000d2b28                qsort@@GLIBC_2.0
                0x00000000000d2b34                atof@@GLIBC_2.0
                0x00000000000d2b40                atan2@@GLIBC_2.0
                0x00000000000d2b4c                __xpg_basename@@GLIBC_2.0
                0x00000000000d2b58                swapoff@@GLIBC_2.0
                0x00000000000d2b64                isblank@@GLIBC_2.0
                0x00000000000d2b70                lseek64@@GLIBC_2.1
                0x00000000000d2b7c                execvp@@GLIBC_2.0
                0x00000000000d2b88                tzset@@GLIBC_2.0
                0x00000000000d2b94                flock@@GLIBC_2.0
                0x00000000000d2ba0                statfs64@@GLIBC_2.1
                0x00000000000d2bac                setlinebuf@@GLIBC_2.0
                0x00000000000d2bb8                sched_getscheduler@@GLIBC_2.0
                0x00000000000d2bc4                sigprocmask@@GLIBC_2.0
                0x00000000000d2bd0                bindresvport@@GLIBC_2.0
                0x00000000000d2bdc                strncmp@@GLIBC_2.0
                0x00000000000d2be8                strtol@@GLIBC_2.0
                0x00000000000d2bf4                setutent@@GLIBC_2.0
                0x00000000000d2c00                pause@@GLIBC_2.0
                0x00000000000d2c0c                clntudp_create@@GLIBC_2.0
                0x00000000000d2c18                openlog@@GLIBC_2.0
                0x00000000000d2c24                fputc@@GLIBC_2.0
                0x00000000000d2c30                inet_addr@@GLIBC_2.0
                0x00000000000d2c3c                getmntent_r@@GLIBC_2.0
                0x00000000000d2c48                __xstat64@@GLIBC_2.2
                0x00000000000d2c54                memcmp@@GLIBC_2.0
                0x00000000000d2c60                sprintf@@GLIBC_2.4
                0x00000000000d2c6c                xdr_enum@@GLIBC_2.0
                0x00000000000d2c78                getlogin_r@@GLIBC_2.0
                0x00000000000d2c84                fsync@@GLIBC_2.0
                0x00000000000d2c90                swapon@@GLIBC_2.0
                0x00000000000d2c9c                iscntrl@@GLIBC_2.0
                0x00000000000d2ca8                shmdt@@GLIBC_2.0
                0x00000000000d2cb4                adjtimex@@GLIBC_2.0
                0x00000000000d2cc0                strcasestr@@GLIBC_2.1
                0x00000000000d2ccc                fprintf@@GLIBC_2.4
                0x00000000000d2cd8                __libc_start_main@@GLIBC_2.0
                0x00000000000d2ce4                islower@@GLIBC_2.0
                0x00000000000d2cf0                authunix_create_default@@GLIBC_2.0
                0x00000000000d2cfc                endutent@@GLIBC_2.0
                0x00000000000d2d08                exp@@GLIBC_2.0
                0x00000000000d2d14                sscanf@@GLIBC_2.4
                0x00000000000d2d20                toupper@@GLIBC_2.0
                0x00000000000d2d2c                dup2@@GLIBC_2.0
                0x00000000000d2d38                realloc@@GLIBC_2.0
                0x00000000000d2d44                strcat@@GLIBC_2.0
                0x00000000000d2d50                getutent@@GLIBC_2.0
                0x00000000000d2d5c                pivot_root@@GLIBC_2.2.1
                0x00000000000d2d68                __res_init@@GLIBC_2.2
                0x00000000000d2d74                asprintf@@GLIBC_2.4
                0x00000000000d2d80                closelog@@GLIBC_2.0
                0x00000000000d2d8c                bind@@GLIBC_2.0
                0x00000000000d2d98                getuid@@GLIBC_2.0
                0x00000000000d2da4                chown@@GLIBC_2.0
                0x00000000000d2db0                fcntl@@GLIBC_2.0
                0x00000000000d2dbc                memcpy@@GLIBC_2.0
                0x00000000000d2dc8                sqrt@@GLIBC_2.0
                0x00000000000d2dd4                ftello64@@GLIBC_2.1
                0x00000000000d2de0                scanf@@GLIBC_2.4
                0x00000000000d2dec                open64@@GLIBC_2.1
                0x00000000000d2df8                fclose@@GLIBC_2.1
                0x00000000000d2e04                __ctype_toupper_loc@@GLIBC_2.3
                0x00000000000d2e10                getsockname@@GLIBC_2.0
                0x00000000000d2e1c                strrchr@@GLIBC_2.0
                0x00000000000d2e28                endmntent@@GLIBC_2.0
                0x00000000000d2e34                ctime@@GLIBC_2.0
                0x00000000000d2e40                isupper@@GLIBC_2.0
                0x00000000000d2e4c                rmdir@@GLIBC_2.0
                0x00000000000d2e58                getopt_long@@GLIBC_2.0
                0x00000000000d2e64                shmctl@@GLIBC_2.2
                0x00000000000d2e70                getgid@@GLIBC_2.0
                0x00000000000d2e7c                fopen64@@GLIBC_2.1
                0x00000000000d2e88                closedir@@GLIBC_2.0
                0x00000000000d2e94                symlink@@GLIBC_2.0
                0x00000000000d2ea0                gettimeofday@@GLIBC_2.0
                0x00000000000d2eac                srand@@GLIBC_2.0
                0x00000000000d2eb8                strcoll@@GLIBC_2.0
                0x00000000000d2ec4                opendir@@GLIBC_2.0
                0x00000000000d2ed0                sendfile64@@GLIBC_2.3
                0x00000000000d2edc                gethostname@@GLIBC_2.0
                0x00000000000d2ee8                __lxstat64@@GLIBC_2.2
                0x00000000000d2ef4                strchrnul@@GLIBC_2.1.1
                0x00000000000d2f00                gethostbyname@@GLIBC_2.0
                0x00000000000d2f0c                sigemptyset@@GLIBC_2.0
                0x00000000000d2f18                regcomp@@GLIBC_2.0
                0x00000000000d2f24                strcasecmp@@GLIBC_2.0
                0x00000000000d2f30                mkstemp64@@GLIBC_2.2
                0x00000000000d2f3c                inet_ntop@@GLIBC_2.0
                0x00000000000d2f48                tcflush@@GLIBC_2.0
                0x00000000000d2f54                strspn@@GLIBC_2.0
                0x00000000000d2f60                exit@@GLIBC_2.0
                0x00000000000d2f6c                getpriority@@GLIBC_2.0
                0x00000000000d2f78                isalpha@@GLIBC_2.0
                0x00000000000d2f84                sendmsg@@GLIBC_2.0
                0x00000000000d2f90                atoi@@GLIBC_2.0
                0x00000000000d2f9c                getegid@@GLIBC_2.0
                0x00000000000d2fa8                ether_hostton@@GLIBC_2.0
                0x00000000000d2fb4                sigsuspend@@GLIBC_2.0
                0x00000000000d2fc0                semget@@GLIBC_2.0
                0x00000000000d2fcc                gethostid@@GLIBC_2.0
                0x00000000000d2fd8                gmtime@@GLIBC_2.0
                0x00000000000d2fe4                cfsetispeed@@GLIBC_2.0
                0x00000000000d2ff0                tcsetpgrp@@GLIBC_2.0
                0x00000000000d2ffc                _IO_putc@@GLIBC_2.0
                0x00000000000d3008                free@@GLIBC_2.0
                0x00000000000d3014                ioctl@@GLIBC_2.0
                0x00000000000d3020                semop@@GLIBC_2.0
                0x00000000000d302c                strtoul@@GLIBC_2.0
                0x00000000000d3038                utime@@GLIBC_2.0
                0x00000000000d3044                getcwd@@GLIBC_2.0
                0x00000000000d3050                clearenv@@GLIBC_2.0
                0x00000000000d305c                xdr_array@@GLIBC_2.0
                0x00000000000d3068                isatty@@GLIBC_2.0
                0x00000000000d3074                memset@@GLIBC_2.0
                0x00000000000d3080                wait3@@GLIBC_2.0
                0x00000000000d308c                _exit@@GLIBC_2.0
                0x00000000000d3098                strncasecmp@@GLIBC_2.0
                0x00000000000d30a4                connect@@GLIBC_2.0
                0x00000000000d30b0                semctl@@GLIBC_2.2
                0x00000000000d30bc                pmap_getmaps@@GLIBC_2.0
                0x00000000000d30c8                strtod@@GLIBC_2.0
                0x00000000000d30d4                getsid@@GLIBC_2.0
                0x00000000000d30e0                cfmakeraw@@GLIBC_2.0
                0x00000000000d30ec                mount@@GLIBC_2.0
                0x00000000000d30f8                __xmknod@@GLIBC_2.0
                0x00000000000d3104                strncpy@@GLIBC_2.0
                0x00000000000d3110                dup@@GLIBC_2.0
                0x00000000000d311c                strnlen@@GLIBC_2.0
                0x00000000000d3128                _setjmp@@GLIBC_2.0
                0x00000000000d3134                crypt@@GLIBC_2.0
                0x00000000000d3140                endusershell@@GLIBC_2.0
                0x00000000000d314c                strtok@@GLIBC_2.0
                0x00000000000d3158                kill@@GLIBC_2.0
                0x00000000000d3164                vdprintf@@GLIBC_2.4
                0x00000000000d3170                xdr_int@@GLIBC_2.0
                0x00000000000d317c                fchdir@@GLIBC_2.0
                0x00000000000d3188                ether_ntoa@@GLIBC_2.0
                0x00000000000d3194                recv@@GLIBC_2.0
                0x00000000000d31a0                pmap_getport@@GLIBC_2.0
                0x00000000000d31ac                fchown@@GLIBC_2.0
                0x00000000000d31b8                umount2@@GLIBC_2.1
                0x00000000000d31c4                fwrite@@GLIBC_2.0
                0x00000000000d31d0                globfree64@@GLIBC_2.1
                0x00000000000d31dc                realpath@@GLIBC_2.3
                0x00000000000d31e8                sin@@GLIBC_2.0
                0x00000000000d31f4                socket@@GLIBC_2.0
                0x00000000000d3200                klogctl@@GLIBC_2.0
                0x00000000000d320c                _IO_getc@@GLIBC_2.0
                0x00000000000d3218                getlogin@@GLIBC_2.0
                0x00000000000d3224                ether_aton@@GLIBC_2.0
                0x00000000000d3230                rand@@GLIBC_2.0
                0x00000000000d323c                setuid@@GLIBC_2.0
                0x00000000000d3248                bsearch@@GLIBC_2.0
                0x00000000000d3254                log@@GLIBC_2.0
                0x00000000000d3260                sigdelset@@GLIBC_2.0
                0x00000000000d326c                printf@@GLIBC_2.4
                0x00000000000d3278                unlockpt@@GLIBC_2.1
                0x00000000000d3284                tcgetattr@@GLIBC_2.0
                0x00000000000d3290                read@@GLIBC_2.0
                0x00000000000d329c                xdr_string@@GLIBC_2.0
                0x00000000000d32a8                alarm@@GLIBC_2.0
                0x00000000000d32b4                sched_setscheduler@@GLIBC_2.0
                0x00000000000d32c0                __fxstat64@@GLIBC_2.2
                0x00000000000d32cc                lchown@@GLIBC_2.0
                0x00000000000d32d8                geteuid@@GLIBC_2.0
                0x00000000000d32e4                shmat@@GLIBC_2.0
                0x00000000000d32f0                glob64@@GLIBC_2.2
                0x00000000000d32fc                wait@@GLIBC_2.0
                0x00000000000d3308                sync@@GLIBC_2.0
                0x00000000000d3314                chroot@@GLIBC_2.0
                0x00000000000d3320                strcpy@@GLIBC_2.0

.data           0x00000000000d3330      0x270
 *(SORT(.data) .data.* .gnu.linkonce.d.*)
 .data          0x00000000000d3330        0x8 /opt/sparc-linux-3.4.4/lib/gcc/sparc-linux/3.4.4/soft/v8/crtbegin.o
                0x00000000000d3330                __dso_handle
 .data          0x00000000000d3338        0x4 libbb/lib.a(appletlib.o)
                0x00000000000d3338                bb_errno
 .data.xfunc_error_retval
                0x00000000000d333c        0x4 libbb/lib.a(default_error_retval.o)
                0x00000000000d333c                xfunc_error_retval
 .data          0x00000000000d3340        0x4 libbb/lib.a(messages.o)
                0x00000000000d3340                ptr_to_globals
 .data.msg_eol  0x00000000000d3344        0x4 libbb/lib.a(verror_msg.o)
                0x00000000000d3344                msg_eol
 .data.logmode  0x00000000000d3348        0x4 libbb/lib.a(verror_msg.o)
                0x00000000000d3348                logmode
 .data.fakehost
                0x00000000000d334c        0x4 loginutils/lib.a(getty.o)
 .data.baud_index.1
                0x00000000000d3350        0x4 loginutils/lib.a(getty.o)
 .data.CDir     0x00000000000d3354        0x4 miscutils/lib.a(crond.o)
 .data.LogLevel
                0x00000000000d3358        0x4 miscutils/lib.a(crond.o)
 .data.CDir     0x00000000000d335c        0x4 miscutils/lib.a(crontab.o)
 .data.device   0x00000000000d3360        0x4 networking/lib.a(arp.o)
 .data.count    0x00000000000d3364        0x4 networking/lib.a(arping.o)
 .data.ttl      0x00000000000d3368        0x4 networking/lib.a(dnsd.o)
 .data.fileconf
                0x00000000000d336c        0x4 networking/lib.a(dnsd.o)
 .data.SOCK_xxx.0
                0x00000000000d3370        0x6 networking/lib.a(inetd.o)
 *fill*         0x00000000000d3376        0x2 00
 .data.ip_func  0x00000000000d3378        0x4 networking/lib.a(ip.o)
 .data.net_conn_line
                0x00000000000d337c        0x4 networking/lib.a(netstat.o)
 .data.flags    0x00000000000d3380        0x4 networking/lib.a(netstat.o)
 .data.has_inode.0
                0x00000000000d3384        0x4 networking/lib.a(netstat.o)
 .data.loginpath
                0x00000000000d3388        0x4 networking/lib.a(telnetd.o)
 .data.issuefile
                0x00000000000d338c        0x4 networking/lib.a(telnetd.o)
 .data.maxpacket
                0x00000000000d3390        0x4 networking/lib.a(traceroute.o)
 .data.waittime
                0x00000000000d3394        0x4 networking/lib.a(traceroute.o)
 .data.port     0x00000000000d3398        0x2 networking/lib.a(traceroute.o)
 *fill*         0x00000000000d339a        0x2 00
 .data.doipcksum
                0x00000000000d339c        0x4 networking/lib.a(traceroute.o)
 .data.preferred_family
                0x00000000000d33a0        0x4 networking/libiproute/lib.a(ip_parse_common_args.o)
                0x00000000000d33a0                preferred_family
 .data.cache.8  0x00000000000d33a4        0x4 networking/libiproute/lib.a(rt_names.o)
 .data.cache.6  0x00000000000d33a8        0x4 networking/libiproute/lib.a(rt_names.o)
 .data.cache.4  0x00000000000d33ac        0x4 networking/libiproute/lib.a(rt_names.o)
 .data.cache.2  0x00000000000d33b0        0x4 networking/libiproute/lib.a(rt_names.o)
 .data.cache.0  0x00000000000d33b4        0x4 networking/libiproute/lib.a(rt_names.o)
 .data.sockfd   0x00000000000d33b8        0x4 networking/udhcp/lib.a(dhcpc.o)
 .data.check    0x00000000000d33bc        0x4 runit/lib.a(runsvdir.o)
 .data.SMrdn    0x00000000000d33c0        0xc sysklogd/lib.a(logread.o)
 .data.SMrup    0x00000000000d33cc        0x6 sysklogd/lib.a(logread.o)
 *fill*         0x00000000000d33d2        0x2 00
 .data.facilitynames
                0x00000000000d33d4       0xb8 sysklogd/lib.a(syslogd.o)
                0x00000000000d33d4                facilitynames
 .data.prioritynames
                0x00000000000d348c       0x68 sysklogd/lib.a(syslogd.o)
                0x00000000000d348c                prioritynames
 .data.partitions
                0x00000000000d34f4        0x4 util-linux/lib.a(fdisk.o)
 .data.type_open
                0x00000000000d34f8        0x4 util-linux/lib.a(fdisk.o)
 .data.display_in_cyl_units
                0x00000000000d34fc        0x4 util-linux/lib.a(fdisk.o)
 .data.sector_offset
                0x00000000000d3500        0x4 util-linux/lib.a(fdisk.o)
 .data.sector_size
                0x00000000000d3504        0x4 util-linux/lib.a(fdisk.o)
 .data.units_per_sector
                0x00000000000d3508        0x4 util-linux/lib.a(fdisk.o)
 .data.dos_compatible_flag
                0x00000000000d350c        0x4 util-linux/lib.a(fdisk.o)
 .data.saved_hardlinks.0
                0x00000000000d3510        0x4 archival/libunarchive/lib.a(get_header_cpio.o)
 .data.pending_hardlinks.1
                0x00000000000d3514        0x4 archival/libunarchive/lib.a(get_header_cpio.o)
 .data.ugid     0x00000000000d3518        0x8 coreutils/lib.a(chown.o)
 .data.delim    0x00000000000d3520        0x1 coreutils/lib.a(cut.o)
 *fill*         0x00000000000d3521        0x3 00
 .data.status   0x00000000000d3524        0x4 coreutils/lib.a(ls.o)
 .data.tabstops
                0x00000000000d3528        0x4 coreutils/lib.a(ls.o)
 .data.terminal_width
                0x00000000000d352c        0x4 coreutils/lib.a(ls.o)
 .data.max_col  0x00000000000d3530        0x4 coreutils/lib.a(stty.o)
                0x00000000000d3530                max_col
 .data.device_name
                0x00000000000d3534        0x4 coreutils/lib.a(stty.o)
 .data.user_id  0x00000000000d3538        0x4 debianutils/lib.a(start_stop_daemon.o)
 .data.signal_nr
                0x00000000000d353c        0x4 debianutils/lib.a(start_stop_daemon.o)
 .data.readonly_mode
                0x00000000000d3540        0x4 editors/lib.a(vi.o)
 .data.last_file_modified
                0x00000000000d3544        0x4 editors/lib.a(vi.o)
 .data.recurse_flags
                0x00000000000d3548        0x4 findutils/lib.a(find.o)
 .data.need_print
                0x00000000000d354c        0x1 findutils/lib.a(find.o)
 *fill*         0x00000000000d354d        0x3 00
 .data.init_action_list
                0x00000000000d3550        0x4 init/lib.a(init.o)
 .data.log_console
                0x00000000000d3554        0x4 init/lib.a(init.o)
 .data.got_cont
                0x00000000000d3558        0x4 init/lib.a(init.o)
 .data.log_fd.1
                0x00000000000d355c        0x4 init/lib.a(init.o)
 .data.bb_dump_length
                0x00000000000d3560        0x4 libbb/lib.a(dump.o)
                0x00000000000d3560                bb_dump_length
 .data.bb_dump_vflag
                0x00000000000d3564        0x4 libbb/lib.a(dump.o)
                0x00000000000d3564                bb_dump_vflag
 .data.ateof.2  0x00000000000d3568        0x4 libbb/lib.a(dump.o)
 .data.curp.3   0x00000000000d356c        0x4 libbb/lib.a(dump.o)
 .data.cache.0  0x00000000000d3570        0x4 libbb/lib.a(inet_common.o)
 .data.home_pwd_buf
                0x00000000000d3574        0x4 libbb/lib.a(lineedit.o)
 .data.num_ok_lines
                0x00000000000d3578        0x4 libbb/lib.a(lineedit.o)
 .data.cmdedit_termw
                0x00000000000d357c        0x4 libbb/lib.a(lineedit.o)
 .data.mask.0   0x00000000000d3580       0x10 libbb/lib.a(sha1.o)
 .data.bits.1   0x00000000000d3590       0x10 libbb/lib.a(sha1.o)
 *(SORT(.gnu.linkonce.d.*personality*))

.data1
 *(SORT(.data1))
                0x00000000000d35a0                _edata = .
                0x00000000000d35a0                PROVIDE (edata, .)
                0x00000000000d35a0                __bss_start = .

.bss            0x00000000000d35a0     0x2678
 *(SORT(.dynbss))
 .dynbss        0x00000000000d35a0       0x24 /opt/sparc-linux-3.4.4/lib/gcc/sparc-linux/3.4.4/../../../../sparc-linux/lib/soft/v8/crt1.o
                0x00000000000d35a0                environ@@GLIBC_2.0
                0x00000000000d35a4                opterr@@GLIBC_2.0
                0x00000000000d35a8                stdout@@GLIBC_2.0
                0x00000000000d35ac                stderr@@GLIBC_2.0
                0x00000000000d35b0                __daylight@@GLIBC_2.0
                0x00000000000d35b4                __timezone@@GLIBC_2.0
                0x00000000000d35b4                timezone@@GLIBC_2.0
                0x00000000000d35a0                __environ@@GLIBC_2.0
                0x00000000000d35a0                _environ@@GLIBC_2.0
                0x00000000000d35b8                stdin@@GLIBC_2.0
                0x00000000000d35b0                daylight@@GLIBC_2.0
                0x00000000000d35bc                optarg@@GLIBC_2.0
                0x00000000000d35c0                optind@@GLIBC_2.0
 *(SORT(.bss) .bss.* .gnu.linkonce.b.*)
 .bss           0x00000000000d35c4        0x1 /opt/sparc-linux-3.4.4/lib/gcc/sparc-linux/3.4.4/soft/v8/crtbegin.o
 *fill*         0x00000000000d35c5        0x3 00
 .bss.applet_name
                0x00000000000d35c8        0x4 libbb/lib.a(appletlib.o)
                0x00000000000d35c8                applet_name
 .bss.ruid      0x00000000000d35cc        0x4 libbb/lib.a(appletlib.o)
 .bss.die_sleep
                0x00000000000d35d0        0x4 libbb/lib.a(error_msg_and_die.o)
                0x00000000000d35d0                die_sleep
 .bss.die_jmp   0x00000000000d35d4       0x90 libbb/lib.a(error_msg_and_die.o)
                0x00000000000d35d4                die_jmp
 *fill*         0x00000000000d3664        0x4 00
 .bss.bb_common_bufsiz1
                0x00000000000d3668     0x2008 libbb/lib.a(messages.o)
                0x00000000000d3668                bb_common_bufsiz1
 .bss.local_buf
                0x00000000000d5670       0x10 libbb/lib.a(xfuncs.o)
 .bss.short_tty
                0x00000000000d5680        0x4 loginutils/lib.a(login.o)
 .bss.LogFile   0x00000000000d5684        0x4 miscutils/lib.a(crond.o)
 .bss.FileBase  0x00000000000d5688        0x4 miscutils/lib.a(crond.o)
 .bss.pointer   0x00000000000d568c        0x4 miscutils/lib.a(dc.o)
 .bss.base      0x00000000000d5690        0x1 miscutils/lib.a(dc.o)
 *fill*         0x00000000000d5691        0x3 00
 .bss.ps.0      0x00000000000d5694        0x4 miscutils/lib.a(time.o)
 .bss.depend    0x00000000000d5698        0x4 modutils/lib.a(modprobe.o)
 .bss.ap        0x00000000000d569c        0x4 networking/lib.a(arp.o)
 .bss.hw        0x00000000000d56a0        0x4 networking/lib.a(arp.o)
 .bss.sockfd    0x00000000000d56a4        0x4 networking/lib.a(arp.o)
 .bss.hw_set    0x00000000000d56a8        0x4 networking/lib.a(arp.o)
 .bss.start.0   0x00000000000d56ac        0x4 networking/lib.a(arping.o)
 .bss.src       0x00000000000d56b0        0x4 networking/lib.a(arping.o)
 .bss.dst       0x00000000000d56b4        0x4 networking/lib.a(arping.o)
 .bss.me        0x00000000000d56b8       0x14 networking/lib.a(arping.o)
 .bss.he        0x00000000000d56cc       0x14 networking/lib.a(arping.o)
 .bss.last      0x00000000000d56e0        0x4 networking/lib.a(arping.o)
 .bss.sock      0x00000000000d56e4        0x4 networking/lib.a(arping.o)
 .bss.timeout_us
                0x00000000000d56e8        0x4 networking/lib.a(arping.o)
 .bss.sent      0x00000000000d56ec        0x4 networking/lib.a(arping.o)
 .bss.brd_sent  0x00000000000d56f0        0x4 networking/lib.a(arping.o)
 .bss.received  0x00000000000d56f4        0x4 networking/lib.a(arping.o)
 .bss.brd_recv  0x00000000000d56f8        0x4 networking/lib.a(arping.o)
 .bss.req_recv  0x00000000000d56fc        0x4 networking/lib.a(arping.o)
 .bss.dnsentry  0x00000000000d5700        0x4 networking/lib.a(dnsd.o)
 .bss.verbose_flag
                0x00000000000d5704        0x4 networking/lib.a(ftpgetput.o)
 .bss.do_continue
                0x00000000000d5708        0x4 networking/lib.a(ftpgetput.o)
 *fill*         0x00000000000d570c        0x4 00
 .bss.label_buf.1
                0x00000000000d5710       0x18 networking/lib.a(ifupdown.o)
 .bss.my_environ
                0x00000000000d5728        0x4 networking/lib.a(ifupdown.o)
 .bss.startup_PATH
                0x00000000000d572c        0x4 networking/lib.a(ifupdown.o)
 .bss.buff.3    0x00000000000d5730        0x4 networking/lib.a(interface.o)
 .bss.buff.5    0x00000000000d5734        0x4 networking/lib.a(interface.o)
 .bss.buff.4    0x00000000000d5738        0x4 networking/lib.a(interface.o)
 .bss.proc_read.0
                0x00000000000d573c        0x4 networking/lib.a(interface.o)
 .bss.buff.6    0x00000000000d5740        0x4 networking/lib.a(interface.o)
 .bss.interface_opt_a
                0x00000000000d5744        0x4 networking/lib.a(interface.o)
                0x00000000000d5744                interface_opt_a
 .bss.int_list  0x00000000000d5748        0x4 networking/lib.a(interface.o)
 .bss.int_last  0x00000000000d574c        0x4 networking/lib.a(interface.o)
 .bss.maxfd     0x00000000000d5750        0x4 networking/lib.a(telnetd.o)
 .bss.sessions  0x00000000000d5754        0x4 networking/lib.a(telnetd.o)
 .bss.outip     0x00000000000d5758        0x4 networking/lib.a(traceroute.o)
 .bss.outudp    0x00000000000d575c        0x4 networking/lib.a(traceroute.o)
 .bss.outdata   0x00000000000d5760        0x4 networking/lib.a(traceroute.o)
 .bss.s         0x00000000000d5764        0x4 networking/lib.a(traceroute.o)
 .bss.sndsock   0x00000000000d5768        0x4 networking/lib.a(traceroute.o)
 .bss.packlen   0x00000000000d576c        0x4 networking/lib.a(traceroute.o)
 .bss.minpacket
                0x00000000000d5770        0x4 networking/lib.a(traceroute.o)
 .bss.pmtu      0x00000000000d5774        0x4 networking/lib.a(traceroute.o)
 .bss.hostname  0x00000000000d5778        0x4 networking/lib.a(traceroute.o)
 .bss.ident     0x00000000000d577c        0x2 networking/lib.a(traceroute.o)
 *fill*         0x00000000000d577e        0x2 00
 .bss.oneline   0x00000000000d5780        0x4 networking/libiproute/lib.a(ip_parse_common_args.o)
                0x00000000000d5780                oneline
 .bss._SL_      0x00000000000d5784        0x1 networking/libiproute/lib.a(ip_parse_common_args.o)
                0x00000000000d5784                _SL_
 *fill*         0x00000000000d5785        0x3 00
 .bss.hz_internal.2
                0x00000000000d5788        0x4 networking/libiproute/lib.a(iproute.o)
 *fill*         0x00000000000d578c        0x4 00
 .bss.nbuf.0    0x00000000000d5790       0x10 networking/libiproute/lib.a(ll_map.o)
 .bss.idxmap    0x00000000000d57a0       0x40 networking/libiproute/lib.a(ll_map.o)
 .bss.res.9     0x00000000000d57e0        0x4 networking/libiproute/lib.a(rt_names.o)
 .bss.res.7     0x00000000000d57e4        0x4 networking/libiproute/lib.a(rt_names.o)
 .bss.res.5     0x00000000000d57e8        0x4 networking/libiproute/lib.a(rt_names.o)
 .bss.res.3     0x00000000000d57ec        0x4 networking/libiproute/lib.a(rt_names.o)
 .bss.res.1     0x00000000000d57f0        0x4 networking/libiproute/lib.a(rt_names.o)
 .bss.rtnl_rtprot_tab
                0x00000000000d57f4        0x4 networking/libiproute/lib.a(rt_names.o)
 .bss.rtnl_rtscope_tab
                0x00000000000d57f8        0x4 networking/libiproute/lib.a(rt_names.o)
 .bss.rtnl_rtrealm_tab
                0x00000000000d57fc        0x4 networking/libiproute/lib.a(rt_names.o)
 .bss.rtnl_rtdsfield_tab
                0x00000000000d5800        0x4 networking/libiproute/lib.a(rt_names.o)
 .bss.rtnl_rttable_tab
                0x00000000000d5804        0x4 networking/libiproute/lib.a(rt_names.o)
 .bss.timeout   0x00000000000d5808        0x4 networking/udhcp/lib.a(dhcpc.o)
 .bss.requested_ip
                0x00000000000d580c        0x4 networking/udhcp/lib.a(dhcpc.o)
 .bss.server_addr
                0x00000000000d5810        0x4 networking/udhcp/lib.a(dhcpc.o)
 .bss.packet_num
                0x00000000000d5814        0x4 networking/udhcp/lib.a(dhcpc.o)
 .bss.listen_mode
                0x00000000000d5818        0x4 networking/udhcp/lib.a(dhcpc.o)
 .bss.state     0x00000000000d581c        0x4 networking/udhcp/lib.a(dhcpc.o)
 .bss.leases    0x00000000000d5820        0x4 networking/udhcp/lib.a(dhcpd.o)
                0x00000000000d5820                leases
 *fill*         0x00000000000d5824        0x4 00
 .bss.blank_chaddr.0
                0x00000000000d5828       0x10 networking/udhcp/lib.a(leases.o)
 .bss.signal_pipe
                0x00000000000d5838        0x8 networking/udhcp/lib.a(signalpipe.o)
 .bss.initialized.0
                0x00000000000d5840        0x4 networking/udhcp/lib.a(clientpacket.o)
 .bss.sv        0x00000000000d5844        0x4 runit/lib.a(runsvdir.o)
 .bss.svdir     0x00000000000d5848        0x4 runit/lib.a(runsvdir.o)
 .bss.svnum     0x00000000000d584c        0x4 runit/lib.a(runsvdir.o)
 .bss.rplog     0x00000000000d5850        0x4 runit/lib.a(runsvdir.o)
 .bss.rploglen  0x00000000000d5854        0x4 runit/lib.a(runsvdir.o)
 .bss.logpipe   0x00000000000d5858        0x8 runit/lib.a(runsvdir.o)
 .bss.pfd       0x00000000000d5860        0x8 runit/lib.a(runsvdir.o)
 .bss.stamplog  0x00000000000d5868        0x4 runit/lib.a(runsvdir.o)
 .bss.exitsoon  0x00000000000d586c        0x4 runit/lib.a(runsvdir.o)
 .bss.set_pgrp  0x00000000000d5870        0x4 runit/lib.a(runsvdir.o)
 .bss.shbuf     0x00000000000d5874        0x4 sysklogd/lib.a(logread.o)
 .bss.g_options
                0x00000000000d5878        0x4 util-linux/lib.a(fbset.o)
 .bss.user_set_sector_size
                0x00000000000d587c        0x4 util-linux/lib.a(fdisk.o)
 .bss.heads     0x00000000000d5880        0x4 util-linux/lib.a(fdisk.o)
 .bss.sectors   0x00000000000d5884        0x4 util-linux/lib.a(fdisk.o)
 .bss.cylinders
                0x00000000000d5888        0x4 util-linux/lib.a(fdisk.o)
 .bss.current_label_type
                0x00000000000d588c        0x4 util-linux/lib.a(fdisk.o)
 .bss.disk_device
                0x00000000000d5890        0x4 util-linux/lib.a(fdisk.o)
 .bss.fd        0x00000000000d5894        0x4 util-linux/lib.a(fdisk.o)
 .bss.ext_index
                0x00000000000d5898        0x4 util-linux/lib.a(fdisk.o)
 .bss.listing   0x00000000000d589c        0x4 util-linux/lib.a(fdisk.o)
 .bss.dos_changed
                0x00000000000d58a0        0x4 util-linux/lib.a(fdisk.o)
 .bss.nowarn    0x00000000000d58a4        0x4 util-linux/lib.a(fdisk.o)
 .bss.user_cylinders
                0x00000000000d58a8        0x4 util-linux/lib.a(fdisk.o)
 .bss.user_heads
                0x00000000000d58ac        0x4 util-linux/lib.a(fdisk.o)
 .bss.user_sectors
                0x00000000000d58b0        0x4 util-linux/lib.a(fdisk.o)
 .bss.pt_heads  0x00000000000d58b4        0x4 util-linux/lib.a(fdisk.o)
 .bss.pt_sectors
                0x00000000000d58b8        0x4 util-linux/lib.a(fdisk.o)
 .bss.kern_heads
                0x00000000000d58bc        0x4 util-linux/lib.a(fdisk.o)
 .bss.kern_sectors
                0x00000000000d58c0        0x4 util-linux/lib.a(fdisk.o)
 *fill*         0x00000000000d58c4        0x4 00
 .bss.extended_offset
                0x00000000000d58c8        0x8 util-linux/lib.a(fdisk.o)
 .bss.total_number_of_sectors
                0x00000000000d58d0        0x8 util-linux/lib.a(fdisk.o)
 .bss.rtcname   0x00000000000d58d8        0x4 util-linux/lib.a(hwclock.o)
 .bss.format    0x00000000000d58dc        0x1 util-linux/lib.a(ipcs.o)
 *fill*         0x00000000000d58dd        0x3 00
 .bss.fslist    0x00000000000d58e0        0x4 util-linux/lib.a(mount.o)
 .bss.nfs_mount_version
                0x00000000000d58e4        0x4 util-linux/lib.a(mount.o)
 .bss.rootdev   0x00000000000d58e8        0x8 util-linux/lib.a(switch_root.o)
 .bss.level     0x00000000000d58f0        0x1 archival/lib.a(bzip2.o)
 *fill*         0x00000000000d58f1        0x3 00
 .bss.map       0x00000000000d58f4        0x4 archival/lib.a(rpm.o)
 .bss.mytags    0x00000000000d58f8        0x4 archival/lib.a(rpm.o)
 .bss.tagcount  0x00000000000d58fc        0x4 archival/lib.a(rpm.o)
 .bss.warned.0  0x00000000000d5900        0x4 archival/lib.a(tar.o)
 .bss.ar_long_names.0
                0x00000000000d5904        0x4 archival/libunarchive/lib.a(get_header_ar.o)
 .bss.ar_long_name_size.1
                0x00000000000d5908        0x4 archival/libunarchive/lib.a(get_header_ar.o)
 .bss.inode.2   0x00000000000d590c        0x4 archival/libunarchive/lib.a(get_header_cpio.o)
 .bss.end.0     0x00000000000d5910        0x4 archival/libunarchive/lib.a(get_header_tar.o)
 .bss.longname  0x00000000000d5914        0x4 archival/libunarchive/lib.a(get_header_tar.o)
 .bss.linkname  0x00000000000d5918        0x4 archival/libunarchive/lib.a(get_header_tar.o)
 .bss.julian    0x00000000000d591c        0x4 coreutils/lib.a(cal.o)
 .bss.cut_lists
                0x00000000000d5920        0x4 coreutils/lib.a(cut.o)
 .bss.nlists    0x00000000000d5924        0x4 coreutils/lib.a(cut.o)
 .bss.flags     0x00000000000d5928        0x4 coreutils/lib.a(fold.o)
 .bss.show_color
                0x00000000000d592c        0x4 coreutils/lib.a(ls.o)
 .bss.all_fmt   0x00000000000d5930        0x4 coreutils/lib.a(ls.o)
 .bss.current_time_t
                0x00000000000d5934        0x4 coreutils/lib.a(ls.o)
 .bss.key_separator
                0x00000000000d5938        0x1 coreutils/lib.a(sort.o)
 *fill*         0x00000000000d5939        0x3 00
 .bss.key_list  0x00000000000d593c        0x4 coreutils/lib.a(sort.o)
 .bss.t_wp      0x00000000000d5940        0x4 coreutils/lib.a(test.o)
 .bss.t_wp_op   0x00000000000d5944        0x4 coreutils/lib.a(test.o)
 .bss.group_array
                0x00000000000d5948        0x4 coreutils/lib.a(test.o)
 .bss.ngroups   0x00000000000d594c        0x4 coreutils/lib.a(test.o)
 .bss.leaving   0x00000000000d5950       0x90 coreutils/lib.a(test.o)
 .bss.userspec  0x00000000000d59e0        0x4 debianutils/lib.a(start_stop_daemon.o)
 .bss.cmdname   0x00000000000d59e4        0x4 debianutils/lib.a(start_stop_daemon.o)
 .bss.execname  0x00000000000d59e8        0x4 debianutils/lib.a(start_stop_daemon.o)
 .bss.pidfile   0x00000000000d59ec        0x4 debianutils/lib.a(start_stop_daemon.o)
 .bss.quiet     0x00000000000d59f0        0x4 debianutils/lib.a(start_stop_daemon.o)
 .bss.found     0x00000000000d59f4        0x4 debianutils/lib.a(start_stop_daemon.o)
 .bss.kill_sent.0
                0x00000000000d59f8        0x4 e2fsprogs/lib.a(fsck.o)
 .bss.devices   0x00000000000d59fc        0x4 e2fsprogs/lib.a(fsck.o)
 .bss.args      0x00000000000d5a00        0x4 e2fsprogs/lib.a(fsck.o)
 .bss.num_devices
                0x00000000000d5a04        0x4 e2fsprogs/lib.a(fsck.o)
 .bss.num_args  0x00000000000d5a08        0x4 e2fsprogs/lib.a(fsck.o)
 .bss.verbose   0x00000000000d5a0c        0x4 e2fsprogs/lib.a(fsck.o)
 .bss.fs_type_list
                0x00000000000d5a10        0x4 e2fsprogs/lib.a(fsck.o)
 .bss.fs_type_flag
                0x00000000000d5a14        0x4 e2fsprogs/lib.a(fsck.o)
 .bss.fs_type_negated
                0x00000000000d5a18        0x4 e2fsprogs/lib.a(fsck.o)
 .bss.cancel_requested
                0x00000000000d5a1c        0x4 e2fsprogs/lib.a(fsck.o)
 .bss.doall     0x00000000000d5a20        0x4 e2fsprogs/lib.a(fsck.o)
 .bss.noexecute
                0x00000000000d5a24        0x4 e2fsprogs/lib.a(fsck.o)
 .bss.serialize
                0x00000000000d5a28        0x4 e2fsprogs/lib.a(fsck.o)
 .bss.skip_root
                0x00000000000d5a2c        0x4 e2fsprogs/lib.a(fsck.o)
 .bss.notitle   0x00000000000d5a30        0x4 e2fsprogs/lib.a(fsck.o)
 .bss.parallel_root
                0x00000000000d5a34        0x4 e2fsprogs/lib.a(fsck.o)
 .bss.force_all_parallel
                0x00000000000d5a38        0x4 e2fsprogs/lib.a(fsck.o)
 .bss.num_running
                0x00000000000d5a3c        0x4 e2fsprogs/lib.a(fsck.o)
 .bss.max_running
                0x00000000000d5a40        0x4 e2fsprogs/lib.a(fsck.o)
 .bss.fstype    0x00000000000d5a44        0x4 e2fsprogs/lib.a(fsck.o)
 .bss.filesys_info
                0x00000000000d5a48        0x4 e2fsprogs/lib.a(fsck.o)
 .bss.filesys_last
                0x00000000000d5a4c        0x4 e2fsprogs/lib.a(fsck.o)
 .bss.instance_list
                0x00000000000d5a50        0x4 e2fsprogs/lib.a(fsck.o)
 .bss.c.1       0x00000000000d5a54        0x1 editors/lib.a(vi.o)
 *fill*         0x00000000000d5a55        0x3 00
 .bss.old_offset.4
                0x00000000000d5a58        0x4 editors/lib.a(vi.o)
 .bss.tot.5     0x00000000000d5a5c        0x4 editors/lib.a(vi.o)
 .bss.obufp.3   0x00000000000d5a60        0x4 editors/lib.a(vi.o)
 .bss.cur_line.0
                0x00000000000d5a64        0x4 editors/lib.a(vi.o)
 .bss.vi_setops
                0x00000000000d5a68        0x4 editors/lib.a(vi.o)
 .bss.editing   0x00000000000d5a6c        0x4 editors/lib.a(vi.o)
 .bss.cmd_mode  0x00000000000d5a70        0x4 editors/lib.a(vi.o)
 .bss.file_modified
                0x00000000000d5a74        0x4 editors/lib.a(vi.o)
 .bss.fn_start  0x00000000000d5a78        0x4 editors/lib.a(vi.o)
 .bss.save_argc
                0x00000000000d5a7c        0x4 editors/lib.a(vi.o)
 .bss.cmdcnt    0x00000000000d5a80        0x4 editors/lib.a(vi.o)
 .bss.rows      0x00000000000d5a84        0x4 editors/lib.a(vi.o)
 .bss.columns   0x00000000000d5a88        0x4 editors/lib.a(vi.o)
 .bss.crow      0x00000000000d5a8c        0x4 editors/lib.a(vi.o)
 .bss.ccol      0x00000000000d5a90        0x4 editors/lib.a(vi.o)
 .bss.offset    0x00000000000d5a94        0x4 editors/lib.a(vi.o)
 .bss.status_buffer
                0x00000000000d5a98        0x4 editors/lib.a(vi.o)
 .bss.have_status_msg
                0x00000000000d5a9c        0x4 editors/lib.a(vi.o)
 .bss.last_status_cksum
                0x00000000000d5aa0        0x4 editors/lib.a(vi.o)
 .bss.current_filename
                0x00000000000d5aa4        0x4 editors/lib.a(vi.o)
 .bss.screen    0x00000000000d5aa8        0x4 editors/lib.a(vi.o)
 .bss.screensize
                0x00000000000d5aac        0x4 editors/lib.a(vi.o)
 .bss.screenbegin
                0x00000000000d5ab0        0x4 editors/lib.a(vi.o)
 .bss.tabstop   0x00000000000d5ab4        0x4 editors/lib.a(vi.o)
 .bss.erase_char
                0x00000000000d5ab8        0x1 editors/lib.a(vi.o)
 .bss.last_input_char
                0x00000000000d5ab9        0x1 editors/lib.a(vi.o)
 .bss.last_forward_char
                0x00000000000d5aba        0x1 editors/lib.a(vi.o)
 *fill*         0x00000000000d5abb        0x1 00
 .bss.adding2q  0x00000000000d5abc        0x4 editors/lib.a(vi.o)
 .bss.last_modifying_cmd
                0x00000000000d5ac0        0x4 editors/lib.a(vi.o)
 .bss.ioq       0x00000000000d5ac4        0x4 editors/lib.a(vi.o)
 .bss.ioq_start
                0x00000000000d5ac8        0x4 editors/lib.a(vi.o)
 .bss.last_row  0x00000000000d5acc        0x4 editors/lib.a(vi.o)
 .bss.my_pid    0x00000000000d5ad0        0x4 editors/lib.a(vi.o)
 .bss.modifying_cmds
                0x00000000000d5ad4        0x4 editors/lib.a(vi.o)
 .bss.last_search_pattern
                0x00000000000d5ad8        0x4 editors/lib.a(vi.o)
 .bss.readed_for_parse
                0x00000000000d5adc        0x4 editors/lib.a(vi.o)
 .bss.xdev_dev  0x00000000000d5ae0        0x4 findutils/lib.a(find.o)
 .bss.xdev_count
                0x00000000000d5ae4        0x4 findutils/lib.a(find.o)
 .bss.actions   0x00000000000d5ae8        0x4 findutils/lib.a(find.o)
 .bss.eof_stdin_detected
                0x00000000000d5aec        0x4 findutils/lib.a(xargs.o)
 .bss.cc        0x00000000000d5af0        0x4 ipsvd/lib.a(ipsvd_perhost.o)
 .bss.cclen     0x00000000000d5af4        0x4 ipsvd/lib.a(ipsvd_perhost.o)
 .bss.passwd.0  0x00000000000d5af8        0x4 libbb/lib.a(bb_askpass.o)
 .bss.done.1    0x00000000000d5afc        0x4 libbb/lib.a(dump.o)
 .bss.savp.4    0x00000000000d5b00        0x4 libbb/lib.a(dump.o)
 .bss.nextfs.0  0x00000000000d5b04        0x4 libbb/lib.a(dump.o)
 .bss.bb_dump_fshead
                0x00000000000d5b08        0x4 libbb/lib.a(dump.o)
                0x00000000000d5b08                bb_dump_fshead
 .bss.bb_dump_blocksize
                0x00000000000d5b0c        0x4 libbb/lib.a(dump.o)
                0x00000000000d5b0c                bb_dump_blocksize
 .bss.bb_dump_skip
                0x00000000000d5b10        0x8 libbb/lib.a(dump.o)
                0x00000000000d5b10                bb_dump_skip
 .bss.endfu     0x00000000000d5b18        0x4 libbb/lib.a(dump.o)
 .bss._argv     0x00000000000d5b1c        0x4 libbb/lib.a(dump.o)
 .bss.savaddress
                0x00000000000d5b20        0x8 libbb/lib.a(dump.o)
 .bss.eaddress  0x00000000000d5b28        0x8 libbb/lib.a(dump.o)
 .bss.address   0x00000000000d5b30        0x8 libbb/lib.a(dump.o)
 .bss.exitval   0x00000000000d5b38        0x4 libbb/lib.a(dump.o)
 .bss.opt_complementary
                0x00000000000d5b3c        0x4 libbb/lib.a(getopt32.o)
                0x00000000000d5b3c                opt_complementary
 .bss.applet_long_options
                0x00000000000d5b40        0x4 libbb/lib.a(getopt32.o)
                0x00000000000d5b40                applet_long_options
 .bss.option_mask32
                0x00000000000d5b44        0x4 libbb/lib.a(getopt32.o)
                0x00000000000d5b44                option_mask32
 .bss.str.3     0x00000000000d5b48       0x15 libbb/lib.a(human_readable.o)
 *fill*         0x00000000000d5b5d        0x3 00
 .bss.ino_dev_hashtable
                0x00000000000d5b60        0x4 libbb/lib.a(inode_hash.o)
 .bss.state     0x00000000000d5b64        0x4 libbb/lib.a(lineedit.o)
 .bss.initial_settings
                0x00000000000d5b68       0x24 libbb/lib.a(lineedit.o)
 .bss.new_settings
                0x00000000000d5b8c       0x24 libbb/lib.a(lineedit.o)
 .bss.cmdedit_x
                0x00000000000d5bb0        0x4 libbb/lib.a(lineedit.o)
 .bss.cmdedit_y
                0x00000000000d5bb4        0x4 libbb/lib.a(lineedit.o)
 .bss.cmdedit_prmt_len
                0x00000000000d5bb8        0x4 libbb/lib.a(lineedit.o)
 .bss.cursor    0x00000000000d5bbc        0x4 libbb/lib.a(lineedit.o)
 .bss.command_len
                0x00000000000d5bc0        0x4 libbb/lib.a(lineedit.o)
 .bss.command_ps
                0x00000000000d5bc4        0x4 libbb/lib.a(lineedit.o)
 .bss.cmdedit_prompt
                0x00000000000d5bc8        0x4 libbb/lib.a(lineedit.o)
 .bss.hostname_buf
                0x00000000000d5bcc        0x4 libbb/lib.a(lineedit.o)
 .bss.user_buf  0x00000000000d5bd0        0x4 libbb/lib.a(lineedit.o)
 .bss.matches   0x00000000000d5bd4        0x4 libbb/lib.a(lineedit.o)
 .bss.num_matches
                0x00000000000d5bd8        0x4 libbb/lib.a(lineedit.o)
 .bss.previous_SIGWINCH_handler
                0x00000000000d5bdc        0x4 libbb/lib.a(lineedit.o)
 .bss.buf.0     0x00000000000d5be0       0x10 libbb/lib.a(mode_string.o)
 .bss.wrote_pidfile
                0x00000000000d5bf0        0x4 libbb/lib.a(pidfile.o)
                0x00000000000d5bf0                wrote_pidfile
 .bss.username  0x00000000000d5bf4        0x8 libbb/lib.a(procps.o)
 .bss.groupname
                0x00000000000d5bfc        0x8 libbb/lib.a(procps.o)
 .bss.cipher.0  0x00000000000d5c04        0x4 libbb/lib.a(pw_encrypt.o)
 .bss.ptr_to_statics
                0x00000000000d5c08        0x4 libpwdgrp/lib.a(pwd_grp.o)
 .bss.pwf       0x00000000000d5c0c        0x4 libpwdgrp/lib.a(pwd_grp.o)
 .bss.grf       0x00000000000d5c10        0x4 libpwdgrp/lib.a(pwd_grp.o)
 *(SORT(COMMON))
                0x00000000000d5c18                . = ALIGN (0x8)
 *fill*         0x00000000000d5c14        0x4 00
 *fill*         0x00000000000d5c18        0x0 00
 *fill*         0x00000000000d5c18        0x0 00
 *fill*         0x00000000000d5c18        0x0 00
 *fill*         0x00000000000d5c18        0x0 00
 *fill*         0x00000000000d5c18        0x0 00
 *fill*         0x00000000000d5c18        0x0 00
 *fill*         0x00000000000d5c18        0x0 00
                0x00000000000d5c18                . = ALIGN (0x8)
                0x00000000000d5c18                _end = .
                0x00000000000d5c18                PROVIDE (end, .)
                0x00000000000d5c18                . = DATA_SEGMENT_END (.)

.stab
 *(SORT(.stab))

.stabstr
 *(SORT(.stabstr))

.stab.excl
 *(SORT(.stab.excl))

.stab.exclstr
 *(SORT(.stab.exclstr))

.stab.index
 *(SORT(.stab.index))

.stab.indexstr
 *(SORT(.stab.indexstr))

.comment        0x0000000000000000     0x1e18
 *(SORT(.comment))
 .comment       0x0000000000000000       0x12 /opt/sparc-linux-3.4.4/lib/gcc/sparc-linux/3.4.4/../../../../sparc-linux/lib/soft/v8/crt1.o
 .comment       0x0000000000000012       0x12 /opt/sparc-linux-3.4.4/lib/gcc/sparc-linux/3.4.4/soft/v8/crtbegin.o
 .comment       0x0000000000000024       0x12 applets/built-in.o
 .comment       0x0000000000000036       0x12 libbb/lib.a(appletlib.o)
 .comment       0x0000000000000048       0x12 libbb/lib.a(bb_basename.o)
 .comment       0x000000000000005a       0x12 libbb/lib.a(concat_path_file.o)
 .comment       0x000000000000006c       0x12 libbb/lib.a(default_error_retval.o)
 .comment       0x000000000000007e       0x12 libbb/lib.a(error_msg_and_die.o)
 .comment       0x0000000000000090       0x12 libbb/lib.a(get_last_path_component.o)
 .comment       0x00000000000000a2       0x12 libbb/lib.a(last_char_is.o)
 .comment       0x00000000000000b4       0x12 libbb/lib.a(messages.o)
 .comment       0x00000000000000c6       0x12 libbb/lib.a(perror_msg.o)
 .comment       0x00000000000000d8       0x12 libbb/lib.a(verror_msg.o)
 .comment       0x00000000000000ea       0x12 libbb/lib.a(xfuncs.o)
 .comment       0x00000000000000fc       0x12 libbb/lib.a(xreadlink.o)
 .comment       0x000000000000010e       0x12 libbb/lib.a(copyfd.o)
 .comment       0x0000000000000120       0x12 libbb/lib.a(error_msg.o)
 .comment       0x0000000000000132       0x12 libbb/lib.a(full_write.o)
 .comment       0x0000000000000144       0x12 libbb/lib.a(perror_msg_and_die.o)
 .comment       0x0000000000000156       0x12 libbb/lib.a(read.o)
 .comment       0x0000000000000168       0x12 libbb/lib.a(safe_write.o)
 .comment       0x000000000000017a       0x12 loginutils/lib.a(addgroup.o)
 .comment       0x000000000000018c       0x12 loginutils/lib.a(adduser.o)
 .comment       0x000000000000019e       0x12 loginutils/lib.a(chpasswd.o)
 .comment       0x00000000000001b0       0x12 loginutils/lib.a(cryptpw.o)
 .comment       0x00000000000001c2       0x12 loginutils/lib.a(deluser.o)
 .comment       0x00000000000001d4       0x12 loginutils/lib.a(getty.o)
 .comment       0x00000000000001e6       0x12 loginutils/lib.a(login.o)
 .comment       0x00000000000001f8       0x12 loginutils/lib.a(passwd.o)
 .comment       0x000000000000020a       0x12 loginutils/lib.a(su.o)
 .comment       0x000000000000021c       0x12 loginutils/lib.a(sulogin.o)
 .comment       0x000000000000022e       0x12 loginutils/lib.a(vlock.o)
 .comment       0x0000000000000240       0x12 miscutils/lib.a(adjtimex.o)
 .comment       0x0000000000000252       0x12 miscutils/lib.a(chrt.o)
 .comment       0x0000000000000264       0x12 miscutils/lib.a(crond.o)
 .comment       0x0000000000000276       0x12 miscutils/lib.a(crontab.o)
 .comment       0x0000000000000288       0x12 miscutils/lib.a(dc.o)
 .comment       0x000000000000029a       0x12 miscutils/lib.a(eject.o)
 .comment       0x00000000000002ac       0x12 miscutils/lib.a(hdparm.o)
 .comment       0x00000000000002be       0x12 miscutils/lib.a(last.o)
 .comment       0x00000000000002d0       0x12 miscutils/lib.a(less.o)
 .comment       0x00000000000002e2       0x12 miscutils/lib.a(makedevs.o)
 .comment       0x00000000000002f4       0x12 miscutils/lib.a(microcom.o)
 .comment       0x0000000000000306       0x12 miscutils/lib.a(mountpoint.o)
 .comment       0x0000000000000318       0x12 miscutils/lib.a(mt.o)
 .comment       0x000000000000032a       0x12 miscutils/lib.a(raidautorun.o)
 .comment       0x000000000000033c       0x12 miscutils/lib.a(readahead.o)
 .comment       0x000000000000034e       0x12 miscutils/lib.a(runlevel.o)
 .comment       0x0000000000000360       0x12 miscutils/lib.a(rx.o)
 .comment       0x0000000000000372       0x12 miscutils/lib.a(setsid.o)
 .comment       0x0000000000000384       0x12 miscutils/lib.a(strings.o)
 .comment       0x0000000000000396       0x12 miscutils/lib.a(time.o)
 .comment       0x00000000000003a8       0x12 miscutils/lib.a(ttysize.o)
 .comment       0x00000000000003ba       0x12 miscutils/lib.a(watchdog.o)
 .comment       0x00000000000003cc       0x12 modutils/lib.a(lsmod.o)
 .comment       0x00000000000003de       0x12 modutils/lib.a(modprobe.o)
 .comment       0x00000000000003f0       0x12 networking/lib.a(arp.o)
 .comment       0x0000000000000402       0x12 networking/lib.a(arping.o)
 .comment       0x0000000000000414       0x12 networking/lib.a(dnsd.o)
 .comment       0x0000000000000426       0x12 networking/lib.a(ether-wake.o)
 .comment       0x0000000000000438       0x12 networking/lib.a(ftpgetput.o)
 .comment       0x000000000000044a       0x12 networking/lib.a(hostname.o)
 .comment       0x000000000000045c       0x12 networking/lib.a(httpd.o)
 .comment       0x000000000000046e       0x12 networking/lib.a(ifconfig.o)
 .comment       0x0000000000000480       0x12 networking/lib.a(ifupdown.o)
 .comment       0x0000000000000492       0x12 networking/lib.a(inetd.o)
 .comment       0x00000000000004a4       0x12 networking/lib.a(interface.o)
 .comment       0x00000000000004b6       0x12 networking/lib.a(ip.o)
 .comment       0x00000000000004c8       0x12 networking/lib.a(ipcalc.o)
 .comment       0x00000000000004da       0x12 networking/lib.a(isrv_identd.o)
 .comment       0x00000000000004ec       0x12 networking/lib.a(nameif.o)
 .comment       0x00000000000004fe       0x12 networking/lib.a(nc.o)
 .comment       0x0000000000000510       0x12 networking/lib.a(netstat.o)
 .comment       0x0000000000000522       0x12 networking/lib.a(nslookup.o)
 .comment       0x0000000000000534       0x12 networking/lib.a(ping.o)
 .comment       0x0000000000000546       0x12 networking/lib.a(pscan.o)
 .comment       0x0000000000000558       0x12 networking/lib.a(route.o)
 .comment       0x000000000000056a       0x12 networking/lib.a(slattach.o)
 .comment       0x000000000000057c       0x12 networking/lib.a(telnet.o)
 .comment       0x000000000000058e       0x12 networking/lib.a(telnetd.o)
 .comment       0x00000000000005a0       0x12 networking/lib.a(tftp.o)
 .comment       0x00000000000005b2       0x12 networking/lib.a(traceroute.o)
 .comment       0x00000000000005c4       0x12 networking/lib.a(vconfig.o)
 .comment       0x00000000000005d6       0x12 networking/lib.a(wget.o)
 .comment       0x00000000000005e8       0x12 networking/lib.a(zcip.o)
 .comment       0x00000000000005fa       0x12 networking/lib.a(isrv.o)
 .comment       0x000000000000060c       0x12 networking/libiproute/lib.a(ip_parse_common_args.o)
 .comment       0x000000000000061e       0x12 networking/libiproute/lib.a(ipaddress.o)
 .comment       0x0000000000000630       0x12 networking/libiproute/lib.a(iplink.o)
 .comment       0x0000000000000642       0x12 networking/libiproute/lib.a(iproute.o)
 .comment       0x0000000000000654       0x12 networking/libiproute/lib.a(iprule.o)
 .comment       0x0000000000000666       0x12 networking/libiproute/lib.a(iptunnel.o)
 .comment       0x0000000000000678       0x12 networking/libiproute/lib.a(libnetlink.o)
 .comment       0x000000000000068a       0x12 networking/libiproute/lib.a(ll_addr.o)
 .comment       0x000000000000069c       0x12 networking/libiproute/lib.a(ll_map.o)
 .comment       0x00000000000006ae       0x12 networking/libiproute/lib.a(ll_types.o)
 .comment       0x00000000000006c0       0x12 networking/libiproute/lib.a(rt_names.o)
 .comment       0x00000000000006d2       0x12 networking/libiproute/lib.a(rtm_map.o)
 .comment       0x00000000000006e4       0x12 networking/libiproute/lib.a(utils.o)
 .comment       0x00000000000006f6       0x12 networking/udhcp/lib.a(dhcpc.o)
 .comment       0x0000000000000708       0x12 networking/udhcp/lib.a(dhcpd.o)
 .comment       0x000000000000071a       0x12 networking/udhcp/lib.a(dhcprelay.o)
 .comment       0x000000000000072c       0x12 networking/udhcp/lib.a(dumpleases.o)
 .comment       0x000000000000073e       0x12 networking/udhcp/lib.a(files.o)
 .comment       0x0000000000000750       0x12 networking/udhcp/lib.a(leases.o)
 .comment       0x0000000000000762       0x12 networking/udhcp/lib.a(options.o)
 .comment       0x0000000000000774       0x12 networking/udhcp/lib.a(packet.o)
 .comment       0x0000000000000786       0x12 networking/udhcp/lib.a(script.o)
 .comment       0x0000000000000798       0x12 networking/udhcp/lib.a(serverpacket.o)
 .comment       0x00000000000007aa       0x12 networking/udhcp/lib.a(signalpipe.o)
 .comment       0x00000000000007bc       0x12 networking/udhcp/lib.a(socket.o)
 .comment       0x00000000000007ce       0x12 networking/udhcp/lib.a(static_leases.o)
 .comment       0x00000000000007e0       0x12 networking/udhcp/lib.a(arpping.o)
 .comment       0x00000000000007f2       0x12 networking/udhcp/lib.a(clientpacket.o)
 .comment       0x0000000000000804       0x12 networking/udhcp/lib.a(clientsocket.o)
 .comment       0x0000000000000816       0x12 networking/udhcp/lib.a(common.o)
 .comment       0x0000000000000828       0x12 networking/udhcp/lib.a(domain_codec.o)
 .comment       0x000000000000083a       0x12 procps/lib.a(free.o)
 .comment       0x000000000000084c       0x12 procps/lib.a(fuser.o)
 .comment       0x000000000000085e       0x12 procps/lib.a(kill.o)
 .comment       0x0000000000000870       0x12 procps/lib.a(nmeter.o)
 .comment       0x0000000000000882       0x12 procps/lib.a(pgrep.o)
 .comment       0x0000000000000894       0x12 procps/lib.a(pidof.o)
 .comment       0x00000000000008a6       0x12 procps/lib.a(ps.o)
 .comment       0x00000000000008b8       0x12 procps/lib.a(renice.o)
 .comment       0x00000000000008ca       0x12 procps/lib.a(sysctl.o)
 .comment       0x00000000000008dc       0x12 procps/lib.a(top.o)
 .comment       0x00000000000008ee       0x12 procps/lib.a(uptime.o)
 .comment       0x0000000000000900       0x12 procps/lib.a(watch.o)
 .comment       0x0000000000000912       0x12 runit/lib.a(chpst.o)
 .comment       0x0000000000000924       0x12 runit/lib.a(runsv.o)
 .comment       0x0000000000000936       0x12 runit/lib.a(runsvdir.o)
 .comment       0x0000000000000948       0x12 runit/lib.a(sv.o)
 .comment       0x000000000000095a       0x12 runit/lib.a(svlogd.o)
 .comment       0x000000000000096c       0x12 runit/lib.a(runit_lib.o)
 .comment       0x000000000000097e       0x12 shell/lib.a(hush.o)
 .comment       0x0000000000000990       0x12 sysklogd/lib.a(klogd.o)
 .comment       0x00000000000009a2       0x12 sysklogd/lib.a(logger.o)
 .comment       0x00000000000009b4       0x12 sysklogd/lib.a(logread.o)
 .comment       0x00000000000009c6       0x12 sysklogd/lib.a(syslogd.o)
 .comment       0x00000000000009d8       0x12 util-linux/lib.a(dmesg.o)
 .comment       0x00000000000009ea       0x12 util-linux/lib.a(fbset.o)
 .comment       0x00000000000009fc       0x12 util-linux/lib.a(fdformat.o)
 .comment       0x0000000000000a0e       0x12 util-linux/lib.a(fdisk.o)
 .comment       0x0000000000000a20       0x12 util-linux/lib.a(freeramdisk.o)
 .comment       0x0000000000000a32       0x12 util-linux/lib.a(fsck_minix.o)
 .comment       0x0000000000000a44       0x12 util-linux/lib.a(getopt.o)
 .comment       0x0000000000000a56       0x12 util-linux/lib.a(hexdump.o)
 .comment       0x0000000000000a68       0x12 util-linux/lib.a(hwclock.o)
 .comment       0x0000000000000a7a       0x12 util-linux/lib.a(ipcrm.o)
 .comment       0x0000000000000a8c       0x12 util-linux/lib.a(ipcs.o)
 .comment       0x0000000000000a9e       0x12 util-linux/lib.a(losetup.o)
 .comment       0x0000000000000ab0       0x12 util-linux/lib.a(mdev.o)
 .comment       0x0000000000000ac2       0x12 util-linux/lib.a(mkfs_minix.o)
 .comment       0x0000000000000ad4       0x12 util-linux/lib.a(mkswap.o)
 .comment       0x0000000000000ae6       0x12 util-linux/lib.a(more.o)
 .comment       0x0000000000000af8       0x12 util-linux/lib.a(mount.o)
 .comment       0x0000000000000b0a       0x12 util-linux/lib.a(pivot_root.o)
 .comment       0x0000000000000b1c       0x12 util-linux/lib.a(rdate.o)
 .comment       0x0000000000000b2e       0x12 util-linux/lib.a(readprofile.o)
 .comment       0x0000000000000b40       0x12 util-linux/lib.a(setarch.o)
 .comment       0x0000000000000b52       0x12 util-linux/lib.a(swaponoff.o)
 .comment       0x0000000000000b64       0x12 util-linux/lib.a(switch_root.o)
 .comment       0x0000000000000b76       0x12 util-linux/lib.a(umount.o)
 .comment       0x0000000000000b88       0x12 archival/lib.a(ar.o)
 .comment       0x0000000000000b9a       0x12 archival/lib.a(bbunzip.o)
 .comment       0x0000000000000bac       0x12 archival/lib.a(bzip2.o)
 .comment       0x0000000000000bbe       0x12 archival/lib.a(cpio.o)
 .comment       0x0000000000000bd0       0x12 archival/lib.a(gzip.o)
 .comment       0x0000000000000be2       0x12 archival/lib.a(rpm.o)
 .comment       0x0000000000000bf4       0x12 archival/lib.a(rpm2cpio.o)
 .comment       0x0000000000000c06       0x12 archival/lib.a(tar.o)
 .comment       0x0000000000000c18       0x12 archival/lib.a(unzip.o)
 .comment       0x0000000000000c2a       0x12 archival/libunarchive/lib.a(data_extract_all.o)
 .comment       0x0000000000000c3c       0x12 archival/libunarchive/lib.a(data_extract_to_stdout.o)
 .comment       0x0000000000000c4e       0x12 archival/libunarchive/lib.a(data_skip.o)
 .comment       0x0000000000000c60       0x12 archival/libunarchive/lib.a(decompress_bunzip2.o)
 .comment       0x0000000000000c72       0x12 archival/libunarchive/lib.a(decompress_uncompress.o)
 .comment       0x0000000000000c84       0x12 archival/libunarchive/lib.a(decompress_unlzma.o)
 .comment       0x0000000000000c96       0x12 archival/libunarchive/lib.a(decompress_unzip.o)
 .comment       0x0000000000000ca8       0x12 archival/libunarchive/lib.a(filter_accept_list.o)
 .comment       0x0000000000000cba       0x12 archival/libunarchive/lib.a(filter_accept_reject_list.o)
 .comment       0x0000000000000ccc       0x12 archival/libunarchive/lib.a(find_list_entry.o)
 .comment       0x0000000000000cde       0x12 archival/libunarchive/lib.a(get_header_ar.o)
 .comment       0x0000000000000cf0       0x12 archival/libunarchive/lib.a(get_header_cpio.o)
 .comment       0x0000000000000d02       0x12 archival/libunarchive/lib.a(get_header_tar.o)
 .comment       0x0000000000000d14       0x12 archival/libunarchive/lib.a(get_header_tar_bz2.o)
 .comment       0x0000000000000d26       0x12 archival/libunarchive/lib.a(get_header_tar_gz.o)
 .comment       0x0000000000000d38       0x12 archival/libunarchive/lib.a(get_header_tar_lzma.o)
 .comment       0x0000000000000d4a       0x12 archival/libunarchive/lib.a(header_list.o)
 .comment       0x0000000000000d5c       0x12 archival/libunarchive/lib.a(header_verbose_list.o)
 .comment       0x0000000000000d6e       0x12 archival/libunarchive/lib.a(init_handle.o)
 .comment       0x0000000000000d80       0x12 archival/libunarchive/lib.a(open_transformer.o)
 .comment       0x0000000000000d92       0x12 archival/libunarchive/lib.a(seek_by_jump.o)
 .comment       0x0000000000000da4       0x12 archival/libunarchive/lib.a(seek_by_read.o)
 .comment       0x0000000000000db6       0x12 archival/libunarchive/lib.a(archive_xread_all_eof.o)
 .comment       0x0000000000000dc8       0x12 archival/libunarchive/lib.a(data_align.o)
 .comment       0x0000000000000dda       0x12 archival/libunarchive/lib.a(filter_accept_all.o)
 .comment       0x0000000000000dec       0x12 archival/libunarchive/lib.a(header_skip.o)
 .comment       0x0000000000000dfe       0x12 console-tools/lib.a(chvt.o)
 .comment       0x0000000000000e10       0x12 console-tools/lib.a(clear.o)
 .comment       0x0000000000000e22       0x12 console-tools/lib.a(deallocvt.o)
 .comment       0x0000000000000e34       0x12 console-tools/lib.a(dumpkmap.o)
 .comment       0x0000000000000e46       0x12 console-tools/lib.a(kbd_mode.o)
 .comment       0x0000000000000e58       0x12 console-tools/lib.a(loadfont.o)
 .comment       0x0000000000000e6a       0x12 console-tools/lib.a(loadkmap.o)
 .comment       0x0000000000000e7c       0x12 console-tools/lib.a(openvt.o)
 .comment       0x0000000000000e8e       0x12 console-tools/lib.a(reset.o)
 .comment       0x0000000000000ea0       0x12 console-tools/lib.a(resize.o)
 .comment       0x0000000000000eb2       0x12 console-tools/lib.a(setconsole.o)
 .comment       0x0000000000000ec4       0x12 console-tools/lib.a(setkeycodes.o)
 .comment       0x0000000000000ed6       0x12 console-tools/lib.a(setlogcons.o)
 .comment       0x0000000000000ee8       0x12 coreutils/lib.a(basename.o)
 .comment       0x0000000000000efa       0x12 coreutils/lib.a(cal.o)
 .comment       0x0000000000000f0c       0x12 coreutils/lib.a(cat.o)
 .comment       0x0000000000000f1e       0x12 coreutils/lib.a(catv.o)
 .comment       0x0000000000000f30       0x12 coreutils/lib.a(chgrp.o)
 .comment       0x0000000000000f42       0x12 coreutils/lib.a(chmod.o)
 .comment       0x0000000000000f54       0x12 coreutils/lib.a(chown.o)
 .comment       0x0000000000000f66       0x12 coreutils/lib.a(chroot.o)
 .comment       0x0000000000000f78       0x12 coreutils/lib.a(cksum.o)
 .comment       0x0000000000000f8a       0x12 coreutils/lib.a(comm.o)
 .comment       0x0000000000000f9c       0x12 coreutils/lib.a(cp.o)
 .comment       0x0000000000000fae       0x12 coreutils/lib.a(cut.o)
 .comment       0x0000000000000fc0       0x12 coreutils/lib.a(date.o)
 .comment       0x0000000000000fd2       0x12 coreutils/lib.a(dd.o)
 .comment       0x0000000000000fe4       0x12 coreutils/lib.a(df.o)
 .comment       0x0000000000000ff6       0x12 coreutils/lib.a(dirname.o)
 .comment       0x0000000000001008       0x12 coreutils/lib.a(dos2unix.o)
 .comment       0x000000000000101a       0x12 coreutils/lib.a(du.o)
 .comment       0x000000000000102c       0x12 coreutils/lib.a(echo.o)
 .comment       0x000000000000103e       0x12 coreutils/lib.a(env.o)
 .comment       0x0000000000001050       0x12 coreutils/lib.a(expand.o)
 .comment       0x0000000000001062       0x12 coreutils/lib.a(expr.o)
 .comment       0x0000000000001074       0x12 coreutils/lib.a(false.o)
 .comment       0x0000000000001086       0x12 coreutils/lib.a(fold.o)
 .comment       0x0000000000001098       0x12 coreutils/lib.a(head.o)
 .comment       0x00000000000010aa       0x12 coreutils/lib.a(hostid.o)
 .comment       0x00000000000010bc       0x12 coreutils/lib.a(id.o)
 .comment       0x00000000000010ce       0x12 coreutils/lib.a(install.o)
 .comment       0x00000000000010e0       0x12 coreutils/lib.a(length.o)
 .comment       0x00000000000010f2       0x12 coreutils/lib.a(ln.o)
 .comment       0x0000000000001104       0x12 coreutils/lib.a(logname.o)
 .comment       0x0000000000001116       0x12 coreutils/lib.a(ls.o)
 .comment       0x0000000000001128       0x12 coreutils/lib.a(md5_sha1_sum.o)
 .comment       0x000000000000113a       0x12 coreutils/lib.a(mkdir.o)
 .comment       0x000000000000114c       0x12 coreutils/lib.a(mkfifo.o)
 .comment       0x000000000000115e       0x12 coreutils/lib.a(mknod.o)
 .comment       0x0000000000001170       0x12 coreutils/lib.a(mv.o)
 .comment       0x0000000000001182       0x12 coreutils/lib.a(nice.o)
 .comment       0x0000000000001194       0x12 coreutils/lib.a(nohup.o)
 .comment       0x00000000000011a6       0x12 coreutils/lib.a(od.o)
 .comment       0x00000000000011b8       0x12 coreutils/lib.a(printenv.o)
 .comment       0x00000000000011ca       0x12 coreutils/lib.a(printf.o)
 .comment       0x00000000000011dc       0x12 coreutils/lib.a(pwd.o)
 .comment       0x00000000000011ee       0x12 coreutils/lib.a(readlink.o)
 .comment       0x0000000000001200       0x12 coreutils/lib.a(realpath.o)
 .comment       0x0000000000001212       0x12 coreutils/lib.a(rm.o)
 .comment       0x0000000000001224       0x12 coreutils/lib.a(rmdir.o)
 .comment       0x0000000000001236       0x12 coreutils/lib.a(seq.o)
 .comment       0x0000000000001248       0x12 coreutils/lib.a(sleep.o)
 .comment       0x000000000000125a       0x12 coreutils/lib.a(sort.o)
 .comment       0x000000000000126c       0x12 coreutils/lib.a(split.o)
 .comment       0x000000000000127e       0x12 coreutils/lib.a(stat.o)
 .comment       0x0000000000001290       0x12 coreutils/lib.a(stty.o)
 .comment       0x00000000000012a2       0x12 coreutils/lib.a(sum.o)
 .comment       0x00000000000012b4       0x12 coreutils/lib.a(sync.o)
 .comment       0x00000000000012c6       0x12 coreutils/lib.a(tail.o)
 .comment       0x00000000000012d8       0x12 coreutils/lib.a(tee.o)
 .comment       0x00000000000012ea       0x12 coreutils/lib.a(test.o)
 .comment       0x00000000000012fc       0x12 coreutils/lib.a(touch.o)
 .comment       0x000000000000130e       0x12 coreutils/lib.a(tr.o)
 .comment       0x0000000000001320       0x12 coreutils/lib.a(true.o)
 .comment       0x0000000000001332       0x12 coreutils/lib.a(tty.o)
 .comment       0x0000000000001344       0x12 coreutils/lib.a(uname.o)
 .comment       0x0000000000001356       0x12 coreutils/lib.a(uniq.o)
 .comment       0x0000000000001368       0x12 coreutils/lib.a(usleep.o)
 .comment       0x000000000000137a       0x12 coreutils/lib.a(uudecode.o)
 .comment       0x000000000000138c       0x12 coreutils/lib.a(uuencode.o)
 .comment       0x000000000000139e       0x12 coreutils/lib.a(wc.o)
 .comment       0x00000000000013b0       0x12 coreutils/lib.a(who.o)
 .comment       0x00000000000013c2       0x12 coreutils/lib.a(whoami.o)
 .comment       0x00000000000013d4       0x12 coreutils/lib.a(yes.o)
 .comment       0x00000000000013e6       0x12 coreutils/libcoreutils/lib.a(cp_mv_stat.o)
 .comment       0x00000000000013f8       0x12 coreutils/libcoreutils/lib.a(getopt_mk_fifo_nod.o)
 .comment       0x000000000000140a       0x12 debianutils/lib.a(mktemp.o)
 .comment       0x000000000000141c       0x12 debianutils/lib.a(pipe_progress.o)
 .comment       0x000000000000142e       0x12 debianutils/lib.a(run_parts.o)
 .comment       0x0000000000001440       0x12 debianutils/lib.a(start_stop_daemon.o)
 .comment       0x0000000000001452       0x12 debianutils/lib.a(which.o)
 .comment       0x0000000000001464       0x12 e2fsprogs/lib.a(chattr.o)
 .comment       0x0000000000001476       0x12 e2fsprogs/lib.a(e2fs_lib.o)
 .comment       0x0000000000001488       0x12 e2fsprogs/lib.a(fsck.o)
 .comment       0x000000000000149a       0x12 e2fsprogs/lib.a(lsattr.o)
 .comment       0x00000000000014ac       0x12 editors/lib.a(awk.o)
 .comment       0x00000000000014be       0x12 editors/lib.a(cmp.o)
 .comment       0x00000000000014d0       0x12 editors/lib.a(diff.o)
 .comment       0x00000000000014e2       0x12 editors/lib.a(ed.o)
 .comment       0x00000000000014f4       0x12 editors/lib.a(patch.o)
 .comment       0x0000000000001506       0x12 editors/lib.a(sed.o)
 .comment       0x0000000000001518       0x12 editors/lib.a(vi.o)
 .comment       0x000000000000152a       0x12 findutils/lib.a(find.o)
 .comment       0x000000000000153c       0x12 findutils/lib.a(grep.o)
 .comment       0x000000000000154e       0x12 findutils/lib.a(xargs.o)
 .comment       0x0000000000001560       0x12 init/lib.a(halt.o)
 .comment       0x0000000000001572       0x12 init/lib.a(init.o)
 .comment       0x0000000000001584       0x12 init/lib.a(mesg.o)
 .comment       0x0000000000001596       0x12 ipsvd/lib.a(tcpudp.o)
 .comment       0x00000000000015a8       0x12 ipsvd/lib.a(ipsvd_perhost.o)
 .comment       0x00000000000015ba       0x12 libbb/lib.a(ask_confirmation.o)
 .comment       0x00000000000015cc       0x12 libbb/lib.a(bb_askpass.o)
 .comment       0x00000000000015de       0x12 libbb/lib.a(bb_do_delay.o)
 .comment       0x00000000000015f0       0x12 libbb/lib.a(bb_pwd.o)
 .comment       0x0000000000001602       0x12 libbb/lib.a(bb_strtonum.o)
 .comment       0x0000000000001614       0x12 libbb/lib.a(change_identity.o)
 .comment       0x0000000000001626       0x12 libbb/lib.a(chomp.o)
 .comment       0x0000000000001638       0x12 libbb/lib.a(compare_string_array.o)
 .comment       0x000000000000164a       0x12 libbb/lib.a(concat_subpath_file.o)
 .comment       0x000000000000165c       0x12 libbb/lib.a(copy_file.o)
 .comment       0x000000000000166e       0x12 libbb/lib.a(correct_password.o)
 .comment       0x0000000000001680       0x12 libbb/lib.a(crc32.o)
 .comment       0x0000000000001692       0x12 libbb/lib.a(create_icmp6_socket.o)
 .comment       0x00000000000016a4       0x12 libbb/lib.a(create_icmp_socket.o)
 .comment       0x00000000000016b6       0x12 libbb/lib.a(crypt_make_salt.o)
 .comment       0x00000000000016c8       0x12 libbb/lib.a(device_open.o)
 .comment       0x00000000000016da       0x12 libbb/lib.a(dump.o)
 .comment       0x00000000000016ec       0x12 libbb/lib.a(execable.o)
 .comment       0x00000000000016fe       0x12 libbb/lib.a(fclose_nonstdin.o)
 .comment       0x0000000000001710       0x12 libbb/lib.a(fflush_stdout_and_exit.o)
 .comment       0x0000000000001722       0x12 libbb/lib.a(find_mount_point.o)
 .comment       0x0000000000001734       0x12 libbb/lib.a(find_pid_by_name.o)
 .comment       0x0000000000001746       0x12 libbb/lib.a(find_root_device.o)
 .comment       0x0000000000001758       0x12 libbb/lib.a(get_console.o)
 .comment       0x000000000000176a       0x12 libbb/lib.a(get_line_from_file.o)
 .comment       0x000000000000177c       0x12 libbb/lib.a(getopt32.o)
 .comment       0x000000000000178e       0x12 libbb/lib.a(herror_msg.o)
 .comment       0x00000000000017a0       0x12 libbb/lib.a(herror_msg_and_die.o)
 .comment       0x00000000000017b2       0x12 libbb/lib.a(human_readable.o)
 .comment       0x00000000000017c4       0x12 libbb/lib.a(inet_common.o)
 .comment       0x00000000000017d6       0x12 libbb/lib.a(info_msg.o)
 .comment       0x00000000000017e8       0x12 libbb/lib.a(inode_hash.o)
 .comment       0x00000000000017fa       0x12 libbb/lib.a(isdirectory.o)
 .comment       0x000000000000180c       0x12 libbb/lib.a(kernel_version.o)
 .comment       0x000000000000181e       0x12 libbb/lib.a(lineedit.o)
 .comment       0x0000000000001830       0x12 libbb/lib.a(llist.o)
 .comment       0x0000000000001842       0x12 libbb/lib.a(login.o)
 .comment       0x0000000000001854       0x12 libbb/lib.a(loop.o)
 .comment       0x0000000000001866       0x12 libbb/lib.a(make_directory.o)
 .comment       0x0000000000001878       0x12 libbb/lib.a(makedev.o)
 .comment       0x000000000000188a       0x12 libbb/lib.a(match_fstype.o)
 .comment       0x000000000000189c       0x12 libbb/lib.a(md5.o)
 .comment       0x00000000000018ae       0x12 libbb/lib.a(mode_string.o)
 .comment       0x00000000000018c0       0x12 libbb/lib.a(mtab_file.o)
 .comment       0x00000000000018d2       0x12 libbb/lib.a(obscure.o)
 .comment       0x00000000000018e4       0x12 libbb/lib.a(parse_mode.o)
 .comment       0x00000000000018f6       0x12 libbb/lib.a(perror_nomsg.o)
 .comment       0x0000000000001908       0x12 libbb/lib.a(perror_nomsg_and_die.o)
 .comment       0x000000000000191a       0x12 libbb/lib.a(pidfile.o)
 .comment       0x000000000000192c       0x12 libbb/lib.a(process_escape_sequence.o)
 .comment       0x000000000000193e       0x12 libbb/lib.a(procps.o)
 .comment       0x0000000000001950       0x12 libbb/lib.a(pw_encrypt.o)
 .comment       0x0000000000001962       0x12 libbb/lib.a(recursive_action.o)
 .comment       0x0000000000001974       0x12 libbb/lib.a(remove_file.o)
 .comment       0x0000000000001986       0x12 libbb/lib.a(restricted_shell.o)
 .comment       0x0000000000001998       0x12 libbb/lib.a(run_shell.o)
 .comment       0x00000000000019aa       0x12 libbb/lib.a(safe_poll.o)
 .comment       0x00000000000019bc       0x12 libbb/lib.a(safe_strncpy.o)
 .comment       0x00000000000019ce       0x12 libbb/lib.a(setup_environment.o)
 .comment       0x00000000000019e0       0x12 libbb/lib.a(sha1.o)
 .comment       0x00000000000019f2       0x12 libbb/lib.a(simplify_path.o)
 .comment       0x0000000000001a04       0x12 libbb/lib.a(skip_whitespace.o)
 .comment       0x0000000000001a16       0x12 libbb/lib.a(speed_table.o)
 .comment       0x0000000000001a28       0x12 libbb/lib.a(str_tolower.o)
 .comment       0x0000000000001a3a       0x12 libbb/lib.a(time.o)
 .comment       0x0000000000001a4c       0x12 libbb/lib.a(trim.o)
 .comment       0x0000000000001a5e       0x12 libbb/lib.a(u_signal_names.o)
 .comment       0x0000000000001a70       0x12 libbb/lib.a(udp_io.o)
 .comment       0x0000000000001a82       0x12 libbb/lib.a(update_passwd.o)
 .comment       0x0000000000001a94       0x12 libbb/lib.a(uuencode.o)
 .comment       0x0000000000001aa6       0x12 libbb/lib.a(vfork_daemon_rexec.o)
 .comment       0x0000000000001ab8       0x12 libbb/lib.a(warn_ignoring_args.o)
 .comment       0x0000000000001aca       0x12 libbb/lib.a(wfopen.o)
 .comment       0x0000000000001adc       0x12 libbb/lib.a(wfopen_input.o)
 .comment       0x0000000000001aee       0x12 libbb/lib.a(xatonum.o)
 .comment       0x0000000000001b00       0x12 libbb/lib.a(xconnect.o)
 .comment       0x0000000000001b12       0x12 libbb/lib.a(xgetcwd.o)
 .comment       0x0000000000001b24       0x12 libbb/lib.a(xgethostbyname.o)
 .comment       0x0000000000001b36       0x12 libbb/lib.a(xregcomp.o)
 .comment       0x0000000000001b48       0x12 libpwdgrp/lib.a(pwd_grp.o)
 .comment       0x0000000000001b5a       0x12 libpwdgrp/lib.a(uidgid_get.o)
 .comment       0x0000000000001b6c       0x12 /opt/sparc-linux-3.4.4/lib/gcc/sparc-linux/3.4.4/soft/v8/libgcc.a(_lshrdi3.oS)
 .comment       0x0000000000001b7e       0x12 /opt/sparc-linux-3.4.4/lib/gcc/sparc-linux/3.4.4/soft/v8/libgcc.a(_cmpdi2.oS)
 .comment       0x0000000000001b90       0x12 /opt/sparc-linux-3.4.4/lib/gcc/sparc-linux/3.4.4/soft/v8/libgcc.a(_floatdidf.oS)
 .comment       0x0000000000001ba2       0x12 /opt/sparc-linux-3.4.4/lib/gcc/sparc-linux/3.4.4/soft/v8/libgcc.a(_fixunsdfsi.oS)
 .comment       0x0000000000001bb4       0x12 /opt/sparc-linux-3.4.4/lib/gcc/sparc-linux/3.4.4/soft/v8/libgcc.a(_divdi3.oS)
 .comment       0x0000000000001bc6       0x12 /opt/sparc-linux-3.4.4/lib/gcc/sparc-linux/3.4.4/soft/v8/libgcc.a(_moddi3.oS)
 .comment       0x0000000000001bd8       0x12 /opt/sparc-linux-3.4.4/lib/gcc/sparc-linux/3.4.4/soft/v8/libgcc.a(_udivdi3.oS)
 .comment       0x0000000000001bea       0x12 /opt/sparc-linux-3.4.4/lib/gcc/sparc-linux/3.4.4/soft/v8/libgcc.a(_umoddi3.oS)
 .comment       0x0000000000001bfc       0x12 /opt/sparc-linux-3.4.4/lib/gcc/sparc-linux/3.4.4/soft/v8/libgcc.a(_addsub_sf.oS)
 .comment       0x0000000000001c0e       0x12 /opt/sparc-linux-3.4.4/lib/gcc/sparc-linux/3.4.4/soft/v8/libgcc.a(_mul_sf.oS)
 .comment       0x0000000000001c20       0x12 /opt/sparc-linux-3.4.4/lib/gcc/sparc-linux/3.4.4/soft/v8/libgcc.a(_si_to_sf.oS)
 .comment       0x0000000000001c32       0x12 /opt/sparc-linux-3.4.4/lib/gcc/sparc-linux/3.4.4/soft/v8/libgcc.a(_sf_to_df.oS)
 .comment       0x0000000000001c44       0x12 /opt/sparc-linux-3.4.4/lib/gcc/sparc-linux/3.4.4/soft/v8/libgcc.a(_thenan_sf.oS)
 .comment       0x0000000000001c56       0x12 /opt/sparc-linux-3.4.4/lib/gcc/sparc-linux/3.4.4/soft/v8/libgcc.a(_addsub_df.oS)
 .comment       0x0000000000001c68       0x12 /opt/sparc-linux-3.4.4/lib/gcc/sparc-linux/3.4.4/soft/v8/libgcc.a(_mul_df.oS)
 .comment       0x0000000000001c7a       0x12 /opt/sparc-linux-3.4.4/lib/gcc/sparc-linux/3.4.4/soft/v8/libgcc.a(_div_df.oS)
 .comment       0x0000000000001c8c       0x12 /opt/sparc-linux-3.4.4/lib/gcc/sparc-linux/3.4.4/soft/v8/libgcc.a(_eq_df.oS)
 .comment       0x0000000000001c9e       0x12 /opt/sparc-linux-3.4.4/lib/gcc/sparc-linux/3.4.4/soft/v8/libgcc.a(_ne_df.oS)
 .comment       0x0000000000001cb0       0x12 /opt/sparc-linux-3.4.4/lib/gcc/sparc-linux/3.4.4/soft/v8/libgcc.a(_gt_df.oS)
 .comment       0x0000000000001cc2       0x12 /opt/sparc-linux-3.4.4/lib/gcc/sparc-linux/3.4.4/soft/v8/libgcc.a(_ge_df.oS)
 .comment       0x0000000000001cd4       0x12 /opt/sparc-linux-3.4.4/lib/gcc/sparc-linux/3.4.4/soft/v8/libgcc.a(_lt_df.oS)
 .comment       0x0000000000001ce6       0x12 /opt/sparc-linux-3.4.4/lib/gcc/sparc-linux/3.4.4/soft/v8/libgcc.a(_le_df.oS)
 .comment       0x0000000000001cf8       0x12 /opt/sparc-linux-3.4.4/lib/gcc/sparc-linux/3.4.4/soft/v8/libgcc.a(_si_to_df.oS)
 .comment       0x0000000000001d0a       0x12 /opt/sparc-linux-3.4.4/lib/gcc/sparc-linux/3.4.4/soft/v8/libgcc.a(_df_to_si.oS)
 .comment       0x0000000000001d1c       0x12 /opt/sparc-linux-3.4.4/lib/gcc/sparc-linux/3.4.4/soft/v8/libgcc.a(_make_df.oS)
 .comment       0x0000000000001d2e       0x12 /opt/sparc-linux-3.4.4/lib/gcc/sparc-linux/3.4.4/soft/v8/libgcc.a(_thenan_df.oS)
 .comment       0x0000000000001d40       0x12 /opt/sparc-linux-3.4.4/lib/gcc/sparc-linux/3.4.4/soft/v8/libgcc.a(_clz.oS)
 .comment       0x0000000000001d52       0x12 /opt/sparc-linux-3.4.4/lib/gcc/sparc-linux/3.4.4/soft/v8/libgcc.a(_pack_sf.oS)
 .comment       0x0000000000001d64       0x12 /opt/sparc-linux-3.4.4/lib/gcc/sparc-linux/3.4.4/soft/v8/libgcc.a(_unpack_sf.oS)
 .comment       0x0000000000001d76       0x12 /opt/sparc-linux-3.4.4/lib/gcc/sparc-linux/3.4.4/soft/v8/libgcc.a(_pack_df.oS)
 .comment       0x0000000000001d88       0x12 /opt/sparc-linux-3.4.4/lib/gcc/sparc-linux/3.4.4/soft/v8/libgcc.a(_unpack_df.oS)
 .comment       0x0000000000001d9a       0x12 /opt/sparc-linux-3.4.4/lib/gcc/sparc-linux/3.4.4/soft/v8/libgcc.a(_fpcmp_parts_df.oS)
 .comment       0x0000000000001dac       0x12 /opt/sparc-linux-3.4.4/lib/gcc/sparc-linux/3.4.4/soft/v8/libgcc.a(_ashldi3.oS)
 .comment       0x0000000000001dbe       0x12 /opt/sparc-linux-3.4.4/sparc-linux/lib/soft/v8/libc_nonshared.a(elf-init.oS)
 .comment       0x0000000000001dd0       0x12 /opt/sparc-linux-3.4.4/sparc-linux/lib/soft/v8/libc_nonshared.a(atexit.oS)
 .comment       0x0000000000001de2       0x12 /opt/sparc-linux-3.4.4/sparc-linux/lib/soft/v8/libc_nonshared.a(stat64.oS)
 .comment       0x0000000000001df4       0x12 /opt/sparc-linux-3.4.4/sparc-linux/lib/soft/v8/libc_nonshared.a(lstat64.oS)
 .comment       0x0000000000001e06       0x12 /opt/sparc-linux-3.4.4/lib/gcc/sparc-linux/3.4.4/soft/v8/crtend.o

.debug
 *(SORT(.debug))

.line
 *(SORT(.line))

.debug_srcinfo
 *(SORT(.debug_srcinfo))

.debug_sfnames
 *(SORT(.debug_sfnames))

.debug_aranges  0x0000000000000000      0x3c0
 *(SORT(.debug_aranges))
 .debug_aranges
                0x0000000000000000       0x20 /opt/sparc-linux-3.4.4/lib/gcc/sparc-linux/3.4.4/soft/v8/libgcc.a(_lshrdi3.oS)
 .debug_aranges
                0x0000000000000020       0x20 /opt/sparc-linux-3.4.4/lib/gcc/sparc-linux/3.4.4/soft/v8/libgcc.a(_cmpdi2.oS)
 .debug_aranges
                0x0000000000000040       0x20 /opt/sparc-linux-3.4.4/lib/gcc/sparc-linux/3.4.4/soft/v8/libgcc.a(_floatdidf.oS)
 .debug_aranges
                0x0000000000000060       0x20 /opt/sparc-linux-3.4.4/lib/gcc/sparc-linux/3.4.4/soft/v8/libgcc.a(_fixunsdfsi.oS)
 .debug_aranges
                0x0000000000000080       0x20 /opt/sparc-linux-3.4.4/lib/gcc/sparc-linux/3.4.4/soft/v8/libgcc.a(_divdi3.oS)
 .debug_aranges
                0x00000000000000a0       0x20 /opt/sparc-linux-3.4.4/lib/gcc/sparc-linux/3.4.4/soft/v8/libgcc.a(_moddi3.oS)
 .debug_aranges
                0x00000000000000c0       0x20 /opt/sparc-linux-3.4.4/lib/gcc/sparc-linux/3.4.4/soft/v8/libgcc.a(_udivdi3.oS)
 .debug_aranges
                0x00000000000000e0       0x20 /opt/sparc-linux-3.4.4/lib/gcc/sparc-linux/3.4.4/soft/v8/libgcc.a(_umoddi3.oS)
 .debug_aranges
                0x0000000000000100       0x20 /opt/sparc-linux-3.4.4/lib/gcc/sparc-linux/3.4.4/soft/v8/libgcc.a(_addsub_sf.oS)
 .debug_aranges
                0x0000000000000120       0x20 /opt/sparc-linux-3.4.4/lib/gcc/sparc-linux/3.4.4/soft/v8/libgcc.a(_mul_sf.oS)
 .debug_aranges
                0x0000000000000140       0x20 /opt/sparc-linux-3.4.4/lib/gcc/sparc-linux/3.4.4/soft/v8/libgcc.a(_si_to_sf.oS)
 .debug_aranges
                0x0000000000000160       0x20 /opt/sparc-linux-3.4.4/lib/gcc/sparc-linux/3.4.4/soft/v8/libgcc.a(_sf_to_df.oS)
 .debug_aranges
                0x0000000000000180       0x20 /opt/sparc-linux-3.4.4/lib/gcc/sparc-linux/3.4.4/soft/v8/libgcc.a(_addsub_df.oS)
 .debug_aranges
                0x00000000000001a0       0x20 /opt/sparc-linux-3.4.4/lib/gcc/sparc-linux/3.4.4/soft/v8/libgcc.a(_mul_df.oS)
 .debug_aranges
                0x00000000000001c0       0x20 /opt/sparc-linux-3.4.4/lib/gcc/sparc-linux/3.4.4/soft/v8/libgcc.a(_div_df.oS)
 .debug_aranges
                0x00000000000001e0       0x20 /opt/sparc-linux-3.4.4/lib/gcc/sparc-linux/3.4.4/soft/v8/libgcc.a(_eq_df.oS)
 .debug_aranges
                0x0000000000000200       0x20 /opt/sparc-linux-3.4.4/lib/gcc/sparc-linux/3.4.4/soft/v8/libgcc.a(_ne_df.oS)
 .debug_aranges
                0x0000000000000220       0x20 /opt/sparc-linux-3.4.4/lib/gcc/sparc-linux/3.4.4/soft/v8/libgcc.a(_gt_df.oS)
 .debug_aranges
                0x0000000000000240       0x20 /opt/sparc-linux-3.4.4/lib/gcc/sparc-linux/3.4.4/soft/v8/libgcc.a(_ge_df.oS)
 .debug_aranges
                0x0000000000000260       0x20 /opt/sparc-linux-3.4.4/lib/gcc/sparc-linux/3.4.4/soft/v8/libgcc.a(_lt_df.oS)
 .debug_aranges
                0x0000000000000280       0x20 /opt/sparc-linux-3.4.4/lib/gcc/sparc-linux/3.4.4/soft/v8/libgcc.a(_le_df.oS)
 .debug_aranges
                0x00000000000002a0       0x20 /opt/sparc-linux-3.4.4/lib/gcc/sparc-linux/3.4.4/soft/v8/libgcc.a(_si_to_df.oS)
 .debug_aranges
                0x00000000000002c0       0x20 /opt/sparc-linux-3.4.4/lib/gcc/sparc-linux/3.4.4/soft/v8/libgcc.a(_df_to_si.oS)
 .debug_aranges
                0x00000000000002e0       0x20 /opt/sparc-linux-3.4.4/lib/gcc/sparc-linux/3.4.4/soft/v8/libgcc.a(_make_df.oS)
 .debug_aranges
                0x0000000000000300       0x20 /opt/sparc-linux-3.4.4/lib/gcc/sparc-linux/3.4.4/soft/v8/libgcc.a(_pack_sf.oS)
 .debug_aranges
                0x0000000000000320       0x20 /opt/sparc-linux-3.4.4/lib/gcc/sparc-linux/3.4.4/soft/v8/libgcc.a(_unpack_sf.oS)
 .debug_aranges
                0x0000000000000340       0x20 /opt/sparc-linux-3.4.4/lib/gcc/sparc-linux/3.4.4/soft/v8/libgcc.a(_pack_df.oS)
 .debug_aranges
                0x0000000000000360       0x20 /opt/sparc-linux-3.4.4/lib/gcc/sparc-linux/3.4.4/soft/v8/libgcc.a(_unpack_df.oS)
 .debug_aranges
                0x0000000000000380       0x20 /opt/sparc-linux-3.4.4/lib/gcc/sparc-linux/3.4.4/soft/v8/libgcc.a(_fpcmp_parts_df.oS)
 .debug_aranges
                0x00000000000003a0       0x20 /opt/sparc-linux-3.4.4/lib/gcc/sparc-linux/3.4.4/soft/v8/libgcc.a(_ashldi3.oS)

.debug_pubnames
                0x0000000000000000      0x43d
 *(SORT(.debug_pubnames))
 .debug_pubnames
                0x0000000000000000       0x20 /opt/sparc-linux-3.4.4/lib/gcc/sparc-linux/3.4.4/soft/v8/libgcc.a(_lshrdi3.oS)
 .debug_pubnames
                0x0000000000000020       0x1f /opt/sparc-linux-3.4.4/lib/gcc/sparc-linux/3.4.4/soft/v8/libgcc.a(_cmpdi2.oS)
 .debug_pubnames
                0x000000000000003f       0x22 /opt/sparc-linux-3.4.4/lib/gcc/sparc-linux/3.4.4/soft/v8/libgcc.a(_floatdidf.oS)
 .debug_pubnames
                0x0000000000000061       0x23 /opt/sparc-linux-3.4.4/lib/gcc/sparc-linux/3.4.4/soft/v8/libgcc.a(_fixunsdfsi.oS)
 .debug_pubnames
                0x0000000000000084       0x1f /opt/sparc-linux-3.4.4/lib/gcc/sparc-linux/3.4.4/soft/v8/libgcc.a(_divdi3.oS)
 .debug_pubnames
                0x00000000000000a3       0x1f /opt/sparc-linux-3.4.4/lib/gcc/sparc-linux/3.4.4/soft/v8/libgcc.a(_moddi3.oS)
 .debug_pubnames
                0x00000000000000c2       0x20 /opt/sparc-linux-3.4.4/lib/gcc/sparc-linux/3.4.4/soft/v8/libgcc.a(_udivdi3.oS)
 .debug_pubnames
                0x00000000000000e2       0x20 /opt/sparc-linux-3.4.4/lib/gcc/sparc-linux/3.4.4/soft/v8/libgcc.a(_umoddi3.oS)
 .debug_pubnames
                0x0000000000000102       0x2c /opt/sparc-linux-3.4.4/lib/gcc/sparc-linux/3.4.4/soft/v8/libgcc.a(_addsub_sf.oS)
 .debug_pubnames
                0x000000000000012e       0x1f /opt/sparc-linux-3.4.4/lib/gcc/sparc-linux/3.4.4/soft/v8/libgcc.a(_mul_sf.oS)
 .debug_pubnames
                0x000000000000014d       0x22 /opt/sparc-linux-3.4.4/lib/gcc/sparc-linux/3.4.4/soft/v8/libgcc.a(_si_to_sf.oS)
 .debug_pubnames
                0x000000000000016f       0x24 /opt/sparc-linux-3.4.4/lib/gcc/sparc-linux/3.4.4/soft/v8/libgcc.a(_sf_to_df.oS)
 .debug_pubnames
                0x0000000000000193       0x22 /opt/sparc-linux-3.4.4/lib/gcc/sparc-linux/3.4.4/soft/v8/libgcc.a(_thenan_sf.oS)
 .debug_pubnames
                0x00000000000001b5       0x2c /opt/sparc-linux-3.4.4/lib/gcc/sparc-linux/3.4.4/soft/v8/libgcc.a(_addsub_df.oS)
 .debug_pubnames
                0x00000000000001e1       0x1f /opt/sparc-linux-3.4.4/lib/gcc/sparc-linux/3.4.4/soft/v8/libgcc.a(_mul_df.oS)
 .debug_pubnames
                0x0000000000000200       0x1f /opt/sparc-linux-3.4.4/lib/gcc/sparc-linux/3.4.4/soft/v8/libgcc.a(_div_df.oS)
 .debug_pubnames
                0x000000000000021f       0x1e /opt/sparc-linux-3.4.4/lib/gcc/sparc-linux/3.4.4/soft/v8/libgcc.a(_eq_df.oS)
 .debug_pubnames
                0x000000000000023d       0x1e /opt/sparc-linux-3.4.4/lib/gcc/sparc-linux/3.4.4/soft/v8/libgcc.a(_ne_df.oS)
 .debug_pubnames
                0x000000000000025b       0x1e /opt/sparc-linux-3.4.4/lib/gcc/sparc-linux/3.4.4/soft/v8/libgcc.a(_gt_df.oS)
 .debug_pubnames
                0x0000000000000279       0x1e /opt/sparc-linux-3.4.4/lib/gcc/sparc-linux/3.4.4/soft/v8/libgcc.a(_ge_df.oS)
 .debug_pubnames
                0x0000000000000297       0x1e /opt/sparc-linux-3.4.4/lib/gcc/sparc-linux/3.4.4/soft/v8/libgcc.a(_lt_df.oS)
 .debug_pubnames
                0x00000000000002b5       0x1e /opt/sparc-linux-3.4.4/lib/gcc/sparc-linux/3.4.4/soft/v8/libgcc.a(_le_df.oS)
 .debug_pubnames
                0x00000000000002d3       0x22 /opt/sparc-linux-3.4.4/lib/gcc/sparc-linux/3.4.4/soft/v8/libgcc.a(_si_to_df.oS)
 .debug_pubnames
                0x00000000000002f5       0x20 /opt/sparc-linux-3.4.4/lib/gcc/sparc-linux/3.4.4/soft/v8/libgcc.a(_df_to_si.oS)
 .debug_pubnames
                0x0000000000000315       0x20 /opt/sparc-linux-3.4.4/lib/gcc/sparc-linux/3.4.4/soft/v8/libgcc.a(_make_df.oS)
 .debug_pubnames
                0x0000000000000335       0x22 /opt/sparc-linux-3.4.4/lib/gcc/sparc-linux/3.4.4/soft/v8/libgcc.a(_thenan_df.oS)
 .debug_pubnames
                0x0000000000000357       0x20 /opt/sparc-linux-3.4.4/lib/gcc/sparc-linux/3.4.4/soft/v8/libgcc.a(_clz.oS)
 .debug_pubnames
                0x0000000000000377       0x1f /opt/sparc-linux-3.4.4/lib/gcc/sparc-linux/3.4.4/soft/v8/libgcc.a(_pack_sf.oS)
 .debug_pubnames
                0x0000000000000396       0x21 /opt/sparc-linux-3.4.4/lib/gcc/sparc-linux/3.4.4/soft/v8/libgcc.a(_unpack_sf.oS)
 .debug_pubnames
                0x00000000000003b7       0x1f /opt/sparc-linux-3.4.4/lib/gcc/sparc-linux/3.4.4/soft/v8/libgcc.a(_pack_df.oS)
 .debug_pubnames
                0x00000000000003d6       0x21 /opt/sparc-linux-3.4.4/lib/gcc/sparc-linux/3.4.4/soft/v8/libgcc.a(_unpack_df.oS)
 .debug_pubnames
                0x00000000000003f7       0x26 /opt/sparc-linux-3.4.4/lib/gcc/sparc-linux/3.4.4/soft/v8/libgcc.a(_fpcmp_parts_df.oS)
 .debug_pubnames
                0x000000000000041d       0x20 /opt/sparc-linux-3.4.4/lib/gcc/sparc-linux/3.4.4/soft/v8/libgcc.a(_ashldi3.oS)

.debug_info     0x0000000000000000     0x6361
 *(SORT(.debug_info) .gnu.linkonce.wi.*)
 .debug_info    0x0000000000000000      0x3cc /opt/sparc-linux-3.4.4/lib/gcc/sparc-linux/3.4.4/soft/v8/libgcc.a(_lshrdi3.oS)
 .debug_info    0x00000000000003cc      0x395 /opt/sparc-linux-3.4.4/lib/gcc/sparc-linux/3.4.4/soft/v8/libgcc.a(_cmpdi2.oS)
 .debug_info    0x0000000000000761      0x318 /opt/sparc-linux-3.4.4/lib/gcc/sparc-linux/3.4.4/soft/v8/libgcc.a(_floatdidf.oS)
 .debug_info    0x0000000000000a79      0x307 /opt/sparc-linux-3.4.4/lib/gcc/sparc-linux/3.4.4/soft/v8/libgcc.a(_fixunsdfsi.oS)
 .debug_info    0x0000000000000d80      0x5b1 /opt/sparc-linux-3.4.4/lib/gcc/sparc-linux/3.4.4/soft/v8/libgcc.a(_divdi3.oS)
 .debug_info    0x0000000000001331      0x5a9 /opt/sparc-linux-3.4.4/lib/gcc/sparc-linux/3.4.4/soft/v8/libgcc.a(_moddi3.oS)
 .debug_info    0x00000000000018da      0x565 /opt/sparc-linux-3.4.4/lib/gcc/sparc-linux/3.4.4/soft/v8/libgcc.a(_udivdi3.oS)
 .debug_info    0x0000000000001e3f      0x56e /opt/sparc-linux-3.4.4/lib/gcc/sparc-linux/3.4.4/soft/v8/libgcc.a(_umoddi3.oS)
 .debug_info    0x00000000000023ad      0x3d2 /opt/sparc-linux-3.4.4/lib/gcc/sparc-linux/3.4.4/soft/v8/libgcc.a(_addsub_sf.oS)
 .debug_info    0x000000000000277f      0x343 /opt/sparc-linux-3.4.4/lib/gcc/sparc-linux/3.4.4/soft/v8/libgcc.a(_mul_sf.oS)
 .debug_info    0x0000000000002ac2      0x1b9 /opt/sparc-linux-3.4.4/lib/gcc/sparc-linux/3.4.4/soft/v8/libgcc.a(_si_to_sf.oS)
 .debug_info    0x0000000000002c7b      0x1f5 /opt/sparc-linux-3.4.4/lib/gcc/sparc-linux/3.4.4/soft/v8/libgcc.a(_sf_to_df.oS)
 .debug_info    0x0000000000002e70      0x164 /opt/sparc-linux-3.4.4/lib/gcc/sparc-linux/3.4.4/soft/v8/libgcc.a(_thenan_sf.oS)
 .debug_info    0x0000000000002fd4      0x407 /opt/sparc-linux-3.4.4/lib/gcc/sparc-linux/3.4.4/soft/v8/libgcc.a(_addsub_df.oS)
 .debug_info    0x00000000000033db      0x433 /opt/sparc-linux-3.4.4/lib/gcc/sparc-linux/3.4.4/soft/v8/libgcc.a(_mul_df.oS)
 .debug_info    0x000000000000380e      0x347 /opt/sparc-linux-3.4.4/lib/gcc/sparc-linux/3.4.4/soft/v8/libgcc.a(_div_df.oS)
 .debug_info    0x0000000000003b55      0x27f /opt/sparc-linux-3.4.4/lib/gcc/sparc-linux/3.4.4/soft/v8/libgcc.a(_eq_df.oS)
 .debug_info    0x0000000000003dd4      0x27f /opt/sparc-linux-3.4.4/lib/gcc/sparc-linux/3.4.4/soft/v8/libgcc.a(_ne_df.oS)
 .debug_info    0x0000000000004053      0x27f /opt/sparc-linux-3.4.4/lib/gcc/sparc-linux/3.4.4/soft/v8/libgcc.a(_gt_df.oS)
 .debug_info    0x00000000000042d2      0x27f /opt/sparc-linux-3.4.4/lib/gcc/sparc-linux/3.4.4/soft/v8/libgcc.a(_ge_df.oS)
 .debug_info    0x0000000000004551      0x27f /opt/sparc-linux-3.4.4/lib/gcc/sparc-linux/3.4.4/soft/v8/libgcc.a(_lt_df.oS)
 .debug_info    0x00000000000047d0      0x27f /opt/sparc-linux-3.4.4/lib/gcc/sparc-linux/3.4.4/soft/v8/libgcc.a(_le_df.oS)
 .debug_info    0x0000000000004a4f      0x1b9 /opt/sparc-linux-3.4.4/lib/gcc/sparc-linux/3.4.4/soft/v8/libgcc.a(_si_to_df.oS)
 .debug_info    0x0000000000004c08      0x277 /opt/sparc-linux-3.4.4/lib/gcc/sparc-linux/3.4.4/soft/v8/libgcc.a(_df_to_si.oS)
 .debug_info    0x0000000000004e7f      0x1d2 /opt/sparc-linux-3.4.4/lib/gcc/sparc-linux/3.4.4/soft/v8/libgcc.a(_make_df.oS)
 .debug_info    0x0000000000005051      0x164 /opt/sparc-linux-3.4.4/lib/gcc/sparc-linux/3.4.4/soft/v8/libgcc.a(_thenan_df.oS)
 .debug_info    0x00000000000051b5      0x2fb /opt/sparc-linux-3.4.4/lib/gcc/sparc-linux/3.4.4/soft/v8/libgcc.a(_clz.oS)
 .debug_info    0x00000000000054b0      0x263 /opt/sparc-linux-3.4.4/lib/gcc/sparc-linux/3.4.4/soft/v8/libgcc.a(_pack_sf.oS)
 .debug_info    0x0000000000005713      0x20e /opt/sparc-linux-3.4.4/lib/gcc/sparc-linux/3.4.4/soft/v8/libgcc.a(_unpack_sf.oS)
 .debug_info    0x0000000000005921      0x276 /opt/sparc-linux-3.4.4/lib/gcc/sparc-linux/3.4.4/soft/v8/libgcc.a(_pack_df.oS)
 .debug_info    0x0000000000005b97      0x21f /opt/sparc-linux-3.4.4/lib/gcc/sparc-linux/3.4.4/soft/v8/libgcc.a(_unpack_df.oS)
 .debug_info    0x0000000000005db6      0x1df /opt/sparc-linux-3.4.4/lib/gcc/sparc-linux/3.4.4/soft/v8/libgcc.a(_fpcmp_parts_df.oS)
 .debug_info    0x0000000000005f95      0x3cc /opt/sparc-linux-3.4.4/lib/gcc/sparc-linux/3.4.4/soft/v8/libgcc.a(_ashldi3.oS)

.debug_abbrev   0x0000000000000000     0x29ff
 *(SORT(.debug_abbrev))
 .debug_abbrev  0x0000000000000000      0x148 /opt/sparc-linux-3.4.4/lib/gcc/sparc-linux/3.4.4/soft/v8/libgcc.a(_lshrdi3.oS)
 .debug_abbrev  0x0000000000000148      0x123 /opt/sparc-linux-3.4.4/lib/gcc/sparc-linux/3.4.4/soft/v8/libgcc.a(_cmpdi2.oS)
 .debug_abbrev  0x000000000000026b       0xd9 /opt/sparc-linux-3.4.4/lib/gcc/sparc-linux/3.4.4/soft/v8/libgcc.a(_floatdidf.oS)
 .debug_abbrev  0x0000000000000344       0xca /opt/sparc-linux-3.4.4/lib/gcc/sparc-linux/3.4.4/soft/v8/libgcc.a(_fixunsdfsi.oS)
 .debug_abbrev  0x000000000000040e      0x1c7 /opt/sparc-linux-3.4.4/lib/gcc/sparc-linux/3.4.4/soft/v8/libgcc.a(_divdi3.oS)
 .debug_abbrev  0x00000000000005d5      0x1be /opt/sparc-linux-3.4.4/lib/gcc/sparc-linux/3.4.4/soft/v8/libgcc.a(_moddi3.oS)
 .debug_abbrev  0x0000000000000793      0x1af /opt/sparc-linux-3.4.4/lib/gcc/sparc-linux/3.4.4/soft/v8/libgcc.a(_udivdi3.oS)
 .debug_abbrev  0x0000000000000942      0x1bc /opt/sparc-linux-3.4.4/lib/gcc/sparc-linux/3.4.4/soft/v8/libgcc.a(_umoddi3.oS)
 .debug_abbrev  0x0000000000000afe      0x1a0 /opt/sparc-linux-3.4.4/lib/gcc/sparc-linux/3.4.4/soft/v8/libgcc.a(_addsub_sf.oS)
 .debug_abbrev  0x0000000000000c9e      0x1c3 /opt/sparc-linux-3.4.4/lib/gcc/sparc-linux/3.4.4/soft/v8/libgcc.a(_mul_sf.oS)
 .debug_abbrev  0x0000000000000e61       0xf1 /opt/sparc-linux-3.4.4/lib/gcc/sparc-linux/3.4.4/soft/v8/libgcc.a(_si_to_sf.oS)
 .debug_abbrev  0x0000000000000f52       0xfe /opt/sparc-linux-3.4.4/lib/gcc/sparc-linux/3.4.4/soft/v8/libgcc.a(_sf_to_df.oS)
 .debug_abbrev  0x0000000000001050       0xba /opt/sparc-linux-3.4.4/lib/gcc/sparc-linux/3.4.4/soft/v8/libgcc.a(_thenan_sf.oS)
 .debug_abbrev  0x000000000000110a      0x1a0 /opt/sparc-linux-3.4.4/lib/gcc/sparc-linux/3.4.4/soft/v8/libgcc.a(_addsub_df.oS)
 .debug_abbrev  0x00000000000012aa      0x1c3 /opt/sparc-linux-3.4.4/lib/gcc/sparc-linux/3.4.4/soft/v8/libgcc.a(_mul_df.oS)
 .debug_abbrev  0x000000000000146d      0x1ae /opt/sparc-linux-3.4.4/lib/gcc/sparc-linux/3.4.4/soft/v8/libgcc.a(_div_df.oS)
 .debug_abbrev  0x000000000000161b      0x146 /opt/sparc-linux-3.4.4/lib/gcc/sparc-linux/3.4.4/soft/v8/libgcc.a(_eq_df.oS)
 .debug_abbrev  0x0000000000001761      0x146 /opt/sparc-linux-3.4.4/lib/gcc/sparc-linux/3.4.4/soft/v8/libgcc.a(_ne_df.oS)
 .debug_abbrev  0x00000000000018a7      0x146 /opt/sparc-linux-3.4.4/lib/gcc/sparc-linux/3.4.4/soft/v8/libgcc.a(_gt_df.oS)
 .debug_abbrev  0x00000000000019ed      0x146 /opt/sparc-linux-3.4.4/lib/gcc/sparc-linux/3.4.4/soft/v8/libgcc.a(_ge_df.oS)
 .debug_abbrev  0x0000000000001b33      0x146 /opt/sparc-linux-3.4.4/lib/gcc/sparc-linux/3.4.4/soft/v8/libgcc.a(_lt_df.oS)
 .debug_abbrev  0x0000000000001c79      0x146 /opt/sparc-linux-3.4.4/lib/gcc/sparc-linux/3.4.4/soft/v8/libgcc.a(_le_df.oS)
 .debug_abbrev  0x0000000000001dbf       0xf1 /opt/sparc-linux-3.4.4/lib/gcc/sparc-linux/3.4.4/soft/v8/libgcc.a(_si_to_df.oS)
 .debug_abbrev  0x0000000000001eb0      0x153 /opt/sparc-linux-3.4.4/lib/gcc/sparc-linux/3.4.4/soft/v8/libgcc.a(_df_to_si.oS)
 .debug_abbrev  0x0000000000002003      0x100 /opt/sparc-linux-3.4.4/lib/gcc/sparc-linux/3.4.4/soft/v8/libgcc.a(_make_df.oS)
 .debug_abbrev  0x0000000000002103       0xba /opt/sparc-linux-3.4.4/lib/gcc/sparc-linux/3.4.4/soft/v8/libgcc.a(_thenan_df.oS)
 .debug_abbrev  0x00000000000021bd       0xba /opt/sparc-linux-3.4.4/lib/gcc/sparc-linux/3.4.4/soft/v8/libgcc.a(_clz.oS)
 .debug_abbrev  0x0000000000002277      0x176 /opt/sparc-linux-3.4.4/lib/gcc/sparc-linux/3.4.4/soft/v8/libgcc.a(_pack_sf.oS)
 .debug_abbrev  0x00000000000023ed      0x114 /opt/sparc-linux-3.4.4/lib/gcc/sparc-linux/3.4.4/soft/v8/libgcc.a(_unpack_sf.oS)
 .debug_abbrev  0x0000000000002501      0x178 /opt/sparc-linux-3.4.4/lib/gcc/sparc-linux/3.4.4/soft/v8/libgcc.a(_pack_df.oS)
 .debug_abbrev  0x0000000000002679      0x114 /opt/sparc-linux-3.4.4/lib/gcc/sparc-linux/3.4.4/soft/v8/libgcc.a(_unpack_df.oS)
 .debug_abbrev  0x000000000000278d      0x12a /opt/sparc-linux-3.4.4/lib/gcc/sparc-linux/3.4.4/soft/v8/libgcc.a(_fpcmp_parts_df.oS)
 .debug_abbrev  0x00000000000028b7      0x148 /opt/sparc-linux-3.4.4/lib/gcc/sparc-linux/3.4.4/soft/v8/libgcc.a(_ashldi3.oS)

.debug_line     0x0000000000000000     0x1735
 *(SORT(.debug_line))
 .debug_line    0x0000000000000000       0xf5 /opt/sparc-linux-3.4.4/lib/gcc/sparc-linux/3.4.4/soft/v8/libgcc.a(_lshrdi3.oS)
 .debug_line    0x00000000000000f5       0xe2 /opt/sparc-linux-3.4.4/lib/gcc/sparc-linux/3.4.4/soft/v8/libgcc.a(_cmpdi2.oS)
 .debug_line    0x00000000000001d7       0xe2 /opt/sparc-linux-3.4.4/lib/gcc/sparc-linux/3.4.4/soft/v8/libgcc.a(_floatdidf.oS)
 .debug_line    0x00000000000002b9       0xe5 /opt/sparc-linux-3.4.4/lib/gcc/sparc-linux/3.4.4/soft/v8/libgcc.a(_fixunsdfsi.oS)
 .debug_line    0x000000000000039e      0x141 /opt/sparc-linux-3.4.4/lib/gcc/sparc-linux/3.4.4/soft/v8/libgcc.a(_divdi3.oS)
 .debug_line    0x00000000000004df      0x144 /opt/sparc-linux-3.4.4/lib/gcc/sparc-linux/3.4.4/soft/v8/libgcc.a(_moddi3.oS)
 .debug_line    0x0000000000000623      0x132 /opt/sparc-linux-3.4.4/lib/gcc/sparc-linux/3.4.4/soft/v8/libgcc.a(_udivdi3.oS)
 .debug_line    0x0000000000000755      0x133 /opt/sparc-linux-3.4.4/lib/gcc/sparc-linux/3.4.4/soft/v8/libgcc.a(_umoddi3.oS)
 .debug_line    0x0000000000000888       0xde /opt/sparc-linux-3.4.4/lib/gcc/sparc-linux/3.4.4/soft/v8/libgcc.a(_addsub_sf.oS)
 .debug_line    0x0000000000000966       0xca /opt/sparc-linux-3.4.4/lib/gcc/sparc-linux/3.4.4/soft/v8/libgcc.a(_mul_sf.oS)
 .debug_line    0x0000000000000a30       0x79 /opt/sparc-linux-3.4.4/lib/gcc/sparc-linux/3.4.4/soft/v8/libgcc.a(_si_to_sf.oS)
 .debug_line    0x0000000000000aa9       0x61 /opt/sparc-linux-3.4.4/lib/gcc/sparc-linux/3.4.4/soft/v8/libgcc.a(_sf_to_df.oS)
 .debug_line    0x0000000000000b0a       0x4d /opt/sparc-linux-3.4.4/lib/gcc/sparc-linux/3.4.4/soft/v8/libgcc.a(_thenan_sf.oS)
 .debug_line    0x0000000000000b57       0xe4 /opt/sparc-linux-3.4.4/lib/gcc/sparc-linux/3.4.4/soft/v8/libgcc.a(_addsub_df.oS)
 .debug_line    0x0000000000000c3b       0xf4 /opt/sparc-linux-3.4.4/lib/gcc/sparc-linux/3.4.4/soft/v8/libgcc.a(_mul_df.oS)
 .debug_line    0x0000000000000d2f       0xc5 /opt/sparc-linux-3.4.4/lib/gcc/sparc-linux/3.4.4/soft/v8/libgcc.a(_div_df.oS)
 .debug_line    0x0000000000000df4       0x75 /opt/sparc-linux-3.4.4/lib/gcc/sparc-linux/3.4.4/soft/v8/libgcc.a(_eq_df.oS)
 .debug_line    0x0000000000000e69       0x75 /opt/sparc-linux-3.4.4/lib/gcc/sparc-linux/3.4.4/soft/v8/libgcc.a(_ne_df.oS)
 .debug_line    0x0000000000000ede       0x75 /opt/sparc-linux-3.4.4/lib/gcc/sparc-linux/3.4.4/soft/v8/libgcc.a(_gt_df.oS)
 .debug_line    0x0000000000000f53       0x75 /opt/sparc-linux-3.4.4/lib/gcc/sparc-linux/3.4.4/soft/v8/libgcc.a(_ge_df.oS)
 .debug_line    0x0000000000000fc8       0x75 /opt/sparc-linux-3.4.4/lib/gcc/sparc-linux/3.4.4/soft/v8/libgcc.a(_lt_df.oS)
 .debug_line    0x000000000000103d       0x75 /opt/sparc-linux-3.4.4/lib/gcc/sparc-linux/3.4.4/soft/v8/libgcc.a(_le_df.oS)
 .debug_line    0x00000000000010b2       0x7e /opt/sparc-linux-3.4.4/lib/gcc/sparc-linux/3.4.4/soft/v8/libgcc.a(_si_to_df.oS)
 .debug_line    0x0000000000001130       0x75 /opt/sparc-linux-3.4.4/lib/gcc/sparc-linux/3.4.4/soft/v8/libgcc.a(_df_to_si.oS)
 .debug_line    0x00000000000011a5       0x62 /opt/sparc-linux-3.4.4/lib/gcc/sparc-linux/3.4.4/soft/v8/libgcc.a(_make_df.oS)
 .debug_line    0x0000000000001207       0x4d /opt/sparc-linux-3.4.4/lib/gcc/sparc-linux/3.4.4/soft/v8/libgcc.a(_thenan_df.oS)
 .debug_line    0x0000000000001254       0xcc /opt/sparc-linux-3.4.4/lib/gcc/sparc-linux/3.4.4/soft/v8/libgcc.a(_clz.oS)
 .debug_line    0x0000000000001320       0xad /opt/sparc-linux-3.4.4/lib/gcc/sparc-linux/3.4.4/soft/v8/libgcc.a(_pack_sf.oS)
 .debug_line    0x00000000000013cd       0x8e /opt/sparc-linux-3.4.4/lib/gcc/sparc-linux/3.4.4/soft/v8/libgcc.a(_unpack_sf.oS)
 .debug_line    0x000000000000145b       0xb9 /opt/sparc-linux-3.4.4/lib/gcc/sparc-linux/3.4.4/soft/v8/libgcc.a(_pack_df.oS)
 .debug_line    0x0000000000001514       0x95 /opt/sparc-linux-3.4.4/lib/gcc/sparc-linux/3.4.4/soft/v8/libgcc.a(_unpack_df.oS)
 .debug_line    0x00000000000015a9       0x97 /opt/sparc-linux-3.4.4/lib/gcc/sparc-linux/3.4.4/soft/v8/libgcc.a(_fpcmp_parts_df.oS)
 .debug_line    0x0000000000001640       0xf5 /opt/sparc-linux-3.4.4/lib/gcc/sparc-linux/3.4.4/soft/v8/libgcc.a(_ashldi3.oS)

.debug_frame    0x0000000000000000      0x4d8
 *(SORT(.debug_frame))
 .debug_frame   0x0000000000000000       0x20 /opt/sparc-linux-3.4.4/lib/gcc/sparc-linux/3.4.4/soft/v8/libgcc.a(_lshrdi3.oS)
 .debug_frame   0x0000000000000020       0x20 /opt/sparc-linux-3.4.4/lib/gcc/sparc-linux/3.4.4/soft/v8/libgcc.a(_cmpdi2.oS)
 .debug_frame   0x0000000000000040       0x28 /opt/sparc-linux-3.4.4/lib/gcc/sparc-linux/3.4.4/soft/v8/libgcc.a(_floatdidf.oS)
 .debug_frame   0x0000000000000068       0x28 /opt/sparc-linux-3.4.4/lib/gcc/sparc-linux/3.4.4/soft/v8/libgcc.a(_fixunsdfsi.oS)
 .debug_frame   0x0000000000000090       0x28 /opt/sparc-linux-3.4.4/lib/gcc/sparc-linux/3.4.4/soft/v8/libgcc.a(_divdi3.oS)
 .debug_frame   0x00000000000000b8       0x28 /opt/sparc-linux-3.4.4/lib/gcc/sparc-linux/3.4.4/soft/v8/libgcc.a(_moddi3.oS)
 .debug_frame   0x00000000000000e0       0x28 /opt/sparc-linux-3.4.4/lib/gcc/sparc-linux/3.4.4/soft/v8/libgcc.a(_udivdi3.oS)
 .debug_frame   0x0000000000000108       0x28 /opt/sparc-linux-3.4.4/lib/gcc/sparc-linux/3.4.4/soft/v8/libgcc.a(_umoddi3.oS)
 .debug_frame   0x0000000000000130       0x58 /opt/sparc-linux-3.4.4/lib/gcc/sparc-linux/3.4.4/soft/v8/libgcc.a(_addsub_sf.oS)
 .debug_frame   0x0000000000000188       0x28 /opt/sparc-linux-3.4.4/lib/gcc/sparc-linux/3.4.4/soft/v8/libgcc.a(_mul_sf.oS)
 .debug_frame   0x00000000000001b0       0x28 /opt/sparc-linux-3.4.4/lib/gcc/sparc-linux/3.4.4/soft/v8/libgcc.a(_si_to_sf.oS)
 .debug_frame   0x00000000000001d8       0x28 /opt/sparc-linux-3.4.4/lib/gcc/sparc-linux/3.4.4/soft/v8/libgcc.a(_sf_to_df.oS)
 .debug_frame   0x0000000000000200       0x58 /opt/sparc-linux-3.4.4/lib/gcc/sparc-linux/3.4.4/soft/v8/libgcc.a(_addsub_df.oS)
 .debug_frame   0x0000000000000258       0x28 /opt/sparc-linux-3.4.4/lib/gcc/sparc-linux/3.4.4/soft/v8/libgcc.a(_mul_df.oS)
 .debug_frame   0x0000000000000280       0x28 /opt/sparc-linux-3.4.4/lib/gcc/sparc-linux/3.4.4/soft/v8/libgcc.a(_div_df.oS)
 .debug_frame   0x00000000000002a8       0x28 /opt/sparc-linux-3.4.4/lib/gcc/sparc-linux/3.4.4/soft/v8/libgcc.a(_eq_df.oS)
 .debug_frame   0x00000000000002d0       0x28 /opt/sparc-linux-3.4.4/lib/gcc/sparc-linux/3.4.4/soft/v8/libgcc.a(_ne_df.oS)
 .debug_frame   0x00000000000002f8       0x28 /opt/sparc-linux-3.4.4/lib/gcc/sparc-linux/3.4.4/soft/v8/libgcc.a(_gt_df.oS)
 .debug_frame   0x0000000000000320       0x28 /opt/sparc-linux-3.4.4/lib/gcc/sparc-linux/3.4.4/soft/v8/libgcc.a(_ge_df.oS)
 .debug_frame   0x0000000000000348       0x28 /opt/sparc-linux-3.4.4/lib/gcc/sparc-linux/3.4.4/soft/v8/libgcc.a(_lt_df.oS)
 .debug_frame   0x0000000000000370       0x28 /opt/sparc-linux-3.4.4/lib/gcc/sparc-linux/3.4.4/soft/v8/libgcc.a(_le_df.oS)
 .debug_frame   0x0000000000000398       0x28 /opt/sparc-linux-3.4.4/lib/gcc/sparc-linux/3.4.4/soft/v8/libgcc.a(_si_to_df.oS)
 .debug_frame   0x00000000000003c0       0x28 /opt/sparc-linux-3.4.4/lib/gcc/sparc-linux/3.4.4/soft/v8/libgcc.a(_df_to_si.oS)
 .debug_frame   0x00000000000003e8       0x28 /opt/sparc-linux-3.4.4/lib/gcc/sparc-linux/3.4.4/soft/v8/libgcc.a(_make_df.oS)
 .debug_frame   0x0000000000000410       0x20 /opt/sparc-linux-3.4.4/lib/gcc/sparc-linux/3.4.4/soft/v8/libgcc.a(_pack_sf.oS)
 .debug_frame   0x0000000000000430       0x20 /opt/sparc-linux-3.4.4/lib/gcc/sparc-linux/3.4.4/soft/v8/libgcc.a(_unpack_sf.oS)
 .debug_frame   0x0000000000000450       0x28 /opt/sparc-linux-3.4.4/lib/gcc/sparc-linux/3.4.4/soft/v8/libgcc.a(_pack_df.oS)
 .debug_frame   0x0000000000000478       0x20 /opt/sparc-linux-3.4.4/lib/gcc/sparc-linux/3.4.4/soft/v8/libgcc.a(_unpack_df.oS)
 .debug_frame   0x0000000000000498       0x20 /opt/sparc-linux-3.4.4/lib/gcc/sparc-linux/3.4.4/soft/v8/libgcc.a(_fpcmp_parts_df.oS)
 .debug_frame   0x00000000000004b8       0x20 /opt/sparc-linux-3.4.4/lib/gcc/sparc-linux/3.4.4/soft/v8/libgcc.a(_ashldi3.oS)

.debug_str      0x0000000000000000      0x580
 *(SORT(.debug_str))
 .debug_str     0x0000000000000000      0x25d /opt/sparc-linux-3.4.4/lib/gcc/sparc-linux/3.4.4/soft/v8/libgcc.a(_lshrdi3.oS)
                                        0x2ac (size before relaxing)
 .debug_str     0x000000000000025d        0x9 /opt/sparc-linux-3.4.4/lib/gcc/sparc-linux/3.4.4/soft/v8/libgcc.a(_cmpdi2.oS)
                                        0x29b (size before relaxing)
 .debug_str     0x0000000000000266       0x13 /opt/sparc-linux-3.4.4/lib/gcc/sparc-linux/3.4.4/soft/v8/libgcc.a(_floatdidf.oS)
                                        0x27e (size before relaxing)
 .debug_str     0x0000000000000279        0xd /opt/sparc-linux-3.4.4/lib/gcc/sparc-linux/3.4.4/soft/v8/libgcc.a(_fixunsdfsi.oS)
                                        0x280 (size before relaxing)
 .debug_str     0x0000000000000286       0x35 /opt/sparc-linux-3.4.4/lib/gcc/sparc-linux/3.4.4/soft/v8/libgcc.a(_divdi3.oS)
                                        0x2cf (size before relaxing)
 .debug_str     0x00000000000002bb        0x9 /opt/sparc-linux-3.4.4/lib/gcc/sparc-linux/3.4.4/soft/v8/libgcc.a(_moddi3.oS)
                                        0x2cf (size before relaxing)
 .debug_str     0x00000000000002c4        0xa /opt/sparc-linux-3.4.4/lib/gcc/sparc-linux/3.4.4/soft/v8/libgcc.a(_udivdi3.oS)
                                        0x2c6 (size before relaxing)
 .debug_str     0x00000000000002ce        0xa /opt/sparc-linux-3.4.4/lib/gcc/sparc-linux/3.4.4/soft/v8/libgcc.a(_umoddi3.oS)
                                        0x2c6 (size before relaxing)
 .debug_str     0x00000000000002d8      0x136 /opt/sparc-linux-3.4.4/lib/gcc/sparc-linux/3.4.4/soft/v8/libgcc.a(_addsub_sf.oS)
                                        0x20a (size before relaxing)
 .debug_str     0x000000000000040e       0x1d /opt/sparc-linux-3.4.4/lib/gcc/sparc-linux/3.4.4/soft/v8/libgcc.a(_mul_sf.oS)
                                        0x1c7 (size before relaxing)
 .debug_str     0x000000000000042b        0xc /opt/sparc-linux-3.4.4/lib/gcc/sparc-linux/3.4.4/soft/v8/libgcc.a(_si_to_sf.oS)
                                        0x185 (size before relaxing)
 .debug_str     0x0000000000000437        0xe /opt/sparc-linux-3.4.4/lib/gcc/sparc-linux/3.4.4/soft/v8/libgcc.a(_sf_to_df.oS)
                                        0x1a6 (size before relaxing)
 .debug_str     0x0000000000000445        0x0 /opt/sparc-linux-3.4.4/lib/gcc/sparc-linux/3.4.4/soft/v8/libgcc.a(_thenan_sf.oS)
                                        0x15c (size before relaxing)
 .debug_str     0x0000000000000445       0x2d /opt/sparc-linux-3.4.4/lib/gcc/sparc-linux/3.4.4/soft/v8/libgcc.a(_addsub_df.oS)
                                        0x210 (size before relaxing)
 .debug_str     0x0000000000000472       0x33 /opt/sparc-linux-3.4.4/lib/gcc/sparc-linux/3.4.4/soft/v8/libgcc.a(_mul_df.oS)
                                        0x1e8 (size before relaxing)
 .debug_str     0x00000000000004a5       0x35 /opt/sparc-linux-3.4.4/lib/gcc/sparc-linux/3.4.4/soft/v8/libgcc.a(_div_df.oS)
                                        0x1d8 (size before relaxing)
 .debug_str     0x00000000000004da        0x8 /opt/sparc-linux-3.4.4/lib/gcc/sparc-linux/3.4.4/soft/v8/libgcc.a(_eq_df.oS)
                                        0x1b2 (size before relaxing)
 .debug_str     0x00000000000004e2        0x8 /opt/sparc-linux-3.4.4/lib/gcc/sparc-linux/3.4.4/soft/v8/libgcc.a(_ne_df.oS)
                                        0x1b2 (size before relaxing)
 .debug_str     0x00000000000004ea        0x8 /opt/sparc-linux-3.4.4/lib/gcc/sparc-linux/3.4.4/soft/v8/libgcc.a(_gt_df.oS)
                                        0x1b2 (size before relaxing)
 .debug_str     0x00000000000004f2        0x8 /opt/sparc-linux-3.4.4/lib/gcc/sparc-linux/3.4.4/soft/v8/libgcc.a(_ge_df.oS)
                                        0x1b2 (size before relaxing)
 .debug_str     0x00000000000004fa        0x8 /opt/sparc-linux-3.4.4/lib/gcc/sparc-linux/3.4.4/soft/v8/libgcc.a(_lt_df.oS)
                                        0x1b2 (size before relaxing)
 .debug_str     0x0000000000000502        0x8 /opt/sparc-linux-3.4.4/lib/gcc/sparc-linux/3.4.4/soft/v8/libgcc.a(_le_df.oS)
                                        0x1b2 (size before relaxing)
 .debug_str     0x000000000000050a        0xc /opt/sparc-linux-3.4.4/lib/gcc/sparc-linux/3.4.4/soft/v8/libgcc.a(_si_to_df.oS)
                                        0x185 (size before relaxing)
 .debug_str     0x0000000000000516       0x11 /opt/sparc-linux-3.4.4/lib/gcc/sparc-linux/3.4.4/soft/v8/libgcc.a(_df_to_si.oS)
                                        0x1b5 (size before relaxing)
 .debug_str     0x0000000000000527        0xa /opt/sparc-linux-3.4.4/lib/gcc/sparc-linux/3.4.4/soft/v8/libgcc.a(_make_df.oS)
                                        0x172 (size before relaxing)
 .debug_str     0x0000000000000531        0x0 /opt/sparc-linux-3.4.4/lib/gcc/sparc-linux/3.4.4/soft/v8/libgcc.a(_thenan_df.oS)
                                        0x15c (size before relaxing)
 .debug_str     0x0000000000000531        0x0 /opt/sparc-linux-3.4.4/lib/gcc/sparc-linux/3.4.4/soft/v8/libgcc.a(_clz.oS)
                                        0x276 (size before relaxing)
 .debug_str     0x0000000000000531       0x16 /opt/sparc-linux-3.4.4/lib/gcc/sparc-linux/3.4.4/soft/v8/libgcc.a(_pack_sf.oS)
                                        0x1a7 (size before relaxing)
 .debug_str     0x0000000000000547        0xb /opt/sparc-linux-3.4.4/lib/gcc/sparc-linux/3.4.4/soft/v8/libgcc.a(_unpack_sf.oS)
                                        0x196 (size before relaxing)
 .debug_str     0x0000000000000552        0x9 /opt/sparc-linux-3.4.4/lib/gcc/sparc-linux/3.4.4/soft/v8/libgcc.a(_pack_df.oS)
                                        0x1ad (size before relaxing)
 .debug_str     0x000000000000055b        0xb /opt/sparc-linux-3.4.4/lib/gcc/sparc-linux/3.4.4/soft/v8/libgcc.a(_unpack_df.oS)
                                        0x19c (size before relaxing)
 .debug_str     0x0000000000000566       0x10 /opt/sparc-linux-3.4.4/lib/gcc/sparc-linux/3.4.4/soft/v8/libgcc.a(_fpcmp_parts_df.oS)
                                        0x172 (size before relaxing)
 .debug_str     0x0000000000000576        0xa /opt/sparc-linux-3.4.4/lib/gcc/sparc-linux/3.4.4/soft/v8/libgcc.a(_ashldi3.oS)
                                        0x2ac (size before relaxing)

.debug_loc
 *(SORT(.debug_loc))

.debug_macinfo
 *(SORT(.debug_macinfo))

.debug_weaknames
 *(SORT(.debug_weaknames))

.debug_funcnames
 *(SORT(.debug_funcnames))

.debug_typenames
 *(SORT(.debug_typenames))

.debug_varnames
 *(SORT(.debug_varnames))

/DISCARD/
 *(SORT(.note.GNU-stack))
OUTPUT(busybox_unstripped elf32-sparc)

.debug_ranges   0x0000000000000000      0x208
 .debug_ranges  0x0000000000000000       0x18 /opt/sparc-linux-3.4.4/lib/gcc/sparc-linux/3.4.4/soft/v8/libgcc.a(_lshrdi3.oS)
 .debug_ranges  0x0000000000000018       0x40 /opt/sparc-linux-3.4.4/lib/gcc/sparc-linux/3.4.4/soft/v8/libgcc.a(_divdi3.oS)
 .debug_ranges  0x0000000000000058       0x58 /opt/sparc-linux-3.4.4/lib/gcc/sparc-linux/3.4.4/soft/v8/libgcc.a(_moddi3.oS)
 .debug_ranges  0x00000000000000b0       0x30 /opt/sparc-linux-3.4.4/lib/gcc/sparc-linux/3.4.4/soft/v8/libgcc.a(_udivdi3.oS)
 .debug_ranges  0x00000000000000e0       0x48 /opt/sparc-linux-3.4.4/lib/gcc/sparc-linux/3.4.4/soft/v8/libgcc.a(_umoddi3.oS)
 .debug_ranges  0x0000000000000128       0x18 /opt/sparc-linux-3.4.4/lib/gcc/sparc-linux/3.4.4/soft/v8/libgcc.a(_addsub_sf.oS)
 .debug_ranges  0x0000000000000140       0x28 /opt/sparc-linux-3.4.4/lib/gcc/sparc-linux/3.4.4/soft/v8/libgcc.a(_mul_sf.oS)
 .debug_ranges  0x0000000000000168       0x20 /opt/sparc-linux-3.4.4/lib/gcc/sparc-linux/3.4.4/soft/v8/libgcc.a(_addsub_df.oS)
 .debug_ranges  0x0000000000000188       0x30 /opt/sparc-linux-3.4.4/lib/gcc/sparc-linux/3.4.4/soft/v8/libgcc.a(_mul_df.oS)
 .debug_ranges  0x00000000000001b8       0x18 /opt/sparc-linux-3.4.4/lib/gcc/sparc-linux/3.4.4/soft/v8/libgcc.a(_pack_sf.oS)
 .debug_ranges  0x00000000000001d0       0x20 /opt/sparc-linux-3.4.4/lib/gcc/sparc-linux/3.4.4/soft/v8/libgcc.a(_pack_df.oS)
 .debug_ranges  0x00000000000001f0       0x18 /opt/sparc-linux-3.4.4/lib/gcc/sparc-linux/3.4.4/soft/v8/libgcc.a(_ashldi3.oS)
